ARM GAS  C:\Users\zhangjd\AppData\Local\Temp\ccG5aaWp.s 			page 1


   1              		.cpu cortex-m3
   2              		.eabi_attribute 20, 1
   3              		.eabi_attribute 21, 1
   4              		.eabi_attribute 23, 3
   5              		.eabi_attribute 24, 1
   6              		.eabi_attribute 25, 1
   7              		.eabi_attribute 26, 1
   8              		.eabi_attribute 30, 1
   9              		.eabi_attribute 34, 1
  10              		.eabi_attribute 18, 4
  11              		.file	"jy62.c"
  12              		.text
  13              	.Ltext0:
  14              		.cfi_sections	.debug_frame
  15              		.section	.text.jy62_Init,"ax",%progbits
  16              		.align	1
  17              		.global	jy62_Init
  18              		.arch armv7-m
  19              		.syntax unified
  20              		.thumb
  21              		.thumb_func
  22              		.fpu softvfp
  24              	jy62_Init:
  25              	.LVL0:
  26              	.LFB65:
  27              		.file 1 "Core/Src/jy62.c"
   1:Core/Src/jy62.c **** // -------------------------jy62.c----------------------------
   2:Core/Src/jy62.c **** #include "jy62.h"
   3:Core/Src/jy62.c **** 
   4:Core/Src/jy62.c **** uint8_t PrevLen, SuccLen;
   5:Core/Src/jy62.c **** uint8_t jy62PrevInfoHolder[11];
   6:Core/Src/jy62.c **** uint8_t jy62Receive[JY62_MESSAGE_LENGTH]; //ÂÆûÊó∂ËÆ∞ÂΩïÊî∂Âà∞ÁöÑ‰ø°ÊÅØ
   7:Core/Src/jy62.c **** uint8_t jy62Message[JY62_MESSAGE_LENGTH]; //Á°ÆËÆ§Êó†ËØØÂêéÁî®‰∫éËß£Á†ÅÁöÑ‰ø°ÊÅØ
   8:Core/Src/jy62.c **** uint8_t initAngle[3] = {0xFF, 0xAA, 0x52};
   9:Core/Src/jy62.c **** uint8_t calibrateAcce[3] = {0xFF, 0xAA, 0x67};
  10:Core/Src/jy62.c **** uint8_t setBaud115200[3] = {0xFF, 0xAA, 0x63};
  11:Core/Src/jy62.c **** uint8_t setBaud9600[3] = {0xFF, 0xAA, 0x64};
  12:Core/Src/jy62.c **** uint8_t setHorizontal[3] = {0xFF, 0xAA, 0x65};
  13:Core/Src/jy62.c **** uint8_t setVertical[3] = {0xFF, 0xAA, 0x66};
  14:Core/Src/jy62.c **** uint8_t sleepAndAwake[3] = {0xFF, 0xAA, 0x60};
  15:Core/Src/jy62.c **** extern uint8_t jy62Receive[JY62_MESSAGE_LENGTH]; //ÂÆûÊó∂ËÆ∞ÂΩïÊî∂Âà∞ÁöÑ‰ø°ÊÅØ
  16:Core/Src/jy62.c **** extern uint8_t jy62Message[JY62_MESSAGE_LENGTH]; //Á°ÆËÆ§Êó†ËØØÂêéÁî®‰∫éËß£Á†ÅÁöÑ‰ø°ÊÅØ
  17:Core/Src/jy62.c **** UART_HandleTypeDef *jy62_huart;
  18:Core/Src/jy62.c **** 
  19:Core/Src/jy62.c **** struct Acce Accelerate;  //ÂÇ®Â≠òÂä†ÈÄüÂ∫¶
  20:Core/Src/jy62.c **** struct Velo Velocity;    //ÂÇ®Â≠òËßíÈÄüÂ∫¶
  21:Core/Src/jy62.c **** struct Angl Angle;       //ÂÇ®Â≠òËßíÂ∫¶ÂÄº
  22:Core/Src/jy62.c **** struct Temp Temperature; //ÂÇ®Â≠òÊ∏©Â∫¶ÂÄº
  23:Core/Src/jy62.c **** /***********************Êé•Âè£****************************/
  24:Core/Src/jy62.c **** 
  25:Core/Src/jy62.c **** void jy62_Init(UART_HandleTypeDef *huart)
  26:Core/Src/jy62.c **** {
  28              		.loc 1 26 1 view -0
  29              		.cfi_startproc
  30              		@ args = 0, pretend = 0, frame = 0
  31              		@ frame_needed = 0, uses_anonymous_args = 0
  32              		.loc 1 26 1 is_stmt 0 view .LVU1
ARM GAS  C:\Users\zhangjd\AppData\Local\Temp\ccG5aaWp.s 			page 2


  33 0000 08B5     		push	{r3, lr}
  34              	.LCFI0:
  35              		.cfi_def_cfa_offset 8
  36              		.cfi_offset 3, -8
  37              		.cfi_offset 14, -4
  27:Core/Src/jy62.c ****     jy62_huart = huart;
  38              		.loc 1 27 5 is_stmt 1 view .LVU2
  39              		.loc 1 27 16 is_stmt 0 view .LVU3
  40 0002 034B     		ldr	r3, .L3
  41 0004 1860     		str	r0, [r3]
  28:Core/Src/jy62.c ****     HAL_UART_Receive_DMA(jy62_huart, jy62Receive, JY62_MESSAGE_LENGTH);
  42              		.loc 1 28 5 is_stmt 1 view .LVU4
  43 0006 0B22     		movs	r2, #11
  44 0008 0249     		ldr	r1, .L3+4
  45 000a FFF7FEFF 		bl	HAL_UART_Receive_DMA
  46              	.LVL1:
  29:Core/Src/jy62.c **** }
  47              		.loc 1 29 1 is_stmt 0 view .LVU5
  48 000e 08BD     		pop	{r3, pc}
  49              	.L4:
  50              		.align	2
  51              	.L3:
  52 0010 00000000 		.word	.LANCHOR0
  53 0014 00000000 		.word	.LANCHOR1
  54              		.cfi_endproc
  55              	.LFE65:
  57              		.section	.text.SetBaud,"ax",%progbits
  58              		.align	1
  59              		.global	SetBaud
  60              		.syntax unified
  61              		.thumb
  62              		.thumb_func
  63              		.fpu softvfp
  65              	SetBaud:
  66              	.LVL2:
  67              	.LFB67:
  30:Core/Src/jy62.c **** 
  31:Core/Src/jy62.c **** // void jy62MessageRecord(void)
  32:Core/Src/jy62.c **** // {
  33:Core/Src/jy62.c **** //     if (jy62Receive[0] == 0x55)
  34:Core/Src/jy62.c **** //     {
  35:Core/Src/jy62.c **** //         uint8_t sum = 0x00;
  36:Core/Src/jy62.c **** //         for (int i = 0; i < JY62_MESSAGE_LENGTH - 1; i++)
  37:Core/Src/jy62.c **** //         {
  38:Core/Src/jy62.c **** //             sum += jy62Receive[i];
  39:Core/Src/jy62.c **** //         }
  40:Core/Src/jy62.c **** //         if (sum == jy62Receive[JY62_MESSAGE_LENGTH - 1])
  41:Core/Src/jy62.c **** //         {
  42:Core/Src/jy62.c **** //             for (int i = 0; i < JY62_MESSAGE_LENGTH; i++)
  43:Core/Src/jy62.c **** //             {
  44:Core/Src/jy62.c **** //                 jy62Message[i] = jy62Receive[i];
  45:Core/Src/jy62.c **** //             }
  46:Core/Src/jy62.c **** //             Decode();
  47:Core/Src/jy62.c **** //         }
  48:Core/Src/jy62.c **** //     }
  49:Core/Src/jy62.c **** //     HAL_UART_Receive_DMA(jy62_huart, jy62Receive, JY62_MESSAGE_LENGTH);
  50:Core/Src/jy62.c **** //}
ARM GAS  C:\Users\zhangjd\AppData\Local\Temp\ccG5aaWp.s 			page 3


  51:Core/Src/jy62.c **** 
  52:Core/Src/jy62.c **** //ÈôÄËû∫‰ª™Êé•Êî∂‰ø°ÊÅØÊé•Âè£ÁöÑ‰ºòÂåñÁâàÔºåÂèØ‰ª•Áªü‰∏ÄÂ§ÑÁêÜÊ≠£Â∏∏‰ª•Âèä‰∏¢‰ΩçÁöÑÊÉÖÂÜµ
  53:Core/Src/jy62.c **** void jy62MessageRecord(void)
  54:Core/Src/jy62.c **** {
  55:Core/Src/jy62.c ****     // PrevLen = Á¥ØËÆ°‰∏¢‰ΩçÊï∞ % 11 = Êú¨Êù°‰ø°ÊÅØË¢´‰∏äÊ¨°Êé•Êî∂Êìç‰ΩúÊé•Êî∂ÁöÑ‰ΩçÊï∞ÔºàÂ§¥ÈÉ®Âà
  56:Core/Src/jy62.c ****     // SuccLen = 11 - PrevLen = Êú¨Êù°‰ø°ÊÅØ‰∏≠Ë¢´Êú¨Ê¨°Êé•Êî∂Êìç‰ΩúÊé•Êî∂ÁöÑ‰ΩçÊï∞ÔºàÂ∞æÈÉ®ÂàÜÔºâ
  57:Core/Src/jy62.c ****     //ÁâπÂà´ÁöÑÔºåÂ¶ÇÊûú‰∏¢‰Ωç‰∏çÂèëÁîüÔºåÈÇ£‰πàPrevLenÂßãÁªà‰∏∫0ÔºåSuccLenÂßãÁªà‰∏∫11ÔºåÊ≠§Âç≥triv
  58:Core/Src/jy62.c ****     //‰ªÖÂΩì‰∏¢‰ΩçÂÜçÊ¨°ÂèëÁîüÊó∂ÊâçÈúÄË¶ÅÊõ¥Êñ∞PrevLenÂíåSuccLen
  59:Core/Src/jy62.c ****     //È¶ñÂÖàËøõË°åÊ†°È™åÔºöÊåâÁÖßSuccLenÊ£ÄÊü•ÁêÜËÆ∫‰∏äÂâ©‰ΩôÈÉ®ÂàÜÁöÑÂêé‰∏Ä‰ΩçÊòØÂê¶‰∏∫0x55ÔºåÂç≥Ê
  60:Core/Src/jy62.c ****     if (jy62Receive[SuccLen % JY62_MESSAGE_LENGTH] == 0x55)
  61:Core/Src/jy62.c ****     {
  62:Core/Src/jy62.c ****         //Â¶ÇÊûúÊòØÔºåÂ∞ÜÊú¨Ê¨°Êé•Êî∂Âà∞‰ø°ÊÅØÂ±û‰∫é‰∏ä‰∏ÄÊù°ÁöÑÈÉ®ÂàÜÂΩïÂÖ•Holder‰∏≠ÔºåÊé•Âú®Â∑≤Êé
  63:Core/Src/jy62.c ****         for (int i = 0; i < SuccLen % JY62_MESSAGE_LENGTH; i++)
  64:Core/Src/jy62.c ****         {
  65:Core/Src/jy62.c ****             jy62PrevInfoHolder[PrevLen + i] = jy62Receive[i];
  66:Core/Src/jy62.c ****         }
  67:Core/Src/jy62.c ****         //Ê±ÇÂíåÔºåÂØπÊ†°È™åÂíåËøõË°åÊ£ÄÊü•
  68:Core/Src/jy62.c ****         uint8_t sum = 0x00;
  69:Core/Src/jy62.c ****         for (int i = 0; i < JY62_MESSAGE_LENGTH - 1; i++)
  70:Core/Src/jy62.c ****         {
  71:Core/Src/jy62.c ****             sum += jy62PrevInfoHolder[i];
  72:Core/Src/jy62.c ****         }
  73:Core/Src/jy62.c ****         //Â¶ÇÊûúÁ¨¶ÂêàÂ∞±ËæìÂÖ•Âà∞Message‰∏≠ÔºåÁÑ∂ÂêéËß£Á†Å
  74:Core/Src/jy62.c ****         if (sum == jy62PrevInfoHolder[JY62_MESSAGE_LENGTH - 1])
  75:Core/Src/jy62.c ****         {
  76:Core/Src/jy62.c ****             for (int i = 0; i < JY62_MESSAGE_LENGTH; i++)
  77:Core/Src/jy62.c ****             {
  78:Core/Src/jy62.c ****                 jy62Message[i] = jy62PrevInfoHolder[i];
  79:Core/Src/jy62.c ****             }
  80:Core/Src/jy62.c ****             Decode();
  81:Core/Src/jy62.c ****         }
  82:Core/Src/jy62.c ****     }
  83:Core/Src/jy62.c ****     else
  84:Core/Src/jy62.c ****     {
  85:Core/Src/jy62.c ****         //Âê¶ÂàôÈúÄË¶ÅÊõ¥Êñ∞SuccLenÂíåPrevLen„ÄÇÁî±‰∫é‰∏çËÉΩÁ°ÆÂÆö‰∏¢‰ΩçÂ§öÂ∞ëÔºàÂèØËÉΩË∂ÖËøá11ÔºâÔ
  86:Core/Src/jy62.c ****         SuccLen = 0;
  87:Core/Src/jy62.c ****         while (SuccLen < JY62_MESSAGE_LENGTH && jy62Receive[SuccLen] != 0x55)
  88:Core/Src/jy62.c ****         {
  89:Core/Src/jy62.c ****             SuccLen++;
  90:Core/Src/jy62.c ****         }
  91:Core/Src/jy62.c ****         PrevLen = JY62_MESSAGE_LENGTH - SuccLen;
  92:Core/Src/jy62.c ****     }
  93:Core/Src/jy62.c ****     //ÁÑ∂ÂêéÁªü‰∏ÄËøõÂÖ•HolderÁöÑË¶ÜÁõñÔºåÂ∞ÜÊú¨Ê¨°Êé•Êî∂Êìç‰Ωú‰∏≠Êî∂Âà∞ÁöÑ‰∏ã‰∏ÄÊ¨°‰ø°ÊÅØÁöÑÂ§¥ÈÉ®
  94:Core/Src/jy62.c ****     for (int i = SuccLen % JY62_MESSAGE_LENGTH; i < JY62_MESSAGE_LENGTH; i++)
  95:Core/Src/jy62.c ****     {
  96:Core/Src/jy62.c ****         jy62PrevInfoHolder[i - SuccLen % JY62_MESSAGE_LENGTH] = jy62Receive[i];
  97:Core/Src/jy62.c ****     }
  98:Core/Src/jy62.c ****     //ÈáçÊñ∞ÂºÄÂßãÊé•Êî∂
  99:Core/Src/jy62.c ****     HAL_UART_Receive_DMA(jy62_huart, jy62Receive, JY62_MESSAGE_LENGTH);
 100:Core/Src/jy62.c **** }
 101:Core/Src/jy62.c **** 
 102:Core/Src/jy62.c **** void SetBaud(int Baud)
 103:Core/Src/jy62.c **** {
  68              		.loc 1 103 1 is_stmt 1 view -0
  69              		.cfi_startproc
  70              		@ args = 0, pretend = 0, frame = 0
  71              		@ frame_needed = 0, uses_anonymous_args = 0
ARM GAS  C:\Users\zhangjd\AppData\Local\Temp\ccG5aaWp.s 			page 4


  72              		.loc 1 103 1 is_stmt 0 view .LVU7
  73 0000 08B5     		push	{r3, lr}
  74              	.LCFI1:
  75              		.cfi_def_cfa_offset 8
  76              		.cfi_offset 3, -8
  77              		.cfi_offset 14, -4
 104:Core/Src/jy62.c ****     if (Baud == 115200)
  78              		.loc 1 104 5 is_stmt 1 view .LVU8
  79              		.loc 1 104 8 is_stmt 0 view .LVU9
  80 0002 B0F5E13F 		cmp	r0, #115200
  81 0006 03D0     		beq	.L9
 105:Core/Src/jy62.c ****     {
 106:Core/Src/jy62.c ****         HAL_UART_Transmit(jy62_huart, setBaud115200, 3, HAL_MAX_DELAY);
 107:Core/Src/jy62.c ****     }
 108:Core/Src/jy62.c ****     else if (Baud == 9600)
  82              		.loc 1 108 10 is_stmt 1 view .LVU10
  83              		.loc 1 108 13 is_stmt 0 view .LVU11
  84 0008 B0F5165F 		cmp	r0, #9600
  85 000c 09D0     		beq	.L10
  86              	.LVL3:
  87              	.L5:
 109:Core/Src/jy62.c ****     {
 110:Core/Src/jy62.c ****         HAL_UART_Transmit(jy62_huart, setBaud115200, 3, HAL_MAX_DELAY);
 111:Core/Src/jy62.c ****     }
 112:Core/Src/jy62.c **** }
  88              		.loc 1 112 1 view .LVU12
  89 000e 08BD     		pop	{r3, pc}
  90              	.LVL4:
  91              	.L9:
 106:Core/Src/jy62.c ****     }
  92              		.loc 1 106 9 is_stmt 1 view .LVU13
  93 0010 4FF0FF33 		mov	r3, #-1
  94 0014 0322     		movs	r2, #3
  95 0016 0749     		ldr	r1, .L11
  96 0018 0748     		ldr	r0, .L11+4
  97              	.LVL5:
 106:Core/Src/jy62.c ****     }
  98              		.loc 1 106 9 is_stmt 0 view .LVU14
  99 001a 0068     		ldr	r0, [r0]
 100 001c FFF7FEFF 		bl	HAL_UART_Transmit
 101              	.LVL6:
 102 0020 F5E7     		b	.L5
 103              	.LVL7:
 104              	.L10:
 110:Core/Src/jy62.c ****     }
 105              		.loc 1 110 9 is_stmt 1 view .LVU15
 106 0022 4FF0FF33 		mov	r3, #-1
 107 0026 0322     		movs	r2, #3
 108 0028 0249     		ldr	r1, .L11
 109 002a 0348     		ldr	r0, .L11+4
 110              	.LVL8:
 110:Core/Src/jy62.c ****     }
 111              		.loc 1 110 9 is_stmt 0 view .LVU16
 112 002c 0068     		ldr	r0, [r0]
 113 002e FFF7FEFF 		bl	HAL_UART_Transmit
 114              	.LVL9:
 115              		.loc 1 112 1 view .LVU17
ARM GAS  C:\Users\zhangjd\AppData\Local\Temp\ccG5aaWp.s 			page 5


 116 0032 ECE7     		b	.L5
 117              	.L12:
 118              		.align	2
 119              	.L11:
 120 0034 00000000 		.word	.LANCHOR2
 121 0038 00000000 		.word	.LANCHOR0
 122              		.cfi_endproc
 123              	.LFE67:
 125              		.section	.text.SetHorizontal,"ax",%progbits
 126              		.align	1
 127              		.global	SetHorizontal
 128              		.syntax unified
 129              		.thumb
 130              		.thumb_func
 131              		.fpu softvfp
 133              	SetHorizontal:
 134              	.LFB68:
 113:Core/Src/jy62.c **** 
 114:Core/Src/jy62.c **** void SetHorizontal()
 115:Core/Src/jy62.c **** {
 135              		.loc 1 115 1 is_stmt 1 view -0
 136              		.cfi_startproc
 137              		@ args = 0, pretend = 0, frame = 0
 138              		@ frame_needed = 0, uses_anonymous_args = 0
 139 0000 08B5     		push	{r3, lr}
 140              	.LCFI2:
 141              		.cfi_def_cfa_offset 8
 142              		.cfi_offset 3, -8
 143              		.cfi_offset 14, -4
 116:Core/Src/jy62.c ****     HAL_UART_Transmit(jy62_huart, setHorizontal, 3, HAL_MAX_DELAY);
 144              		.loc 1 116 5 view .LVU19
 145 0002 4FF0FF33 		mov	r3, #-1
 146 0006 0322     		movs	r2, #3
 147 0008 0249     		ldr	r1, .L15
 148 000a 0348     		ldr	r0, .L15+4
 149 000c 0068     		ldr	r0, [r0]
 150 000e FFF7FEFF 		bl	HAL_UART_Transmit
 151              	.LVL10:
 117:Core/Src/jy62.c **** }
 152              		.loc 1 117 1 is_stmt 0 view .LVU20
 153 0012 08BD     		pop	{r3, pc}
 154              	.L16:
 155              		.align	2
 156              	.L15:
 157 0014 00000000 		.word	.LANCHOR3
 158 0018 00000000 		.word	.LANCHOR0
 159              		.cfi_endproc
 160              	.LFE68:
 162              		.section	.text.SetVertical,"ax",%progbits
 163              		.align	1
 164              		.global	SetVertical
 165              		.syntax unified
 166              		.thumb
 167              		.thumb_func
 168              		.fpu softvfp
 170              	SetVertical:
 171              	.LFB69:
ARM GAS  C:\Users\zhangjd\AppData\Local\Temp\ccG5aaWp.s 			page 6


 118:Core/Src/jy62.c **** 
 119:Core/Src/jy62.c **** void SetVertical()
 120:Core/Src/jy62.c **** {
 172              		.loc 1 120 1 is_stmt 1 view -0
 173              		.cfi_startproc
 174              		@ args = 0, pretend = 0, frame = 0
 175              		@ frame_needed = 0, uses_anonymous_args = 0
 176 0000 08B5     		push	{r3, lr}
 177              	.LCFI3:
 178              		.cfi_def_cfa_offset 8
 179              		.cfi_offset 3, -8
 180              		.cfi_offset 14, -4
 121:Core/Src/jy62.c ****     HAL_UART_Transmit(jy62_huart, setVertical, 3, HAL_MAX_DELAY);
 181              		.loc 1 121 5 view .LVU22
 182 0002 4FF0FF33 		mov	r3, #-1
 183 0006 0322     		movs	r2, #3
 184 0008 0249     		ldr	r1, .L19
 185 000a 0348     		ldr	r0, .L19+4
 186 000c 0068     		ldr	r0, [r0]
 187 000e FFF7FEFF 		bl	HAL_UART_Transmit
 188              	.LVL11:
 122:Core/Src/jy62.c **** }
 189              		.loc 1 122 1 is_stmt 0 view .LVU23
 190 0012 08BD     		pop	{r3, pc}
 191              	.L20:
 192              		.align	2
 193              	.L19:
 194 0014 00000000 		.word	.LANCHOR4
 195 0018 00000000 		.word	.LANCHOR0
 196              		.cfi_endproc
 197              	.LFE69:
 199              		.section	.text.InitAngle,"ax",%progbits
 200              		.align	1
 201              		.global	InitAngle
 202              		.syntax unified
 203              		.thumb
 204              		.thumb_func
 205              		.fpu softvfp
 207              	InitAngle:
 208              	.LFB70:
 123:Core/Src/jy62.c **** 
 124:Core/Src/jy62.c **** void InitAngle()
 125:Core/Src/jy62.c **** {
 209              		.loc 1 125 1 is_stmt 1 view -0
 210              		.cfi_startproc
 211              		@ args = 0, pretend = 0, frame = 0
 212              		@ frame_needed = 0, uses_anonymous_args = 0
 213 0000 08B5     		push	{r3, lr}
 214              	.LCFI4:
 215              		.cfi_def_cfa_offset 8
 216              		.cfi_offset 3, -8
 217              		.cfi_offset 14, -4
 126:Core/Src/jy62.c ****     HAL_UART_Transmit(jy62_huart, initAngle, 3, HAL_MAX_DELAY);
 218              		.loc 1 126 5 view .LVU25
 219 0002 4FF0FF33 		mov	r3, #-1
 220 0006 0322     		movs	r2, #3
 221 0008 0249     		ldr	r1, .L23
ARM GAS  C:\Users\zhangjd\AppData\Local\Temp\ccG5aaWp.s 			page 7


 222 000a 0348     		ldr	r0, .L23+4
 223 000c 0068     		ldr	r0, [r0]
 224 000e FFF7FEFF 		bl	HAL_UART_Transmit
 225              	.LVL12:
 127:Core/Src/jy62.c **** }
 226              		.loc 1 127 1 is_stmt 0 view .LVU26
 227 0012 08BD     		pop	{r3, pc}
 228              	.L24:
 229              		.align	2
 230              	.L23:
 231 0014 00000000 		.word	.LANCHOR5
 232 0018 00000000 		.word	.LANCHOR0
 233              		.cfi_endproc
 234              	.LFE70:
 236              		.section	.text.Calibrate,"ax",%progbits
 237              		.align	1
 238              		.global	Calibrate
 239              		.syntax unified
 240              		.thumb
 241              		.thumb_func
 242              		.fpu softvfp
 244              	Calibrate:
 245              	.LFB71:
 128:Core/Src/jy62.c **** 
 129:Core/Src/jy62.c **** void Calibrate()
 130:Core/Src/jy62.c **** {
 246              		.loc 1 130 1 is_stmt 1 view -0
 247              		.cfi_startproc
 248              		@ args = 0, pretend = 0, frame = 0
 249              		@ frame_needed = 0, uses_anonymous_args = 0
 250 0000 08B5     		push	{r3, lr}
 251              	.LCFI5:
 252              		.cfi_def_cfa_offset 8
 253              		.cfi_offset 3, -8
 254              		.cfi_offset 14, -4
 131:Core/Src/jy62.c ****     HAL_UART_Transmit(jy62_huart, calibrateAcce, 3, HAL_MAX_DELAY);
 255              		.loc 1 131 5 view .LVU28
 256 0002 4FF0FF33 		mov	r3, #-1
 257 0006 0322     		movs	r2, #3
 258 0008 0249     		ldr	r1, .L27
 259 000a 0348     		ldr	r0, .L27+4
 260 000c 0068     		ldr	r0, [r0]
 261 000e FFF7FEFF 		bl	HAL_UART_Transmit
 262              	.LVL13:
 132:Core/Src/jy62.c **** }
 263              		.loc 1 132 1 is_stmt 0 view .LVU29
 264 0012 08BD     		pop	{r3, pc}
 265              	.L28:
 266              		.align	2
 267              	.L27:
 268 0014 00000000 		.word	.LANCHOR6
 269 0018 00000000 		.word	.LANCHOR0
 270              		.cfi_endproc
 271              	.LFE71:
 273              		.section	.text.SleepOrAwake,"ax",%progbits
 274              		.align	1
 275              		.global	SleepOrAwake
ARM GAS  C:\Users\zhangjd\AppData\Local\Temp\ccG5aaWp.s 			page 8


 276              		.syntax unified
 277              		.thumb
 278              		.thumb_func
 279              		.fpu softvfp
 281              	SleepOrAwake:
 282              	.LFB72:
 133:Core/Src/jy62.c **** 
 134:Core/Src/jy62.c **** void SleepOrAwake()
 135:Core/Src/jy62.c **** {
 283              		.loc 1 135 1 is_stmt 1 view -0
 284              		.cfi_startproc
 285              		@ args = 0, pretend = 0, frame = 0
 286              		@ frame_needed = 0, uses_anonymous_args = 0
 287 0000 08B5     		push	{r3, lr}
 288              	.LCFI6:
 289              		.cfi_def_cfa_offset 8
 290              		.cfi_offset 3, -8
 291              		.cfi_offset 14, -4
 136:Core/Src/jy62.c ****     HAL_UART_Transmit(jy62_huart, sleepAndAwake, 3, HAL_MAX_DELAY);
 292              		.loc 1 136 5 view .LVU31
 293 0002 4FF0FF33 		mov	r3, #-1
 294 0006 0322     		movs	r2, #3
 295 0008 0249     		ldr	r1, .L31
 296 000a 0348     		ldr	r0, .L31+4
 297 000c 0068     		ldr	r0, [r0]
 298 000e FFF7FEFF 		bl	HAL_UART_Transmit
 299              	.LVL14:
 137:Core/Src/jy62.c **** }
 300              		.loc 1 137 1 is_stmt 0 view .LVU32
 301 0012 08BD     		pop	{r3, pc}
 302              	.L32:
 303              		.align	2
 304              	.L31:
 305 0014 00000000 		.word	.LANCHOR7
 306 0018 00000000 		.word	.LANCHOR0
 307              		.cfi_endproc
 308              	.LFE72:
 310              		.section	.text.GetRoll,"ax",%progbits
 311              		.align	1
 312              		.global	GetRoll
 313              		.syntax unified
 314              		.thumb
 315              		.thumb_func
 316              		.fpu softvfp
 318              	GetRoll:
 319              	.LFB73:
 138:Core/Src/jy62.c **** 
 139:Core/Src/jy62.c **** float GetRoll()
 140:Core/Src/jy62.c **** {
 320              		.loc 1 140 1 is_stmt 1 view -0
 321              		.cfi_startproc
 322              		@ args = 0, pretend = 0, frame = 0
 323              		@ frame_needed = 0, uses_anonymous_args = 0
 324              		@ link register save eliminated.
 141:Core/Src/jy62.c ****     return Angle.roll;
 325              		.loc 1 141 5 view .LVU34
 142:Core/Src/jy62.c **** }
ARM GAS  C:\Users\zhangjd\AppData\Local\Temp\ccG5aaWp.s 			page 9


 326              		.loc 1 142 1 is_stmt 0 view .LVU35
 327 0000 014B     		ldr	r3, .L34
 328 0002 1868     		ldr	r0, [r3]	@ float
 329 0004 7047     		bx	lr
 330              	.L35:
 331 0006 00BF     		.align	2
 332              	.L34:
 333 0008 00000000 		.word	.LANCHOR8
 334              		.cfi_endproc
 335              	.LFE73:
 337              		.section	.text.GetPitch,"ax",%progbits
 338              		.align	1
 339              		.global	GetPitch
 340              		.syntax unified
 341              		.thumb
 342              		.thumb_func
 343              		.fpu softvfp
 345              	GetPitch:
 346              	.LFB74:
 143:Core/Src/jy62.c **** float GetPitch()
 144:Core/Src/jy62.c **** {
 347              		.loc 1 144 1 is_stmt 1 view -0
 348              		.cfi_startproc
 349              		@ args = 0, pretend = 0, frame = 0
 350              		@ frame_needed = 0, uses_anonymous_args = 0
 351              		@ link register save eliminated.
 145:Core/Src/jy62.c ****     return Angle.pitch;
 352              		.loc 1 145 5 view .LVU37
 146:Core/Src/jy62.c **** }
 353              		.loc 1 146 1 is_stmt 0 view .LVU38
 354 0000 014B     		ldr	r3, .L37
 355 0002 5868     		ldr	r0, [r3, #4]	@ float
 356 0004 7047     		bx	lr
 357              	.L38:
 358 0006 00BF     		.align	2
 359              	.L37:
 360 0008 00000000 		.word	.LANCHOR8
 361              		.cfi_endproc
 362              	.LFE74:
 364              		.section	.text.GetYaw,"ax",%progbits
 365              		.align	1
 366              		.global	GetYaw
 367              		.syntax unified
 368              		.thumb
 369              		.thumb_func
 370              		.fpu softvfp
 372              	GetYaw:
 373              	.LFB75:
 147:Core/Src/jy62.c **** float GetYaw()
 148:Core/Src/jy62.c **** {
 374              		.loc 1 148 1 is_stmt 1 view -0
 375              		.cfi_startproc
 376              		@ args = 0, pretend = 0, frame = 0
 377              		@ frame_needed = 0, uses_anonymous_args = 0
 378              		@ link register save eliminated.
 149:Core/Src/jy62.c ****     return Angle.yaw;
 379              		.loc 1 149 5 view .LVU40
ARM GAS  C:\Users\zhangjd\AppData\Local\Temp\ccG5aaWp.s 			page 10


 150:Core/Src/jy62.c **** }
 380              		.loc 1 150 1 is_stmt 0 view .LVU41
 381 0000 014B     		ldr	r3, .L40
 382 0002 9868     		ldr	r0, [r3, #8]	@ float
 383 0004 7047     		bx	lr
 384              	.L41:
 385 0006 00BF     		.align	2
 386              	.L40:
 387 0008 00000000 		.word	.LANCHOR8
 388              		.cfi_endproc
 389              	.LFE75:
 391              		.section	.text.GetTemperature,"ax",%progbits
 392              		.align	1
 393              		.global	GetTemperature
 394              		.syntax unified
 395              		.thumb
 396              		.thumb_func
 397              		.fpu softvfp
 399              	GetTemperature:
 400              	.LFB76:
 151:Core/Src/jy62.c **** 
 152:Core/Src/jy62.c **** float GetTemperature()
 153:Core/Src/jy62.c **** {
 401              		.loc 1 153 1 is_stmt 1 view -0
 402              		.cfi_startproc
 403              		@ args = 0, pretend = 0, frame = 0
 404              		@ frame_needed = 0, uses_anonymous_args = 0
 405              		@ link register save eliminated.
 154:Core/Src/jy62.c ****     return Temperature.temperature;
 406              		.loc 1 154 5 view .LVU43
 155:Core/Src/jy62.c **** }
 407              		.loc 1 155 1 is_stmt 0 view .LVU44
 408 0000 014B     		ldr	r3, .L43
 409 0002 1868     		ldr	r0, [r3]	@ float
 410 0004 7047     		bx	lr
 411              	.L44:
 412 0006 00BF     		.align	2
 413              	.L43:
 414 0008 00000000 		.word	.LANCHOR9
 415              		.cfi_endproc
 416              	.LFE76:
 418              		.section	.text.GetAccX,"ax",%progbits
 419              		.align	1
 420              		.global	GetAccX
 421              		.syntax unified
 422              		.thumb
 423              		.thumb_func
 424              		.fpu softvfp
 426              	GetAccX:
 427              	.LFB77:
 156:Core/Src/jy62.c **** 
 157:Core/Src/jy62.c **** float GetAccX()
 158:Core/Src/jy62.c **** {
 428              		.loc 1 158 1 is_stmt 1 view -0
 429              		.cfi_startproc
 430              		@ args = 0, pretend = 0, frame = 0
 431              		@ frame_needed = 0, uses_anonymous_args = 0
ARM GAS  C:\Users\zhangjd\AppData\Local\Temp\ccG5aaWp.s 			page 11


 432              		@ link register save eliminated.
 159:Core/Src/jy62.c ****     return Accelerate.accelerate_x;
 433              		.loc 1 159 5 view .LVU46
 160:Core/Src/jy62.c **** }
 434              		.loc 1 160 1 is_stmt 0 view .LVU47
 435 0000 014B     		ldr	r3, .L46
 436 0002 1868     		ldr	r0, [r3]	@ float
 437 0004 7047     		bx	lr
 438              	.L47:
 439 0006 00BF     		.align	2
 440              	.L46:
 441 0008 00000000 		.word	.LANCHOR10
 442              		.cfi_endproc
 443              	.LFE77:
 445              		.section	.text.GetAccY,"ax",%progbits
 446              		.align	1
 447              		.global	GetAccY
 448              		.syntax unified
 449              		.thumb
 450              		.thumb_func
 451              		.fpu softvfp
 453              	GetAccY:
 454              	.LFB78:
 161:Core/Src/jy62.c **** float GetAccY()
 162:Core/Src/jy62.c **** {
 455              		.loc 1 162 1 is_stmt 1 view -0
 456              		.cfi_startproc
 457              		@ args = 0, pretend = 0, frame = 0
 458              		@ frame_needed = 0, uses_anonymous_args = 0
 459              		@ link register save eliminated.
 163:Core/Src/jy62.c ****     return Accelerate.accelerate_y;
 460              		.loc 1 163 5 view .LVU49
 164:Core/Src/jy62.c **** }
 461              		.loc 1 164 1 is_stmt 0 view .LVU50
 462 0000 014B     		ldr	r3, .L49
 463 0002 5868     		ldr	r0, [r3, #4]	@ float
 464 0004 7047     		bx	lr
 465              	.L50:
 466 0006 00BF     		.align	2
 467              	.L49:
 468 0008 00000000 		.word	.LANCHOR10
 469              		.cfi_endproc
 470              	.LFE78:
 472              		.section	.text.GetAccZ,"ax",%progbits
 473              		.align	1
 474              		.global	GetAccZ
 475              		.syntax unified
 476              		.thumb
 477              		.thumb_func
 478              		.fpu softvfp
 480              	GetAccZ:
 481              	.LFB79:
 165:Core/Src/jy62.c **** float GetAccZ()
 166:Core/Src/jy62.c **** {
 482              		.loc 1 166 1 is_stmt 1 view -0
 483              		.cfi_startproc
 484              		@ args = 0, pretend = 0, frame = 0
ARM GAS  C:\Users\zhangjd\AppData\Local\Temp\ccG5aaWp.s 			page 12


 485              		@ frame_needed = 0, uses_anonymous_args = 0
 486              		@ link register save eliminated.
 167:Core/Src/jy62.c ****     return Accelerate.accelerate_z;
 487              		.loc 1 167 5 view .LVU52
 168:Core/Src/jy62.c **** }
 488              		.loc 1 168 1 is_stmt 0 view .LVU53
 489 0000 014B     		ldr	r3, .L52
 490 0002 9868     		ldr	r0, [r3, #8]	@ float
 491 0004 7047     		bx	lr
 492              	.L53:
 493 0006 00BF     		.align	2
 494              	.L52:
 495 0008 00000000 		.word	.LANCHOR10
 496              		.cfi_endproc
 497              	.LFE79:
 499              		.section	.text.GetVeloX,"ax",%progbits
 500              		.align	1
 501              		.global	GetVeloX
 502              		.syntax unified
 503              		.thumb
 504              		.thumb_func
 505              		.fpu softvfp
 507              	GetVeloX:
 508              	.LFB80:
 169:Core/Src/jy62.c **** 
 170:Core/Src/jy62.c **** float GetVeloX()
 171:Core/Src/jy62.c **** {
 509              		.loc 1 171 1 is_stmt 1 view -0
 510              		.cfi_startproc
 511              		@ args = 0, pretend = 0, frame = 0
 512              		@ frame_needed = 0, uses_anonymous_args = 0
 513              		@ link register save eliminated.
 172:Core/Src/jy62.c ****     return Velocity.velocity_x;
 514              		.loc 1 172 5 view .LVU55
 173:Core/Src/jy62.c **** }
 515              		.loc 1 173 1 is_stmt 0 view .LVU56
 516 0000 014B     		ldr	r3, .L55
 517 0002 1868     		ldr	r0, [r3]	@ float
 518 0004 7047     		bx	lr
 519              	.L56:
 520 0006 00BF     		.align	2
 521              	.L55:
 522 0008 00000000 		.word	.LANCHOR11
 523              		.cfi_endproc
 524              	.LFE80:
 526              		.section	.text.GetVeloY,"ax",%progbits
 527              		.align	1
 528              		.global	GetVeloY
 529              		.syntax unified
 530              		.thumb
 531              		.thumb_func
 532              		.fpu softvfp
 534              	GetVeloY:
 535              	.LFB81:
 174:Core/Src/jy62.c **** float GetVeloY()
 175:Core/Src/jy62.c **** {
 536              		.loc 1 175 1 is_stmt 1 view -0
ARM GAS  C:\Users\zhangjd\AppData\Local\Temp\ccG5aaWp.s 			page 13


 537              		.cfi_startproc
 538              		@ args = 0, pretend = 0, frame = 0
 539              		@ frame_needed = 0, uses_anonymous_args = 0
 540              		@ link register save eliminated.
 176:Core/Src/jy62.c ****     return Velocity.velocity_y;
 541              		.loc 1 176 5 view .LVU58
 177:Core/Src/jy62.c **** }
 542              		.loc 1 177 1 is_stmt 0 view .LVU59
 543 0000 014B     		ldr	r3, .L58
 544 0002 5868     		ldr	r0, [r3, #4]	@ float
 545 0004 7047     		bx	lr
 546              	.L59:
 547 0006 00BF     		.align	2
 548              	.L58:
 549 0008 00000000 		.word	.LANCHOR11
 550              		.cfi_endproc
 551              	.LFE81:
 553              		.section	.text.GetVeloZ,"ax",%progbits
 554              		.align	1
 555              		.global	GetVeloZ
 556              		.syntax unified
 557              		.thumb
 558              		.thumb_func
 559              		.fpu softvfp
 561              	GetVeloZ:
 562              	.LFB82:
 178:Core/Src/jy62.c **** float GetVeloZ()
 179:Core/Src/jy62.c **** {
 563              		.loc 1 179 1 is_stmt 1 view -0
 564              		.cfi_startproc
 565              		@ args = 0, pretend = 0, frame = 0
 566              		@ frame_needed = 0, uses_anonymous_args = 0
 567              		@ link register save eliminated.
 180:Core/Src/jy62.c ****     return Velocity.velocity_z;
 568              		.loc 1 180 5 view .LVU61
 181:Core/Src/jy62.c **** }
 569              		.loc 1 181 1 is_stmt 0 view .LVU62
 570 0000 014B     		ldr	r3, .L61
 571 0002 9868     		ldr	r0, [r3, #8]	@ float
 572 0004 7047     		bx	lr
 573              	.L62:
 574 0006 00BF     		.align	2
 575              	.L61:
 576 0008 00000000 		.word	.LANCHOR11
 577              		.cfi_endproc
 578              	.LFE82:
 580              		.global	__aeabi_i2f
 581              		.global	__aeabi_fmul
 582              		.section	.text.DecodeAngle,"ax",%progbits
 583              		.align	1
 584              		.global	DecodeAngle
 585              		.syntax unified
 586              		.thumb
 587              		.thumb_func
 588              		.fpu softvfp
 590              	DecodeAngle:
 591              	.LFB83:
ARM GAS  C:\Users\zhangjd\AppData\Local\Temp\ccG5aaWp.s 			page 14


 182:Core/Src/jy62.c **** 
 183:Core/Src/jy62.c **** /***************************************************/
 184:Core/Src/jy62.c **** 
 185:Core/Src/jy62.c **** void DecodeAngle()
 186:Core/Src/jy62.c **** {
 592              		.loc 1 186 1 is_stmt 1 view -0
 593              		.cfi_startproc
 594              		@ args = 0, pretend = 0, frame = 0
 595              		@ frame_needed = 0, uses_anonymous_args = 0
 596 0000 38B5     		push	{r3, r4, r5, lr}
 597              	.LCFI7:
 598              		.cfi_def_cfa_offset 16
 599              		.cfi_offset 3, -16
 600              		.cfi_offset 4, -12
 601              		.cfi_offset 5, -8
 602              		.cfi_offset 14, -4
 187:Core/Src/jy62.c ****     Angle.roll = (float)((jy62Message[3] << 8) | jy62Message[2]) / 32768 * 180;
 603              		.loc 1 187 5 view .LVU64
 604              		.loc 1 187 38 is_stmt 0 view .LVU65
 605 0002 164C     		ldr	r4, .L65
 606 0004 E078     		ldrb	r0, [r4, #3]	@ zero_extendqisi2
 607              		.loc 1 187 61 view .LVU66
 608 0006 A378     		ldrb	r3, [r4, #2]	@ zero_extendqisi2
 609              		.loc 1 187 18 view .LVU67
 610 0008 43EA0020 		orr	r0, r3, r0, lsl #8
 611 000c FFF7FEFF 		bl	__aeabi_i2f
 612              	.LVL15:
 613              		.loc 1 187 66 view .LVU68
 614 0010 4FF06051 		mov	r1, #939524096
 615 0014 FFF7FEFF 		bl	__aeabi_fmul
 616              	.LVL16:
 617              		.loc 1 187 74 view .LVU69
 618 0018 1149     		ldr	r1, .L65+4
 619 001a FFF7FEFF 		bl	__aeabi_fmul
 620              	.LVL17:
 621              		.loc 1 187 16 view .LVU70
 622 001e 114D     		ldr	r5, .L65+8
 623 0020 2860     		str	r0, [r5]	@ float
 188:Core/Src/jy62.c ****     Angle.pitch = (float)((jy62Message[5] << 8) | jy62Message[4]) / 32768 * 180;
 624              		.loc 1 188 5 is_stmt 1 view .LVU71
 625              		.loc 1 188 39 is_stmt 0 view .LVU72
 626 0022 6079     		ldrb	r0, [r4, #5]	@ zero_extendqisi2
 627              		.loc 1 188 62 view .LVU73
 628 0024 2379     		ldrb	r3, [r4, #4]	@ zero_extendqisi2
 629              		.loc 1 188 19 view .LVU74
 630 0026 43EA0020 		orr	r0, r3, r0, lsl #8
 631 002a FFF7FEFF 		bl	__aeabi_i2f
 632              	.LVL18:
 633              		.loc 1 188 67 view .LVU75
 634 002e 4FF06051 		mov	r1, #939524096
 635 0032 FFF7FEFF 		bl	__aeabi_fmul
 636              	.LVL19:
 637              		.loc 1 188 75 view .LVU76
 638 0036 0A49     		ldr	r1, .L65+4
 639 0038 FFF7FEFF 		bl	__aeabi_fmul
 640              	.LVL20:
 641              		.loc 1 188 17 view .LVU77
ARM GAS  C:\Users\zhangjd\AppData\Local\Temp\ccG5aaWp.s 			page 15


 642 003c 6860     		str	r0, [r5, #4]	@ float
 189:Core/Src/jy62.c ****     Angle.yaw = (float)((jy62Message[7] << 8) | jy62Message[6]) / 32768 * 180;
 643              		.loc 1 189 5 is_stmt 1 view .LVU78
 644              		.loc 1 189 37 is_stmt 0 view .LVU79
 645 003e E079     		ldrb	r0, [r4, #7]	@ zero_extendqisi2
 646              		.loc 1 189 60 view .LVU80
 647 0040 A379     		ldrb	r3, [r4, #6]	@ zero_extendqisi2
 648              		.loc 1 189 17 view .LVU81
 649 0042 43EA0020 		orr	r0, r3, r0, lsl #8
 650 0046 FFF7FEFF 		bl	__aeabi_i2f
 651              	.LVL21:
 652              		.loc 1 189 65 view .LVU82
 653 004a 4FF06051 		mov	r1, #939524096
 654 004e FFF7FEFF 		bl	__aeabi_fmul
 655              	.LVL22:
 656              		.loc 1 189 73 view .LVU83
 657 0052 0349     		ldr	r1, .L65+4
 658 0054 FFF7FEFF 		bl	__aeabi_fmul
 659              	.LVL23:
 660              		.loc 1 189 15 view .LVU84
 661 0058 A860     		str	r0, [r5, #8]	@ float
 190:Core/Src/jy62.c **** }
 662              		.loc 1 190 1 view .LVU85
 663 005a 38BD     		pop	{r3, r4, r5, pc}
 664              	.L66:
 665              		.align	2
 666              	.L65:
 667 005c 00000000 		.word	.LANCHOR12
 668 0060 00003443 		.word	1127481344
 669 0064 00000000 		.word	.LANCHOR8
 670              		.cfi_endproc
 671              	.LFE83:
 673              		.global	__aeabi_f2d
 674              		.global	__aeabi_dmul
 675              		.global	__aeabi_d2f
 676              		.section	.text.DecodeAccelerate,"ax",%progbits
 677              		.align	1
 678              		.global	DecodeAccelerate
 679              		.syntax unified
 680              		.thumb
 681              		.thumb_func
 682              		.fpu softvfp
 684              	DecodeAccelerate:
 685              	.LFB84:
 191:Core/Src/jy62.c **** 
 192:Core/Src/jy62.c **** void DecodeAccelerate()
 193:Core/Src/jy62.c **** {
 686              		.loc 1 193 1 is_stmt 1 view -0
 687              		.cfi_startproc
 688              		@ args = 0, pretend = 0, frame = 0
 689              		@ frame_needed = 0, uses_anonymous_args = 0
 690 0000 38B5     		push	{r3, r4, r5, lr}
 691              	.LCFI8:
 692              		.cfi_def_cfa_offset 16
 693              		.cfi_offset 3, -16
 694              		.cfi_offset 4, -12
 695              		.cfi_offset 5, -8
ARM GAS  C:\Users\zhangjd\AppData\Local\Temp\ccG5aaWp.s 			page 16


 696              		.cfi_offset 14, -4
 194:Core/Src/jy62.c ****     Accelerate.accelerate_x = (float)((jy62Message[3] << 8) | jy62Message[2]) / 32768 * 16 * g;
 697              		.loc 1 194 5 view .LVU87
 698              		.loc 1 194 51 is_stmt 0 view .LVU88
 699 0002 274C     		ldr	r4, .L69+8
 700 0004 E078     		ldrb	r0, [r4, #3]	@ zero_extendqisi2
 701              		.loc 1 194 74 view .LVU89
 702 0006 A378     		ldrb	r3, [r4, #2]	@ zero_extendqisi2
 703              		.loc 1 194 31 view .LVU90
 704 0008 43EA0020 		orr	r0, r3, r0, lsl #8
 705 000c FFF7FEFF 		bl	__aeabi_i2f
 706              	.LVL24:
 707              		.loc 1 194 79 view .LVU91
 708 0010 4FF06051 		mov	r1, #939524096
 709 0014 FFF7FEFF 		bl	__aeabi_fmul
 710              	.LVL25:
 711              		.loc 1 194 87 view .LVU92
 712 0018 4FF08341 		mov	r1, #1098907648
 713 001c FFF7FEFF 		bl	__aeabi_fmul
 714              	.LVL26:
 715 0020 FFF7FEFF 		bl	__aeabi_f2d
 716              	.LVL27:
 717              		.loc 1 194 92 view .LVU93
 718 0024 1CA3     		adr	r3, .L69
 719 0026 D3E90023 		ldrd	r2, [r3]
 720 002a FFF7FEFF 		bl	__aeabi_dmul
 721              	.LVL28:
 722 002e FFF7FEFF 		bl	__aeabi_d2f
 723              	.LVL29:
 724              		.loc 1 194 29 view .LVU94
 725 0032 1C4D     		ldr	r5, .L69+12
 726 0034 2860     		str	r0, [r5]	@ float
 195:Core/Src/jy62.c ****     Accelerate.accelerate_y = (float)((jy62Message[5] << 8) | jy62Message[4]) / 32768 * 16 * g;
 727              		.loc 1 195 5 is_stmt 1 view .LVU95
 728              		.loc 1 195 51 is_stmt 0 view .LVU96
 729 0036 6079     		ldrb	r0, [r4, #5]	@ zero_extendqisi2
 730              		.loc 1 195 74 view .LVU97
 731 0038 2379     		ldrb	r3, [r4, #4]	@ zero_extendqisi2
 732              		.loc 1 195 31 view .LVU98
 733 003a 43EA0020 		orr	r0, r3, r0, lsl #8
 734 003e FFF7FEFF 		bl	__aeabi_i2f
 735              	.LVL30:
 736              		.loc 1 195 79 view .LVU99
 737 0042 4FF06051 		mov	r1, #939524096
 738 0046 FFF7FEFF 		bl	__aeabi_fmul
 739              	.LVL31:
 740              		.loc 1 195 87 view .LVU100
 741 004a 4FF08341 		mov	r1, #1098907648
 742 004e FFF7FEFF 		bl	__aeabi_fmul
 743              	.LVL32:
 744 0052 FFF7FEFF 		bl	__aeabi_f2d
 745              	.LVL33:
 746              		.loc 1 195 92 view .LVU101
 747 0056 10A3     		adr	r3, .L69
 748 0058 D3E90023 		ldrd	r2, [r3]
 749 005c FFF7FEFF 		bl	__aeabi_dmul
 750              	.LVL34:
ARM GAS  C:\Users\zhangjd\AppData\Local\Temp\ccG5aaWp.s 			page 17


 751 0060 FFF7FEFF 		bl	__aeabi_d2f
 752              	.LVL35:
 753              		.loc 1 195 29 view .LVU102
 754 0064 6860     		str	r0, [r5, #4]	@ float
 196:Core/Src/jy62.c ****     Accelerate.accelerate_z = (float)((jy62Message[7] << 8) | jy62Message[6]) / 32768 * 16 * g;
 755              		.loc 1 196 5 is_stmt 1 view .LVU103
 756              		.loc 1 196 51 is_stmt 0 view .LVU104
 757 0066 E079     		ldrb	r0, [r4, #7]	@ zero_extendqisi2
 758              		.loc 1 196 74 view .LVU105
 759 0068 A379     		ldrb	r3, [r4, #6]	@ zero_extendqisi2
 760              		.loc 1 196 31 view .LVU106
 761 006a 43EA0020 		orr	r0, r3, r0, lsl #8
 762 006e FFF7FEFF 		bl	__aeabi_i2f
 763              	.LVL36:
 764              		.loc 1 196 79 view .LVU107
 765 0072 4FF06051 		mov	r1, #939524096
 766 0076 FFF7FEFF 		bl	__aeabi_fmul
 767              	.LVL37:
 768              		.loc 1 196 87 view .LVU108
 769 007a 4FF08341 		mov	r1, #1098907648
 770 007e FFF7FEFF 		bl	__aeabi_fmul
 771              	.LVL38:
 772 0082 FFF7FEFF 		bl	__aeabi_f2d
 773              	.LVL39:
 774              		.loc 1 196 92 view .LVU109
 775 0086 04A3     		adr	r3, .L69
 776 0088 D3E90023 		ldrd	r2, [r3]
 777 008c FFF7FEFF 		bl	__aeabi_dmul
 778              	.LVL40:
 779 0090 FFF7FEFF 		bl	__aeabi_d2f
 780              	.LVL41:
 781              		.loc 1 196 29 view .LVU110
 782 0094 A860     		str	r0, [r5, #8]	@ float
 197:Core/Src/jy62.c **** }
 783              		.loc 1 197 1 view .LVU111
 784 0096 38BD     		pop	{r3, r4, r5, pc}
 785              	.L70:
 786              		.align	3
 787              	.L69:
 788 0098 9A999999 		.word	-1717986918
 789 009c 99992340 		.word	1076074905
 790 00a0 00000000 		.word	.LANCHOR12
 791 00a4 00000000 		.word	.LANCHOR10
 792              		.cfi_endproc
 793              	.LFE84:
 795              		.section	.text.DecodeVelocity,"ax",%progbits
 796              		.align	1
 797              		.global	DecodeVelocity
 798              		.syntax unified
 799              		.thumb
 800              		.thumb_func
 801              		.fpu softvfp
 803              	DecodeVelocity:
 804              	.LFB85:
 198:Core/Src/jy62.c **** 
 199:Core/Src/jy62.c **** void DecodeVelocity()
 200:Core/Src/jy62.c **** {
ARM GAS  C:\Users\zhangjd\AppData\Local\Temp\ccG5aaWp.s 			page 18


 805              		.loc 1 200 1 is_stmt 1 view -0
 806              		.cfi_startproc
 807              		@ args = 0, pretend = 0, frame = 0
 808              		@ frame_needed = 0, uses_anonymous_args = 0
 809 0000 38B5     		push	{r3, r4, r5, lr}
 810              	.LCFI9:
 811              		.cfi_def_cfa_offset 16
 812              		.cfi_offset 3, -16
 813              		.cfi_offset 4, -12
 814              		.cfi_offset 5, -8
 815              		.cfi_offset 14, -4
 201:Core/Src/jy62.c ****     Velocity.velocity_x = (float)((jy62Message[3] << 8) | jy62Message[2]) / 32768 * 2000;
 816              		.loc 1 201 5 view .LVU113
 817              		.loc 1 201 47 is_stmt 0 view .LVU114
 818 0002 164C     		ldr	r4, .L73
 819 0004 E078     		ldrb	r0, [r4, #3]	@ zero_extendqisi2
 820              		.loc 1 201 70 view .LVU115
 821 0006 A378     		ldrb	r3, [r4, #2]	@ zero_extendqisi2
 822              		.loc 1 201 27 view .LVU116
 823 0008 43EA0020 		orr	r0, r3, r0, lsl #8
 824 000c FFF7FEFF 		bl	__aeabi_i2f
 825              	.LVL42:
 826              		.loc 1 201 75 view .LVU117
 827 0010 4FF06051 		mov	r1, #939524096
 828 0014 FFF7FEFF 		bl	__aeabi_fmul
 829              	.LVL43:
 830              		.loc 1 201 83 view .LVU118
 831 0018 1149     		ldr	r1, .L73+4
 832 001a FFF7FEFF 		bl	__aeabi_fmul
 833              	.LVL44:
 834              		.loc 1 201 25 view .LVU119
 835 001e 114D     		ldr	r5, .L73+8
 836 0020 2860     		str	r0, [r5]	@ float
 202:Core/Src/jy62.c ****     Velocity.velocity_y = (float)((jy62Message[5] << 8) | jy62Message[4]) / 32768 * 2000;
 837              		.loc 1 202 5 is_stmt 1 view .LVU120
 838              		.loc 1 202 47 is_stmt 0 view .LVU121
 839 0022 6079     		ldrb	r0, [r4, #5]	@ zero_extendqisi2
 840              		.loc 1 202 70 view .LVU122
 841 0024 2379     		ldrb	r3, [r4, #4]	@ zero_extendqisi2
 842              		.loc 1 202 27 view .LVU123
 843 0026 43EA0020 		orr	r0, r3, r0, lsl #8
 844 002a FFF7FEFF 		bl	__aeabi_i2f
 845              	.LVL45:
 846              		.loc 1 202 75 view .LVU124
 847 002e 4FF06051 		mov	r1, #939524096
 848 0032 FFF7FEFF 		bl	__aeabi_fmul
 849              	.LVL46:
 850              		.loc 1 202 83 view .LVU125
 851 0036 0A49     		ldr	r1, .L73+4
 852 0038 FFF7FEFF 		bl	__aeabi_fmul
 853              	.LVL47:
 854              		.loc 1 202 25 view .LVU126
 855 003c 6860     		str	r0, [r5, #4]	@ float
 203:Core/Src/jy62.c ****     Velocity.velocity_z = (float)((jy62Message[7] << 8) | jy62Message[6]) / 32768 * 2000;
 856              		.loc 1 203 5 is_stmt 1 view .LVU127
 857              		.loc 1 203 47 is_stmt 0 view .LVU128
 858 003e E079     		ldrb	r0, [r4, #7]	@ zero_extendqisi2
ARM GAS  C:\Users\zhangjd\AppData\Local\Temp\ccG5aaWp.s 			page 19


 859              		.loc 1 203 70 view .LVU129
 860 0040 A379     		ldrb	r3, [r4, #6]	@ zero_extendqisi2
 861              		.loc 1 203 27 view .LVU130
 862 0042 43EA0020 		orr	r0, r3, r0, lsl #8
 863 0046 FFF7FEFF 		bl	__aeabi_i2f
 864              	.LVL48:
 865              		.loc 1 203 75 view .LVU131
 866 004a 4FF06051 		mov	r1, #939524096
 867 004e FFF7FEFF 		bl	__aeabi_fmul
 868              	.LVL49:
 869              		.loc 1 203 83 view .LVU132
 870 0052 0349     		ldr	r1, .L73+4
 871 0054 FFF7FEFF 		bl	__aeabi_fmul
 872              	.LVL50:
 873              		.loc 1 203 25 view .LVU133
 874 0058 A860     		str	r0, [r5, #8]	@ float
 204:Core/Src/jy62.c **** }
 875              		.loc 1 204 1 view .LVU134
 876 005a 38BD     		pop	{r3, r4, r5, pc}
 877              	.L74:
 878              		.align	2
 879              	.L73:
 880 005c 00000000 		.word	.LANCHOR12
 881 0060 0000FA44 		.word	1157234688
 882 0064 00000000 		.word	.LANCHOR11
 883              		.cfi_endproc
 884              	.LFE85:
 886              		.global	__aeabi_i2d
 887              		.global	__aeabi_dadd
 888              		.section	.text.DecodeTemperature,"ax",%progbits
 889              		.align	1
 890              		.global	DecodeTemperature
 891              		.syntax unified
 892              		.thumb
 893              		.thumb_func
 894              		.fpu softvfp
 896              	DecodeTemperature:
 897              	.LFB86:
 205:Core/Src/jy62.c **** 
 206:Core/Src/jy62.c **** void DecodeTemperature()
 207:Core/Src/jy62.c **** {
 898              		.loc 1 207 1 is_stmt 1 view -0
 899              		.cfi_startproc
 900              		@ args = 0, pretend = 0, frame = 0
 901              		@ frame_needed = 0, uses_anonymous_args = 0
 902 0000 08B5     		push	{r3, lr}
 903              	.LCFI10:
 904              		.cfi_def_cfa_offset 8
 905              		.cfi_offset 3, -8
 906              		.cfi_offset 14, -4
 208:Core/Src/jy62.c ****     Temperature.temperature = ((short)(jy62Message[9]) << 8 | jy62Message[8]) / 340 + 36.53;
 907              		.loc 1 208 5 view .LVU136
 908              		.loc 1 208 51 is_stmt 0 view .LVU137
 909 0002 0D4B     		ldr	r3, .L77+8
 910 0004 5A7A     		ldrb	r2, [r3, #9]	@ zero_extendqisi2
 911              		.loc 1 208 74 view .LVU138
 912 0006 187A     		ldrb	r0, [r3, #8]	@ zero_extendqisi2
ARM GAS  C:\Users\zhangjd\AppData\Local\Temp\ccG5aaWp.s 			page 20


 913              		.loc 1 208 61 view .LVU139
 914 0008 40EA0220 		orr	r0, r0, r2, lsl #8
 915              		.loc 1 208 79 view .LVU140
 916 000c 0B4B     		ldr	r3, .L77+12
 917 000e 83FB0030 		smull	r3, r0, r3, r0
 918              		.loc 1 208 85 view .LVU141
 919 0012 C011     		asrs	r0, r0, #7
 920 0014 FFF7FEFF 		bl	__aeabi_i2d
 921              	.LVL51:
 922 0018 05A3     		adr	r3, .L77
 923 001a D3E90023 		ldrd	r2, [r3]
 924 001e FFF7FEFF 		bl	__aeabi_dadd
 925              	.LVL52:
 926 0022 FFF7FEFF 		bl	__aeabi_d2f
 927              	.LVL53:
 928              		.loc 1 208 29 view .LVU142
 929 0026 064B     		ldr	r3, .L77+16
 930 0028 1860     		str	r0, [r3]	@ float
 209:Core/Src/jy62.c **** }
 931              		.loc 1 209 1 view .LVU143
 932 002a 08BD     		pop	{r3, pc}
 933              	.L78:
 934 002c AFF30080 		.align	3
 935              	.L77:
 936 0030 A4703D0A 		.word	171798692
 937 0034 D7434240 		.word	1078084567
 938 0038 00000000 		.word	.LANCHOR12
 939 003c 61606060 		.word	1616928865
 940 0040 00000000 		.word	.LANCHOR9
 941              		.cfi_endproc
 942              	.LFE86:
 944              		.section	.text.Decode,"ax",%progbits
 945              		.align	1
 946              		.global	Decode
 947              		.syntax unified
 948              		.thumb
 949              		.thumb_func
 950              		.fpu softvfp
 952              	Decode:
 953              	.LFB87:
 210:Core/Src/jy62.c **** 
 211:Core/Src/jy62.c **** void Decode()
 212:Core/Src/jy62.c **** {
 954              		.loc 1 212 1 is_stmt 1 view -0
 955              		.cfi_startproc
 956              		@ args = 0, pretend = 0, frame = 0
 957              		@ frame_needed = 0, uses_anonymous_args = 0
 958 0000 08B5     		push	{r3, lr}
 959              	.LCFI11:
 960              		.cfi_def_cfa_offset 8
 961              		.cfi_offset 3, -8
 962              		.cfi_offset 14, -4
 213:Core/Src/jy62.c ****     switch (jy62Message[1])
 963              		.loc 1 213 5 view .LVU145
 964              		.loc 1 213 24 is_stmt 0 view .LVU146
 965 0002 0A4B     		ldr	r3, .L85
 966 0004 5B78     		ldrb	r3, [r3, #1]	@ zero_extendqisi2
ARM GAS  C:\Users\zhangjd\AppData\Local\Temp\ccG5aaWp.s 			page 21


 967              		.loc 1 213 5 view .LVU147
 968 0006 522B     		cmp	r3, #82
 969 0008 09D0     		beq	.L80
 970 000a 532B     		cmp	r3, #83
 971 000c 0AD0     		beq	.L81
 972 000e 512B     		cmp	r3, #81
 973 0010 02D0     		beq	.L84
 974              	.L82:
 214:Core/Src/jy62.c ****     {
 215:Core/Src/jy62.c ****     case 0x51:
 216:Core/Src/jy62.c ****         DecodeAccelerate();
 217:Core/Src/jy62.c ****         break;
 218:Core/Src/jy62.c ****     case 0x52:
 219:Core/Src/jy62.c ****         DecodeVelocity();
 220:Core/Src/jy62.c ****         break;
 221:Core/Src/jy62.c ****     case 0x53:
 222:Core/Src/jy62.c ****         DecodeAngle();
 223:Core/Src/jy62.c ****         break;
 224:Core/Src/jy62.c ****     }
 225:Core/Src/jy62.c ****     DecodeTemperature();
 975              		.loc 1 225 5 is_stmt 1 view .LVU148
 976 0012 FFF7FEFF 		bl	DecodeTemperature
 977              	.LVL54:
 226:Core/Src/jy62.c **** }...
 978              		.loc 1 226 1 is_stmt 0 view .LVU149
 979 0016 08BD     		pop	{r3, pc}
 980              	.L84:
 216:Core/Src/jy62.c ****         DecodeAccelerate();
 981              		.loc 1 216 9 is_stmt 1 view .LVU150
 982 0018 FFF7FEFF 		bl	DecodeAccelerate
 983              	.LVL55:
 217:Core/Src/jy62.c ****         break;
 984              		.loc 1 217 9 view .LVU151
 985 001c F9E7     		b	.L82
 986              	.L80:
 219:Core/Src/jy62.c ****         DecodeVelocity();
 987              		.loc 1 219 9 view .LVU152
 988 001e FFF7FEFF 		bl	DecodeVelocity
 989              	.LVL56:
 220:Core/Src/jy62.c ****         break;
 990              		.loc 1 220 9 view .LVU153
 991 0022 F6E7     		b	.L82
 992              	.L81:
 222:Core/Src/jy62.c ****         DecodeAngle();
 993              		.loc 1 222 9 view .LVU154
 994 0024 FFF7FEFF 		bl	DecodeAngle
 995              	.LVL57:
 223:Core/Src/jy62.c ****         break;
 996              		.loc 1 223 9 view .LVU155
 997 0028 F3E7     		b	.L82
 998              	.L86:
 999 002a 00BF     		.align	2
 1000              	.L85:
 1001 002c 00000000 		.word	.LANCHOR12
 1002              		.cfi_endproc
 1003              	.LFE87:
 1005              		.section	.text.jy62MessageRecord,"ax",%progbits
ARM GAS  C:\Users\zhangjd\AppData\Local\Temp\ccG5aaWp.s 			page 22


 1006              		.align	1
 1007              		.global	jy62MessageRecord
 1008              		.syntax unified
 1009              		.thumb
 1010              		.thumb_func
 1011              		.fpu softvfp
 1013              	jy62MessageRecord:
 1014              	.LFB66:
  54:Core/Src/jy62.c **** {
 1015              		.loc 1 54 1 view -0
 1016              		.cfi_startproc
 1017              		@ args = 0, pretend = 0, frame = 0
 1018              		@ frame_needed = 0, uses_anonymous_args = 0
 1019 0000 08B5     		push	{r3, lr}
 1020              	.LCFI12:
 1021              		.cfi_def_cfa_offset 8
 1022              		.cfi_offset 3, -8
 1023              		.cfi_offset 14, -4
  60:Core/Src/jy62.c ****     if (jy62Receive[SuccLen % JY62_MESSAGE_LENGTH] == 0x55)
 1024              		.loc 1 60 5 view .LVU157
  60:Core/Src/jy62.c ****     if (jy62Receive[SuccLen % JY62_MESSAGE_LENGTH] == 0x55)
 1025              		.loc 1 60 29 is_stmt 0 view .LVU158
 1026 0002 364B     		ldr	r3, .L107
 1027 0004 1978     		ldrb	r1, [r3]	@ zero_extendqisi2
 1028 0006 364B     		ldr	r3, .L107+4
 1029 0008 A3FB0123 		umull	r2, r3, r3, r1
 1030 000c DB08     		lsrs	r3, r3, #3
 1031 000e 03EB8302 		add	r2, r3, r3, lsl #2
 1032 0012 03EB4203 		add	r3, r3, r2, lsl #1
 1033 0016 C91A     		subs	r1, r1, r3
 1034 0018 C9B2     		uxtb	r1, r1
  60:Core/Src/jy62.c ****     if (jy62Receive[SuccLen % JY62_MESSAGE_LENGTH] == 0x55)
 1035              		.loc 1 60 20 view .LVU159
 1036 001a 324B     		ldr	r3, .L107+8
 1037 001c 5B5C     		ldrb	r3, [r3, r1]	@ zero_extendqisi2
  60:Core/Src/jy62.c ****     if (jy62Receive[SuccLen % JY62_MESSAGE_LENGTH] == 0x55)
 1038              		.loc 1 60 8 view .LVU160
 1039 001e 552B     		cmp	r3, #85
 1040 0020 24D0     		beq	.L105
  86:Core/Src/jy62.c ****         SuccLen = 0;
 1041              		.loc 1 86 9 is_stmt 1 view .LVU161
  86:Core/Src/jy62.c ****         SuccLen = 0;
 1042              		.loc 1 86 17 is_stmt 0 view .LVU162
 1043 0022 2E4B     		ldr	r3, .L107
 1044 0024 0022     		movs	r2, #0
 1045 0026 1A70     		strb	r2, [r3]
  87:Core/Src/jy62.c ****         while (SuccLen < JY62_MESSAGE_LENGTH && jy62Receive[SuccLen] != 0x55)
 1046              		.loc 1 87 9 is_stmt 1 view .LVU163
 1047              	.L96:
  87:Core/Src/jy62.c ****         while (SuccLen < JY62_MESSAGE_LENGTH && jy62Receive[SuccLen] != 0x55)
 1048              		.loc 1 87 15 view .LVU164
  87:Core/Src/jy62.c ****         while (SuccLen < JY62_MESSAGE_LENGTH && jy62Receive[SuccLen] != 0x55)
 1049              		.loc 1 87 24 is_stmt 0 view .LVU165
 1050 0028 2C4B     		ldr	r3, .L107
 1051 002a 1B78     		ldrb	r3, [r3]	@ zero_extendqisi2
  87:Core/Src/jy62.c ****         while (SuccLen < JY62_MESSAGE_LENGTH && jy62Receive[SuccLen] != 0x55)
 1052              		.loc 1 87 15 view .LVU166
ARM GAS  C:\Users\zhangjd\AppData\Local\Temp\ccG5aaWp.s 			page 23


 1053 002c 0A2B     		cmp	r3, #10
 1054 002e 2FD8     		bhi	.L97
  87:Core/Src/jy62.c ****         while (SuccLen < JY62_MESSAGE_LENGTH && jy62Receive[SuccLen] != 0x55)
 1055              		.loc 1 87 60 discriminator 1 view .LVU167
 1056 0030 2C4A     		ldr	r2, .L107+8
 1057 0032 D25C     		ldrb	r2, [r2, r3]	@ zero_extendqisi2
  87:Core/Src/jy62.c ****         while (SuccLen < JY62_MESSAGE_LENGTH && jy62Receive[SuccLen] != 0x55)
 1058              		.loc 1 87 46 discriminator 1 view .LVU168
 1059 0034 552A     		cmp	r2, #85
 1060 0036 2BD0     		beq	.L97
  89:Core/Src/jy62.c ****             SuccLen++;
 1061              		.loc 1 89 13 is_stmt 1 view .LVU169
  89:Core/Src/jy62.c ****             SuccLen++;
 1062              		.loc 1 89 20 is_stmt 0 view .LVU170
 1063 0038 0133     		adds	r3, r3, #1
 1064 003a 284A     		ldr	r2, .L107
 1065 003c 1370     		strb	r3, [r2]
 1066 003e F3E7     		b	.L96
 1067              	.LVL58:
 1068              	.L90:
 1069              	.LBB2:
 1070              	.LBB3:
  65:Core/Src/jy62.c ****             jy62PrevInfoHolder[PrevLen + i] = jy62Receive[i];
 1071              		.loc 1 65 13 is_stmt 1 discriminator 3 view .LVU171
  65:Core/Src/jy62.c ****             jy62PrevInfoHolder[PrevLen + i] = jy62Receive[i];
 1072              		.loc 1 65 40 is_stmt 0 discriminator 3 view .LVU172
 1073 0040 294A     		ldr	r2, .L107+12
 1074 0042 1278     		ldrb	r2, [r2]	@ zero_extendqisi2
 1075 0044 1A44     		add	r2, r2, r3
  65:Core/Src/jy62.c ****             jy62PrevInfoHolder[PrevLen + i] = jy62Receive[i];
 1076              		.loc 1 65 58 discriminator 3 view .LVU173
 1077 0046 2748     		ldr	r0, .L107+8
 1078 0048 10F803C0 		ldrb	ip, [r0, r3]	@ zero_extendqisi2
  65:Core/Src/jy62.c ****             jy62PrevInfoHolder[PrevLen + i] = jy62Receive[i];
 1079              		.loc 1 65 45 discriminator 3 view .LVU174
 1080 004c 2748     		ldr	r0, .L107+16
 1081 004e 00F802C0 		strb	ip, [r0, r2]
  63:Core/Src/jy62.c ****         for (int i = 0; i < SuccLen % JY62_MESSAGE_LENGTH; i++)
 1082              		.loc 1 63 60 is_stmt 1 discriminator 3 view .LVU175
  63:Core/Src/jy62.c ****         for (int i = 0; i < SuccLen % JY62_MESSAGE_LENGTH; i++)
 1083              		.loc 1 63 61 is_stmt 0 discriminator 3 view .LVU176
 1084 0052 0133     		adds	r3, r3, #1
 1085              	.LVL59:
 1086              	.L88:
  63:Core/Src/jy62.c ****         for (int i = 0; i < SuccLen % JY62_MESSAGE_LENGTH; i++)
 1087              		.loc 1 63 25 is_stmt 1 discriminator 1 view .LVU177
  63:Core/Src/jy62.c ****         for (int i = 0; i < SuccLen % JY62_MESSAGE_LENGTH; i++)
 1088              		.loc 1 63 9 is_stmt 0 discriminator 1 view .LVU178
 1089 0054 9942     		cmp	r1, r3
 1090 0056 F3DC     		bgt	.L90
 1091              	.LBE3:
 1092              	.LBB4:
  69:Core/Src/jy62.c ****         for (int i = 0; i < JY62_MESSAGE_LENGTH - 1; i++)
 1093              		.loc 1 69 18 view .LVU179
 1094 0058 0023     		movs	r3, #0
 1095              	.LVL60:
  69:Core/Src/jy62.c ****         for (int i = 0; i < JY62_MESSAGE_LENGTH - 1; i++)
ARM GAS  C:\Users\zhangjd\AppData\Local\Temp\ccG5aaWp.s 			page 24


 1096              		.loc 1 69 18 view .LVU180
 1097              	.LBE4:
  68:Core/Src/jy62.c ****         uint8_t sum = 0x00;
 1098              		.loc 1 68 17 view .LVU181
 1099 005a 1A46     		mov	r2, r3
 1100              	.L91:
 1101              	.LVL61:
 1102              	.LBB5:
  69:Core/Src/jy62.c ****         for (int i = 0; i < JY62_MESSAGE_LENGTH - 1; i++)
 1103              		.loc 1 69 25 is_stmt 1 discriminator 1 view .LVU182
  69:Core/Src/jy62.c ****         for (int i = 0; i < JY62_MESSAGE_LENGTH - 1; i++)
 1104              		.loc 1 69 9 is_stmt 0 discriminator 1 view .LVU183
 1105 005c 092B     		cmp	r3, #9
 1106 005e 07DC     		bgt	.L106
  71:Core/Src/jy62.c ****             sum += jy62PrevInfoHolder[i];
 1107              		.loc 1 71 13 is_stmt 1 discriminator 3 view .LVU184
  71:Core/Src/jy62.c ****             sum += jy62PrevInfoHolder[i];
 1108              		.loc 1 71 38 is_stmt 0 discriminator 3 view .LVU185
 1109 0060 2249     		ldr	r1, .L107+16
 1110 0062 C95C     		ldrb	r1, [r1, r3]	@ zero_extendqisi2
  71:Core/Src/jy62.c ****             sum += jy62PrevInfoHolder[i];
 1111              		.loc 1 71 17 discriminator 3 view .LVU186
 1112 0064 0A44     		add	r2, r2, r1
 1113              	.LVL62:
  71:Core/Src/jy62.c ****             sum += jy62PrevInfoHolder[i];
 1114              		.loc 1 71 17 discriminator 3 view .LVU187
 1115 0066 D2B2     		uxtb	r2, r2
 1116              	.LVL63:
  69:Core/Src/jy62.c ****         for (int i = 0; i < JY62_MESSAGE_LENGTH - 1; i++)
 1117              		.loc 1 69 54 is_stmt 1 discriminator 3 view .LVU188
  69:Core/Src/jy62.c ****         for (int i = 0; i < JY62_MESSAGE_LENGTH - 1; i++)
 1118              		.loc 1 69 55 is_stmt 0 discriminator 3 view .LVU189
 1119 0068 0133     		adds	r3, r3, #1
 1120              	.LVL64:
  69:Core/Src/jy62.c ****         for (int i = 0; i < JY62_MESSAGE_LENGTH - 1; i++)
 1121              		.loc 1 69 55 discriminator 3 view .LVU190
 1122 006a F7E7     		b	.L91
 1123              	.LVL65:
 1124              	.L105:
  69:Core/Src/jy62.c ****         for (int i = 0; i < JY62_MESSAGE_LENGTH - 1; i++)
 1125              		.loc 1 69 55 discriminator 3 view .LVU191
 1126              	.LBE5:
 1127              	.LBB6:
  63:Core/Src/jy62.c ****         for (int i = 0; i < SuccLen % JY62_MESSAGE_LENGTH; i++)
 1128              		.loc 1 63 18 view .LVU192
 1129 006c 0023     		movs	r3, #0
 1130 006e F1E7     		b	.L88
 1131              	.LVL66:
 1132              	.L106:
  63:Core/Src/jy62.c ****         for (int i = 0; i < SuccLen % JY62_MESSAGE_LENGTH; i++)
 1133              		.loc 1 63 18 view .LVU193
 1134              	.LBE6:
  74:Core/Src/jy62.c ****         if (sum == jy62PrevInfoHolder[JY62_MESSAGE_LENGTH - 1])
 1135              		.loc 1 74 9 is_stmt 1 view .LVU194
  74:Core/Src/jy62.c ****         if (sum == jy62PrevInfoHolder[JY62_MESSAGE_LENGTH - 1])
 1136              		.loc 1 74 38 is_stmt 0 view .LVU195
 1137 0070 1E4B     		ldr	r3, .L107+16
ARM GAS  C:\Users\zhangjd\AppData\Local\Temp\ccG5aaWp.s 			page 25


 1138              	.LVL67:
  74:Core/Src/jy62.c ****         if (sum == jy62PrevInfoHolder[JY62_MESSAGE_LENGTH - 1])
 1139              		.loc 1 74 38 view .LVU196
 1140 0072 9B7A     		ldrb	r3, [r3, #10]	@ zero_extendqisi2
  74:Core/Src/jy62.c ****         if (sum == jy62PrevInfoHolder[JY62_MESSAGE_LENGTH - 1])
 1141              		.loc 1 74 12 view .LVU197
 1142 0074 9342     		cmp	r3, r2
 1143 0076 0FD1     		bne	.L94
 1144              	.LBB7:
  76:Core/Src/jy62.c ****             for (int i = 0; i < JY62_MESSAGE_LENGTH; i++)
 1145              		.loc 1 76 22 view .LVU198
 1146 0078 0023     		movs	r3, #0
 1147 007a 04E0     		b	.L93
 1148              	.LVL68:
 1149              	.L95:
  78:Core/Src/jy62.c ****                 jy62Message[i] = jy62PrevInfoHolder[i];
 1150              		.loc 1 78 17 is_stmt 1 discriminator 3 view .LVU199
  78:Core/Src/jy62.c ****                 jy62Message[i] = jy62PrevInfoHolder[i];
 1151              		.loc 1 78 52 is_stmt 0 discriminator 3 view .LVU200
 1152 007c 1B4A     		ldr	r2, .L107+16
 1153 007e D15C     		ldrb	r1, [r2, r3]	@ zero_extendqisi2
  78:Core/Src/jy62.c ****                 jy62Message[i] = jy62PrevInfoHolder[i];
 1154              		.loc 1 78 32 discriminator 3 view .LVU201
 1155 0080 1B4A     		ldr	r2, .L107+20
 1156 0082 D154     		strb	r1, [r2, r3]
  76:Core/Src/jy62.c ****             for (int i = 0; i < JY62_MESSAGE_LENGTH; i++)
 1157              		.loc 1 76 54 is_stmt 1 discriminator 3 view .LVU202
  76:Core/Src/jy62.c ****             for (int i = 0; i < JY62_MESSAGE_LENGTH; i++)
 1158              		.loc 1 76 55 is_stmt 0 discriminator 3 view .LVU203
 1159 0084 0133     		adds	r3, r3, #1
 1160              	.LVL69:
 1161              	.L93:
  76:Core/Src/jy62.c ****             for (int i = 0; i < JY62_MESSAGE_LENGTH; i++)
 1162              		.loc 1 76 29 is_stmt 1 discriminator 1 view .LVU204
  76:Core/Src/jy62.c ****             for (int i = 0; i < JY62_MESSAGE_LENGTH; i++)
 1163              		.loc 1 76 13 is_stmt 0 discriminator 1 view .LVU205
 1164 0086 0A2B     		cmp	r3, #10
 1165 0088 F8DD     		ble	.L95
 1166              	.LBE7:
  80:Core/Src/jy62.c ****             Decode();
 1167              		.loc 1 80 13 is_stmt 1 view .LVU206
 1168 008a FFF7FEFF 		bl	Decode
 1169              	.LVL70:
  80:Core/Src/jy62.c ****             Decode();
 1170              		.loc 1 80 13 is_stmt 0 view .LVU207
 1171 008e 03E0     		b	.L94
 1172              	.L97:
  80:Core/Src/jy62.c ****             Decode();
 1173              		.loc 1 80 13 view .LVU208
 1174              	.LBE2:
  91:Core/Src/jy62.c ****         PrevLen = JY62_MESSAGE_LENGTH - SuccLen;
 1175              		.loc 1 91 9 is_stmt 1 view .LVU209
  91:Core/Src/jy62.c ****         PrevLen = JY62_MESSAGE_LENGTH - SuccLen;
 1176              		.loc 1 91 39 is_stmt 0 view .LVU210
 1177 0090 C3F10B03 		rsb	r3, r3, #11
  91:Core/Src/jy62.c ****         PrevLen = JY62_MESSAGE_LENGTH - SuccLen;
 1178              		.loc 1 91 17 view .LVU211
ARM GAS  C:\Users\zhangjd\AppData\Local\Temp\ccG5aaWp.s 			page 26


 1179 0094 144A     		ldr	r2, .L107+12
 1180 0096 1370     		strb	r3, [r2]
 1181              	.L94:
  94:Core/Src/jy62.c ****     for (int i = SuccLen % JY62_MESSAGE_LENGTH; i < JY62_MESSAGE_LENGTH; i++)
 1182              		.loc 1 94 5 is_stmt 1 view .LVU212
 1183              	.LBB8:
  94:Core/Src/jy62.c ****     for (int i = SuccLen % JY62_MESSAGE_LENGTH; i < JY62_MESSAGE_LENGTH; i++)
 1184              		.loc 1 94 10 view .LVU213
  94:Core/Src/jy62.c ****     for (int i = SuccLen % JY62_MESSAGE_LENGTH; i < JY62_MESSAGE_LENGTH; i++)
 1185              		.loc 1 94 26 is_stmt 0 view .LVU214
 1186 0098 104B     		ldr	r3, .L107
 1187 009a 93F800C0 		ldrb	ip, [r3]	@ zero_extendqisi2
 1188 009e 104B     		ldr	r3, .L107+4
 1189 00a0 A3FB0C23 		umull	r2, r3, r3, ip
 1190 00a4 DB08     		lsrs	r3, r3, #3
 1191 00a6 03EB8302 		add	r2, r3, r3, lsl #2
 1192 00aa 03EB4203 		add	r3, r3, r2, lsl #1
 1193 00ae ACEB030C 		sub	ip, ip, r3
 1194 00b2 5FFA8CFC 		uxtb	ip, ip
 1195              	.LVL71:
  94:Core/Src/jy62.c ****     for (int i = SuccLen % JY62_MESSAGE_LENGTH; i < JY62_MESSAGE_LENGTH; i++)
 1196              		.loc 1 94 14 view .LVU215
 1197 00b6 6346     		mov	r3, ip
  94:Core/Src/jy62.c ****     for (int i = SuccLen % JY62_MESSAGE_LENGTH; i < JY62_MESSAGE_LENGTH; i++)
 1198              		.loc 1 94 5 view .LVU216
 1199 00b8 06E0     		b	.L99
 1200              	.LVL72:
 1201              	.L100:
  96:Core/Src/jy62.c ****         jy62PrevInfoHolder[i - SuccLen % JY62_MESSAGE_LENGTH] = jy62Receive[i];
 1202              		.loc 1 96 9 is_stmt 1 discriminator 3 view .LVU217
  96:Core/Src/jy62.c ****         jy62PrevInfoHolder[i - SuccLen % JY62_MESSAGE_LENGTH] = jy62Receive[i];
 1203              		.loc 1 96 30 is_stmt 0 discriminator 3 view .LVU218
 1204 00ba A3EB0C02 		sub	r2, r3, ip
  96:Core/Src/jy62.c ****         jy62PrevInfoHolder[i - SuccLen % JY62_MESSAGE_LENGTH] = jy62Receive[i];
 1205              		.loc 1 96 76 discriminator 3 view .LVU219
 1206 00be 0949     		ldr	r1, .L107+8
 1207 00c0 C85C     		ldrb	r0, [r1, r3]	@ zero_extendqisi2
  96:Core/Src/jy62.c ****         jy62PrevInfoHolder[i - SuccLen % JY62_MESSAGE_LENGTH] = jy62Receive[i];
 1208              		.loc 1 96 63 discriminator 3 view .LVU220
 1209 00c2 0A49     		ldr	r1, .L107+16
 1210 00c4 8854     		strb	r0, [r1, r2]
  94:Core/Src/jy62.c ****     for (int i = SuccLen % JY62_MESSAGE_LENGTH; i < JY62_MESSAGE_LENGTH; i++)
 1211              		.loc 1 94 74 is_stmt 1 discriminator 3 view .LVU221
  94:Core/Src/jy62.c ****     for (int i = SuccLen % JY62_MESSAGE_LENGTH; i < JY62_MESSAGE_LENGTH; i++)
 1212              		.loc 1 94 75 is_stmt 0 discriminator 3 view .LVU222
 1213 00c6 0133     		adds	r3, r3, #1
 1214              	.LVL73:
 1215              	.L99:
  94:Core/Src/jy62.c ****     for (int i = SuccLen % JY62_MESSAGE_LENGTH; i < JY62_MESSAGE_LENGTH; i++)
 1216              		.loc 1 94 49 is_stmt 1 discriminator 1 view .LVU223
  94:Core/Src/jy62.c ****     for (int i = SuccLen % JY62_MESSAGE_LENGTH; i < JY62_MESSAGE_LENGTH; i++)
 1217              		.loc 1 94 5 is_stmt 0 discriminator 1 view .LVU224
 1218 00c8 0A2B     		cmp	r3, #10
 1219 00ca F6DD     		ble	.L100
  94:Core/Src/jy62.c ****     for (int i = SuccLen % JY62_MESSAGE_LENGTH; i < JY62_MESSAGE_LENGTH; i++)
 1220              		.loc 1 94 5 discriminator 1 view .LVU225
 1221              	.LBE8:
ARM GAS  C:\Users\zhangjd\AppData\Local\Temp\ccG5aaWp.s 			page 27


  99:Core/Src/jy62.c ****     HAL_UART_Receive_DMA(jy62_huart, jy62Receive, JY62_MESSAGE_LENGTH);
 1222              		.loc 1 99 5 is_stmt 1 view .LVU226
 1223 00cc 0B22     		movs	r2, #11
 1224 00ce 0549     		ldr	r1, .L107+8
 1225 00d0 084B     		ldr	r3, .L107+24
 1226              	.LVL74:
  99:Core/Src/jy62.c ****     HAL_UART_Receive_DMA(jy62_huart, jy62Receive, JY62_MESSAGE_LENGTH);
 1227              		.loc 1 99 5 is_stmt 0 view .LVU227
 1228 00d2 1868     		ldr	r0, [r3]
 1229 00d4 FFF7FEFF 		bl	HAL_UART_Receive_DMA
 1230              	.LVL75:
 100:Core/Src/jy62.c **** }
 1231              		.loc 1 100 1 view .LVU228
 1232 00d8 08BD     		pop	{r3, pc}
 1233              	.L108:
 1234 00da 00BF     		.align	2
 1235              	.L107:
 1236 00dc 00000000 		.word	.LANCHOR13
 1237 00e0 A38B2EBA 		.word	-1171354717
 1238 00e4 00000000 		.word	.LANCHOR1
 1239 00e8 00000000 		.word	.LANCHOR14
 1240 00ec 00000000 		.word	.LANCHOR15
 1241 00f0 00000000 		.word	.LANCHOR12
 1242 00f4 00000000 		.word	.LANCHOR0
 1243              		.cfi_endproc
 1244              	.LFE66:
 1246              		.global	Temperature
 1247              		.global	Angle
 1248              		.global	Velocity
 1249              		.global	Accelerate
 1250              		.global	jy62_huart
 1251              		.global	sleepAndAwake
 1252              		.global	setVertical
 1253              		.global	setHorizontal
 1254              		.global	setBaud9600
 1255              		.global	setBaud115200
 1256              		.global	calibrateAcce
 1257              		.global	initAngle
 1258              		.global	jy62Message
 1259              		.global	jy62Receive
 1260              		.global	jy62PrevInfoHolder
 1261              		.global	SuccLen
 1262              		.global	PrevLen
 1263              		.section	.bss.Accelerate,"aw",%nobits
 1264              		.align	2
 1265              		.set	.LANCHOR10,. + 0
 1268              	Accelerate:
 1269 0000 00000000 		.space	12
 1269      00000000 
 1269      00000000 
 1270              		.section	.bss.Angle,"aw",%nobits
 1271              		.align	2
 1272              		.set	.LANCHOR8,. + 0
 1275              	Angle:
 1276 0000 00000000 		.space	12
 1276      00000000 
 1276      00000000 
ARM GAS  C:\Users\zhangjd\AppData\Local\Temp\ccG5aaWp.s 			page 28


 1277              		.section	.bss.PrevLen,"aw",%nobits
 1278              		.set	.LANCHOR14,. + 0
 1281              	PrevLen:
 1282 0000 00       		.space	1
 1283              		.section	.bss.SuccLen,"aw",%nobits
 1284              		.set	.LANCHOR13,. + 0
 1287              	SuccLen:
 1288 0000 00       		.space	1
 1289              		.section	.bss.Temperature,"aw",%nobits
 1290              		.align	2
 1291              		.set	.LANCHOR9,. + 0
 1294              	Temperature:
 1295 0000 00000000 		.space	4
 1296              		.section	.bss.Velocity,"aw",%nobits
 1297              		.align	2
 1298              		.set	.LANCHOR11,. + 0
 1301              	Velocity:
 1302 0000 00000000 		.space	12
 1302      00000000 
 1302      00000000 
 1303              		.section	.bss.jy62Message,"aw",%nobits
 1304              		.align	2
 1305              		.set	.LANCHOR12,. + 0
 1308              	jy62Message:
 1309 0000 00000000 		.space	11
 1309      00000000 
 1309      000000
 1310              		.section	.bss.jy62PrevInfoHolder,"aw",%nobits
 1311              		.align	2
 1312              		.set	.LANCHOR15,. + 0
 1315              	jy62PrevInfoHolder:
 1316 0000 00000000 		.space	11
 1316      00000000 
 1316      000000
 1317              		.section	.bss.jy62Receive,"aw",%nobits
 1318              		.align	2
 1319              		.set	.LANCHOR1,. + 0
 1322              	jy62Receive:
 1323 0000 00000000 		.space	11
 1323      00000000 
 1323      000000
 1324              		.section	.bss.jy62_huart,"aw",%nobits
 1325              		.align	2
 1326              		.set	.LANCHOR0,. + 0
 1329              	jy62_huart:
 1330 0000 00000000 		.space	4
 1331              		.section	.data.calibrateAcce,"aw"
 1332              		.align	2
 1333              		.set	.LANCHOR6,. + 0
 1336              	calibrateAcce:
 1337 0000 FFAA67   		.ascii	"\377\252g"
 1338              		.section	.data.initAngle,"aw"
 1339              		.align	2
 1340              		.set	.LANCHOR5,. + 0
 1343              	initAngle:
 1344 0000 FFAA52   		.ascii	"\377\252R"
 1345              		.section	.data.setBaud115200,"aw"
ARM GAS  C:\Users\zhangjd\AppData\Local\Temp\ccG5aaWp.s 			page 29


 1346              		.align	2
 1347              		.set	.LANCHOR2,. + 0
 1350              	setBaud115200:
 1351 0000 FFAA63   		.ascii	"\377\252c"
 1352              		.section	.data.setBaud9600,"aw"
 1353              		.align	2
 1356              	setBaud9600:
 1357 0000 FFAA64   		.ascii	"\377\252d"
 1358              		.section	.data.setHorizontal,"aw"
 1359              		.align	2
 1360              		.set	.LANCHOR3,. + 0
 1363              	setHorizontal:
 1364 0000 FFAA65   		.ascii	"\377\252e"
 1365              		.section	.data.setVertical,"aw"
 1366              		.align	2
 1367              		.set	.LANCHOR4,. + 0
 1370              	setVertical:
 1371 0000 FFAA66   		.ascii	"\377\252f"
 1372              		.section	.data.sleepAndAwake,"aw"
 1373              		.align	2
 1374              		.set	.LANCHOR7,. + 0
 1377              	sleepAndAwake:
 1378 0000 FFAA60   		.ascii	"\377\252`"
 1379              		.text
 1380              	.Letext0:
 1381              		.file 2 "d:\\program files (x86)\\gnu arm embedded toolchain\\10 2021.07\\arm-none-eabi\\include\\
 1382              		.file 3 "d:\\program files (x86)\\gnu arm embedded toolchain\\10 2021.07\\arm-none-eabi\\include\\
 1383              		.file 4 "Drivers/CMSIS/Device/ST/STM32F1xx/Include/stm32f103xe.h"
 1384              		.file 5 "Drivers/STM32F1xx_HAL_Driver/Inc/stm32f1xx_hal_def.h"
 1385              		.file 6 "Drivers/STM32F1xx_HAL_Driver/Inc/stm32f1xx_hal_dma.h"
 1386              		.file 7 "Drivers/STM32F1xx_HAL_Driver/Inc/stm32f1xx_hal_uart.h"
 1387              		.file 8 "Core/Inc/jy62.h"
ARM GAS  C:\Users\zhangjd\AppData\Local\Temp\ccG5aaWp.s 			page 30

