ARM GAS  C:\Users\zhangjd\AppData\Local\Temp\cciTDb3B.s 			page 1


   1              		.cpu cortex-m3
   2              		.eabi_attribute 20, 1
   3              		.eabi_attribute 21, 1
   4              		.eabi_attribute 23, 3
   5              		.eabi_attribute 24, 1
   6              		.eabi_attribute 25, 1
   7              		.eabi_attribute 26, 1
   8              		.eabi_attribute 30, 1
   9              		.eabi_attribute 34, 1
  10              		.eabi_attribute 18, 4
  11              		.file	"main.c"
  12              		.text
  13              	.Ltext0:
  14              		.cfi_sections	.debug_frame
  15              		.global	__aeabi_fmul
  16              		.global	__aeabi_fadd
  17              		.global	__aeabi_fcmpge
  18              		.global	__aeabi_fcmple
  19              		.section	.text.pid,"ax",%progbits
  20              		.align	1
  21              		.global	pid
  22              		.arch armv7-m
  23              		.syntax unified
  24              		.thumb
  25              		.thumb_func
  26              		.fpu softvfp
  28              	pid:
  29              	.LVL0:
  30              	.LFB68:
  31              		.file 1 "Core/Src/main.c"
   1:Core/Src/main.c **** /* USER CODE BEGIN Header */
   2:Core/Src/main.c **** /**
   3:Core/Src/main.c ****   ******************************************************************************
   4:Core/Src/main.c ****   * @file           : main.c
   5:Core/Src/main.c ****   * @brief          : Main program body
   6:Core/Src/main.c ****   ******************************************************************************
   7:Core/Src/main.c ****   * @attention
   8:Core/Src/main.c ****   *
   9:Core/Src/main.c ****   * <h2><center>&copy; Copyright (c) 2021 STMicroelectronics.
  10:Core/Src/main.c ****   * All rights reserved.</center></h2>
  11:Core/Src/main.c ****   *
  12:Core/Src/main.c ****   * This software component is licensed by ST under BSD 3-Clause license,
  13:Core/Src/main.c ****   * the "License"; You may not use this file except in compliance with the
  14:Core/Src/main.c ****   * License. You may obtain a copy of the License at:
  15:Core/Src/main.c ****   *                        opensource.org/licenses/BSD-3-Clause
  16:Core/Src/main.c ****   *
  17:Core/Src/main.c ****   ******************************************************************************
  18:Core/Src/main.c ****   */
  19:Core/Src/main.c **** /* USER CODE END Header */
  20:Core/Src/main.c **** /* Includes ------------------------------------------------------------------*/
  21:Core/Src/main.c **** #include "main.h"
  22:Core/Src/main.c **** #include "dma.h"
  23:Core/Src/main.c **** #include "tim.h"
  24:Core/Src/main.c **** #include "usart.h"
  25:Core/Src/main.c **** #include "gpio.h"
  26:Core/Src/main.c **** 
  27:Core/Src/main.c **** /* Private includes ----------------------------------------------------------*/
ARM GAS  C:\Users\zhangjd\AppData\Local\Temp\cciTDb3B.s 			page 2


  28:Core/Src/main.c **** /* USER CODE BEGIN Includes */
  29:Core/Src/main.c **** #include "jy62.h"
  30:Core/Src/main.c **** #include "zigbee.h"
  31:Core/Src/main.c **** /* USER CODE END Includes */
  32:Core/Src/main.c **** 
  33:Core/Src/main.c **** /* Private typedef -----------------------------------------------------------*/
  34:Core/Src/main.c **** /* USER CODE BEGIN PTD */
  35:Core/Src/main.c **** 
  36:Core/Src/main.c **** //////////////////////////////////////Âü∫Êú¨‰ø°ÊÅØ///////////////////////////////////////////
  37:Core/Src/main.c **** //ÂÆöÊó∂Âô®Âë®Êúü‰∏∫50ms
  38:Core/Src/main.c **** 
  39:Core/Src/main.c **** volatile float distance1 = 0.0, distance2 = 0.0, distance3 = 0.0, distance4 = 0.0;
  40:Core/Src/main.c **** extern uint8_t jy62Receive[JY62_MESSAGE_LENGTH];
  41:Core/Src/main.c **** extern uint8_t jy62Message[JY62_MESSAGE_LENGTH];
  42:Core/Src/main.c **** 
  43:Core/Src/main.c **** float angle_obj, dis_obj;         //Êú™‰ΩøÁî®ÁöÑÂÖ®Â±ÄÂèòÈáè??
  44:Core/Src/main.c **** float obj_x, obj_y, car_x, car_y; //Êú™‰ΩøÁî®ÁöÑÂÖ®Â±ÄÂèòÈáè??
  45:Core/Src/main.c **** 
  46:Core/Src/main.c **** //////////////////////////////////////Sol_Car_PosÂáΩÊï∞ÂèòÈáèÂÆö‰πâ////////////////////////////////
  47:Core/Src/main.c **** int beacon_Pos[6];               //‰∏â‰∏™‰ø°Ê†áÂùêÊ†áÔºå‰æùÊ¨°Â≠òÊîæx_1„ÄÅy_1„ÄÅx_2„ÄÅy_2„ÄÅx_3„ÄÅy
  48:Core/Src/main.c **** int car_Pos[2];                  //Â∞èËΩ¶ÂΩìÂâçÂùêÊ†á
  49:Core/Src/main.c **** double beacon_determinant = 0.0; //ËÆ°ÁÆó‰∏≠Èó¥ÂèòÈáè
  50:Core/Src/main.c **** //////////////////////////////////////Sol_Car_PosÂáΩÊï∞ÂÆö‰πâÁªìÊùü////////////////////////////////
  51:Core/Src/main.c **** //////////////////////////////////////Ê±ÇËß£ÈáëÁüø‰ΩçÁΩÆ‰∏≠Èó¥ÂèòÈáèÂÆπÂô®/////////////////////////
  52:Core/Src/main.c **** //Ê±ÇËß£ÈáëÁüø‰ΩçÁΩÆÔøΩ??Ë¶ÅÁî®Âà∞ÂΩìÂâçÊó∂ÂàªÔøΩ?ÔøΩ‰∏äÔøΩ??Êó∂Âàª„ÄÅ‰∏ä‰∏ä‰∏™Êó∂ÂàªÁöÑÂ∞èËΩ¶‰ΩçÁΩ
  53:Core/Src/main.c **** struct Sol_Mine_Pos_Temp
  54:Core/Src/main.c **** {
  55:Core/Src/main.c ****     uint16_t x;   //Â∞èËΩ¶xÂùêÊ†á
  56:Core/Src/main.c ****     uint16_t y;   //Â∞èËΩ¶yÂùêÊ†á
  57:Core/Src/main.c ****     uint32_t E_1; //Âú∫Âº∫1
  58:Core/Src/main.c ****     uint32_t E_2; //Âú∫Âº∫2
  59:Core/Src/main.c **** } Prev_Pos[3] = {{0, 0, 0}, {0, 0, 0}, {0, 0, 0}};
  60:Core/Src/main.c **** short Prev_Pos_head = 0;
  61:Core/Src/main.c **** ////////////////////////////////////Ê±ÇËß£ÈáëÁüø‰ΩçÁΩÆ‰∏≠Èó¥ÂèòÈáèÂÆπÂô®ÁªìÊùü/////////////////////
  62:Core/Src/main.c **** 
  63:Core/Src/main.c **** struct A //ËµÑÊ∫êÂùêÊ†á
  64:Core/Src/main.c **** {
  65:Core/Src/main.c ****     int x[2];         //(x[0],y[0])ÊòØÁ¨¨ÔøΩ??‰∏™ËµÑÊ∫êÁöÑÂùêÊ†á
  66:Core/Src/main.c ****     int y[2];         //(x[1],y[1])ÊòØÁ¨¨‰∫å‰∏™ËµÑÊ∫êÁöÑÂùêÔøΩ??
  67:Core/Src/main.c ****     int iscalculated; //ÊòØÂê¶Ë¢´ËÆ°ÁÆóÂá∫ÔøΩ?? 0-false
  68:Core/Src/main.c ****     int priority;     //ÔøΩ??ËøëËµÑÊ∫êÁöÑ‰∏ãÊ†á
  69:Core/Src/main.c **** } resource_location = {{-1, -1}, {-1, -1}, 0, -1};
  70:Core/Src/main.c **** int score;                //ÂæóÂàÜÔøΩ??
  71:Core/Src/main.c **** int count_pos = 0;        //ÂùêÊ†áËÆ°Êï∞Âô®ÔºåÂåπÈÖç‰∏ä‰ΩçÊú∫È¢ëÁéá
  72:Core/Src/main.c **** int count_beacon = 0;     //‰ø°Ê†áËÆ°Êï∞Âô®ÔºåÁ°Æ‰øùÂÅúÁïô‰∏ÄÁßí
  73:Core/Src/main.c **** int count_storehouse = 0; //‰ªìÂ∫ìËÆ°Êó∂Âô®ÔºåÁ°Æ‰øùÂÅúÁïô‰∏§Áßí
  74:Core/Src/main.c **** uint16_t now;             //ËÆ∞ÂΩïÂΩìÂâçÊó∂Èó¥
  75:Core/Src/main.c **** 
  76:Core/Src/main.c **** int goto_state = 0;
  77:Core/Src/main.c **** float dis_cur, dis_pre;
  78:Core/Src/main.c **** //‰ªìÂ∫ìÂùêÊ†á
  79:Core/Src/main.c **** int rep[8][2] = {{15, 15},
  80:Core/Src/main.c ****                  {127, 15},
  81:Core/Src/main.c ****                  {239, 127},
  82:Core/Src/main.c ****                  {239, 239},
  83:Core/Src/main.c ****                  {127, 239},
  84:Core/Src/main.c ****                  {15, 239},
ARM GAS  C:\Users\zhangjd\AppData\Local\Temp\cciTDb3B.s 			page 3


  85:Core/Src/main.c ****                  {15, 127}};
  86:Core/Src/main.c **** 
  87:Core/Src/main.c **** int State = -1;
  88:Core/Src/main.c **** //Áä∂ÔøΩ?ÔøΩÂèòÈáèÂØπÂ∫îË°®
  89:Core/Src/main.c **** // -1-ÊØîËµõÊú™ÂºÄÂßãÊàñÂ∑≤ÁªìÔøΩ?
  90:Core/Src/main.c **** // 0-ÂàùÂßã/ÈöèÊÑèÊ∏∏Ëµ∞Ëß£ËµÑÊ∫êÂùêÔøΩ?
  91:Core/Src/main.c **** // 1-Â∑≤Ëé∑ÂæóËµÑÊ∫êÂùêÊ†áÔºåÂéªÁ¨¨ÔøΩ?‰∏™ËµÑÔøΩ?
  92:Core/Src/main.c **** // 2-Â∑≤Êç°Ëµ∑Á¨¨ÔøΩ?‰∏™ËµÑÊ∫êÔºåÂéªÁ¨¨‰∫å‰∏™
  93:Core/Src/main.c **** // 3-ËµÑÊ∫êÂÖ®ÈÉ®Êç°Âà∞ÔºåÂéªÊîæÁ¨¨ÔøΩ?‰∏™‰ø°ÔøΩ?(beacon)
  94:Core/Src/main.c **** // 4-ÂéªÊîæÁ¨¨‰∫å‰∏™‰ø°ÔøΩ?
  95:Core/Src/main.c **** // 5-ÂéªÊîæÁ¨¨‰∏â‰∏™‰ø°ÔøΩ?
  96:Core/Src/main.c **** // 6-Âéª‰ªìÔøΩ?
  97:Core/Src/main.c **** 
  98:Core/Src/main.c **** int destination[2]; //ÊîæÂà∞ÂÖ®Â±Ä
  99:Core/Src/main.c **** int prev_type;      //ÂÖ®Â±Ä ËÆ∞ÂΩï‰∏ä‰∏ÄÊ¨°ÊäµËææ‰ªìÂ∫ìÁöÑÁßçÁ±ª
 100:Core/Src/main.c **** 
 101:Core/Src/main.c **** int count_rep = 0;   //‰ªìÂ∫ìÂÅúÊ≠¢ËÆ°Êï∞Âô®
 102:Core/Src/main.c **** int current_Res = 0; //ËÆ∞ÂΩïÂΩìÂâçÂ∞èËΩ¶‰∏äÁöÑËµÑÊ∫êÔºå‰ª•‰æøÂêéÁª≠ÊØîËæÉ
 103:Core/Src/main.c **** int rotate_pwm[4];
 104:Core/Src/main.c **** float speed1, speed2, speed3, speed4;
 105:Core/Src/main.c **** 
 106:Core/Src/main.c **** // int count_rep = 0;   //‰ªìÂ∫ìÂÅúÊ≠¢ËÆ°Êï∞Âô®
 107:Core/Src/main.c **** // int current_Res = 0; //ËÆ∞ÂΩïÂΩìÂâçÂ∞èËΩ¶‰∏äÁöÑËµÑÊ∫êÔºå‰ª•‰æøÂêéÁª≠ÊØîËæÉ
 108:Core/Src/main.c **** 
 109:Core/Src/main.c **** #define forward_speed 1500
 110:Core/Src/main.c **** #define rotate_speed 3200
 111:Core/Src/main.c **** #define rotate_rpm 20
 112:Core/Src/main.c **** #define angle_err 2
 113:Core/Src/main.c **** /* USER CODE END PTD */
 114:Core/Src/main.c **** 
 115:Core/Src/main.c **** /* Private define ------------------------------------------------------------*/
 116:Core/Src/main.c **** /* USER CODE BEGIN PD */
 117:Core/Src/main.c **** //////////////////////////////////////Solve_Mine_PosÂáΩÊï∞ÂÆèÂÆöÔøΩ???/////////////////////////////
 118:Core/Src/main.c **** #define A_COFFIENT 1000000000.0 //ÈáëÁüøÂº∫Â∫¶Á≥ªÊï∞A
 119:Core/Src/main.c **** #define POS_ERR_TOL 4           //ÈáëÁüø‰ΩçÁΩÆËÆ°ÁÆóÁªìÊûúÂÅèÁ¶ªÂú∫Âú∞ÁöÑÊúÄÂ§ßËØØÔøΩ???
 120:Core/Src/main.c **** //////////////////////////////////////Solve_Mine_PosÂÆèÂÆö‰πâÁªìÔøΩ???/////////////////////////////
 121:Core/Src/main.c **** ////////////////////////////////////////atan2LUTifÂáΩÊï∞ÂÆèÂÆöÔøΩ???///////////////////////////////
 122:Core/Src/main.c **** #define M_PI_2 1.5707963
 123:Core/Src/main.c **** #define M_PI 3.141592654
 124:Core/Src/main.c **** #define M_PI_4_P_0273 1.05839816339744830962 //M_PI/4 + 0.273
 125:Core/Src/main.c **** const double ATAN_LUT[256] = {0.0000000000, 0.0039215485, 0.0078429764, 0.0117641631, 0.0156849881,
 126:Core/Src/main.c ****                               0.0235250710, 0.0274440882, 0.0313622624, 0.0352794736, 0.0391956019,
 127:Core/Src/main.c ****                               0.0470241318, 0.0509362949, 0.0548468980, 0.0587558227, 0.0626629506,
 128:Core/Src/main.c ****                               0.0704713446, 0.0743723758, 0.0782711405, 0.0821675224, 0.0860614053,
 129:Core/Src/main.c ****                               0.0938412126, 0.0977269074, 0.1016096438, 0.1054893085, 0.1093657884,
 130:Core/Src/main.c ****                               0.1171087446, 0.1209749978, 0.1248376255, 0.1286965013, 0.1325515323,
 131:Core/Src/main.c ****                               0.1402496096, 0.1440924408, 0.1479309912, 0.1517651553, 0.1555948280,
 132:Core/Src/main.c ****                               0.1632402828, 0.1670558588, 0.1708665312, 0.1746721990, 0.1784727620,
 133:Core/Src/main.c ****                               0.1860581771, 0.1898428334, 0.1936219929, 0.1973955598, 0.2011634395,
 134:Core/Src/main.c ****                               0.2086817623, 0.2124320205, 0.2161762215, 0.2199142752, 0.2236460927,
 135:Core/Src/main.c ****                               0.2310906672, 0.2348032511, 0.2385092525, 0.2422085871, 0.2459011721,
 136:Core/Src/main.c ****                               0.2532657662, 0.2569376146, 0.2606023917, 0.2642600199, 0.2679104224,
 137:Core/Src/main.c ****                               0.2751892491, 0.2788175253, 0.2824382800, 0.2860514417, 0.2896569404,
 138:Core/Src/main.c ****                               0.2968446734, 0.3004267728, 0.3040009393, 0.3075671084, 0.3111252164,
 139:Core/Src/main.c ****                               0.3182170002, 0.3217505544, 0.3252758042, 0.3287926915, 0.3323011594,
 140:Core/Src/main.c ****                               0.3392926145, 0.3427754932, 0.3462497357, 0.3497152904, 0.3531721069,
 141:Core/Src/main.c ****                               0.3600593294, 0.3634896400, 0.3669110217, 0.3703234297, 0.3737268255,
ARM GAS  C:\Users\zhangjd\AppData\Local\Temp\cciTDb3B.s 			page 4


 142:Core/Src/main.c ****                               0.3805063771, 0.3838824615, 0.3872493632, 0.3906070437, 0.3939554653,
 143:Core/Src/main.c ****                               0.4006243869, 0.4039448169, 0.4072558481, 0.4105574480, 0.4138495853,
 144:Core/Src/main.c ****                               0.4204053512, 0.4236689219, 0.4269229141, 0.4301673014, 0.4334020581,
 145:Core/Src/main.c ****                               0.4398425828, 0.4430483044, 0.4462443029, 0.4494305575, 0.4526070482,
 146:Core/Src/main.c ****                               0.4589306629, 0.4620777516, 0.4652150058, 0.4683424102, 0.4714599501,
 147:Core/Src/main.c ****                               0.4776653824, 0.4807532499, 0.4838312032, 0.4868992318, 0.4899573263,
 148:Core/Src/main.c ****                               0.4960436784, 0.4990719209, 0.5020901990, 0.5050985071, 0.5080968402,
 149:Core/Src/main.c ****                               0.5140635659, 0.5170319525, 0.5199903521, 0.5229387636, 0.5258771863,
 150:Core/Src/main.c ****                               0.5317240673, 0.5346325278, 0.5375310045, 0.5404195003, 0.5432980185,
 151:Core/Src/main.c ****                               0.5490251398, 0.5518737530, 0.5547124091, 0.5575411147, 0.5603598769,
 152:Core/Src/main.c ****                               0.5659676030, 0.5687565842, 0.5715356566, 0.5743048302, 0.5770641155,
 153:Core/Src/main.c ****                               0.5825530662, 0.5852827553, 0.5880026035, 0.5907126240, 0.5934128303,
 154:Core/Src/main.c ****                               0.5987838570, 0.6014547069, 0.6041158015, 0.6067671569, 0.6094087892,
 155:Core/Src/main.c ****                               0.6146629519, 0.6172755171, 0.6198784285, 0.6224717045, 0.6250553640,
 156:Core/Src/main.c ****                               0.6301939095, 0.6327488350, 0.6352942223, 0.6378300921, 0.6403564651,
 157:Core/Src/main.c ****                               0.6453808058, 0.6478788169, 0.6503674179, 0.6528466311, 0.6553164793,
 158:Core/Src/main.c ****                               0.6602281731, 0.6626700655, 0.6651026865, 0.6675260602, 0.6699402110,
 159:Core/Src/main.c ****                               0.6747409422, 0.6771275725, 0.6795050796, 0.6818734889, 0.6842328261,
 160:Core/Src/main.c ****                               0.6889243882, 0.6912566655, 0.6935799756, 0.6958943450, 0.6981998008,
 161:Core/Src/main.c ****                               0.7027840796, 0.7050629571, 0.7073330300, 0.7095943260, 0.7118468729,
 162:Core/Src/main.c ****                               0.7163258312, 0.7185522990, 0.7207701302, 0.7229793534, 0.7251799971,
 163:Core/Src/main.c ****                               0.7295556609, 0.7317307387, 0.7338973524, 0.7360555311, 0.7382053040,
 164:Core/Src/main.c ****                               0.7424797493, 0.7446044805, 0.7467209234, 0.7488291075, 0.7509290624,
 165:Core/Src/main.c ****                               0.7551044035, 0.7571798492, 0.7592471847, 0.7613064400, 0.7633576449,
 166:Core/Src/main.c ****                               0.7674360235, 0.7694632573, 0.7714825607, 0.7734939638, 0.7754974968,
 167:Core/Src/main.c ****                               0.7794810727, 0.7814611759, 0.7834335294, 0.7853981634};
 168:Core/Src/main.c **** ////////////////////////////////////////atan2LUTifÂÆèÂÆö‰πâÁªìÔøΩ???///////////////////////////////
 169:Core/Src/main.c **** 
 170:Core/Src/main.c **** /* USER CODE END PD */
 171:Core/Src/main.c **** 
 172:Core/Src/main.c **** /* Private macro -------------------------------------------------------------*/
 173:Core/Src/main.c **** /* USER CODE BEGIN PM */
 174:Core/Src/main.c **** 
 175:Core/Src/main.c **** /* USER CODE END PM */
 176:Core/Src/main.c **** 
 177:Core/Src/main.c **** /* Private variables ---------------------------------------------------------*/
 178:Core/Src/main.c **** 
 179:Core/Src/main.c **** /* USER CODE BEGIN PV */
 180:Core/Src/main.c **** const float Kp = 300.0;
 181:Core/Src/main.c **** const float Ki = -118;
 182:Core/Src/main.c **** const float Kd = 50;
 183:Core/Src/main.c **** float state[3] = {0.0};
 184:Core/Src/main.c **** /* USER CODE END PV */
 185:Core/Src/main.c **** 
 186:Core/Src/main.c **** /* Private function prototypes -----------------------------------------------*/
 187:Core/Src/main.c **** void SystemClock_Config(void);
 188:Core/Src/main.c **** /* USER CODE BEGIN PFP */
 189:Core/Src/main.c **** 
 190:Core/Src/main.c **** /* USER CODE END PFP */
 191:Core/Src/main.c **** 
 192:Core/Src/main.c **** /* Private user code ---------------------------------------------------------*/
 193:Core/Src/main.c **** /* USER CODE BEGIN 0 */
 194:Core/Src/main.c **** 
 195:Core/Src/main.c **** void HAL_TIM_PeriodElapsedCallback(TIM_HandleTypeDef *htim)
 196:Core/Src/main.c **** {
 197:Core/Src/main.c ****     HAL_UART_Receive_DMA(&huart2, jy62Receive, JY62_MESSAGE_LENGTH);
 198:Core/Src/main.c ****     if (htim->Instance == TIM1)
ARM GAS  C:\Users\zhangjd\AppData\Local\Temp\cciTDb3B.s 			page 5


 199:Core/Src/main.c ****     {
 200:Core/Src/main.c ****         short Count[4] = {
 201:Core/Src/main.c ****             Abs(__HAL_TIM_GetCounter(&htim2)),
 202:Core/Src/main.c ****             Abs(__HAL_TIM_GetCounter(&htim3)),
 203:Core/Src/main.c ****             Abs(__HAL_TIM_GetCounter(&htim4)),
 204:Core/Src/main.c ****             Abs(__HAL_TIM_GetCounter(&htim5))};
 205:Core/Src/main.c **** 
 206:Core/Src/main.c ****         __HAL_TIM_SetCounter(&htim2, 0);
 207:Core/Src/main.c ****         __HAL_TIM_SetCounter(&htim3, 0);
 208:Core/Src/main.c ****         __HAL_TIM_SetCounter(&htim4, 0);
 209:Core/Src/main.c ****         __HAL_TIM_SetCounter(&htim5, 0);
 210:Core/Src/main.c **** 
 211:Core/Src/main.c ****         speed1 = (float)Count[0] / 1060 * 20; //rpm
 212:Core/Src/main.c ****         speed2 = (float)Count[1] / 1060 * 20; //cm/s
 213:Core/Src/main.c ****         speed3 = (float)Count[2] / 1060 * 20; //cm/s
 214:Core/Src/main.c ****         speed4 = (float)Count[3] / 1060 * 20; //cm/s
 215:Core/Src/main.c **** 
 216:Core/Src/main.c ****         if (State < 10)
 217:Core/Src/main.c ****         {
 218:Core/Src/main.c ****             count_pos++; //Ëøõ‰∏§Ê¨°ÂÆöÊó∂Âô®Êõ¥Êñ∞‰∏ÄÊ¨°Â∞èËΩ¶xyÂùêÊ†á
 219:Core/Src/main.c ****             if (count_pos == 2)
 220:Core/Src/main.c ****             {
 221:Core/Src/main.c ****                 car_Pos[0] = getCarPosX();
 222:Core/Src/main.c ****                 car_Pos[1] = getCarPosY(); ///Êõ¥Êñ∞Â∞èËΩ¶xyÂùêÊ†á
 223:Core/Src/main.c ****                 count_pos = 0;
 224:Core/Src/main.c ****             }
 225:Core/Src/main.c ****         }
 226:Core/Src/main.c ****         else
 227:Core/Src/main.c ****         {
 228:Core/Src/main.c ****             uint16_t r_0, r_1, r_2; //Â∞èËΩ¶Âà∞‰ø°Ê†áÁöÑË∑ùÁ¶ª ÊîæÂà∞ÂÖ®Â±Ä
 229:Core/Src/main.c ****             r_0 = getDistanceOfMyBeacon(0);
 230:Core/Src/main.c ****             r_1 = getDistanceOfMyBeacon(1);
 231:Core/Src/main.c ****             r_2 = getDistanceOfMyBeacon(2);
 232:Core/Src/main.c ****             Sol_Car_Pos(r_0, r_1, r_2); ///Êõ¥Êñ∞Â∞èËΩ¶xyÂùêÊ†á
 233:Core/Src/main.c ****         }
 234:Core/Src/main.c **** 
 235:Core/Src/main.c ****         switch (State)
 236:Core/Src/main.c ****         {
 237:Core/Src/main.c ****         case (0): //ÂàùÂßãÁä∂ÊÄÅ??
 238:Core/Src/main.c ****         {
 239:Core/Src/main.c ****             //Ê≠•È™§1ÔºöÈöèÊÑèËµ∞
 240:Core/Src/main.c ****             rotate_clockwise_plus_forward(rotate_speed); ///ÂàùÂßãÊó∂ËΩ¨ÂúàÔºåÁ°ÆÂÆöËµÑÊ∫êÂùêÊ†á
 241:Core/Src/main.c ****             //Ê≠•È™§2ÔºöËß£ÁÆó‰∏§‰∏™ËµÑÊ∫êÂùêÔøΩ?? =====ÂæÖÂÆûÔøΩ??=====
 242:Core/Src/main.c ****             // if (resource_location.iscalculated == 1) //Â¶ÇÊûúÊµãÁÆóÂá∫ÂùêÔøΩ??
 243:Core/Src/main.c ****             // {
 244:Core/Src/main.c ****             //     State = 1; //ËøõÂÖ•‰∏ã‰∏ÄÁä∂ÔøΩ??
 245:Core/Src/main.c ****             //     //Ê≠•È™§3ÔºöÁ°ÆÂÆöÁ¶ªËΩ¶ÊúÄËøëÁöÑÔøΩ??ÔøΩ??
 246:Core/Src/main.c ****             //     resource_location.priority = (resource_location.x[0]*resource_location.x[0]+reso
 247:Core/Src/main.c ****             // }
 248:Core/Src/main.c ****             // break;
 249:Core/Src/main.c ****             if (Solve_Mine_Pos(Prev_Pos[0].x, Prev_Pos[0].y, Prev_Pos[0].E_1, Prev_Pos[1].x, Prev_P
 250:Core/Src/main.c ****             {
 251:Core/Src/main.c ****                 //Âà©Áî®Solve_Mine_PosÂáΩÊï∞ËøîÂõûÂÄºÁõ¥Êé•Âà§Êñ≠ËÆ°ÁÆóÊòØÂê¶ÊàêÔøΩ??
 252:Core/Src/main.c ****                 State = 1; //ËøõÂÖ•‰∏ã‰∏ÄÁä∂ÔøΩ??
 253:Core/Src/main.c ****                 //Ê≠•È™§3ÔºöÁ°ÆÂÆöÁ¶ªËΩ¶ÊúÄËøëÁöÑÔøΩ??ÔøΩ??
 254:Core/Src/main.c ****                 resource_location.priority = (resource_location.x[0] * resource_location.x[0] + res
 255:Core/Src/main.c ****                 break;
ARM GAS  C:\Users\zhangjd\AppData\Local\Temp\cciTDb3B.s 			page 6


 256:Core/Src/main.c ****             }
 257:Core/Src/main.c ****             else
 258:Core/Src/main.c ****             {
 259:Core/Src/main.c ****                 //caseËÆ°ÁÆó‰∏çÊàêÂäüÔºåÔøΩ??Ë¶ÅÊõ¥Êñ∞‰ΩçÁΩÆ‰∏éÂú∫Âº∫‰ø°ÊÅØÔºåÈáçÊñ∞ËÆ°ÁÆóÔøΩ??
 260:Core/Src/main.c ****                 Prev_Pos[Prev_Pos_head].x = getCarPosX();          //Âà©Áî®getCarPosXÂáΩÊï∞Ëé∑ÂèñÂ∞
 261:Core/Src/main.c ****                 Prev_Pos[Prev_Pos_head].y = getCarPosY();          //Âêå‰∏ä
 262:Core/Src/main.c ****                 Prev_Pos[Prev_Pos_head].E_1 = getMineIntensity(0); //Âà©Áî®getMineIntensityÂáΩÊï∞Êõ
 263:Core/Src/main.c ****                 Prev_Pos[Prev_Pos_head].E_2 = getMineIntensity(1); //Âêå‰∏ä
 264:Core/Src/main.c ****                 Prev_Pos_head = (Prev_Pos_head + 1) % 3;           //Â§¥ÊåáÈíàÂæ™ÁéØÂú∞ÂêéÁßª
 265:Core/Src/main.c ****                 break;
 266:Core/Src/main.c ****             }
 267:Core/Src/main.c ****         }
 268:Core/Src/main.c ****         case (1):
 269:Core/Src/main.c ****         {
 270:Core/Src/main.c ****             //ÂéªÊúÄËøëÁöÑËµÑÊ∫ê
 271:Core/Src/main.c ****             Goto(resource_location.x[resource_location.priority], resource_location.y[resource_loca
 272:Core/Src/main.c ****             if (getCarMineSumNum() == 1)
 273:Core/Src/main.c ****             {
 274:Core/Src/main.c ****                 State = 2; //ËøõÂÖ•‰∏ã‰∏ÄÁä∂ÊÄÅ
 275:Core/Src/main.c ****                 goto_state = 0;
 276:Core/Src/main.c ****             }
 277:Core/Src/main.c ****             break;
 278:Core/Src/main.c ****         }
 279:Core/Src/main.c ****         case (2):
 280:Core/Src/main.c ****         {
 281:Core/Src/main.c ****             //ÂéªÁ¨¨‰∫å‰∏™ËµÑÊ∫ê
 282:Core/Src/main.c ****             Goto(resource_location.x[!resource_location.priority], resource_location.y[!resource_lo
 283:Core/Src/main.c ****             if (getCarMineSumNum() == 2)
 284:Core/Src/main.c ****             {
 285:Core/Src/main.c ****                 State = 3; //ËøõÂÖ•‰∏ã‰∏ÄÁä∂ÊÄÅ
 286:Core/Src/main.c ****                 goto_state = 0;
 287:Core/Src/main.c ****             }
 288:Core/Src/main.c ****             break;
 289:Core/Src/main.c ****         }
 290:Core/Src/main.c ****         case (3):
 291:Core/Src/main.c ****         {
 292:Core/Src/main.c ****             //ÊîæÁΩÆÁ¨¨‰∏Ä‰∏™‰ø°ÔøΩ? (127,60Ôºâ‰∏≠ÂÅè‰∏ä
 293:Core/Src/main.c ****             Goto(127, 50);
 294:Core/Src/main.c ****             float dis = (getCarPosX() - 127) * (getCarPosX() - 127) + (getCarPosY() - 50) * (getCar
 295:Core/Src/main.c ****             if (dis < 300 || getCarPosX() < 15 || getCarPosX() > 240 || getCarPosY() < 15 || getCar
 296:Core/Src/main.c ****             //also, not beyond the boundary
 297:Core/Src/main.c ****             {
 298:Core/Src/main.c ****                 brake(); //ÂàπËΩ¶
 299:Core/Src/main.c ****                 if (count_beacon == 0)
 300:Core/Src/main.c ****                     zigbeeSend(0x00);
 301:Core/Src/main.c ****                 count_beacon++;
 302:Core/Src/main.c ****                 if (count_beacon <= 20)
 303:Core/Src/main.c ****                 {
 304:Core/Src/main.c ****                     HAL_GPIO_WritePin(GPIOC, GPIO_PIN_0, GPIO_PIN_SET);
 305:Core/Src/main.c ****                 }
 306:Core/Src/main.c ****                 else
 307:Core/Src/main.c ****                 {
 308:Core/Src/main.c ****                     State = 4;
 309:Core/Src/main.c ****                     count_beacon = 0;
 310:Core/Src/main.c ****                     beacon_Pos[0] = getCarPosX();
 311:Core/Src/main.c ****                     beacon_Pos[1] = getCarPosY(); //Áªôbeacon_PosËµãÔøΩ?ÔøΩÔºåÁî®‰∫éÁ¨¨‰∫åÂõûÂêàÁ≤æ
 312:Core/Src/main.c ****                     HAL_GPIO_WritePin(GPIOC, GPIO_PIN_0, GPIO_PIN_RESET);
ARM GAS  C:\Users\zhangjd\AppData\Local\Temp\cciTDb3B.s 			page 7


 313:Core/Src/main.c ****                     goto_state = 0;
 314:Core/Src/main.c ****                 }
 315:Core/Src/main.c ****             }
 316:Core/Src/main.c ****             break;
 317:Core/Src/main.c ****         }
 318:Core/Src/main.c ****         case (4):
 319:Core/Src/main.c ****         {
 320:Core/Src/main.c ****             //ÊîæÁΩÆÁ¨¨‰∫å‰∏™‰ø°Ê†á (127,127)Ê≠£‰∏≠Èó¥
 321:Core/Src/main.c ****             Goto(127, 127);
 322:Core/Src/main.c ****             float dis = (getCarPosX() - 127) * (getCarPosX() - 127) + (getCarPosY() - 127) * (getCa
 323:Core/Src/main.c ****             if (dis < 300 || getCarPosX() < 15 || getCarPosX() > 240 || getCarPosY() < 15 || getCar
 324:Core/Src/main.c ****             //also, not beyond the boundary
 325:Core/Src/main.c ****             {
 326:Core/Src/main.c ****                 brake(); //ÂàπËΩ¶
 327:Core/Src/main.c ****                 if (count_beacon == 0)
 328:Core/Src/main.c ****                     zigbeeSend(0x01);
 329:Core/Src/main.c ****                 count_beacon++;
 330:Core/Src/main.c ****                 if (count_beacon <= 20)
 331:Core/Src/main.c ****                 {
 332:Core/Src/main.c ****                     HAL_GPIO_WritePin(GPIOC, GPIO_PIN_0, GPIO_PIN_SET);
 333:Core/Src/main.c ****                 }
 334:Core/Src/main.c ****                 else
 335:Core/Src/main.c ****                 {
 336:Core/Src/main.c ****                     State = 5;
 337:Core/Src/main.c ****                     count_beacon = 0;
 338:Core/Src/main.c ****                     beacon_Pos[2] = getCarPosX();
 339:Core/Src/main.c ****                     beacon_Pos[3] = getCarPosY(); //Áªôbeacon_PosËµãÔøΩ?ÔøΩÔºåÁî®‰∫éÁ¨¨‰∫åÂõûÂêàÁ≤æ
 340:Core/Src/main.c ****                     HAL_GPIO_WritePin(GPIOC, GPIO_PIN_0, GPIO_PIN_RESET);
 341:Core/Src/main.c ****                     goto_state = 0;
 342:Core/Src/main.c ****                 }
 343:Core/Src/main.c ****             }
 344:Core/Src/main.c ****             break;
 345:Core/Src/main.c ****         }
 346:Core/Src/main.c ****         case (5):
 347:Core/Src/main.c ****         {
 348:Core/Src/main.c ****             //ÊîæÁΩÆÁ¨¨‰∏â‰∏™‰ø°ÔøΩ?? (60,127)‰∏≠ÂÅèÔøΩ??
 349:Core/Src/main.c ****             Goto(60, 127);
 350:Core/Src/main.c ****             float dis = (getCarPosX() - 60) * (getCarPosX() - 60) + (getCarPosY() - 127) * (getCarP
 351:Core/Src/main.c ****             if (dis < 300 || getCarPosX() < 15 || getCarPosX() > 240 || getCarPosY() < 15 || getCar
 352:Core/Src/main.c ****             {
 353:Core/Src/main.c ****                 brake(); //ÂàπËΩ¶
 354:Core/Src/main.c ****                 if (count_beacon == 0)
 355:Core/Src/main.c ****                     zigbeeSend(0x02);
 356:Core/Src/main.c ****                 count_beacon++;
 357:Core/Src/main.c ****                 if (count_beacon <= 20)
 358:Core/Src/main.c ****                 {
 359:Core/Src/main.c ****                     HAL_GPIO_WritePin(GPIOC, GPIO_PIN_0, GPIO_PIN_SET);
 360:Core/Src/main.c ****                 }
 361:Core/Src/main.c ****                 else
 362:Core/Src/main.c ****                 {
 363:Core/Src/main.c ****                     State = 6;
 364:Core/Src/main.c ****                     count_beacon = 0;
 365:Core/Src/main.c ****                     beacon_Pos[4] = getCarPosX();
 366:Core/Src/main.c ****                     beacon_Pos[5] = getCarPosY(); //Áªôbeacon_PosËµãÔøΩ?ÔøΩÔºåÁî®‰∫éÁ¨¨‰∫åÂõûÂêàÁ≤æ
 367:Core/Src/main.c ****                     HAL_GPIO_WritePin(GPIOC, GPIO_PIN_0, GPIO_PIN_RESET);
 368:Core/Src/main.c ****                     goto_state = 0;
 369:Core/Src/main.c ****                 }
ARM GAS  C:\Users\zhangjd\AppData\Local\Temp\cciTDb3B.s 			page 8


 370:Core/Src/main.c ****             }
 371:Core/Src/main.c ****             break;
 372:Core/Src/main.c ****         }
 373:Core/Src/main.c ****         case (6):
 374:Core/Src/main.c ****         {
 375:Core/Src/main.c ****             //ÂéªÊúÄËøë‰ªìÔøΩ?7Âè∑Ôºå‰∏çÂà§Êñ≠ÊòØÂê¶Âà∞ÔøΩ??
 376:Core/Src/main.c ****             //ËøòÊòØÂà§Êñ≠‰∏Ä‰∏ãÂêß
 377:Core/Src/main.c ****             Goto(15, 127);
 378:Core/Src/main.c ****             if ((car_Pos[0] < 18) || (car_Pos[0] > 250) || (car_Pos[1] < 18) || (car_Pos[1] > 250))
 379:Core/Src/main.c ****             {
 380:Core/Src/main.c ****                 //Ëµ∞Ëøá‰∫Ü
 381:Core/Src/main.c ****                 brake();
 382:Core/Src/main.c ****                 goto_state = 0;
 383:Core/Src/main.c ****                 break;
 384:Core/Src/main.c ****             }
 385:Core/Src/main.c ****             if ((car_Pos[0] - 15) * (car_Pos[0] - 15) + (car_Pos[1] - 127) * (car_Pos[1] - 127) < 3
 386:Core/Src/main.c ****             {
 387:Core/Src/main.c ****                 brake();    //ÂàπËΩ¶
 388:Core/Src/main.c ****                 State = -1; //Á¨¨‰∏ÄÂõûÂêàÁªìÊùü
 389:Core/Src/main.c ****                 goto_state = 0;
 390:Core/Src/main.c ****             }
 391:Core/Src/main.c ****             break;
 392:Core/Src/main.c ****         }
 393:Core/Src/main.c ****         case (10):
 394:Core/Src/main.c ****         {
 395:Core/Src/main.c ****             //Ê≠•È™§1ÔºöÈöèÊÑèËµ∞
 396:Core/Src/main.c ****             rotate_clockwise_plus_forward(rotate_speed); ///ÂàùÂßãÊó∂ËΩ¨ÂúàÔºåÁ°ÆÂÆöËµÑÊ∫êÂùêÊ†á
 397:Core/Src/main.c **** 
 398:Core/Src/main.c ****             //Ê±ÇËß£ËµÑÊ∫êÂùêÊ†á
 399:Core/Src/main.c ****             if (Solve_Mine_Pos(Prev_Pos[0].x, Prev_Pos[0].y, Prev_Pos[0].E_1, Prev_Pos[1].x, Prev_P
 400:Core/Src/main.c ****             {
 401:Core/Src/main.c ****                 //Âà©Áî®Solve_Mine_PosÂáΩÊï∞ËøîÂõûÂÄºÁõ¥Êé•Âà§Êñ≠ËÆ°ÁÆóÊòØÂê¶ÊàêÔøΩ?
 402:Core/Src/main.c ****                 State = 11; //ËøõÂÖ•Ë°åËøõÊ®°Âºè
 403:Core/Src/main.c ****                 //Á°ÆÂÆöÁ¶ªËΩ¶ÊúÄËøëÁöÑËµÑÊ∫ê
 404:Core/Src/main.c ****                 current_Res = getCarMineSumNum();
 405:Core/Src/main.c ****                 resource_location.priority = (resource_location.x[0] * resource_location.x[0] + res
 406:Core/Src/main.c ****             }
 407:Core/Src/main.c ****             else
 408:Core/Src/main.c ****             {
 409:Core/Src/main.c ****                 //caseËÆ°ÁÆó‰∏çÊàêÂäüÔºåÔøΩ?Ë¶ÅÊõ¥Êñ∞‰ΩçÁΩÆ‰∏éÂú∫Âº∫‰ø°ÊÅØÔºåÈáçÊñ∞ËÆ°ÁÆóÔøΩ??
 410:Core/Src/main.c ****                 Prev_Pos[Prev_Pos_head].x = getCarPosX();          //Âà©Áî®getCarPosXÂáΩÊï∞Ëé∑ÂèñÂ∞
 411:Core/Src/main.c ****                 Prev_Pos[Prev_Pos_head].y = getCarPosY();          //Âêå‰∏ä
 412:Core/Src/main.c ****                 Prev_Pos[Prev_Pos_head].E_1 = getMineIntensity(0); //Âà©Áî®getMineIntensityÂáΩÊï∞Êõ
 413:Core/Src/main.c ****                 Prev_Pos[Prev_Pos_head].E_1 = getMineIntensity(1); //Âêå‰∏ä
 414:Core/Src/main.c ****                 Prev_Pos_head = (Prev_Pos_head + 1) % 3;           //Â§¥ÊåáÈíàÂæ™ÁéØÂú∞ÂêéÁßª
 415:Core/Src/main.c ****             }
 416:Core/Src/main.c ****             break;
 417:Core/Src/main.c ****         }
 418:Core/Src/main.c ****         case (11):
 419:Core/Src/main.c ****         {
 420:Core/Src/main.c ****             Goto(resource_location.x[!resource_location.priority], resource_location.y[!resource_lo
 421:Core/Src/main.c ****             if (getCarMineSumNum() > current_Res)
 422:Core/Src/main.c ****             {
 423:Core/Src/main.c ****                 goto_state = 0;
 424:Core/Src/main.c ****                 State = 10;                   //ËøîÂõûËÆ°ÁÆóÁä∂ÊÄÅ
 425:Core/Src/main.c ****                 if (getCarMineSumNum() == 10) //Êª°ËΩΩ
 426:Core/Src/main.c ****                     State = 12;               //ËÄåÂΩí
ARM GAS  C:\Users\zhangjd\AppData\Local\Temp\cciTDb3B.s 			page 9


 427:Core/Src/main.c ****             }
 428:Core/Src/main.c ****             break;
 429:Core/Src/main.c ****         }
 430:Core/Src/main.c ****         case (12):
 431:Core/Src/main.c ****         {
 432:Core/Src/main.c ****             //ËÆ°ÁÆóÂ∞èËΩ¶Âà∞8‰∏™‰ªìÂ∫ìÁöÑË∑ùÁ¶ª
 433:Core/Src/main.c ****             Get_Rep_opt(car_Pos[0], car_Pos[1]);
 434:Core/Src/main.c ****             State = 13;
 435:Core/Src/main.c ****         }
 436:Core/Src/main.c ****         case (13):
 437:Core/Src/main.c ****         {
 438:Core/Src/main.c **** 
 439:Core/Src/main.c ****             if ((car_Pos[0] - destination[0]) * (car_Pos[0] - destination[0]) +
 440:Core/Src/main.c ****                     (car_Pos[1] - destination[1]) * (car_Pos[1] - destination[1]) <
 441:Core/Src/main.c ****                 20) //ËøêÈÄÅÊàêÂäü
 442:Core/Src/main.c ****             {
 443:Core/Src/main.c ****                 brake();
 444:Core/Src/main.c ****                 goto_state = 0;
 445:Core/Src/main.c ****                 count_rep++;
 446:Core/Src/main.c ****                 if (count_rep > 40)
 447:Core/Src/main.c ****                 {
 448:Core/Src/main.c ****                     State = 12; //ËøîÂõûËÆ°ÁÆóÁä∂ÊÄÅ
 449:Core/Src/main.c ****                     count_rep = 0;
 450:Core/Src/main.c ****                     if (getCarMineSumNum() == 0) //ÂÖ®ÈÉ®Âç∏ËΩΩ
 451:Core/Src/main.c ****                         State = 10;
 452:Core/Src/main.c ****                 }
 453:Core/Src/main.c ****             }
 454:Core/Src/main.c ****             else
 455:Core/Src/main.c ****                 Goto(destination[0], destination[1]); //ÂâçÂæÄ‰ªìÂ∫ì
 456:Core/Src/main.c ****             break;
 457:Core/Src/main.c ****         }
 458:Core/Src/main.c ****         }
 459:Core/Src/main.c ****     }
 460:Core/Src/main.c **** }
 461:Core/Src/main.c **** /* USER CODE END 0 */
 462:Core/Src/main.c **** 
 463:Core/Src/main.c **** /**
 464:Core/Src/main.c ****   * @brief  The application entry point.
 465:Core/Src/main.c ****   * @retval int
 466:Core/Src/main.c ****   */
 467:Core/Src/main.c **** int main(void)
 468:Core/Src/main.c **** {
 469:Core/Src/main.c ****     /* USER CODE BEGIN 1 */
 470:Core/Src/main.c ****     /* USER CODE END 1 */
 471:Core/Src/main.c **** 
 472:Core/Src/main.c ****     /* MCU Configuration--------------------------------------------------------*/
 473:Core/Src/main.c **** 
 474:Core/Src/main.c ****     /* Reset of all peripherals, Initializes the Flash interface and the Systick. */
 475:Core/Src/main.c ****     HAL_Init();
 476:Core/Src/main.c **** 
 477:Core/Src/main.c ****     /* USER CODE BEGIN Init */
 478:Core/Src/main.c ****     jy62_Init(&huart2);
 479:Core/Src/main.c ****     SetBaud(115200);
 480:Core/Src/main.c ****     SetHorizontal();
 481:Core/Src/main.c ****     InitAngle();
 482:Core/Src/main.c ****     Calibrate();
 483:Core/Src/main.c ****     SleepOrAwake();
ARM GAS  C:\Users\zhangjd\AppData\Local\Temp\cciTDb3B.s 			page 10


 484:Core/Src/main.c ****     /* USER CODE END Init */
 485:Core/Src/main.c **** 
 486:Core/Src/main.c ****     /* Configure the system clock */
 487:Core/Src/main.c ****     SystemClock_Config();
 488:Core/Src/main.c **** 
 489:Core/Src/main.c ****     /* USER CODE BEGIN SysInit */
 490:Core/Src/main.c **** 
 491:Core/Src/main.c ****     /* USER CODE END SysInit */
 492:Core/Src/main.c **** 
 493:Core/Src/main.c ****     /* Initialize all configured peripherals */
 494:Core/Src/main.c ****     MX_GPIO_Init();
 495:Core/Src/main.c ****     MX_TIM1_Init();
 496:Core/Src/main.c ****     MX_TIM2_Init();
 497:Core/Src/main.c ****     MX_TIM8_Init();
 498:Core/Src/main.c ****     MX_TIM3_Init();
 499:Core/Src/main.c ****     MX_TIM4_Init();
 500:Core/Src/main.c ****     MX_DMA_Init();
 501:Core/Src/main.c ****     MX_USART2_UART_Init();
 502:Core/Src/main.c ****     MX_USART1_UART_Init();
 503:Core/Src/main.c ****     MX_TIM5_Init();
 504:Core/Src/main.c ****     /* USER CODE BEGIN 2 */
 505:Core/Src/main.c ****     zigbee_Init(&huart1);
 506:Core/Src/main.c ****     HAL_TIM_Base_Start_IT(&htim1);
 507:Core/Src/main.c ****     HAL_TIM_PWM_Start(&htim8, TIM_CHANNEL_1);
 508:Core/Src/main.c ****     HAL_TIM_PWM_Start(&htim8, TIM_CHANNEL_2);
 509:Core/Src/main.c ****     HAL_TIM_PWM_Start(&htim8, TIM_CHANNEL_3);
 510:Core/Src/main.c ****     HAL_TIM_PWM_Start(&htim8, TIM_CHANNEL_4);
 511:Core/Src/main.c ****     HAL_TIM_Encoder_Start(&htim2, TIM_CHANNEL_1);
 512:Core/Src/main.c ****     HAL_TIM_Encoder_Start(&htim2, TIM_CHANNEL_2);
 513:Core/Src/main.c ****     HAL_TIM_Encoder_Start(&htim3, TIM_CHANNEL_1);
 514:Core/Src/main.c ****     HAL_TIM_Encoder_Start(&htim3, TIM_CHANNEL_2);
 515:Core/Src/main.c ****     HAL_TIM_Encoder_Start(&htim4, TIM_CHANNEL_1);
 516:Core/Src/main.c ****     HAL_TIM_Encoder_Start(&htim4, TIM_CHANNEL_2);
 517:Core/Src/main.c ****     HAL_TIM_Encoder_Start(&htim5, TIM_CHANNEL_1);
 518:Core/Src/main.c ****     HAL_TIM_Encoder_Start(&htim5, TIM_CHANNEL_2);
 519:Core/Src/main.c ****     jy62_Init(&huart2);
 520:Core/Src/main.c ****     void jy62_Init(UART_HandleTypeDef * huart);
 521:Core/Src/main.c **** 
 522:Core/Src/main.c ****     HAL_GPIO_WritePin(GPIOB, GPIO_PIN_0, GPIO_PIN_SET);
 523:Core/Src/main.c ****     HAL_GPIO_WritePin(GPIOB, GPIO_PIN_1, GPIO_PIN_RESET);
 524:Core/Src/main.c ****     HAL_GPIO_WritePin(GPIOB, GPIO_PIN_2, GPIO_PIN_RESET);
 525:Core/Src/main.c ****     HAL_GPIO_WritePin(GPIOB, GPIO_PIN_10, GPIO_PIN_SET);
 526:Core/Src/main.c ****     HAL_GPIO_WritePin(GPIOB, GPIO_PIN_11, GPIO_PIN_SET);
 527:Core/Src/main.c ****     HAL_GPIO_WritePin(GPIOB, GPIO_PIN_12, GPIO_PIN_RESET);
 528:Core/Src/main.c ****     HAL_GPIO_WritePin(GPIOB, GPIO_PIN_13, GPIO_PIN_RESET);
 529:Core/Src/main.c ****     HAL_GPIO_WritePin(GPIOB, GPIO_PIN_14, GPIO_PIN_SET);
 530:Core/Src/main.c ****     /* USER CODE END 2 */
 531:Core/Src/main.c **** 
 532:Core/Src/main.c ****     /* Infinite loop */
 533:Core/Src/main.c ****     /* USER CODE BEGIN WHILE */
 534:Core/Src/main.c ****     while (1)
 535:Core/Src/main.c ****     {
 536:Core/Src/main.c ****         /* USER CODE END WHILE */
 537:Core/Src/main.c **** 
 538:Core/Src/main.c ****         /* USER CODE BEGIN 3 */
 539:Core/Src/main.c ****         // rotate_clockwise(rotate_speed);
 540:Core/Src/main.c ****         // rotate_counterclockwise(1);
ARM GAS  C:\Users\zhangjd\AppData\Local\Temp\cciTDb3B.s 			page 11


 541:Core/Src/main.c ****         if (getGameState() == 3)
 542:Core/Src/main.c ****         {
 543:Core/Src/main.c ****             State = -1;
 544:Core/Src/main.c ****         }
 545:Core/Src/main.c ****         if ((getGameState() == 1) && (getCarTask() == 0) && (State < 0)) //‰∏äÂçäÔøΩ?
 546:Core/Src/main.c ****         {
 547:Core/Src/main.c ****             State = 0;
 548:Core/Src/main.c ****         }
 549:Core/Src/main.c ****         if ((getGameState() == 1) && (getCarTask() == 1)) //‰∏ãÂçäÔøΩ?
 550:Core/Src/main.c ****         {
 551:Core/Src/main.c ****             if (State < 10)
 552:Core/Src/main.c ****             {
 553:Core/Src/main.c ****                 State = 10;
 554:Core/Src/main.c ****                 Sol_Car_Pos_INIT();
 555:Core/Src/main.c ****             }
 556:Core/Src/main.c ****             if ((getGameTime() > 1000) && (State < 12)) //ÔøΩ?ÂêéÊó∂ÔøΩ?
 557:Core/Src/main.c ****                 State = 12;
 558:Core/Src/main.c ****         }
 559:Core/Src/main.c ****     }
 560:Core/Src/main.c ****     /* USER CODE END 3 */
 561:Core/Src/main.c **** }
 562:Core/Src/main.c **** 
 563:Core/Src/main.c **** /**
 564:Core/Src/main.c ****   * @brief System Clock Configuration
 565:Core/Src/main.c ****   * @retval None
 566:Core/Src/main.c ****   */
 567:Core/Src/main.c **** void SystemClock_Config(void)
 568:Core/Src/main.c **** {
 569:Core/Src/main.c ****     RCC_OscInitTypeDef RCC_OscInitStruct = {0};
 570:Core/Src/main.c ****     RCC_ClkInitTypeDef RCC_ClkInitStruct = {0};
 571:Core/Src/main.c **** 
 572:Core/Src/main.c ****     /** Initializes the RCC Oscillators according to the specified parameters
 573:Core/Src/main.c ****   * in the RCC_OscInitTypeDef structure.
 574:Core/Src/main.c ****   */
 575:Core/Src/main.c ****     RCC_OscInitStruct.OscillatorType = RCC_OSCILLATORTYPE_HSE;
 576:Core/Src/main.c ****     RCC_OscInitStruct.HSEState = RCC_HSE_ON;
 577:Core/Src/main.c ****     RCC_OscInitStruct.HSEPredivValue = RCC_HSE_PREDIV_DIV1;
 578:Core/Src/main.c ****     RCC_OscInitStruct.HSIState = RCC_HSI_ON;
 579:Core/Src/main.c ****     RCC_OscInitStruct.PLL.PLLState = RCC_PLL_ON;
 580:Core/Src/main.c ****     RCC_OscInitStruct.PLL.PLLSource = RCC_PLLSOURCE_HSE;
 581:Core/Src/main.c ****     RCC_OscInitStruct.PLL.PLLMUL = RCC_PLL_MUL9;
 582:Core/Src/main.c ****     if (HAL_RCC_OscConfig(&RCC_OscInitStruct) != HAL_OK)
 583:Core/Src/main.c ****     {
 584:Core/Src/main.c ****         Error_Handler();
 585:Core/Src/main.c ****     }
 586:Core/Src/main.c ****     /** Initializes the CPU, AHB and APB buses clocks
 587:Core/Src/main.c ****   */
 588:Core/Src/main.c ****     RCC_ClkInitStruct.ClockType = RCC_CLOCKTYPE_HCLK | RCC_CLOCKTYPE_SYSCLK | RCC_CLOCKTYPE_PCLK1 |
 589:Core/Src/main.c ****     RCC_ClkInitStruct.SYSCLKSource = RCC_SYSCLKSOURCE_PLLCLK;
 590:Core/Src/main.c ****     RCC_ClkInitStruct.AHBCLKDivider = RCC_SYSCLK_DIV1;
 591:Core/Src/main.c ****     RCC_ClkInitStruct.APB1CLKDivider = RCC_HCLK_DIV2;
 592:Core/Src/main.c ****     RCC_ClkInitStruct.APB2CLKDivider = RCC_HCLK_DIV1;
 593:Core/Src/main.c **** 
 594:Core/Src/main.c ****     if (HAL_RCC_ClockConfig(&RCC_ClkInitStruct, FLASH_LATENCY_2) != HAL_OK)
 595:Core/Src/main.c ****     {
 596:Core/Src/main.c ****         Error_Handler();
 597:Core/Src/main.c ****     }
ARM GAS  C:\Users\zhangjd\AppData\Local\Temp\cciTDb3B.s 			page 12


 598:Core/Src/main.c **** }
 599:Core/Src/main.c **** 
 600:Core/Src/main.c **** /* USER CODE BEGIN 4 */
 601:Core/Src/main.c **** float pid(float in)
 602:Core/Src/main.c **** {
  32              		.loc 1 602 1 view -0
  33              		.cfi_startproc
  34              		@ args = 0, pretend = 0, frame = 0
  35              		@ frame_needed = 0, uses_anonymous_args = 0
  36              		.loc 1 602 1 is_stmt 0 view .LVU1
  37 0000 F8B5     		push	{r3, r4, r5, r6, r7, lr}
  38              	.LCFI0:
  39              		.cfi_def_cfa_offset 24
  40              		.cfi_offset 3, -24
  41              		.cfi_offset 4, -20
  42              		.cfi_offset 5, -16
  43              		.cfi_offset 6, -12
  44              		.cfi_offset 7, -8
  45              		.cfi_offset 14, -4
  46 0002 0546     		mov	r5, r0
 603:Core/Src/main.c ****     float out;
  47              		.loc 1 603 5 is_stmt 1 view .LVU2
 604:Core/Src/main.c ****     // y[n] = A0 * x[n] + A1 * x[n-1] + A2 * x[n-2]
 605:Core/Src/main.c ****     out = ((Kp + Ki + Kd) * in) + ((-Ki - 2 * Kd) * state[0]) + (Kd * state[1]);
  48              		.loc 1 605 5 view .LVU3
  49              		.loc 1 605 27 is_stmt 0 view .LVU4
  50 0004 1749     		ldr	r1, .L13
  51 0006 FFF7FEFF 		bl	__aeabi_fmul
  52              	.LVL1:
  53              		.loc 1 605 27 view .LVU5
  54 000a 0646     		mov	r6, r0
  55              		.loc 1 605 58 view .LVU6
  56 000c 164C     		ldr	r4, .L13+4
  57 000e 2768     		ldr	r7, [r4]	@ float
  58              		.loc 1 605 51 view .LVU7
  59 0010 1649     		ldr	r1, .L13+8
  60 0012 3846     		mov	r0, r7
  61 0014 FFF7FEFF 		bl	__aeabi_fmul
  62              	.LVL2:
  63 0018 0146     		mov	r1, r0
  64              		.loc 1 605 33 view .LVU8
  65 001a 3046     		mov	r0, r6
  66 001c FFF7FEFF 		bl	__aeabi_fadd
  67              	.LVL3:
  68 0020 0646     		mov	r6, r0
  69              		.loc 1 605 69 view .LVU9
  70 0022 1349     		ldr	r1, .L13+12
  71 0024 6068     		ldr	r0, [r4, #4]	@ float
  72 0026 FFF7FEFF 		bl	__aeabi_fmul
  73              	.LVL4:
  74 002a 0146     		mov	r1, r0
  75              		.loc 1 605 9 view .LVU10
  76 002c 3046     		mov	r0, r6
  77 002e FFF7FEFF 		bl	__aeabi_fadd
  78              	.LVL5:
  79 0032 0646     		mov	r6, r0
  80              	.LVL6:
ARM GAS  C:\Users\zhangjd\AppData\Local\Temp\cciTDb3B.s 			page 13


 606:Core/Src/main.c ****     state[1] = state[0];
  81              		.loc 1 606 5 is_stmt 1 view .LVU11
  82              		.loc 1 606 14 is_stmt 0 view .LVU12
  83 0034 6760     		str	r7, [r4, #4]	@ float
 607:Core/Src/main.c ****     state[0] = in;
  84              		.loc 1 607 5 is_stmt 1 view .LVU13
  85              		.loc 1 607 14 is_stmt 0 view .LVU14
  86 0036 2560     		str	r5, [r4]	@ float
 608:Core/Src/main.c ****     if (out >= PID_MAX)
  87              		.loc 1 608 5 is_stmt 1 view .LVU15
  88              		.loc 1 608 8 is_stmt 0 view .LVU16
  89 0038 0E49     		ldr	r1, .L13+16
  90 003a FFF7FEFF 		bl	__aeabi_fcmpge
  91              	.LVL7:
  92              		.loc 1 608 8 view .LVU17
  93 003e 20B1     		cbz	r0, .L9
 609:Core/Src/main.c ****         state[2] = PID_MAX;
  94              		.loc 1 609 9 is_stmt 1 view .LVU18
  95              		.loc 1 609 18 is_stmt 0 view .LVU19
  96 0040 0C4A     		ldr	r2, .L13+16
  97 0042 A260     		str	r2, [r4, #8]	@ float
  98              	.L4:
 610:Core/Src/main.c ****     else if (out <= PID_MIN)
 611:Core/Src/main.c ****         state[2] = PID_MIN;
 612:Core/Src/main.c ****     else
 613:Core/Src/main.c ****         state[2] = out;
 614:Core/Src/main.c ****     return (state[2]);
  99              		.loc 1 614 5 is_stmt 1 view .LVU20
 615:Core/Src/main.c **** }
 100              		.loc 1 615 1 is_stmt 0 view .LVU21
 101 0044 084B     		ldr	r3, .L13+4
 102 0046 9868     		ldr	r0, [r3, #8]	@ float
 103 0048 F8BD     		pop	{r3, r4, r5, r6, r7, pc}
 104              	.LVL8:
 105              	.L9:
 610:Core/Src/main.c ****     else if (out <= PID_MIN)
 106              		.loc 1 610 10 is_stmt 1 view .LVU22
 610:Core/Src/main.c ****     else if (out <= PID_MIN)
 107              		.loc 1 610 13 is_stmt 0 view .LVU23
 108 004a 0021     		movs	r1, #0
 109 004c 3046     		mov	r0, r6
 110 004e FFF7FEFF 		bl	__aeabi_fcmple
 111              	.LVL9:
 112 0052 10B9     		cbnz	r0, .L12
 613:Core/Src/main.c ****     return (state[2]);
 113              		.loc 1 613 9 is_stmt 1 view .LVU24
 613:Core/Src/main.c ****     return (state[2]);
 114              		.loc 1 613 18 is_stmt 0 view .LVU25
 115 0054 044B     		ldr	r3, .L13+4
 116 0056 9E60     		str	r6, [r3, #8]	@ float
 117 0058 F4E7     		b	.L4
 118              	.L12:
 611:Core/Src/main.c ****     else
 119              		.loc 1 611 9 is_stmt 1 view .LVU26
 611:Core/Src/main.c ****     else
 120              		.loc 1 611 18 is_stmt 0 view .LVU27
 121 005a 034B     		ldr	r3, .L13+4
ARM GAS  C:\Users\zhangjd\AppData\Local\Temp\cciTDb3B.s 			page 14


 122 005c 0022     		movs	r2, #0
 123 005e 9A60     		str	r2, [r3, #8]	@ float
 124 0060 F0E7     		b	.L4
 125              	.L14:
 126 0062 00BF     		.align	2
 127              	.L13:
 128 0064 00006843 		.word	1130889216
 129 0068 00000000 		.word	.LANCHOR0
 130 006c 00009041 		.word	1099956224
 131 0070 00004842 		.word	1112014848
 132 0074 00803B45 		.word	1161527296
 133              		.cfi_endproc
 134              	.LFE68:
 136              		.section	.text.Abs,"ax",%progbits
 137              		.align	1
 138              		.global	Abs
 139              		.syntax unified
 140              		.thumb
 141              		.thumb_func
 142              		.fpu softvfp
 144              	Abs:
 145              	.LVL10:
 146              	.LFB69:
 616:Core/Src/main.c **** 
 617:Core/Src/main.c **** short Abs(short in)
 618:Core/Src/main.c **** {
 147              		.loc 1 618 1 is_stmt 1 view -0
 148              		.cfi_startproc
 149              		@ args = 0, pretend = 0, frame = 0
 150              		@ frame_needed = 0, uses_anonymous_args = 0
 151              		@ link register save eliminated.
 619:Core/Src/main.c ****     return in >= 0 ? in : -in;
 152              		.loc 1 619 5 view .LVU29
 153              		.loc 1 619 25 is_stmt 0 view .LVU30
 154 0000 0028     		cmp	r0, #0
 155 0002 B8BF     		it	lt
 156 0004 4042     		rsblt	r0, r0, #0
 157              	.LVL11:
 620:Core/Src/main.c **** }
 158              		.loc 1 620 1 view .LVU31
 159 0006 00B2     		sxth	r0, r0
 160 0008 7047     		bx	lr
 161              		.cfi_endproc
 162              	.LFE69:
 164              		.global	__aeabi_fsub
 165              		.global	__aeabi_fcmpgt
 166              		.global	__aeabi_fcmplt
 167              		.section	.text.qiuyu360,"ax",%progbits
 168              		.align	1
 169              		.global	qiuyu360
 170              		.syntax unified
 171              		.thumb
 172              		.thumb_func
 173              		.fpu softvfp
 175              	qiuyu360:
 176              	.LVL12:
 177              	.LFB70:
ARM GAS  C:\Users\zhangjd\AppData\Local\Temp\cciTDb3B.s 			page 15


 621:Core/Src/main.c **** 
 622:Core/Src/main.c **** float qiuyu360(float in)
 623:Core/Src/main.c **** {
 178              		.loc 1 623 1 is_stmt 1 view -0
 179              		.cfi_startproc
 180              		@ args = 0, pretend = 0, frame = 0
 181              		@ frame_needed = 0, uses_anonymous_args = 0
 182              		.loc 1 623 1 is_stmt 0 view .LVU33
 183 0000 10B5     		push	{r4, lr}
 184              	.LCFI1:
 185              		.cfi_def_cfa_offset 8
 186              		.cfi_offset 4, -8
 187              		.cfi_offset 14, -4
 188 0002 0446     		mov	r4, r0
 624:Core/Src/main.c ****     while (in > 360)
 189              		.loc 1 624 5 is_stmt 1 view .LVU34
 190              		.loc 1 624 11 is_stmt 0 view .LVU35
 191 0004 04E0     		b	.L17
 192              	.LVL13:
 193              	.L18:
 625:Core/Src/main.c ****         in -= 360.0;
 194              		.loc 1 625 9 is_stmt 1 view .LVU36
 195              		.loc 1 625 12 is_stmt 0 view .LVU37
 196 0006 0C49     		ldr	r1, .L22
 197 0008 2046     		mov	r0, r4
 198 000a FFF7FEFF 		bl	__aeabi_fsub
 199              	.LVL14:
 200 000e 0446     		mov	r4, r0
 201              	.LVL15:
 202              	.L17:
 624:Core/Src/main.c ****     while (in > 360)
 203              		.loc 1 624 11 is_stmt 1 view .LVU38
 204 0010 0949     		ldr	r1, .L22
 205 0012 2046     		mov	r0, r4
 624:Core/Src/main.c ****     while (in > 360)
 206              		.loc 1 624 11 is_stmt 0 view .LVU39
 207 0014 FFF7FEFF 		bl	__aeabi_fcmpgt
 208              	.LVL16:
 624:Core/Src/main.c ****     while (in > 360)
 209              		.loc 1 624 11 view .LVU40
 210 0018 0028     		cmp	r0, #0
 211 001a F4D1     		bne	.L18
 624:Core/Src/main.c ****     while (in > 360)
 212              		.loc 1 624 11 view .LVU41
 213 001c 04E0     		b	.L19
 214              	.L20:
 626:Core/Src/main.c ****     while (in < 0)
 627:Core/Src/main.c ****         in += 360.0;
 215              		.loc 1 627 9 is_stmt 1 view .LVU42
 216              		.loc 1 627 12 is_stmt 0 view .LVU43
 217 001e 0649     		ldr	r1, .L22
 218 0020 2046     		mov	r0, r4
 219 0022 FFF7FEFF 		bl	__aeabi_fadd
 220              	.LVL17:
 221 0026 0446     		mov	r4, r0
 222              	.LVL18:
 223              	.L19:
ARM GAS  C:\Users\zhangjd\AppData\Local\Temp\cciTDb3B.s 			page 16


 626:Core/Src/main.c ****     while (in < 0)
 224              		.loc 1 626 11 is_stmt 1 view .LVU44
 225 0028 0021     		movs	r1, #0
 226 002a 2046     		mov	r0, r4
 227 002c FFF7FEFF 		bl	__aeabi_fcmplt
 228              	.LVL19:
 229 0030 0028     		cmp	r0, #0
 230 0032 F4D1     		bne	.L20
 628:Core/Src/main.c ****     return in;
 231              		.loc 1 628 5 view .LVU45
 629:Core/Src/main.c **** }
 232              		.loc 1 629 1 is_stmt 0 view .LVU46
 233 0034 2046     		mov	r0, r4
 234 0036 10BD     		pop	{r4, pc}
 235              	.LVL20:
 236              	.L23:
 237              		.loc 1 629 1 view .LVU47
 238              		.align	2
 239              	.L22:
 240 0038 0000B443 		.word	1135869952
 241              		.cfi_endproc
 242              	.LFE70:
 244              		.section	.text.forward,"ax",%progbits
 245              		.align	1
 246              		.global	forward
 247              		.syntax unified
 248              		.thumb
 249              		.thumb_func
 250              		.fpu softvfp
 252              	forward:
 253              	.LVL21:
 254              	.LFB71:
 630:Core/Src/main.c **** 
 631:Core/Src/main.c **** void forward(int pwm)
 632:Core/Src/main.c **** {
 255              		.loc 1 632 1 is_stmt 1 view -0
 256              		.cfi_startproc
 257              		@ args = 0, pretend = 0, frame = 0
 258              		@ frame_needed = 0, uses_anonymous_args = 0
 259              		.loc 1 632 1 is_stmt 0 view .LVU49
 260 0000 38B5     		push	{r3, r4, r5, lr}
 261              	.LCFI2:
 262              		.cfi_def_cfa_offset 16
 263              		.cfi_offset 3, -16
 264              		.cfi_offset 4, -12
 265              		.cfi_offset 5, -8
 266              		.cfi_offset 14, -4
 267 0002 0546     		mov	r5, r0
 633:Core/Src/main.c ****     //change rotate direction of wheel
 634:Core/Src/main.c ****     HAL_GPIO_WritePin(GPIOB, GPIO_PIN_0, GPIO_PIN_SET);
 268              		.loc 1 634 5 is_stmt 1 view .LVU50
 269 0004 1A4C     		ldr	r4, .L26
 270 0006 0122     		movs	r2, #1
 271 0008 1146     		mov	r1, r2
 272 000a 2046     		mov	r0, r4
 273              	.LVL22:
 274              		.loc 1 634 5 is_stmt 0 view .LVU51
ARM GAS  C:\Users\zhangjd\AppData\Local\Temp\cciTDb3B.s 			page 17


 275 000c FFF7FEFF 		bl	HAL_GPIO_WritePin
 276              	.LVL23:
 635:Core/Src/main.c ****     HAL_GPIO_WritePin(GPIOB, GPIO_PIN_1, GPIO_PIN_RESET);
 277              		.loc 1 635 5 is_stmt 1 view .LVU52
 278 0010 0022     		movs	r2, #0
 279 0012 0221     		movs	r1, #2
 280 0014 2046     		mov	r0, r4
 281 0016 FFF7FEFF 		bl	HAL_GPIO_WritePin
 282              	.LVL24:
 636:Core/Src/main.c ****     HAL_GPIO_WritePin(GPIOB, GPIO_PIN_2, GPIO_PIN_RESET);
 283              		.loc 1 636 5 view .LVU53
 284 001a 0022     		movs	r2, #0
 285 001c 0421     		movs	r1, #4
 286 001e 2046     		mov	r0, r4
 287 0020 FFF7FEFF 		bl	HAL_GPIO_WritePin
 288              	.LVL25:
 637:Core/Src/main.c ****     HAL_GPIO_WritePin(GPIOB, GPIO_PIN_10, GPIO_PIN_SET);
 289              		.loc 1 637 5 view .LVU54
 290 0024 0122     		movs	r2, #1
 291 0026 4FF48061 		mov	r1, #1024
 292 002a 2046     		mov	r0, r4
 293 002c FFF7FEFF 		bl	HAL_GPIO_WritePin
 294              	.LVL26:
 638:Core/Src/main.c ****     HAL_GPIO_WritePin(GPIOB, GPIO_PIN_11, GPIO_PIN_SET);
 295              		.loc 1 638 5 view .LVU55
 296 0030 0122     		movs	r2, #1
 297 0032 4FF40061 		mov	r1, #2048
 298 0036 2046     		mov	r0, r4
 299 0038 FFF7FEFF 		bl	HAL_GPIO_WritePin
 300              	.LVL27:
 639:Core/Src/main.c ****     HAL_GPIO_WritePin(GPIOB, GPIO_PIN_12, GPIO_PIN_RESET);
 301              		.loc 1 639 5 view .LVU56
 302 003c 0022     		movs	r2, #0
 303 003e 4FF48051 		mov	r1, #4096
 304 0042 2046     		mov	r0, r4
 305 0044 FFF7FEFF 		bl	HAL_GPIO_WritePin
 306              	.LVL28:
 640:Core/Src/main.c ****     HAL_GPIO_WritePin(GPIOB, GPIO_PIN_13, GPIO_PIN_RESET);
 307              		.loc 1 640 5 view .LVU57
 308 0048 0022     		movs	r2, #0
 309 004a 4FF40051 		mov	r1, #8192
 310 004e 2046     		mov	r0, r4
 311 0050 FFF7FEFF 		bl	HAL_GPIO_WritePin
 312              	.LVL29:
 641:Core/Src/main.c ****     HAL_GPIO_WritePin(GPIOB, GPIO_PIN_14, GPIO_PIN_SET);
 313              		.loc 1 641 5 view .LVU58
 314 0054 0122     		movs	r2, #1
 315 0056 4FF48041 		mov	r1, #16384
 316 005a 2046     		mov	r0, r4
 317 005c FFF7FEFF 		bl	HAL_GPIO_WritePin
 318              	.LVL30:
 642:Core/Src/main.c ****     //give pwm output
 643:Core/Src/main.c ****     __HAL_TIM_SetCompare(&htim8, TIM_CHANNEL_1, pwm);
 319              		.loc 1 643 5 view .LVU59
 320 0060 044B     		ldr	r3, .L26+4
 321 0062 1B68     		ldr	r3, [r3]
 322 0064 5D63     		str	r5, [r3, #52]
ARM GAS  C:\Users\zhangjd\AppData\Local\Temp\cciTDb3B.s 			page 18


 644:Core/Src/main.c ****     __HAL_TIM_SetCompare(&htim8, TIM_CHANNEL_2, pwm);
 323              		.loc 1 644 5 view .LVU60
 324 0066 9D63     		str	r5, [r3, #56]
 645:Core/Src/main.c ****     __HAL_TIM_SetCompare(&htim8, TIM_CHANNEL_3, pwm);
 325              		.loc 1 645 5 view .LVU61
 326 0068 DD63     		str	r5, [r3, #60]
 646:Core/Src/main.c ****     __HAL_TIM_SetCompare(&htim8, TIM_CHANNEL_4, pwm);
 327              		.loc 1 646 5 view .LVU62
 328 006a 1D64     		str	r5, [r3, #64]
 647:Core/Src/main.c **** }
 329              		.loc 1 647 1 is_stmt 0 view .LVU63
 330 006c 38BD     		pop	{r3, r4, r5, pc}
 331              	.LVL31:
 332              	.L27:
 333              		.loc 1 647 1 view .LVU64
 334 006e 00BF     		.align	2
 335              	.L26:
 336 0070 000C0140 		.word	1073810432
 337 0074 00000000 		.word	htim8
 338              		.cfi_endproc
 339              	.LFE71:
 341              		.section	.text.backward,"ax",%progbits
 342              		.align	1
 343              		.global	backward
 344              		.syntax unified
 345              		.thumb
 346              		.thumb_func
 347              		.fpu softvfp
 349              	backward:
 350              	.LVL32:
 351              	.LFB72:
 648:Core/Src/main.c **** 
 649:Core/Src/main.c **** void backward(int pwm)
 650:Core/Src/main.c **** {
 352              		.loc 1 650 1 is_stmt 1 view -0
 353              		.cfi_startproc
 354              		@ args = 0, pretend = 0, frame = 0
 355              		@ frame_needed = 0, uses_anonymous_args = 0
 356              		.loc 1 650 1 is_stmt 0 view .LVU66
 357 0000 38B5     		push	{r3, r4, r5, lr}
 358              	.LCFI3:
 359              		.cfi_def_cfa_offset 16
 360              		.cfi_offset 3, -16
 361              		.cfi_offset 4, -12
 362              		.cfi_offset 5, -8
 363              		.cfi_offset 14, -4
 364 0002 0546     		mov	r5, r0
 651:Core/Src/main.c ****     //change rotate direction of wheel
 652:Core/Src/main.c ****     HAL_GPIO_WritePin(GPIOB, GPIO_PIN_0, GPIO_PIN_RESET);
 365              		.loc 1 652 5 is_stmt 1 view .LVU67
 366 0004 1A4C     		ldr	r4, .L30
 367 0006 0022     		movs	r2, #0
 368 0008 0121     		movs	r1, #1
 369 000a 2046     		mov	r0, r4
 370              	.LVL33:
 371              		.loc 1 652 5 is_stmt 0 view .LVU68
 372 000c FFF7FEFF 		bl	HAL_GPIO_WritePin
ARM GAS  C:\Users\zhangjd\AppData\Local\Temp\cciTDb3B.s 			page 19


 373              	.LVL34:
 653:Core/Src/main.c ****     HAL_GPIO_WritePin(GPIOB, GPIO_PIN_1, GPIO_PIN_SET);
 374              		.loc 1 653 5 is_stmt 1 view .LVU69
 375 0010 0122     		movs	r2, #1
 376 0012 0221     		movs	r1, #2
 377 0014 2046     		mov	r0, r4
 378 0016 FFF7FEFF 		bl	HAL_GPIO_WritePin
 379              	.LVL35:
 654:Core/Src/main.c ****     HAL_GPIO_WritePin(GPIOB, GPIO_PIN_2, GPIO_PIN_SET);
 380              		.loc 1 654 5 view .LVU70
 381 001a 0122     		movs	r2, #1
 382 001c 0421     		movs	r1, #4
 383 001e 2046     		mov	r0, r4
 384 0020 FFF7FEFF 		bl	HAL_GPIO_WritePin
 385              	.LVL36:
 655:Core/Src/main.c ****     HAL_GPIO_WritePin(GPIOB, GPIO_PIN_10, GPIO_PIN_RESET);
 386              		.loc 1 655 5 view .LVU71
 387 0024 0022     		movs	r2, #0
 388 0026 4FF48061 		mov	r1, #1024
 389 002a 2046     		mov	r0, r4
 390 002c FFF7FEFF 		bl	HAL_GPIO_WritePin
 391              	.LVL37:
 656:Core/Src/main.c ****     HAL_GPIO_WritePin(GPIOB, GPIO_PIN_11, GPIO_PIN_RESET);
 392              		.loc 1 656 5 view .LVU72
 393 0030 0022     		movs	r2, #0
 394 0032 4FF40061 		mov	r1, #2048
 395 0036 2046     		mov	r0, r4
 396 0038 FFF7FEFF 		bl	HAL_GPIO_WritePin
 397              	.LVL38:
 657:Core/Src/main.c ****     HAL_GPIO_WritePin(GPIOB, GPIO_PIN_12, GPIO_PIN_SET);
 398              		.loc 1 657 5 view .LVU73
 399 003c 0122     		movs	r2, #1
 400 003e 4FF48051 		mov	r1, #4096
 401 0042 2046     		mov	r0, r4
 402 0044 FFF7FEFF 		bl	HAL_GPIO_WritePin
 403              	.LVL39:
 658:Core/Src/main.c ****     HAL_GPIO_WritePin(GPIOB, GPIO_PIN_13, GPIO_PIN_SET);
 404              		.loc 1 658 5 view .LVU74
 405 0048 0122     		movs	r2, #1
 406 004a 4FF40051 		mov	r1, #8192
 407 004e 2046     		mov	r0, r4
 408 0050 FFF7FEFF 		bl	HAL_GPIO_WritePin
 409              	.LVL40:
 659:Core/Src/main.c ****     HAL_GPIO_WritePin(GPIOB, GPIO_PIN_14, GPIO_PIN_RESET);
 410              		.loc 1 659 5 view .LVU75
 411 0054 0022     		movs	r2, #0
 412 0056 4FF48041 		mov	r1, #16384
 413 005a 2046     		mov	r0, r4
 414 005c FFF7FEFF 		bl	HAL_GPIO_WritePin
 415              	.LVL41:
 660:Core/Src/main.c ****     //give pwm output
 661:Core/Src/main.c ****     __HAL_TIM_SetCompare(&htim8, TIM_CHANNEL_1, pwm);
 416              		.loc 1 661 5 view .LVU76
 417 0060 044B     		ldr	r3, .L30+4
 418 0062 1B68     		ldr	r3, [r3]
 419 0064 5D63     		str	r5, [r3, #52]
 662:Core/Src/main.c ****     __HAL_TIM_SetCompare(&htim8, TIM_CHANNEL_2, pwm);
ARM GAS  C:\Users\zhangjd\AppData\Local\Temp\cciTDb3B.s 			page 20


 420              		.loc 1 662 5 view .LVU77
 421 0066 9D63     		str	r5, [r3, #56]
 663:Core/Src/main.c ****     __HAL_TIM_SetCompare(&htim8, TIM_CHANNEL_3, pwm);
 422              		.loc 1 663 5 view .LVU78
 423 0068 DD63     		str	r5, [r3, #60]
 664:Core/Src/main.c ****     __HAL_TIM_SetCompare(&htim8, TIM_CHANNEL_4, pwm);
 424              		.loc 1 664 5 view .LVU79
 425 006a 1D64     		str	r5, [r3, #64]
 665:Core/Src/main.c **** }
 426              		.loc 1 665 1 is_stmt 0 view .LVU80
 427 006c 38BD     		pop	{r3, r4, r5, pc}
 428              	.LVL42:
 429              	.L31:
 430              		.loc 1 665 1 view .LVU81
 431 006e 00BF     		.align	2
 432              	.L30:
 433 0070 000C0140 		.word	1073810432
 434 0074 00000000 		.word	htim8
 435              		.cfi_endproc
 436              	.LFE72:
 438              		.section	.text.rotate_counterclockwise,"ax",%progbits
 439              		.align	1
 440              		.global	rotate_counterclockwise
 441              		.syntax unified
 442              		.thumb
 443              		.thumb_func
 444              		.fpu softvfp
 446              	rotate_counterclockwise:
 447              	.LVL43:
 448              	.LFB73:
 666:Core/Src/main.c **** 
 667:Core/Src/main.c **** void rotate_counterclockwise(int pwm)
 668:Core/Src/main.c **** {
 449              		.loc 1 668 1 is_stmt 1 view -0
 450              		.cfi_startproc
 451              		@ args = 0, pretend = 0, frame = 0
 452              		@ frame_needed = 0, uses_anonymous_args = 0
 453              		.loc 1 668 1 is_stmt 0 view .LVU83
 454 0000 10B5     		push	{r4, lr}
 455              	.LCFI4:
 456              		.cfi_def_cfa_offset 8
 457              		.cfi_offset 4, -8
 458              		.cfi_offset 14, -4
 669:Core/Src/main.c ****     //change rotate direction of wheel
 670:Core/Src/main.c ****     HAL_GPIO_WritePin(GPIOB, GPIO_PIN_0, GPIO_PIN_SET);
 459              		.loc 1 670 5 is_stmt 1 view .LVU84
 460 0002 1C4C     		ldr	r4, .L34
 461 0004 0122     		movs	r2, #1
 462 0006 1146     		mov	r1, r2
 463 0008 2046     		mov	r0, r4
 464              	.LVL44:
 465              		.loc 1 670 5 is_stmt 0 view .LVU85
 466 000a FFF7FEFF 		bl	HAL_GPIO_WritePin
 467              	.LVL45:
 671:Core/Src/main.c ****     HAL_GPIO_WritePin(GPIOB, GPIO_PIN_1, GPIO_PIN_RESET);
 468              		.loc 1 671 5 is_stmt 1 view .LVU86
 469 000e 0022     		movs	r2, #0
ARM GAS  C:\Users\zhangjd\AppData\Local\Temp\cciTDb3B.s 			page 21


 470 0010 0221     		movs	r1, #2
 471 0012 2046     		mov	r0, r4
 472 0014 FFF7FEFF 		bl	HAL_GPIO_WritePin
 473              	.LVL46:
 672:Core/Src/main.c ****     HAL_GPIO_WritePin(GPIOB, GPIO_PIN_2, GPIO_PIN_RESET);
 474              		.loc 1 672 5 view .LVU87
 475 0018 0022     		movs	r2, #0
 476 001a 0421     		movs	r1, #4
 477 001c 2046     		mov	r0, r4
 478 001e FFF7FEFF 		bl	HAL_GPIO_WritePin
 479              	.LVL47:
 673:Core/Src/main.c ****     HAL_GPIO_WritePin(GPIOB, GPIO_PIN_10, GPIO_PIN_SET);
 480              		.loc 1 673 5 view .LVU88
 481 0022 0122     		movs	r2, #1
 482 0024 4FF48061 		mov	r1, #1024
 483 0028 2046     		mov	r0, r4
 484 002a FFF7FEFF 		bl	HAL_GPIO_WritePin
 485              	.LVL48:
 674:Core/Src/main.c ****     HAL_GPIO_WritePin(GPIOB, GPIO_PIN_11, GPIO_PIN_RESET);
 486              		.loc 1 674 5 view .LVU89
 487 002e 0022     		movs	r2, #0
 488 0030 4FF40061 		mov	r1, #2048
 489 0034 2046     		mov	r0, r4
 490 0036 FFF7FEFF 		bl	HAL_GPIO_WritePin
 491              	.LVL49:
 675:Core/Src/main.c ****     HAL_GPIO_WritePin(GPIOB, GPIO_PIN_12, GPIO_PIN_SET);
 492              		.loc 1 675 5 view .LVU90
 493 003a 0122     		movs	r2, #1
 494 003c 4FF48051 		mov	r1, #4096
 495 0040 2046     		mov	r0, r4
 496 0042 FFF7FEFF 		bl	HAL_GPIO_WritePin
 497              	.LVL50:
 676:Core/Src/main.c ****     HAL_GPIO_WritePin(GPIOB, GPIO_PIN_13, GPIO_PIN_SET);
 498              		.loc 1 676 5 view .LVU91
 499 0046 0122     		movs	r2, #1
 500 0048 4FF40051 		mov	r1, #8192
 501 004c 2046     		mov	r0, r4
 502 004e FFF7FEFF 		bl	HAL_GPIO_WritePin
 503              	.LVL51:
 677:Core/Src/main.c ****     HAL_GPIO_WritePin(GPIOB, GPIO_PIN_14, GPIO_PIN_RESET);
 504              		.loc 1 677 5 view .LVU92
 505 0052 0022     		movs	r2, #0
 506 0054 4FF48041 		mov	r1, #16384
 507 0058 2046     		mov	r0, r4
 508 005a FFF7FEFF 		bl	HAL_GPIO_WritePin
 509              	.LVL52:
 678:Core/Src/main.c ****     //give pwm output
 679:Core/Src/main.c ****     // Get_rotate_pwm();
 680:Core/Src/main.c ****     // __HAL_TIM_SetCompare(&htim8, TIM_CHANNEL_1, rotate_pwm[0]);
 681:Core/Src/main.c ****     // __HAL_TIM_SetCompare(&htim8, TIM_CHANNEL_2, rotate_pwm[1]);
 682:Core/Src/main.c ****     // __HAL_TIM_SetCompare(&htim8, TIM_CHANNEL_3, rotate_pwm[2]);
 683:Core/Src/main.c ****     // __HAL_TIM_SetCompare(&htim8, TIM_CHANNEL_4, rotate_pwm[3]);
 684:Core/Src/main.c ****     __HAL_TIM_SetCompare(&htim8, TIM_CHANNEL_1, rotate_speed);
 510              		.loc 1 684 5 view .LVU93
 511 005e 064B     		ldr	r3, .L34+4
 512 0060 1B68     		ldr	r3, [r3]
 513 0062 4FF44862 		mov	r2, #3200
ARM GAS  C:\Users\zhangjd\AppData\Local\Temp\cciTDb3B.s 			page 22


 514 0066 5A63     		str	r2, [r3, #52]
 685:Core/Src/main.c ****     __HAL_TIM_SetCompare(&htim8, TIM_CHANNEL_2, rotate_speed);
 515              		.loc 1 685 5 view .LVU94
 516 0068 9A63     		str	r2, [r3, #56]
 686:Core/Src/main.c ****     __HAL_TIM_SetCompare(&htim8, TIM_CHANNEL_3, 0);
 517              		.loc 1 686 5 view .LVU95
 518 006a 0021     		movs	r1, #0
 519 006c D963     		str	r1, [r3, #60]
 687:Core/Src/main.c ****     __HAL_TIM_SetCompare(&htim8, TIM_CHANNEL_4, rotate_speed);
 520              		.loc 1 687 5 view .LVU96
 521 006e 1A64     		str	r2, [r3, #64]
 688:Core/Src/main.c **** }
 522              		.loc 1 688 1 is_stmt 0 view .LVU97
 523 0070 10BD     		pop	{r4, pc}
 524              	.L35:
 525 0072 00BF     		.align	2
 526              	.L34:
 527 0074 000C0140 		.word	1073810432
 528 0078 00000000 		.word	htim8
 529              		.cfi_endproc
 530              	.LFE73:
 532              		.section	.text.rotate_clockwise,"ax",%progbits
 533              		.align	1
 534              		.global	rotate_clockwise
 535              		.syntax unified
 536              		.thumb
 537              		.thumb_func
 538              		.fpu softvfp
 540              	rotate_clockwise:
 541              	.LVL53:
 542              	.LFB74:
 689:Core/Src/main.c **** 
 690:Core/Src/main.c **** void rotate_clockwise(int pwm)
 691:Core/Src/main.c **** {
 543              		.loc 1 691 1 is_stmt 1 view -0
 544              		.cfi_startproc
 545              		@ args = 0, pretend = 0, frame = 0
 546              		@ frame_needed = 0, uses_anonymous_args = 0
 547              		.loc 1 691 1 is_stmt 0 view .LVU99
 548 0000 10B5     		push	{r4, lr}
 549              	.LCFI5:
 550              		.cfi_def_cfa_offset 8
 551              		.cfi_offset 4, -8
 552              		.cfi_offset 14, -4
 692:Core/Src/main.c ****     //change rotate direction of wheel
 693:Core/Src/main.c ****     HAL_GPIO_WritePin(GPIOB, GPIO_PIN_0, GPIO_PIN_RESET);
 553              		.loc 1 693 5 is_stmt 1 view .LVU100
 554 0002 1C4C     		ldr	r4, .L38
 555 0004 0022     		movs	r2, #0
 556 0006 0121     		movs	r1, #1
 557 0008 2046     		mov	r0, r4
 558              	.LVL54:
 559              		.loc 1 693 5 is_stmt 0 view .LVU101
 560 000a FFF7FEFF 		bl	HAL_GPIO_WritePin
 561              	.LVL55:
 694:Core/Src/main.c ****     HAL_GPIO_WritePin(GPIOB, GPIO_PIN_1, GPIO_PIN_SET);
 562              		.loc 1 694 5 is_stmt 1 view .LVU102
ARM GAS  C:\Users\zhangjd\AppData\Local\Temp\cciTDb3B.s 			page 23


 563 000e 0122     		movs	r2, #1
 564 0010 0221     		movs	r1, #2
 565 0012 2046     		mov	r0, r4
 566 0014 FFF7FEFF 		bl	HAL_GPIO_WritePin
 567              	.LVL56:
 695:Core/Src/main.c ****     HAL_GPIO_WritePin(GPIOB, GPIO_PIN_2, GPIO_PIN_SET);
 568              		.loc 1 695 5 view .LVU103
 569 0018 0122     		movs	r2, #1
 570 001a 0421     		movs	r1, #4
 571 001c 2046     		mov	r0, r4
 572 001e FFF7FEFF 		bl	HAL_GPIO_WritePin
 573              	.LVL57:
 696:Core/Src/main.c ****     HAL_GPIO_WritePin(GPIOB, GPIO_PIN_10, GPIO_PIN_RESET);
 574              		.loc 1 696 5 view .LVU104
 575 0022 0022     		movs	r2, #0
 576 0024 4FF48061 		mov	r1, #1024
 577 0028 2046     		mov	r0, r4
 578 002a FFF7FEFF 		bl	HAL_GPIO_WritePin
 579              	.LVL58:
 697:Core/Src/main.c ****     HAL_GPIO_WritePin(GPIOB, GPIO_PIN_11, GPIO_PIN_SET);
 580              		.loc 1 697 5 view .LVU105
 581 002e 0122     		movs	r2, #1
 582 0030 4FF40061 		mov	r1, #2048
 583 0034 2046     		mov	r0, r4
 584 0036 FFF7FEFF 		bl	HAL_GPIO_WritePin
 585              	.LVL59:
 698:Core/Src/main.c ****     HAL_GPIO_WritePin(GPIOB, GPIO_PIN_12, GPIO_PIN_RESET);
 586              		.loc 1 698 5 view .LVU106
 587 003a 0022     		movs	r2, #0
 588 003c 4FF48051 		mov	r1, #4096
 589 0040 2046     		mov	r0, r4
 590 0042 FFF7FEFF 		bl	HAL_GPIO_WritePin
 591              	.LVL60:
 699:Core/Src/main.c ****     HAL_GPIO_WritePin(GPIOB, GPIO_PIN_13, GPIO_PIN_RESET);
 592              		.loc 1 699 5 view .LVU107
 593 0046 0022     		movs	r2, #0
 594 0048 4FF40051 		mov	r1, #8192
 595 004c 2046     		mov	r0, r4
 596 004e FFF7FEFF 		bl	HAL_GPIO_WritePin
 597              	.LVL61:
 700:Core/Src/main.c ****     HAL_GPIO_WritePin(GPIOB, GPIO_PIN_14, GPIO_PIN_SET);
 598              		.loc 1 700 5 view .LVU108
 599 0052 0122     		movs	r2, #1
 600 0054 4FF48041 		mov	r1, #16384
 601 0058 2046     		mov	r0, r4
 602 005a FFF7FEFF 		bl	HAL_GPIO_WritePin
 603              	.LVL62:
 701:Core/Src/main.c ****     //give pwm output
 702:Core/Src/main.c ****     // Get_rotate_pwm();
 703:Core/Src/main.c ****     // __HAL_TIM_SetCompare(&htim8, TIM_CHANNEL_1, rotate_pwm[0]);
 704:Core/Src/main.c ****     // __HAL_TIM_SetCompare(&htim8, TIM_CHANNEL_2, rotate_pwm[1]);
 705:Core/Src/main.c ****     // __HAL_TIM_SetCompare(&htim8, TIM_CHANNEL_3, rotate_pwm[2]);
 706:Core/Src/main.c ****     // __HAL_TIM_SetCompare(&htim8, TIM_CHANNEL_4, rotate_pwm[3]);
 707:Core/Src/main.c ****     __HAL_TIM_SetCompare(&htim8, TIM_CHANNEL_1, 0);
 604              		.loc 1 707 5 view .LVU109
 605 005e 064B     		ldr	r3, .L38+4
 606 0060 1B68     		ldr	r3, [r3]
ARM GAS  C:\Users\zhangjd\AppData\Local\Temp\cciTDb3B.s 			page 24


 607 0062 0022     		movs	r2, #0
 608 0064 5A63     		str	r2, [r3, #52]
 708:Core/Src/main.c ****     __HAL_TIM_SetCompare(&htim8, TIM_CHANNEL_2, rotate_speed);
 609              		.loc 1 708 5 view .LVU110
 610 0066 4FF44862 		mov	r2, #3200
 611 006a 9A63     		str	r2, [r3, #56]
 709:Core/Src/main.c ****     __HAL_TIM_SetCompare(&htim8, TIM_CHANNEL_3, rotate_speed);
 612              		.loc 1 709 5 view .LVU111
 613 006c DA63     		str	r2, [r3, #60]
 710:Core/Src/main.c ****     __HAL_TIM_SetCompare(&htim8, TIM_CHANNEL_4, rotate_speed);
 614              		.loc 1 710 5 view .LVU112
 615 006e 1A64     		str	r2, [r3, #64]
 711:Core/Src/main.c **** }
 616              		.loc 1 711 1 is_stmt 0 view .LVU113
 617 0070 10BD     		pop	{r4, pc}
 618              	.L39:
 619 0072 00BF     		.align	2
 620              	.L38:
 621 0074 000C0140 		.word	1073810432
 622 0078 00000000 		.word	htim8
 623              		.cfi_endproc
 624              	.LFE74:
 626              		.section	.text.rotate_clockwise_plus_forward,"ax",%progbits
 627              		.align	1
 628              		.global	rotate_clockwise_plus_forward
 629              		.syntax unified
 630              		.thumb
 631              		.thumb_func
 632              		.fpu softvfp
 634              	rotate_clockwise_plus_forward:
 635              	.LVL63:
 636              	.LFB75:
 712:Core/Src/main.c **** 
 713:Core/Src/main.c **** void rotate_clockwise_plus_forward(int pwm)
 714:Core/Src/main.c **** {
 637              		.loc 1 714 1 is_stmt 1 view -0
 638              		.cfi_startproc
 639              		@ args = 0, pretend = 0, frame = 0
 640              		@ frame_needed = 0, uses_anonymous_args = 0
 641              		.loc 1 714 1 is_stmt 0 view .LVU115
 642 0000 10B5     		push	{r4, lr}
 643              	.LCFI6:
 644              		.cfi_def_cfa_offset 8
 645              		.cfi_offset 4, -8
 646              		.cfi_offset 14, -4
 715:Core/Src/main.c ****     //change rotate direction of wheel
 716:Core/Src/main.c ****     HAL_GPIO_WritePin(GPIOB, GPIO_PIN_0, GPIO_PIN_SET); //Âè≥Ëæπ
 647              		.loc 1 716 5 is_stmt 1 view .LVU116
 648 0002 1C4C     		ldr	r4, .L42
 649 0004 0122     		movs	r2, #1
 650 0006 1146     		mov	r1, r2
 651 0008 2046     		mov	r0, r4
 652              	.LVL64:
 653              		.loc 1 716 5 is_stmt 0 view .LVU117
 654 000a FFF7FEFF 		bl	HAL_GPIO_WritePin
 655              	.LVL65:
 717:Core/Src/main.c ****     HAL_GPIO_WritePin(GPIOB, GPIO_PIN_1, GPIO_PIN_RESET);
ARM GAS  C:\Users\zhangjd\AppData\Local\Temp\cciTDb3B.s 			page 25


 656              		.loc 1 717 5 is_stmt 1 view .LVU118
 657 000e 0022     		movs	r2, #0
 658 0010 0221     		movs	r1, #2
 659 0012 2046     		mov	r0, r4
 660 0014 FFF7FEFF 		bl	HAL_GPIO_WritePin
 661              	.LVL66:
 718:Core/Src/main.c ****     HAL_GPIO_WritePin(GPIOB, GPIO_PIN_2, GPIO_PIN_RESET);
 662              		.loc 1 718 5 view .LVU119
 663 0018 0022     		movs	r2, #0
 664 001a 0421     		movs	r1, #4
 665 001c 2046     		mov	r0, r4
 666 001e FFF7FEFF 		bl	HAL_GPIO_WritePin
 667              	.LVL67:
 719:Core/Src/main.c ****     HAL_GPIO_WritePin(GPIOB, GPIO_PIN_10, GPIO_PIN_SET);
 668              		.loc 1 719 5 view .LVU120
 669 0022 0122     		movs	r2, #1
 670 0024 4FF48061 		mov	r1, #1024
 671 0028 2046     		mov	r0, r4
 672 002a FFF7FEFF 		bl	HAL_GPIO_WritePin
 673              	.LVL68:
 720:Core/Src/main.c ****     HAL_GPIO_WritePin(GPIOB, GPIO_PIN_11, GPIO_PIN_SET); //Â∑¶Ëæπ
 674              		.loc 1 720 5 view .LVU121
 675 002e 0122     		movs	r2, #1
 676 0030 4FF40061 		mov	r1, #2048
 677 0034 2046     		mov	r0, r4
 678 0036 FFF7FEFF 		bl	HAL_GPIO_WritePin
 679              	.LVL69:
 721:Core/Src/main.c ****     HAL_GPIO_WritePin(GPIOB, GPIO_PIN_12, GPIO_PIN_RESET);
 680              		.loc 1 721 5 view .LVU122
 681 003a 0022     		movs	r2, #0
 682 003c 4FF48051 		mov	r1, #4096
 683 0040 2046     		mov	r0, r4
 684 0042 FFF7FEFF 		bl	HAL_GPIO_WritePin
 685              	.LVL70:
 722:Core/Src/main.c ****     HAL_GPIO_WritePin(GPIOB, GPIO_PIN_13, GPIO_PIN_RESET);
 686              		.loc 1 722 5 view .LVU123
 687 0046 0022     		movs	r2, #0
 688 0048 4FF40051 		mov	r1, #8192
 689 004c 2046     		mov	r0, r4
 690 004e FFF7FEFF 		bl	HAL_GPIO_WritePin
 691              	.LVL71:
 723:Core/Src/main.c ****     HAL_GPIO_WritePin(GPIOB, GPIO_PIN_14, GPIO_PIN_SET);
 692              		.loc 1 723 5 view .LVU124
 693 0052 0122     		movs	r2, #1
 694 0054 4FF48041 		mov	r1, #16384
 695 0058 2046     		mov	r0, r4
 696 005a FFF7FEFF 		bl	HAL_GPIO_WritePin
 697              	.LVL72:
 724:Core/Src/main.c ****     //give pwm output
 725:Core/Src/main.c ****     __HAL_TIM_SetCompare(&htim8, TIM_CHANNEL_1, 800);
 698              		.loc 1 725 5 view .LVU125
 699 005e 064B     		ldr	r3, .L42+4
 700 0060 1B68     		ldr	r3, [r3]
 701 0062 4FF44872 		mov	r2, #800
 702 0066 5A63     		str	r2, [r3, #52]
 726:Core/Src/main.c ****     __HAL_TIM_SetCompare(&htim8, TIM_CHANNEL_2, 800);
 703              		.loc 1 726 5 view .LVU126
ARM GAS  C:\Users\zhangjd\AppData\Local\Temp\cciTDb3B.s 			page 26


 704 0068 9A63     		str	r2, [r3, #56]
 727:Core/Src/main.c ****     __HAL_TIM_SetCompare(&htim8, TIM_CHANNEL_3, 2000);
 705              		.loc 1 727 5 view .LVU127
 706 006a 4FF4FA62 		mov	r2, #2000
 707 006e DA63     		str	r2, [r3, #60]
 728:Core/Src/main.c ****     __HAL_TIM_SetCompare(&htim8, TIM_CHANNEL_4, 2000);
 708              		.loc 1 728 5 view .LVU128
 709 0070 1A64     		str	r2, [r3, #64]
 729:Core/Src/main.c **** }
 710              		.loc 1 729 1 is_stmt 0 view .LVU129
 711 0072 10BD     		pop	{r4, pc}
 712              	.L43:
 713              		.align	2
 714              	.L42:
 715 0074 000C0140 		.word	1073810432
 716 0078 00000000 		.word	htim8
 717              		.cfi_endproc
 718              	.LFE75:
 720              		.section	.text.brake,"ax",%progbits
 721              		.align	1
 722              		.global	brake
 723              		.syntax unified
 724              		.thumb
 725              		.thumb_func
 726              		.fpu softvfp
 728              	brake:
 729              	.LFB76:
 730:Core/Src/main.c **** void brake()
 731:Core/Src/main.c **** {
 730              		.loc 1 731 1 is_stmt 1 view -0
 731              		.cfi_startproc
 732              		@ args = 0, pretend = 0, frame = 0
 733              		@ frame_needed = 0, uses_anonymous_args = 0
 734 0000 10B5     		push	{r4, lr}
 735              	.LCFI7:
 736              		.cfi_def_cfa_offset 8
 737              		.cfi_offset 4, -8
 738              		.cfi_offset 14, -4
 732:Core/Src/main.c ****     //change rotate direction of wheel
 733:Core/Src/main.c ****     HAL_GPIO_WritePin(GPIOB, GPIO_PIN_0, GPIO_PIN_SET);
 739              		.loc 1 733 5 view .LVU131
 740 0002 1B4C     		ldr	r4, .L46
 741 0004 0122     		movs	r2, #1
 742 0006 1146     		mov	r1, r2
 743 0008 2046     		mov	r0, r4
 744 000a FFF7FEFF 		bl	HAL_GPIO_WritePin
 745              	.LVL73:
 734:Core/Src/main.c ****     HAL_GPIO_WritePin(GPIOB, GPIO_PIN_1, GPIO_PIN_SET);
 746              		.loc 1 734 5 view .LVU132
 747 000e 0122     		movs	r2, #1
 748 0010 0221     		movs	r1, #2
 749 0012 2046     		mov	r0, r4
 750 0014 FFF7FEFF 		bl	HAL_GPIO_WritePin
 751              	.LVL74:
 735:Core/Src/main.c ****     HAL_GPIO_WritePin(GPIOB, GPIO_PIN_2, GPIO_PIN_SET);
 752              		.loc 1 735 5 view .LVU133
 753 0018 0122     		movs	r2, #1
ARM GAS  C:\Users\zhangjd\AppData\Local\Temp\cciTDb3B.s 			page 27


 754 001a 0421     		movs	r1, #4
 755 001c 2046     		mov	r0, r4
 756 001e FFF7FEFF 		bl	HAL_GPIO_WritePin
 757              	.LVL75:
 736:Core/Src/main.c ****     HAL_GPIO_WritePin(GPIOB, GPIO_PIN_10, GPIO_PIN_SET);
 758              		.loc 1 736 5 view .LVU134
 759 0022 0122     		movs	r2, #1
 760 0024 4FF48061 		mov	r1, #1024
 761 0028 2046     		mov	r0, r4
 762 002a FFF7FEFF 		bl	HAL_GPIO_WritePin
 763              	.LVL76:
 737:Core/Src/main.c ****     HAL_GPIO_WritePin(GPIOB, GPIO_PIN_11, GPIO_PIN_SET);
 764              		.loc 1 737 5 view .LVU135
 765 002e 0122     		movs	r2, #1
 766 0030 4FF40061 		mov	r1, #2048
 767 0034 2046     		mov	r0, r4
 768 0036 FFF7FEFF 		bl	HAL_GPIO_WritePin
 769              	.LVL77:
 738:Core/Src/main.c ****     HAL_GPIO_WritePin(GPIOB, GPIO_PIN_12, GPIO_PIN_SET);
 770              		.loc 1 738 5 view .LVU136
 771 003a 0122     		movs	r2, #1
 772 003c 4FF48051 		mov	r1, #4096
 773 0040 2046     		mov	r0, r4
 774 0042 FFF7FEFF 		bl	HAL_GPIO_WritePin
 775              	.LVL78:
 739:Core/Src/main.c ****     HAL_GPIO_WritePin(GPIOB, GPIO_PIN_13, GPIO_PIN_SET);
 776              		.loc 1 739 5 view .LVU137
 777 0046 0122     		movs	r2, #1
 778 0048 4FF40051 		mov	r1, #8192
 779 004c 2046     		mov	r0, r4
 780 004e FFF7FEFF 		bl	HAL_GPIO_WritePin
 781              	.LVL79:
 740:Core/Src/main.c ****     HAL_GPIO_WritePin(GPIOB, GPIO_PIN_14, GPIO_PIN_SET);
 782              		.loc 1 740 5 view .LVU138
 783 0052 0122     		movs	r2, #1
 784 0054 4FF48041 		mov	r1, #16384
 785 0058 2046     		mov	r0, r4
 786 005a FFF7FEFF 		bl	HAL_GPIO_WritePin
 787              	.LVL80:
 741:Core/Src/main.c ****     //give pwm output
 742:Core/Src/main.c ****     __HAL_TIM_SetCompare(&htim8, TIM_CHANNEL_1, 0);
 788              		.loc 1 742 5 view .LVU139
 789 005e 054B     		ldr	r3, .L46+4
 790 0060 1B68     		ldr	r3, [r3]
 791 0062 0022     		movs	r2, #0
 792 0064 5A63     		str	r2, [r3, #52]
 743:Core/Src/main.c ****     __HAL_TIM_SetCompare(&htim8, TIM_CHANNEL_2, 0);
 793              		.loc 1 743 5 view .LVU140
 794 0066 9A63     		str	r2, [r3, #56]
 744:Core/Src/main.c ****     __HAL_TIM_SetCompare(&htim8, TIM_CHANNEL_3, 0);
 795              		.loc 1 744 5 view .LVU141
 796 0068 DA63     		str	r2, [r3, #60]
 745:Core/Src/main.c ****     __HAL_TIM_SetCompare(&htim8, TIM_CHANNEL_4, 0);
 797              		.loc 1 745 5 view .LVU142
 798 006a 1A64     		str	r2, [r3, #64]
 746:Core/Src/main.c **** }
 799              		.loc 1 746 1 is_stmt 0 view .LVU143
ARM GAS  C:\Users\zhangjd\AppData\Local\Temp\cciTDb3B.s 			page 28


 800 006c 10BD     		pop	{r4, pc}
 801              	.L47:
 802 006e 00BF     		.align	2
 803              	.L46:
 804 0070 000C0140 		.word	1073810432
 805 0074 00000000 		.word	htim8
 806              		.cfi_endproc
 807              	.LFE76:
 809              		.global	__aeabi_dcmpgt
 810              		.section	.text.fabs,"ax",%progbits
 811              		.align	1
 812              		.global	fabs
 813              		.syntax unified
 814              		.thumb
 815              		.thumb_func
 816              		.fpu softvfp
 818              	fabs:
 819              	.LVL81:
 820              	.LFB77:
 747:Core/Src/main.c **** double fabs(double x)
 748:Core/Src/main.c **** {
 821              		.loc 1 748 1 is_stmt 1 view -0
 822              		.cfi_startproc
 823              		@ args = 0, pretend = 0, frame = 0
 824              		@ frame_needed = 0, uses_anonymous_args = 0
 825              		.loc 1 748 1 is_stmt 0 view .LVU145
 826 0000 38B5     		push	{r3, r4, r5, lr}
 827              	.LCFI8:
 828              		.cfi_def_cfa_offset 16
 829              		.cfi_offset 3, -16
 830              		.cfi_offset 4, -12
 831              		.cfi_offset 5, -8
 832              		.cfi_offset 14, -4
 833 0002 0546     		mov	r5, r0
 834 0004 0C46     		mov	r4, r1
 749:Core/Src/main.c ****     //ÂèåÁ≤æÂ∫¶ÊµÆÁÇπÊï∞Ê±ÇÁªùÂØπÔøΩ?ÔøΩÂáΩÔøΩ??
 750:Core/Src/main.c ****     return (x > 0) ? x : (-x);
 835              		.loc 1 750 5 is_stmt 1 view .LVU146
 836              		.loc 1 750 24 is_stmt 0 view .LVU147
 837 0006 0022     		movs	r2, #0
 838 0008 0023     		movs	r3, #0
 839 000a 2846     		mov	r0, r5
 840              	.LVL82:
 841              		.loc 1 750 24 view .LVU148
 842 000c 2146     		mov	r1, r4
 843 000e FFF7FEFF 		bl	__aeabi_dcmpgt
 844              	.LVL83:
 845 0012 10B1     		cbz	r0, .L51
 846              	.L49:
 751:Core/Src/main.c **** }
 847              		.loc 1 751 1 discriminator 4 view .LVU149
 848 0014 2846     		mov	r0, r5
 849 0016 2146     		mov	r1, r4
 850 0018 38BD     		pop	{r3, r4, r5, pc}
 851              	.L51:
 750:Core/Src/main.c **** }
 852              		.loc 1 750 24 discriminator 2 view .LVU150
ARM GAS  C:\Users\zhangjd\AppData\Local\Temp\cciTDb3B.s 			page 29


 853 001a 04F10044 		add	r4, r4, #-2147483648
 854 001e F9E7     		b	.L49
 855              		.cfi_endproc
 856              	.LFE77:
 858              		.global	__aeabi_dcmpeq
 859              		.global	__aeabi_dsub
 860              		.global	__aeabi_dcmplt
 861              		.global	__aeabi_dmul
 862              		.global	__aeabi_ddiv
 863              		.global	__aeabi_d2iz
 864              		.global	__aeabi_dadd
 865              		.section	.text.atan2LUTif,"ax",%progbits
 866              		.align	1
 867              		.global	atan2LUTif
 868              		.syntax unified
 869              		.thumb
 870              		.thumb_func
 871              		.fpu softvfp
 873              	atan2LUTif:
 874              	.LVL84:
 875              	.LFB78:
 752:Core/Src/main.c **** double atan2LUTif(double y, double x)
 753:Core/Src/main.c **** {
 876              		.loc 1 753 1 is_stmt 1 view -0
 877              		.cfi_startproc
 878              		@ args = 0, pretend = 0, frame = 0
 879              		@ frame_needed = 0, uses_anonymous_args = 0
 880              		.loc 1 753 1 is_stmt 0 view .LVU152
 881 0000 2DE9F843 		push	{r3, r4, r5, r6, r7, r8, r9, lr}
 882              	.LCFI9:
 883              		.cfi_def_cfa_offset 32
 884              		.cfi_offset 3, -32
 885              		.cfi_offset 4, -28
 886              		.cfi_offset 5, -24
 887              		.cfi_offset 6, -20
 888              		.cfi_offset 7, -16
 889              		.cfi_offset 8, -12
 890              		.cfi_offset 9, -8
 891              		.cfi_offset 14, -4
 892 0004 0446     		mov	r4, r0
 893 0006 0F46     		mov	r7, r1
 894 0008 1546     		mov	r5, r2
 895 000a 1E46     		mov	r6, r3
 754:Core/Src/main.c ****     //ÂèçÊ≠£ÂàáÂáΩÊï∞ÂÆûÔøΩ??.ËØØÂ∑Æ‰∏çÂ§ßÔøΩ??0.5¬∞.ÂÖ•Âè£ÂèÇÊï∞Ôºö‰∏§ÁÇπÈó¥y„ÄÅxÂùêÊ†áÁöÑÂ∑ÆÔøΩ??
 755:Core/Src/main.c ****     double absx, absy, val;
 896              		.loc 1 755 5 is_stmt 1 view .LVU153
 756:Core/Src/main.c ****     if (x == 0 && y == 0)
 897              		.loc 1 756 5 view .LVU154
 898              		.loc 1 756 8 is_stmt 0 view .LVU155
 899 000c 0022     		movs	r2, #0
 900              	.LVL85:
 901              		.loc 1 756 8 view .LVU156
 902 000e 0023     		movs	r3, #0
 903 0010 2846     		mov	r0, r5
 904              	.LVL86:
 905              		.loc 1 756 8 view .LVU157
 906 0012 3146     		mov	r1, r6
ARM GAS  C:\Users\zhangjd\AppData\Local\Temp\cciTDb3B.s 			page 30


 907 0014 FFF7FEFF 		bl	__aeabi_dcmpeq
 908              	.LVL87:
 909 0018 40B1     		cbz	r0, .L53
 910              		.loc 1 756 16 discriminator 1 view .LVU158
 911 001a 0022     		movs	r2, #0
 912 001c 0023     		movs	r3, #0
 913 001e 2046     		mov	r0, r4
 914 0020 3946     		mov	r1, r7
 915 0022 FFF7FEFF 		bl	__aeabi_dcmpeq
 916              	.LVL88:
 917 0026 0028     		cmp	r0, #0
 918 0028 40F0E180 		bne	.L72
 919              	.L53:
 757:Core/Src/main.c ****     {
 758:Core/Src/main.c ****         return 0;
 759:Core/Src/main.c ****     }
 760:Core/Src/main.c ****     absy = fabs(y);
 920              		.loc 1 760 5 is_stmt 1 view .LVU159
 921              		.loc 1 760 10 is_stmt 0 view .LVU160
 922 002c 27F00048 		bic	r8, r7, #-2147483648
 923              	.LVL89:
 761:Core/Src/main.c ****     absx = fabs(x);
 924              		.loc 1 761 5 is_stmt 1 view .LVU161
 925              		.loc 1 761 10 is_stmt 0 view .LVU162
 926 0030 26F00049 		bic	r9, r6, #-2147483648
 927              	.LVL90:
 762:Core/Src/main.c ****     if (absy - absx == absy)
 928              		.loc 1 762 5 is_stmt 1 view .LVU163
 929              		.loc 1 762 14 is_stmt 0 view .LVU164
 930 0034 2A46     		mov	r2, r5
 931 0036 4B46     		mov	r3, r9
 932 0038 2046     		mov	r0, r4
 933 003a 4146     		mov	r1, r8
 934 003c FFF7FEFF 		bl	__aeabi_dsub
 935              	.LVL91:
 936              		.loc 1 762 8 view .LVU165
 937 0040 2246     		mov	r2, r4
 938 0042 4346     		mov	r3, r8
 939 0044 FFF7FEFF 		bl	__aeabi_dcmpeq
 940              	.LVL92:
 941 0048 0028     		cmp	r0, #0
 942 004a 40D1     		bne	.L90
 763:Core/Src/main.c ****     {
 764:Core/Src/main.c ****         return y < 0 ? -M_PI_2 : M_PI_2;
 765:Core/Src/main.c ****     }
 766:Core/Src/main.c ****     if (absx - absy == absx)
 943              		.loc 1 766 5 is_stmt 1 view .LVU166
 944              		.loc 1 766 14 is_stmt 0 view .LVU167
 945 004c 2246     		mov	r2, r4
 946 004e 4346     		mov	r3, r8
 947 0050 2846     		mov	r0, r5
 948 0052 4946     		mov	r1, r9
 949 0054 FFF7FEFF 		bl	__aeabi_dsub
 950              	.LVL93:
 951              		.loc 1 766 8 view .LVU168
 952 0058 2A46     		mov	r2, r5
 953 005a 4B46     		mov	r3, r9
ARM GAS  C:\Users\zhangjd\AppData\Local\Temp\cciTDb3B.s 			page 31


 954 005c FFF7FEFF 		bl	__aeabi_dcmpeq
 955              	.LVL94:
 956 0060 0028     		cmp	r0, #0
 957 0062 40F0A380 		bne	.L74
 767:Core/Src/main.c ****     {
 768:Core/Src/main.c ****         val = 0.0;
 769:Core/Src/main.c ****     }
 770:Core/Src/main.c ****     else
 771:Core/Src/main.c ****     {
 772:Core/Src/main.c ****         if (y > 0)
 958              		.loc 1 772 9 is_stmt 1 view .LVU169
 959              		.loc 1 772 12 is_stmt 0 view .LVU170
 960 0066 0022     		movs	r2, #0
 961 0068 0023     		movs	r3, #0
 962 006a 2046     		mov	r0, r4
 963 006c 3946     		mov	r1, r7
 964 006e FFF7FEFF 		bl	__aeabi_dcmpgt
 965              	.LVL95:
 966 0072 0028     		cmp	r0, #0
 967 0074 54D0     		beq	.L86
 773:Core/Src/main.c ****         {
 774:Core/Src/main.c ****             if (absx > absy)
 968              		.loc 1 774 13 is_stmt 1 view .LVU171
 969              		.loc 1 774 16 is_stmt 0 view .LVU172
 970 0076 2A46     		mov	r2, r5
 971 0078 4B46     		mov	r3, r9
 972 007a 2046     		mov	r0, r4
 973 007c 4146     		mov	r1, r8
 974 007e FFF7FEFF 		bl	__aeabi_dcmplt
 975              	.LVL96:
 976 0082 98B3     		cbz	r0, .L87
 775:Core/Src/main.c ****                 val = ATAN_LUT[(int)(255 * absy / absx)]; //1st octant
 977              		.loc 1 775 17 is_stmt 1 view .LVU173
 978              		.loc 1 775 42 is_stmt 0 view .LVU174
 979 0084 5CA3     		adr	r3, .L93
 980 0086 D3E90023 		ldrd	r2, [r3]
 981 008a 2046     		mov	r0, r4
 982 008c 4146     		mov	r1, r8
 983 008e FFF7FEFF 		bl	__aeabi_dmul
 984              	.LVL97:
 985              		.loc 1 775 49 view .LVU175
 986 0092 2A46     		mov	r2, r5
 987 0094 4B46     		mov	r3, r9
 988 0096 FFF7FEFF 		bl	__aeabi_ddiv
 989              	.LVL98:
 990              		.loc 1 775 32 view .LVU176
 991 009a FFF7FEFF 		bl	__aeabi_d2iz
 992              	.LVL99:
 993              		.loc 1 775 21 view .LVU177
 994 009e 604B     		ldr	r3, .L93+40
 995 00a0 03EBC002 		add	r2, r3, r0, lsl #3
 996 00a4 53F83040 		ldr	r4, [r3, r0, lsl #3]
 997              	.LVL100:
 998              		.loc 1 775 21 view .LVU178
 999 00a8 5768     		ldr	r7, [r2, #4]
 1000              	.LVL101:
 1001              	.L65:
ARM GAS  C:\Users\zhangjd\AppData\Local\Temp\cciTDb3B.s 			page 32


 776:Core/Src/main.c ****             else
 777:Core/Src/main.c ****                 val = M_PI_2 - ATAN_LUT[(int)(255 * absx / absy)]; //2nd octant
 778:Core/Src/main.c ****             val = x < 0 ? (M_PI - val) : val;                      //3-4th octants from 2-1
 1002              		.loc 1 778 13 is_stmt 1 view .LVU179
 1003              		.loc 1 778 40 is_stmt 0 view .LVU180
 1004 00aa 0022     		movs	r2, #0
 1005 00ac 0023     		movs	r3, #0
 1006 00ae 2846     		mov	r0, r5
 1007 00b0 3146     		mov	r1, r6
 1008 00b2 FFF7FEFF 		bl	__aeabi_dcmplt
 1009              	.LVL102:
 1010 00b6 0028     		cmp	r0, #0
 1011 00b8 7AD0     		beq	.L60
 1012              		.loc 1 778 40 discriminator 1 view .LVU181
 1013 00ba 2246     		mov	r2, r4
 1014 00bc 3B46     		mov	r3, r7
 1015 00be 50A1     		adr	r1, .L93+8
 1016 00c0 D1E90001 		ldrd	r0, [r1]
 1017 00c4 FFF7FEFF 		bl	__aeabi_dsub
 1018              	.LVL103:
 1019 00c8 0446     		mov	r4, r0
 1020              	.LVL104:
 1021              		.loc 1 778 40 discriminator 1 view .LVU182
 1022 00ca 0F46     		mov	r7, r1
 1023 00cc 70E0     		b	.L60
 1024              	.LVL105:
 1025              	.L90:
 764:Core/Src/main.c ****     }
 1026              		.loc 1 764 9 is_stmt 1 view .LVU183
 764:Core/Src/main.c ****     }
 1027              		.loc 1 764 32 is_stmt 0 view .LVU184
 1028 00ce 0022     		movs	r2, #0
 1029 00d0 0023     		movs	r3, #0
 1030 00d2 2046     		mov	r0, r4
 1031 00d4 3946     		mov	r1, r7
 1032 00d6 FFF7FEFF 		bl	__aeabi_dcmplt
 1033              	.LVL106:
 1034 00da 18B9     		cbnz	r0, .L91
 1035 00dc 4AA5     		adr	r5, .L93+16
 1036 00de D5E90045 		ldrd	r4, [r5]
 1037              	.LVL107:
 764:Core/Src/main.c ****     }
 1038              		.loc 1 764 32 view .LVU185
 1039 00e2 77E0     		b	.L52
 1040              	.LVL108:
 1041              	.L91:
 764:Core/Src/main.c ****     }
 1042              		.loc 1 764 32 view .LVU186
 1043 00e4 4AA5     		adr	r5, .L93+24
 1044 00e6 D5E90045 		ldrd	r4, [r5]
 1045              	.LVL109:
 764:Core/Src/main.c ****     }
 1046              		.loc 1 764 32 view .LVU187
 1047 00ea 73E0     		b	.L52
 1048              	.LVL110:
 1049              	.L87:
 777:Core/Src/main.c ****             val = x < 0 ? (M_PI - val) : val;                      //3-4th octants from 2-1
ARM GAS  C:\Users\zhangjd\AppData\Local\Temp\cciTDb3B.s 			page 33


 1050              		.loc 1 777 17 is_stmt 1 view .LVU188
 777:Core/Src/main.c ****             val = x < 0 ? (M_PI - val) : val;                      //3-4th octants from 2-1
 1051              		.loc 1 777 51 is_stmt 0 view .LVU189
 1052 00ec 42A3     		adr	r3, .L93
 1053 00ee D3E90023 		ldrd	r2, [r3]
 1054 00f2 2846     		mov	r0, r5
 1055 00f4 4946     		mov	r1, r9
 1056 00f6 FFF7FEFF 		bl	__aeabi_dmul
 1057              	.LVL111:
 777:Core/Src/main.c ****             val = x < 0 ? (M_PI - val) : val;                      //3-4th octants from 2-1
 1058              		.loc 1 777 58 view .LVU190
 1059 00fa 2246     		mov	r2, r4
 1060 00fc 4346     		mov	r3, r8
 1061 00fe FFF7FEFF 		bl	__aeabi_ddiv
 1062              	.LVL112:
 777:Core/Src/main.c ****             val = x < 0 ? (M_PI - val) : val;                      //3-4th octants from 2-1
 1063              		.loc 1 777 41 view .LVU191
 1064 0102 FFF7FEFF 		bl	__aeabi_d2iz
 1065              	.LVL113:
 777:Core/Src/main.c ****             val = x < 0 ? (M_PI - val) : val;                      //3-4th octants from 2-1
 1066              		.loc 1 777 40 view .LVU192
 1067 0106 464B     		ldr	r3, .L93+40
 1068 0108 03EBC003 		add	r3, r3, r0, lsl #3
 777:Core/Src/main.c ****             val = x < 0 ? (M_PI - val) : val;                      //3-4th octants from 2-1
 1069              		.loc 1 777 21 view .LVU193
 1070 010c D3E90023 		ldrd	r2, [r3]
 1071 0110 3DA1     		adr	r1, .L93+16
 1072 0112 D1E90001 		ldrd	r0, [r1]
 1073 0116 FFF7FEFF 		bl	__aeabi_dsub
 1074              	.LVL114:
 1075 011a 0446     		mov	r4, r0
 1076              	.LVL115:
 777:Core/Src/main.c ****             val = x < 0 ? (M_PI - val) : val;                      //3-4th octants from 2-1
 1077              		.loc 1 777 21 view .LVU194
 1078 011c 0F46     		mov	r7, r1
 1079              	.LVL116:
 777:Core/Src/main.c ****             val = x < 0 ? (M_PI - val) : val;                      //3-4th octants from 2-1
 1080              		.loc 1 777 21 view .LVU195
 1081 011e C4E7     		b	.L65
 1082              	.LVL117:
 1083              	.L86:
 779:Core/Src/main.c ****         }
 780:Core/Src/main.c ****         else
 781:Core/Src/main.c ****         {
 782:Core/Src/main.c ****             if (absx > absy)
 1084              		.loc 1 782 13 is_stmt 1 view .LVU196
 1085              		.loc 1 782 16 is_stmt 0 view .LVU197
 1086 0120 2A46     		mov	r2, r5
 1087 0122 4B46     		mov	r3, r9
 1088 0124 2046     		mov	r0, r4
 1089 0126 4146     		mov	r1, r8
 1090 0128 FFF7FEFF 		bl	__aeabi_dcmplt
 1091              	.LVL118:
 1092 012c 28B3     		cbz	r0, .L88
 783:Core/Src/main.c ****                 val = -ATAN_LUT[(int)(255 * absy / absx)]; //8th octant
 1093              		.loc 1 783 17 is_stmt 1 view .LVU198
 1094              		.loc 1 783 43 is_stmt 0 view .LVU199
ARM GAS  C:\Users\zhangjd\AppData\Local\Temp\cciTDb3B.s 			page 34


 1095 012e 32A3     		adr	r3, .L93
 1096 0130 D3E90023 		ldrd	r2, [r3]
 1097 0134 2046     		mov	r0, r4
 1098 0136 4146     		mov	r1, r8
 1099 0138 FFF7FEFF 		bl	__aeabi_dmul
 1100              	.LVL119:
 1101              		.loc 1 783 50 view .LVU200
 1102 013c 2A46     		mov	r2, r5
 1103 013e 4B46     		mov	r3, r9
 1104 0140 FFF7FEFF 		bl	__aeabi_ddiv
 1105              	.LVL120:
 1106              		.loc 1 783 33 view .LVU201
 1107 0144 FFF7FEFF 		bl	__aeabi_d2iz
 1108              	.LVL121:
 1109              		.loc 1 783 32 view .LVU202
 1110 0148 354B     		ldr	r3, .L93+40
 1111 014a 03EBC002 		add	r2, r3, r0, lsl #3
 1112 014e 5768     		ldr	r7, [r2, #4]
 1113              		.loc 1 783 21 view .LVU203
 1114 0150 53F83040 		ldr	r4, [r3, r0, lsl #3]
 1115              	.LVL122:
 1116              		.loc 1 783 21 view .LVU204
 1117 0154 07F10047 		add	r7, r7, #-2147483648
 1118              	.LVL123:
 1119              	.L69:
 784:Core/Src/main.c ****             else
 785:Core/Src/main.c ****                 val = -M_PI_2 + ATAN_LUT[(int)(255 * absx / absy)]; //7th octant
 786:Core/Src/main.c ****             val = x < 0 ? -M_PI - val : val;                        //5-6th octants from 8-7
 1120              		.loc 1 786 13 is_stmt 1 view .LVU205
 1121              		.loc 1 786 39 is_stmt 0 view .LVU206
 1122 0158 0022     		movs	r2, #0
 1123 015a 0023     		movs	r3, #0
 1124 015c 2846     		mov	r0, r5
 1125 015e 3146     		mov	r1, r6
 1126 0160 FFF7FEFF 		bl	__aeabi_dcmplt
 1127              	.LVL124:
 1128 0164 20B3     		cbz	r0, .L60
 1129              		.loc 1 786 39 discriminator 1 view .LVU207
 1130 0166 2246     		mov	r2, r4
 1131 0168 3B46     		mov	r3, r7
 1132 016a 2BA1     		adr	r1, .L93+32
 1133 016c D1E90001 		ldrd	r0, [r1]
 1134 0170 FFF7FEFF 		bl	__aeabi_dsub
 1135              	.LVL125:
 1136 0174 0446     		mov	r4, r0
 1137              	.LVL126:
 1138              		.loc 1 786 39 discriminator 1 view .LVU208
 1139 0176 0F46     		mov	r7, r1
 1140 0178 1AE0     		b	.L60
 1141              	.LVL127:
 1142              	.L88:
 785:Core/Src/main.c ****             val = x < 0 ? -M_PI - val : val;                        //5-6th octants from 8-7
 1143              		.loc 1 785 17 is_stmt 1 view .LVU209
 785:Core/Src/main.c ****             val = x < 0 ? -M_PI - val : val;                        //5-6th octants from 8-7
 1144              		.loc 1 785 52 is_stmt 0 view .LVU210
 1145 017a 1FA3     		adr	r3, .L93
 1146 017c D3E90023 		ldrd	r2, [r3]
ARM GAS  C:\Users\zhangjd\AppData\Local\Temp\cciTDb3B.s 			page 35


 1147 0180 2846     		mov	r0, r5
 1148 0182 4946     		mov	r1, r9
 1149 0184 FFF7FEFF 		bl	__aeabi_dmul
 1150              	.LVL128:
 785:Core/Src/main.c ****             val = x < 0 ? -M_PI - val : val;                        //5-6th octants from 8-7
 1151              		.loc 1 785 59 view .LVU211
 1152 0188 2246     		mov	r2, r4
 1153 018a 4346     		mov	r3, r8
 1154 018c FFF7FEFF 		bl	__aeabi_ddiv
 1155              	.LVL129:
 785:Core/Src/main.c ****             val = x < 0 ? -M_PI - val : val;                        //5-6th octants from 8-7
 1156              		.loc 1 785 42 view .LVU212
 1157 0190 FFF7FEFF 		bl	__aeabi_d2iz
 1158              	.LVL130:
 785:Core/Src/main.c ****             val = x < 0 ? -M_PI - val : val;                        //5-6th octants from 8-7
 1159              		.loc 1 785 41 view .LVU213
 1160 0194 224B     		ldr	r3, .L93+40
 1161 0196 03EBC000 		add	r0, r3, r0, lsl #3
 785:Core/Src/main.c ****             val = x < 0 ? -M_PI - val : val;                        //5-6th octants from 8-7
 1162              		.loc 1 785 21 view .LVU214
 1163 019a 1BA3     		adr	r3, .L93+16
 1164 019c D3E90023 		ldrd	r2, [r3]
 1165 01a0 03C8     		ldmia	r0, {r0-r1}
 1166 01a2 FFF7FEFF 		bl	__aeabi_dsub
 1167              	.LVL131:
 1168 01a6 0446     		mov	r4, r0
 1169              	.LVL132:
 785:Core/Src/main.c ****             val = x < 0 ? -M_PI - val : val;                        //5-6th octants from 8-7
 1170              		.loc 1 785 21 view .LVU215
 1171 01a8 0F46     		mov	r7, r1
 1172              	.LVL133:
 785:Core/Src/main.c ****             val = x < 0 ? -M_PI - val : val;                        //5-6th octants from 8-7
 1173              		.loc 1 785 21 view .LVU216
 1174 01aa D5E7     		b	.L69
 1175              	.LVL134:
 1176              	.L74:
 768:Core/Src/main.c ****     }
 1177              		.loc 1 768 13 view .LVU217
 1178 01ac 0024     		movs	r4, #0
 1179              	.LVL135:
 768:Core/Src/main.c ****     }
 1180              		.loc 1 768 13 view .LVU218
 1181 01ae 2746     		mov	r7, r4
 1182              	.L60:
 1183              	.LVL136:
 787:Core/Src/main.c ****         }
 788:Core/Src/main.c ****     }
 789:Core/Src/main.c ****     val = val * 180 / M_PI;
 1184              		.loc 1 789 5 is_stmt 1 view .LVU219
 1185              		.loc 1 789 15 is_stmt 0 view .LVU220
 1186 01b0 0022     		movs	r2, #0
 1187 01b2 1C4B     		ldr	r3, .L93+44
 1188 01b4 2046     		mov	r0, r4
 1189 01b6 3946     		mov	r1, r7
 1190 01b8 FFF7FEFF 		bl	__aeabi_dmul
 1191              	.LVL137:
 1192              		.loc 1 789 9 view .LVU221
ARM GAS  C:\Users\zhangjd\AppData\Local\Temp\cciTDb3B.s 			page 36


 1193 01bc 10A3     		adr	r3, .L93+8
 1194 01be D3E90023 		ldrd	r2, [r3]
 1195 01c2 FFF7FEFF 		bl	__aeabi_ddiv
 1196              	.LVL138:
 1197 01c6 0446     		mov	r4, r0
 1198              	.LVL139:
 1199              		.loc 1 789 9 view .LVU222
 1200 01c8 0D46     		mov	r5, r1
 1201              	.LVL140:
 790:Core/Src/main.c ****     return (val < 0) ? (val + 360) : val;
 1202              		.loc 1 790 5 is_stmt 1 view .LVU223
 1203              		.loc 1 790 36 is_stmt 0 view .LVU224
 1204 01ca 0022     		movs	r2, #0
 1205 01cc 0023     		movs	r3, #0
 1206 01ce FFF7FEFF 		bl	__aeabi_dcmplt
 1207              	.LVL141:
 1208 01d2 18B9     		cbnz	r0, .L92
 1209              	.LVL142:
 1210              	.L52:
 791:Core/Src/main.c **** }
 1211              		.loc 1 791 1 view .LVU225
 1212 01d4 2046     		mov	r0, r4
 1213 01d6 2946     		mov	r1, r5
 1214 01d8 BDE8F883 		pop	{r3, r4, r5, r6, r7, r8, r9, pc}
 1215              	.LVL143:
 1216              	.L92:
 790:Core/Src/main.c ****     return (val < 0) ? (val + 360) : val;
 1217              		.loc 1 790 36 discriminator 1 view .LVU226
 1218 01dc 0022     		movs	r2, #0
 1219 01de 124B     		ldr	r3, .L93+48
 1220 01e0 2046     		mov	r0, r4
 1221 01e2 2946     		mov	r1, r5
 1222 01e4 FFF7FEFF 		bl	__aeabi_dadd
 1223              	.LVL144:
 1224 01e8 0446     		mov	r4, r0
 1225              	.LVL145:
 790:Core/Src/main.c ****     return (val < 0) ? (val + 360) : val;
 1226              		.loc 1 790 36 discriminator 1 view .LVU227
 1227 01ea 0D46     		mov	r5, r1
 1228 01ec F2E7     		b	.L52
 1229              	.L72:
 758:Core/Src/main.c ****     }
 1230              		.loc 1 758 16 view .LVU228
 1231 01ee 0024     		movs	r4, #0
 1232 01f0 0025     		movs	r5, #0
 1233 01f2 EFE7     		b	.L52
 1234              	.L94:
 1235 01f4 AFF30080 		.align	3
 1236              	.L93:
 1237 01f8 00000000 		.word	0
 1238 01fc 00E06F40 		.word	1081073664
 1239 0200 50455254 		.word	1414677840
 1240 0204 FB210940 		.word	1074340347
 1241 0208 4AD8124D 		.word	1293080650
 1242 020c FB21F93F 		.word	1073291771
 1243 0210 4AD8124D 		.word	1293080650
 1244 0214 FB21F9BF 		.word	-1074191877
ARM GAS  C:\Users\zhangjd\AppData\Local\Temp\cciTDb3B.s 			page 37


 1245 0218 50455254 		.word	1414677840
 1246 021c FB2109C0 		.word	-1073143301
 1247 0220 00000000 		.word	.LANCHOR1
 1248 0224 00806640 		.word	1080459264
 1249 0228 00807640 		.word	1081507840
 1250              		.cfi_endproc
 1251              	.LFE78:
 1253              		.global	__aeabi_i2d
 1254              		.global	__aeabi_ui2d
 1255              		.section	.text.Solve_Mine_Pos,"ax",%progbits
 1256              		.align	1
 1257              		.global	Solve_Mine_Pos
 1258              		.syntax unified
 1259              		.thumb
 1260              		.thumb_func
 1261              		.fpu softvfp
 1263              	Solve_Mine_Pos:
 1264              	.LVL146:
 1265              	.LFB79:
 792:Core/Src/main.c **** int Solve_Mine_Pos(uint16_t xx_1, uint16_t yy_1, uint32_t EE_1, uint16_t xx_2, uint16_t yy_2, uint3
 793:Core/Src/main.c **** {
 1266              		.loc 1 793 1 is_stmt 1 view -0
 1267              		.cfi_startproc
 1268              		@ args = 28, pretend = 0, frame = 56
 1269              		@ frame_needed = 0, uses_anonymous_args = 0
 1270              		.loc 1 793 1 is_stmt 0 view .LVU230
 1271 0000 2DE9F04F 		push	{r4, r5, r6, r7, r8, r9, r10, fp, lr}
 1272              	.LCFI10:
 1273              		.cfi_def_cfa_offset 36
 1274              		.cfi_offset 4, -36
 1275              		.cfi_offset 5, -32
 1276              		.cfi_offset 6, -28
 1277              		.cfi_offset 7, -24
 1278              		.cfi_offset 8, -20
 1279              		.cfi_offset 9, -16
 1280              		.cfi_offset 10, -12
 1281              		.cfi_offset 11, -8
 1282              		.cfi_offset 14, -4
 1283 0004 8FB0     		sub	sp, sp, #60
 1284              	.LCFI11:
 1285              		.cfi_def_cfa_offset 96
 1286 0006 8046     		mov	r8, r0
 1287 0008 8946     		mov	r9, r1
 1288 000a 1746     		mov	r7, r2
 1289 000c 1D46     		mov	r5, r3
 1290 000e BDF860A0 		ldrh	r10, [sp, #96]
 1291 0012 BDF86840 		ldrh	r4, [sp, #104]
 1292 0016 BDF86C30 		ldrh	r3, [sp, #108]
 1293              	.LVL147:
 794:Core/Src/main.c ****     /*
 795:Core/Src/main.c ****     ÂÖ•Âè£ÂèÇÊï∞Ôºöxx_i,yy_i,EE_i,(i=1,2,3)‰∏∫‰∏â‰∏™‰∏çÂêåÁÇπÁöÑÂùêÊ†á‰∏éÂú∫Âº∫„ÄÇdouble *coordinat
 796:Core/Src/main.c ****     Ê≠§ÂáΩÊï∞Ê†πÊçÆ‰∏âÁªÑÂùêÔøΩ??&Âú∫Âº∫Êï∞ÊçÆËøõË°åËß£ÁÆóÔºåÂ∞ÜÂæóÂà∞ÁöÑÁªìÊûúÂ≠òÂÇ®Âú®coordinateÊ
 797:Core/Src/main.c ****     ËøîÂõûÂÄº‰∏∫0or1„ÄÇcase 1ÔºöËÆ°ÁÆóÊó†ÊòéÊòæÂºÇÂ∏∏;case 0Ôºö‰∏â‰∏™ÁÇπÊï∞ÊçÆÈáè‰∏çÂ§üÔºåÊàñÊòØËÆ°
 798:Core/Src/main.c ****     */
 799:Core/Src/main.c ****     /*
 800:Core/Src/main.c ****     ËÆ°ÁÆóÂÖ¨Âºè‰∏∫Ôºö
 801:Core/Src/main.c ****     y=(A*((xx_2-xx_3)/EE_1+(xx_3-xx_1)/EE_2+(xx_1-xx_2)/EE_3)+(xx_1-xx_2)*(xx_2-xx_3)*(xx_3-xx_1)+y
ARM GAS  C:\Users\zhangjd\AppData\Local\Temp\cciTDb3B.s 			page 38


 802:Core/Src/main.c ****     x=(xx_1+xx_2-((xx_2-xx_3)*(A/EE_1-A/EE_2)-(yy_1-yy_2)*(xx_2-xx_3)*(yy_1+yy_2-2*y))/(xx_1-xx_2)/
 803:Core/Src/main.c ****     Ê≠§ÂÖ¨ÂºèÂú®matlab‰∏äËøêÁÆóÊ≠£Â∏∏ÔºåÁ≤æÂ∫¶Êª°Ë∂≥Ë¶ÅÊ±Ç
 804:Core/Src/main.c ****     */
 805:Core/Src/main.c ****     double determinant = xx_1 * yy_2 - xx_2 * yy_1 + xx_3 * yy_1 - xx_1 * yy_3 + xx_2 * yy_3 - xx_3
 1294              		.loc 1 805 5 is_stmt 1 view .LVU231
 1295              		.loc 1 805 31 is_stmt 0 view .LVU232
 1296 001a 0AFB00F6 		mul	r6, r10, r0
 1297              		.loc 1 805 38 view .LVU233
 1298 001e 01FB1566 		mls	r6, r1, r5, r6
 1299              		.loc 1 805 52 view .LVU234
 1300 0022 04FB0166 		mla	r6, r4, r1, r6
 1301              		.loc 1 805 66 view .LVU235
 1302 0026 03FB1066 		mls	r6, r3, r0, r6
 1303              		.loc 1 805 80 view .LVU236
 1304 002a 0993     		str	r3, [sp, #36]
 1305 002c 03FB0566 		mla	r6, r3, r5, r6
 1306              		.loc 1 805 101 view .LVU237
 1307 0030 04FB0AFB 		mul	fp, r4, r10
 1308              		.loc 1 805 12 view .LVU238
 1309 0034 A6EB0B00 		sub	r0, r6, fp
 1310              	.LVL148:
 1311              		.loc 1 805 12 view .LVU239
 1312 0038 FFF7FEFF 		bl	__aeabi_i2d
 1313              	.LVL149:
 1314              		.loc 1 805 12 view .LVU240
 1315 003c CDE90001 		strd	r0, [sp]
 1316              	.LVL150:
 806:Core/Src/main.c ****     if (!determinant) //??????
 1317              		.loc 1 806 5 is_stmt 1 view .LVU241
 1318              		.loc 1 806 8 is_stmt 0 view .LVU242
 1319 0040 5E45     		cmp	r6, fp
 1320 0042 00F05381 		beq	.L97
 807:Core/Src/main.c ****         return 0;
 808:Core/Src/main.c ****     double y = (((double)(xx_2 - xx_3) * (A_COFFIENT / (double)EE_1) + (double)(xx_3 - xx_1) * (A_C
 1321              		.loc 1 808 5 is_stmt 1 view .LVU243
 1322              		.loc 1 808 32 is_stmt 0 view .LVU244
 1323 0046 A5EB040B 		sub	fp, r5, r4
 1324              		.loc 1 808 18 view .LVU245
 1325 004a 5846     		mov	r0, fp
 1326              	.LVL151:
 1327              		.loc 1 808 18 view .LVU246
 1328 004c FFF7FEFF 		bl	__aeabi_i2d
 1329              	.LVL152:
 1330 0050 CDE90201 		strd	r0, [sp, #8]
 1331              		.loc 1 808 56 view .LVU247
 1332 0054 3846     		mov	r0, r7
 1333 0056 FFF7FEFF 		bl	__aeabi_ui2d
 1334              	.LVL153:
 1335 005a 0246     		mov	r2, r0
 1336 005c 0B46     		mov	r3, r1
 1337              		.loc 1 808 54 view .LVU248
 1338 005e AAA1     		adr	r1, .L103
 1339 0060 D1E90001 		ldrd	r0, [r1]
 1340 0064 FFF7FEFF 		bl	__aeabi_ddiv
 1341              	.LVL154:
 1342 0068 0246     		mov	r2, r0
 1343 006a 0B46     		mov	r3, r1
ARM GAS  C:\Users\zhangjd\AppData\Local\Temp\cciTDb3B.s 			page 39


 1344              		.loc 1 808 40 view .LVU249
 1345 006c CDE90A23 		strd	r2, [sp, #40]
 1346 0070 DDE90201 		ldrd	r0, [sp, #8]
 1347 0074 FFF7FEFF 		bl	__aeabi_dmul
 1348              	.LVL155:
 1349 0078 0646     		mov	r6, r0
 1350 007a 0F46     		mov	r7, r1
 1351              	.LVL156:
 1352              		.loc 1 808 72 view .LVU250
 1353 007c A4EB0800 		sub	r0, r4, r8
 1354 0080 FFF7FEFF 		bl	__aeabi_i2d
 1355              	.LVL157:
 1356 0084 CDE90601 		strd	r0, [sp, #24]
 1357              		.loc 1 808 110 view .LVU251
 1358 0088 1998     		ldr	r0, [sp, #100]
 1359 008a FFF7FEFF 		bl	__aeabi_ui2d
 1360              	.LVL158:
 1361 008e 0246     		mov	r2, r0
 1362 0090 0B46     		mov	r3, r1
 1363              		.loc 1 808 108 view .LVU252
 1364 0092 9DA1     		adr	r1, .L103
 1365 0094 D1E90001 		ldrd	r0, [r1]
 1366 0098 FFF7FEFF 		bl	__aeabi_ddiv
 1367              	.LVL159:
 1368 009c 0246     		mov	r2, r0
 1369 009e 0B46     		mov	r3, r1
 1370              		.loc 1 808 94 view .LVU253
 1371 00a0 CDE90C23 		strd	r2, [sp, #48]
 1372 00a4 DDE90601 		ldrd	r0, [sp, #24]
 1373 00a8 FFF7FEFF 		bl	__aeabi_dmul
 1374              	.LVL160:
 1375 00ac 0246     		mov	r2, r0
 1376 00ae 0B46     		mov	r3, r1
 1377              		.loc 1 808 70 view .LVU254
 1378 00b0 3046     		mov	r0, r6
 1379 00b2 3946     		mov	r1, r7
 1380 00b4 FFF7FEFF 		bl	__aeabi_dadd
 1381              	.LVL161:
 1382 00b8 0646     		mov	r6, r0
 1383 00ba 0F46     		mov	r7, r1
 1384              		.loc 1 808 126 view .LVU255
 1385 00bc A8EB0500 		sub	r0, r8, r5
 1386 00c0 FFF7FEFF 		bl	__aeabi_i2d
 1387              	.LVL162:
 1388 00c4 CDE90401 		strd	r0, [sp, #16]
 1389              		.loc 1 808 172 view .LVU256
 1390 00c8 1C98     		ldr	r0, [sp, #112]
 1391 00ca FFF7FEFF 		bl	__aeabi_ui2d
 1392              	.LVL163:
 1393 00ce 0246     		mov	r2, r0
 1394 00d0 0B46     		mov	r3, r1
 1395              		.loc 1 808 150 view .LVU257
 1396 00d2 8DA1     		adr	r1, .L103
 1397 00d4 D1E90001 		ldrd	r0, [r1]
 1398 00d8 FFF7FEFF 		bl	__aeabi_ddiv
 1399              	.LVL164:
 1400 00dc 0246     		mov	r2, r0
ARM GAS  C:\Users\zhangjd\AppData\Local\Temp\cciTDb3B.s 			page 40


 1401 00de 0B46     		mov	r3, r1
 1402              		.loc 1 808 148 view .LVU258
 1403 00e0 DDE90401 		ldrd	r0, [sp, #16]
 1404 00e4 FFF7FEFF 		bl	__aeabi_dmul
 1405              	.LVL165:
 1406 00e8 0246     		mov	r2, r0
 1407 00ea 0B46     		mov	r3, r1
 1408              		.loc 1 808 124 view .LVU259
 1409 00ec 3046     		mov	r0, r6
 1410 00ee 3946     		mov	r1, r7
 1411 00f0 FFF7FEFF 		bl	__aeabi_dadd
 1412              	.LVL166:
 1413              		.loc 1 808 187 view .LVU260
 1414 00f4 DDE90023 		ldrd	r2, [sp]
 1415 00f8 FFF7FEFF 		bl	__aeabi_ddiv
 1416              	.LVL167:
 1417 00fc 0646     		mov	r6, r0
 1418 00fe 0F46     		mov	r7, r1
 1419              		.loc 1 808 217 view .LVU261
 1420 0100 DDE90423 		ldrd	r2, [sp, #16]
 1421 0104 DDE90201 		ldrd	r0, [sp, #8]
 1422 0108 FFF7FEFF 		bl	__aeabi_dmul
 1423              	.LVL168:
 1424              		.loc 1 808 241 view .LVU262
 1425 010c DDE90023 		ldrd	r2, [sp]
 1426 0110 FFF7FEFF 		bl	__aeabi_ddiv
 1427              	.LVL169:
 1428 0114 0246     		mov	r2, r0
 1429 0116 0B46     		mov	r3, r1
 1430              		.loc 1 808 255 view .LVU263
 1431 0118 DDE90601 		ldrd	r0, [sp, #24]
 1432 011c FFF7FEFF 		bl	__aeabi_dmul
 1433              	.LVL170:
 1434 0120 0246     		mov	r2, r0
 1435 0122 0B46     		mov	r3, r1
 1436              		.loc 1 808 201 view .LVU264
 1437 0124 3046     		mov	r0, r6
 1438 0126 3946     		mov	r1, r7
 1439 0128 FFF7FEFF 		bl	__aeabi_dadd
 1440              	.LVL171:
 1441 012c CDE90601 		strd	r0, [sp, #24]
 1442              		.loc 1 808 273 view .LVU265
 1443 0130 4846     		mov	r0, r9
 1444 0132 FFF7FEFF 		bl	__aeabi_ui2d
 1445              	.LVL172:
 1446              		.loc 1 808 286 view .LVU266
 1447 0136 DDE90023 		ldrd	r2, [sp]
 1448 013a FFF7FEFF 		bl	__aeabi_ddiv
 1449              	.LVL173:
 1450 013e 0646     		mov	r6, r0
 1451 0140 0F46     		mov	r7, r1
 1452              		.loc 1 808 300 view .LVU267
 1453 0142 4846     		mov	r0, r9
 1454 0144 FFF7FEFF 		bl	__aeabi_i2d
 1455              	.LVL174:
 1456 0148 3246     		mov	r2, r6
 1457 014a 3B46     		mov	r3, r7
ARM GAS  C:\Users\zhangjd\AppData\Local\Temp\cciTDb3B.s 			page 41


 1458 014c FFF7FEFF 		bl	__aeabi_dmul
 1459              	.LVL175:
 1460 0150 0646     		mov	r6, r0
 1461 0152 0F46     		mov	r7, r1
 1462              		.loc 1 808 307 view .LVU268
 1463 0154 601B     		subs	r0, r4, r5
 1464 0156 FFF7FEFF 		bl	__aeabi_i2d
 1465              	.LVL176:
 1466 015a 3246     		mov	r2, r6
 1467 015c 3B46     		mov	r3, r7
 1468 015e FFF7FEFF 		bl	__aeabi_dmul
 1469              	.LVL177:
 1470 0162 0246     		mov	r2, r0
 1471 0164 0B46     		mov	r3, r1
 1472              		.loc 1 808 271 view .LVU269
 1473 0166 DDE90601 		ldrd	r0, [sp, #24]
 1474 016a FFF7FEFF 		bl	__aeabi_dadd
 1475              	.LVL178:
 1476 016e CDE90601 		strd	r0, [sp, #24]
 1477              		.loc 1 808 325 view .LVU270
 1478 0172 5046     		mov	r0, r10
 1479 0174 FFF7FEFF 		bl	__aeabi_ui2d
 1480              	.LVL179:
 1481 0178 0646     		mov	r6, r0
 1482 017a 0F46     		mov	r7, r1
 1483              		.loc 1 808 338 view .LVU271
 1484 017c 5046     		mov	r0, r10
 1485 017e FFF7FEFF 		bl	__aeabi_i2d
 1486              	.LVL180:
 1487 0182 3246     		mov	r2, r6
 1488 0184 3B46     		mov	r3, r7
 1489 0186 FFF7FEFF 		bl	__aeabi_dmul
 1490              	.LVL181:
 1491              		.loc 1 808 345 view .LVU272
 1492 018a DDE90023 		ldrd	r2, [sp]
 1493 018e FFF7FEFF 		bl	__aeabi_ddiv
 1494              	.LVL182:
 1495 0192 0646     		mov	r6, r0
 1496 0194 0F46     		mov	r7, r1
 1497              		.loc 1 808 359 view .LVU273
 1498 0196 A8EB0400 		sub	r0, r8, r4
 1499 019a FFF7FEFF 		bl	__aeabi_i2d
 1500              	.LVL183:
 1501 019e 3246     		mov	r2, r6
 1502 01a0 3B46     		mov	r3, r7
 1503 01a2 FFF7FEFF 		bl	__aeabi_dmul
 1504              	.LVL184:
 1505 01a6 0246     		mov	r2, r0
 1506 01a8 0B46     		mov	r3, r1
 1507              		.loc 1 808 323 view .LVU274
 1508 01aa DDE90601 		ldrd	r0, [sp, #24]
 1509 01ae FFF7FEFF 		bl	__aeabi_dadd
 1510              	.LVL185:
 1511 01b2 CDE90601 		strd	r0, [sp, #24]
 1512              		.loc 1 808 377 view .LVU275
 1513 01b6 099C     		ldr	r4, [sp, #36]
 1514 01b8 2046     		mov	r0, r4
ARM GAS  C:\Users\zhangjd\AppData\Local\Temp\cciTDb3B.s 			page 42


 1515 01ba FFF7FEFF 		bl	__aeabi_ui2d
 1516              	.LVL186:
 1517 01be 0646     		mov	r6, r0
 1518 01c0 0F46     		mov	r7, r1
 1519              		.loc 1 808 390 view .LVU276
 1520 01c2 2046     		mov	r0, r4
 1521 01c4 FFF7FEFF 		bl	__aeabi_i2d
 1522              	.LVL187:
 1523 01c8 3246     		mov	r2, r6
 1524 01ca 3B46     		mov	r3, r7
 1525 01cc FFF7FEFF 		bl	__aeabi_dmul
 1526              	.LVL188:
 1527              		.loc 1 808 397 view .LVU277
 1528 01d0 DDE90023 		ldrd	r2, [sp]
 1529 01d4 FFF7FEFF 		bl	__aeabi_ddiv
 1530              	.LVL189:
 1531 01d8 0646     		mov	r6, r0
 1532 01da 0F46     		mov	r7, r1
 1533              		.loc 1 808 411 view .LVU278
 1534 01dc A5EB0800 		sub	r0, r5, r8
 1535 01e0 FFF7FEFF 		bl	__aeabi_i2d
 1536              	.LVL190:
 1537 01e4 3246     		mov	r2, r6
 1538 01e6 3B46     		mov	r3, r7
 1539 01e8 FFF7FEFF 		bl	__aeabi_dmul
 1540              	.LVL191:
 1541 01ec 0246     		mov	r2, r0
 1542 01ee 0B46     		mov	r3, r1
 1543              		.loc 1 808 375 view .LVU279
 1544 01f0 DDE90601 		ldrd	r0, [sp, #24]
 1545 01f4 FFF7FEFF 		bl	__aeabi_dadd
 1546              	.LVL192:
 1547              		.loc 1 808 12 view .LVU280
 1548 01f8 0022     		movs	r2, #0
 1549 01fa 474B     		ldr	r3, .L103+16
 1550 01fc FFF7FEFF 		bl	__aeabi_dmul
 1551              	.LVL193:
 1552 0200 0646     		mov	r6, r0
 1553 0202 0F46     		mov	r7, r1
 1554              	.LVL194:
 809:Core/Src/main.c ****     double x = (xx_1 + xx_2 - ((xx_2 - xx_3) * (A_COFFIENT / (double)EE_1 - A_COFFIENT / (double)EE
 1555              		.loc 1 809 5 is_stmt 1 view .LVU281
 1556              		.loc 1 809 22 is_stmt 0 view .LVU282
 1557 0204 08EB0504 		add	r4, r8, r5
 1558              		.loc 1 809 75 view .LVU283
 1559 0208 DDE90C23 		ldrd	r2, [sp, #48]
 1560 020c DDE90A01 		ldrd	r0, [sp, #40]
 1561 0210 FFF7FEFF 		bl	__aeabi_dsub
 1562              	.LVL195:
 1563 0214 0246     		mov	r2, r0
 1564 0216 0B46     		mov	r3, r1
 1565              		.loc 1 809 46 view .LVU284
 1566 0218 DDE90201 		ldrd	r0, [sp, #8]
 1567 021c FFF7FEFF 		bl	__aeabi_dmul
 1568              	.LVL196:
 1569 0220 CDE90001 		strd	r0, [sp]
 1570              	.LVL197:
ARM GAS  C:\Users\zhangjd\AppData\Local\Temp\cciTDb3B.s 			page 43


 1571              		.loc 1 809 112 view .LVU285
 1572 0224 A9EB0A05 		sub	r5, r9, r10
 1573              		.loc 1 809 120 view .LVU286
 1574 0228 05FB0BF5 		mul	r5, r5, fp
 1575              		.loc 1 809 152 view .LVU287
 1576 022c CA44     		add	r10, r10, r9
 1577              		.loc 1 809 163 view .LVU288
 1578 022e 3246     		mov	r2, r6
 1579 0230 3B46     		mov	r3, r7
 1580 0232 3046     		mov	r0, r6
 1581 0234 3946     		mov	r1, r7
 1582 0236 FFF7FEFF 		bl	__aeabi_dadd
 1583              	.LVL198:
 1584 023a 8046     		mov	r8, r0
 1585 023c 8946     		mov	r9, r1
 1586              		.loc 1 809 138 view .LVU289
 1587 023e 5046     		mov	r0, r10
 1588 0240 FFF7FEFF 		bl	__aeabi_i2d
 1589              	.LVL199:
 1590 0244 4246     		mov	r2, r8
 1591 0246 4B46     		mov	r3, r9
 1592 0248 FFF7FEFF 		bl	__aeabi_dsub
 1593              	.LVL200:
 1594 024c 8046     		mov	r8, r0
 1595 024e 8946     		mov	r9, r1
 1596              		.loc 1 809 136 view .LVU290
 1597 0250 2846     		mov	r0, r5
 1598 0252 FFF7FEFF 		bl	__aeabi_i2d
 1599              	.LVL201:
 1600 0256 4246     		mov	r2, r8
 1601 0258 4B46     		mov	r3, r9
 1602 025a FFF7FEFF 		bl	__aeabi_dmul
 1603              	.LVL202:
 1604 025e 0246     		mov	r2, r0
 1605 0260 0B46     		mov	r3, r1
 1606              		.loc 1 809 104 view .LVU291
 1607 0262 DDE90001 		ldrd	r0, [sp]
 1608 0266 FFF7FEFF 		bl	__aeabi_dsub
 1609              	.LVL203:
 1610              		.loc 1 809 169 view .LVU292
 1611 026a DDE90423 		ldrd	r2, [sp, #16]
 1612 026e FFF7FEFF 		bl	__aeabi_ddiv
 1613              	.LVL204:
 1614              		.loc 1 809 185 view .LVU293
 1615 0272 DDE90223 		ldrd	r2, [sp, #8]
 1616 0276 FFF7FEFF 		bl	__aeabi_ddiv
 1617              	.LVL205:
 1618 027a 8046     		mov	r8, r0
 1619 027c 8946     		mov	r9, r1
 1620              		.loc 1 809 29 view .LVU294
 1621 027e 2046     		mov	r0, r4
 1622 0280 FFF7FEFF 		bl	__aeabi_i2d
 1623              	.LVL206:
 1624 0284 4246     		mov	r2, r8
 1625 0286 4B46     		mov	r3, r9
 1626 0288 FFF7FEFF 		bl	__aeabi_dsub
 1627              	.LVL207:
ARM GAS  C:\Users\zhangjd\AppData\Local\Temp\cciTDb3B.s 			page 44


 1628              		.loc 1 809 12 view .LVU295
 1629 028c 0022     		movs	r2, #0
 1630 028e 224B     		ldr	r3, .L103+16
 1631 0290 FFF7FEFF 		bl	__aeabi_dmul
 1632              	.LVL208:
 1633 0294 0446     		mov	r4, r0
 1634 0296 0D46     		mov	r5, r1
 1635              	.LVL209:
 810:Core/Src/main.c **** 
 811:Core/Src/main.c ****     if (x < -POS_ERR_TOL || x > 254 + POS_ERR_TOL || y < -POS_ERR_TOL || y > 254 + POS_ERR_TOL) //?
 1636              		.loc 1 811 5 is_stmt 1 view .LVU296
 1637              		.loc 1 811 8 is_stmt 0 view .LVU297
 1638 0298 0022     		movs	r2, #0
 1639 029a 204B     		ldr	r3, .L103+20
 1640 029c FFF7FEFF 		bl	__aeabi_dcmplt
 1641              	.LVL210:
 1642 02a0 30BB     		cbnz	r0, .L98
 1643              		.loc 1 811 26 discriminator 1 view .LVU298
 1644 02a2 1BA3     		adr	r3, .L103+8
 1645 02a4 D3E90023 		ldrd	r2, [r3]
 1646 02a8 2046     		mov	r0, r4
 1647 02aa 2946     		mov	r1, r5
 1648 02ac FFF7FEFF 		bl	__aeabi_dcmpgt
 1649              	.LVL211:
 1650 02b0 10BB     		cbnz	r0, .L99
 1651              		.loc 1 811 51 discriminator 2 view .LVU299
 1652 02b2 0022     		movs	r2, #0
 1653 02b4 194B     		ldr	r3, .L103+20
 1654 02b6 3046     		mov	r0, r6
 1655 02b8 3946     		mov	r1, r7
 1656 02ba FFF7FEFF 		bl	__aeabi_dcmplt
 1657              	.LVL212:
 1658 02be E8B9     		cbnz	r0, .L100
 1659              		.loc 1 811 71 discriminator 3 view .LVU300
 1660 02c0 13A3     		adr	r3, .L103+8
 1661 02c2 D3E90023 		ldrd	r2, [r3]
 1662 02c6 3046     		mov	r0, r6
 1663 02c8 3946     		mov	r1, r7
 1664 02ca FFF7FEFF 		bl	__aeabi_dcmpgt
 1665              	.LVL213:
 1666 02ce B8B9     		cbnz	r0, .L101
 812:Core/Src/main.c ****         return 0;
 813:Core/Src/main.c **** 
 814:Core/Src/main.c ****     *coordinate_x = (int)x;
 1667              		.loc 1 814 5 is_stmt 1 view .LVU301
 1668              		.loc 1 814 21 is_stmt 0 view .LVU302
 1669 02d0 2046     		mov	r0, r4
 1670 02d2 2946     		mov	r1, r5
 1671 02d4 FFF7FEFF 		bl	__aeabi_d2iz
 1672              	.LVL214:
 1673              		.loc 1 814 19 view .LVU303
 1674 02d8 1D9B     		ldr	r3, [sp, #116]
 1675 02da 1860     		str	r0, [r3]
 815:Core/Src/main.c ****     *coordinate_y = (int)y;
 1676              		.loc 1 815 5 is_stmt 1 view .LVU304
 1677              		.loc 1 815 21 is_stmt 0 view .LVU305
 1678 02dc 3046     		mov	r0, r6
ARM GAS  C:\Users\zhangjd\AppData\Local\Temp\cciTDb3B.s 			page 45


 1679 02de 3946     		mov	r1, r7
 1680 02e0 FFF7FEFF 		bl	__aeabi_d2iz
 1681              	.LVL215:
 1682              		.loc 1 815 19 view .LVU306
 1683 02e4 1E9B     		ldr	r3, [sp, #120]
 1684 02e6 1860     		str	r0, [r3]
 816:Core/Src/main.c ****     return 1;
 1685              		.loc 1 816 5 is_stmt 1 view .LVU307
 1686              		.loc 1 816 12 is_stmt 0 view .LVU308
 1687 02e8 0120     		movs	r0, #1
 1688 02ea 02E0     		b	.L95
 1689              	.LVL216:
 1690              	.L97:
 807:Core/Src/main.c ****     double y = (((double)(xx_2 - xx_3) * (A_COFFIENT / (double)EE_1) + (double)(xx_3 - xx_1) * (A_C
 1691              		.loc 1 807 16 view .LVU309
 1692 02ec 0020     		movs	r0, #0
 1693              	.LVL217:
 807:Core/Src/main.c ****     double y = (((double)(xx_2 - xx_3) * (A_COFFIENT / (double)EE_1) + (double)(xx_3 - xx_1) * (A_C
 1694              		.loc 1 807 16 view .LVU310
 1695 02ee 00E0     		b	.L95
 1696              	.LVL218:
 1697              	.L98:
 812:Core/Src/main.c **** 
 1698              		.loc 1 812 16 view .LVU311
 1699 02f0 0020     		movs	r0, #0
 1700              	.LVL219:
 1701              	.L95:
 817:Core/Src/main.c **** }
 1702              		.loc 1 817 1 view .LVU312
 1703 02f2 0FB0     		add	sp, sp, #60
 1704              	.LCFI12:
 1705              		.cfi_remember_state
 1706              		.cfi_def_cfa_offset 36
 1707              		@ sp needed
 1708 02f4 BDE8F08F 		pop	{r4, r5, r6, r7, r8, r9, r10, fp, pc}
 1709              	.LVL220:
 1710              	.L99:
 1711              	.LCFI13:
 1712              		.cfi_restore_state
 812:Core/Src/main.c **** 
 1713              		.loc 1 812 16 view .LVU313
 1714 02f8 0020     		movs	r0, #0
 1715 02fa FAE7     		b	.L95
 1716              	.L100:
 1717 02fc 0020     		movs	r0, #0
 1718 02fe F8E7     		b	.L95
 1719              	.L101:
 1720 0300 0020     		movs	r0, #0
 1721 0302 F6E7     		b	.L95
 1722              	.L104:
 1723 0304 AFF30080 		.align	3
 1724              	.L103:
 1725 0308 00000000 		.word	0
 1726 030c 65CDCD41 		.word	1104006501
 1727 0310 00000000 		.word	0
 1728 0314 00207040 		.word	1081090048
 1729 0318 0000E03F 		.word	1071644672
ARM GAS  C:\Users\zhangjd\AppData\Local\Temp\cciTDb3B.s 			page 46


 1730 031c 000010C0 		.word	-1072693248
 1731              		.cfi_endproc
 1732              	.LFE79:
 1734              		.section	.text.Sol_Car_Pos_INIT,"ax",%progbits
 1735              		.align	1
 1736              		.global	Sol_Car_Pos_INIT
 1737              		.syntax unified
 1738              		.thumb
 1739              		.thumb_func
 1740              		.fpu softvfp
 1742              	Sol_Car_Pos_INIT:
 1743              	.LFB80:
 818:Core/Src/main.c **** void Sol_Car_Pos_INIT()
 819:Core/Src/main.c **** {
 1744              		.loc 1 819 1 is_stmt 1 view -0
 1745              		.cfi_startproc
 1746              		@ args = 0, pretend = 0, frame = 0
 1747              		@ frame_needed = 0, uses_anonymous_args = 0
 1748 0000 70B5     		push	{r4, r5, r6, lr}
 1749              	.LCFI14:
 1750              		.cfi_def_cfa_offset 16
 1751              		.cfi_offset 4, -16
 1752              		.cfi_offset 5, -12
 1753              		.cfi_offset 6, -8
 1754              		.cfi_offset 14, -4
 820:Core/Src/main.c ****     ///Sol_Car_Pos()ÂàùÂßãÂåñÔºåËµãÔøΩ?ÔøΩ‰∏≠Èó¥ÂèòÈáèbeacon_determinant
 821:Core/Src/main.c ****     ///ËøõÂÖ•Á¨¨‰∫åÂõûÂêàÊó∂Ë∞ÉÁî®Ê≠§ÂáΩÊï∞ËøõË°åËµãÔøΩ?ÔøΩÔºåÊàñÔøΩ?ÔøΩÊää‰∏ãÈù¢ÔøΩ??Ë°åÁ≤òËøáÂéª
 822:Core/Src/main.c ****     beacon_determinant = -beacon_Pos[0] * beacon_Pos[3] + beacon_Pos[2] * beacon_Pos[1] - beacon_Po
 1755              		.loc 1 822 5 view .LVU315
 1756              		.loc 1 822 37 is_stmt 0 view .LVU316
 1757 0002 0C4A     		ldr	r2, .L107
 1758 0004 1568     		ldr	r5, [r2]
 1759              		.loc 1 822 53 view .LVU317
 1760 0006 D168     		ldr	r1, [r2, #12]
 1761              		.loc 1 822 69 view .LVU318
 1762 0008 9468     		ldr	r4, [r2, #8]
 1763              		.loc 1 822 85 view .LVU319
 1764 000a 5668     		ldr	r6, [r2, #4]
 1765              		.loc 1 822 73 view .LVU320
 1766 000c 06FB04F3 		mul	r3, r6, r4
 1767              		.loc 1 822 57 view .LVU321
 1768 0010 05FB1133 		mls	r3, r5, r1, r3
 1769              		.loc 1 822 101 view .LVU322
 1770 0014 1069     		ldr	r0, [r2, #16]
 1771              		.loc 1 822 89 view .LVU323
 1772 0016 00FB1633 		mls	r3, r0, r6, r3
 1773              		.loc 1 822 149 view .LVU324
 1774 001a 5269     		ldr	r2, [r2, #20]
 1775              		.loc 1 822 121 view .LVU325
 1776 001c 02FB0533 		mla	r3, r2, r5, r3
 1777              		.loc 1 822 153 view .LVU326
 1778 0020 02FB1433 		mls	r3, r2, r4, r3
 1779              		.loc 1 822 24 view .LVU327
 1780 0024 00FB0130 		mla	r0, r0, r1, r3
 1781 0028 FFF7FEFF 		bl	__aeabi_i2d
 1782              	.LVL221:
 1783 002c 024B     		ldr	r3, .L107+4
ARM GAS  C:\Users\zhangjd\AppData\Local\Temp\cciTDb3B.s 			page 47


 1784 002e C3E90001 		strd	r0, [r3]
 823:Core/Src/main.c **** }
 1785              		.loc 1 823 1 view .LVU328
 1786 0032 70BD     		pop	{r4, r5, r6, pc}
 1787              	.L108:
 1788              		.align	2
 1789              	.L107:
 1790 0034 00000000 		.word	.LANCHOR2
 1791 0038 00000000 		.word	.LANCHOR3
 1792              		.cfi_endproc
 1793              	.LFE80:
 1795              		.section	.text.Sol_Car_Pos,"ax",%progbits
 1796              		.align	1
 1797              		.global	Sol_Car_Pos
 1798              		.syntax unified
 1799              		.thumb
 1800              		.thumb_func
 1801              		.fpu softvfp
 1803              	Sol_Car_Pos:
 1804              	.LVL222:
 1805              	.LFB81:
 824:Core/Src/main.c **** void Sol_Car_Pos(double r_1, double r_2, double r_3)
 825:Core/Src/main.c **** {
 1806              		.loc 1 825 1 is_stmt 1 view -0
 1807              		.cfi_startproc
 1808              		@ args = 8, pretend = 0, frame = 32
 1809              		@ frame_needed = 0, uses_anonymous_args = 0
 1810              		.loc 1 825 1 is_stmt 0 view .LVU330
 1811 0000 2DE9F04F 		push	{r4, r5, r6, r7, r8, r9, r10, fp, lr}
 1812              	.LCFI15:
 1813              		.cfi_def_cfa_offset 36
 1814              		.cfi_offset 4, -36
 1815              		.cfi_offset 5, -32
 1816              		.cfi_offset 6, -28
 1817              		.cfi_offset 7, -24
 1818              		.cfi_offset 8, -20
 1819              		.cfi_offset 9, -16
 1820              		.cfi_offset 10, -12
 1821              		.cfi_offset 11, -8
 1822              		.cfi_offset 14, -4
 1823 0004 89B0     		sub	sp, sp, #36
 1824              	.LCFI16:
 1825              		.cfi_def_cfa_offset 72
 1826 0006 1646     		mov	r6, r2
 1827 0008 1F46     		mov	r7, r3
 1828 000a DDE91289 		ldrd	r8, [sp, #72]
 826:Core/Src/main.c ****     ///Á¨¨‰∫åÂõûÂêàËÆ°ÁÆóÂ∞èËΩ¶‰ΩçÁΩÆÂáΩÊï∞„ÄÇËÆ°ÁÆóÂá∫Â∞èËΩ¶ÂΩìÂâçÂùêÊ†áÔºåÂ≠òÂÇ®Âú®car_Pos[2]Êï∞Á
 827:Core/Src/main.c ****     ///ËøîÂõûÂÄºÔºöÔøΩ??
 828:Core/Src/main.c ****     car_Pos[1] = (r_1 * r_1 * (beacon_Pos[4] - beacon_Pos[2]) + r_3 * r_3 * (beacon_Pos[2] - beacon
 1829              		.loc 1 828 5 is_stmt 1 view .LVU331
 1830              		.loc 1 828 23 is_stmt 0 view .LVU332
 1831 000e 0246     		mov	r2, r0
 1832              	.LVL223:
 1833              		.loc 1 828 23 view .LVU333
 1834 0010 0B46     		mov	r3, r1
 1835 0012 FFF7FEFF 		bl	__aeabi_dmul
 1836              	.LVL224:
ARM GAS  C:\Users\zhangjd\AppData\Local\Temp\cciTDb3B.s 			page 48


 1837              		.loc 1 828 23 view .LVU334
 1838 0016 CDE90201 		strd	r0, [sp, #8]
 1839              		.loc 1 828 42 view .LVU335
 1840 001a DFF8B0A1 		ldr	r10, .L111
 1841 001e DAF81040 		ldr	r4, [r10, #16]
 1842              		.loc 1 828 58 view .LVU336
 1843 0022 DAF80850 		ldr	r5, [r10, #8]
 1844              		.loc 1 828 29 view .LVU337
 1845 0026 601B     		subs	r0, r4, r5
 1846 0028 FFF7FEFF 		bl	__aeabi_i2d
 1847              	.LVL225:
 1848 002c DDE90223 		ldrd	r2, [sp, #8]
 1849 0030 FFF7FEFF 		bl	__aeabi_dmul
 1850              	.LVL226:
 1851 0034 CDE90001 		strd	r0, [sp]
 1852              		.loc 1 828 69 view .LVU338
 1853 0038 4246     		mov	r2, r8
 1854 003a 4B46     		mov	r3, r9
 1855 003c 4046     		mov	r0, r8
 1856 003e 4946     		mov	r1, r9
 1857 0040 FFF7FEFF 		bl	__aeabi_dmul
 1858              	.LVL227:
 1859 0044 CDE90401 		strd	r0, [sp, #16]
 1860              		.loc 1 828 104 view .LVU339
 1861 0048 DAF80080 		ldr	r8, [r10]
 1862              		.loc 1 828 75 view .LVU340
 1863 004c A5EB0800 		sub	r0, r5, r8
 1864 0050 FFF7FEFF 		bl	__aeabi_i2d
 1865              	.LVL228:
 1866 0054 DDE90423 		ldrd	r2, [sp, #16]
 1867 0058 FFF7FEFF 		bl	__aeabi_dmul
 1868              	.LVL229:
 1869 005c 0246     		mov	r2, r0
 1870 005e 0B46     		mov	r3, r1
 1871              		.loc 1 828 63 view .LVU341
 1872 0060 DDE90001 		ldrd	r0, [sp]
 1873 0064 FFF7FEFF 		bl	__aeabi_dadd
 1874              	.LVL230:
 1875 0068 CDE90001 		strd	r0, [sp]
 1876              		.loc 1 828 115 view .LVU342
 1877 006c 3246     		mov	r2, r6
 1878 006e 3B46     		mov	r3, r7
 1879 0070 3046     		mov	r0, r6
 1880 0072 3946     		mov	r1, r7
 1881 0074 FFF7FEFF 		bl	__aeabi_dmul
 1882              	.LVL231:
 1883 0078 0646     		mov	r6, r0
 1884 007a 0F46     		mov	r7, r1
 1885              		.loc 1 828 121 view .LVU343
 1886 007c A8EB0400 		sub	r0, r8, r4
 1887 0080 FFF7FEFF 		bl	__aeabi_i2d
 1888              	.LVL232:
 1889 0084 CDE90667 		strd	r6, [sp, #24]
 1890 0088 3246     		mov	r2, r6
 1891 008a 3B46     		mov	r3, r7
 1892 008c FFF7FEFF 		bl	__aeabi_dmul
 1893              	.LVL233:
ARM GAS  C:\Users\zhangjd\AppData\Local\Temp\cciTDb3B.s 			page 49


 1894 0090 0246     		mov	r2, r0
 1895 0092 0B46     		mov	r3, r1
 1896              		.loc 1 828 109 view .LVU344
 1897 0094 DDE90001 		ldrd	r0, [sp]
 1898 0098 FFF7FEFF 		bl	__aeabi_dadd
 1899              	.LVL234:
 1900              		.loc 1 828 156 view .LVU345
 1901 009c 0022     		movs	r2, #0
 1902 009e 4C4B     		ldr	r3, .L111+4
 1903 00a0 FFF7FEFF 		bl	__aeabi_dmul
 1904              	.LVL235:
 1905              		.loc 1 828 160 view .LVU346
 1906 00a4 4B4B     		ldr	r3, .L111+8
 1907 00a6 D3E90067 		ldrd	r6, [r3]
 1908 00aa CDE90067 		strd	r6, [sp]
 1909 00ae 3246     		mov	r2, r6
 1910 00b0 3B46     		mov	r3, r7
 1911 00b2 FFF7FEFF 		bl	__aeabi_ddiv
 1912              	.LVL236:
 1913 00b6 0646     		mov	r6, r0
 1914 00b8 0F46     		mov	r7, r1
 1915              		.loc 1 828 199 view .LVU347
 1916 00ba 281B     		subs	r0, r5, r4
 1917              		.loc 1 828 228 view .LVU348
 1918 00bc DAF804B0 		ldr	fp, [r10, #4]
 1919              		.loc 1 828 216 view .LVU349
 1920 00c0 0BFB00F3 		mul	r3, fp, r0
 1921              		.loc 1 828 265 view .LVU350
 1922 00c4 A8EB0500 		sub	r0, r8, r5
 1923              		.loc 1 828 294 view .LVU351
 1924 00c8 DAF81490 		ldr	r9, [r10, #20]
 1925              		.loc 1 828 282 view .LVU352
 1926 00cc 09FB00F0 		mul	r0, r9, r0
 1927              		.loc 1 828 298 view .LVU353
 1928 00d0 00FB09F0 		mul	r0, r0, r9
 1929              		.loc 1 828 248 view .LVU354
 1930 00d4 03FB0B00 		mla	r0, r3, fp, r0
 1931              		.loc 1 828 331 view .LVU355
 1932 00d8 A4EB0803 		sub	r3, r4, r8
 1933              		.loc 1 828 360 view .LVU356
 1934 00dc DAF80CA0 		ldr	r10, [r10, #12]
 1935              		.loc 1 828 348 view .LVU357
 1936 00e0 0AFB03F3 		mul	r3, r10, r3
 1937              		.loc 1 828 314 view .LVU358
 1938 00e4 03FB0A00 		mla	r0, r3, r10, r0
 1939              		.loc 1 828 381 view .LVU359
 1940 00e8 00EBD070 		add	r0, r0, r0, lsr #31
 1941              		.loc 1 828 385 view .LVU360
 1942 00ec 4010     		asrs	r0, r0, #1
 1943 00ee FFF7FEFF 		bl	__aeabi_i2d
 1944              	.LVL237:
 1945 00f2 DDE90023 		ldrd	r2, [sp]
 1946 00f6 FFF7FEFF 		bl	__aeabi_ddiv
 1947              	.LVL238:
 1948 00fa 0246     		mov	r2, r0
 1949 00fc 0B46     		mov	r3, r1
 1950              		.loc 1 828 181 view .LVU361
ARM GAS  C:\Users\zhangjd\AppData\Local\Temp\cciTDb3B.s 			page 50


 1951 00fe 3046     		mov	r0, r6
 1952 0100 3946     		mov	r1, r7
 1953 0102 FFF7FEFF 		bl	__aeabi_dadd
 1954              	.LVL239:
 1955              		.loc 1 828 16 view .LVU362
 1956 0106 FFF7FEFF 		bl	__aeabi_d2iz
 1957              	.LVL240:
 1958 010a 334B     		ldr	r3, .L111+12
 1959 010c 5860     		str	r0, [r3, #4]
 829:Core/Src/main.c ****     car_Pos[0] = -(r_1 * r_1 * (beacon_Pos[5] - beacon_Pos[3]) + r_3 * r_3 * (beacon_Pos[3] - beaco
 1960              		.loc 1 829 5 is_stmt 1 view .LVU363
 1961              		.loc 1 829 30 is_stmt 0 view .LVU364
 1962 010e A9EB0A00 		sub	r0, r9, r10
 1963 0112 FFF7FEFF 		bl	__aeabi_i2d
 1964              	.LVL241:
 1965 0116 DDE90223 		ldrd	r2, [sp, #8]
 1966 011a FFF7FEFF 		bl	__aeabi_dmul
 1967              	.LVL242:
 1968 011e 0646     		mov	r6, r0
 1969 0120 0F46     		mov	r7, r1
 1970              		.loc 1 829 76 view .LVU365
 1971 0122 AAEB0B00 		sub	r0, r10, fp
 1972 0126 FFF7FEFF 		bl	__aeabi_i2d
 1973              	.LVL243:
 1974 012a DDE90423 		ldrd	r2, [sp, #16]
 1975 012e FFF7FEFF 		bl	__aeabi_dmul
 1976              	.LVL244:
 1977 0132 0246     		mov	r2, r0
 1978 0134 0B46     		mov	r3, r1
 1979              		.loc 1 829 64 view .LVU366
 1980 0136 3046     		mov	r0, r6
 1981 0138 3946     		mov	r1, r7
 1982 013a FFF7FEFF 		bl	__aeabi_dadd
 1983              	.LVL245:
 1984 013e 0646     		mov	r6, r0
 1985 0140 0F46     		mov	r7, r1
 1986              		.loc 1 829 122 view .LVU367
 1987 0142 ABEB0900 		sub	r0, fp, r9
 1988 0146 FFF7FEFF 		bl	__aeabi_i2d
 1989              	.LVL246:
 1990 014a DDE90623 		ldrd	r2, [sp, #24]
 1991 014e FFF7FEFF 		bl	__aeabi_dmul
 1992              	.LVL247:
 1993 0152 0246     		mov	r2, r0
 1994 0154 0B46     		mov	r3, r1
 1995              		.loc 1 829 110 view .LVU368
 1996 0156 3046     		mov	r0, r6
 1997 0158 3946     		mov	r1, r7
 1998 015a FFF7FEFF 		bl	__aeabi_dadd
 1999              	.LVL248:
 2000 015e 0746     		mov	r7, r0
 2001 0160 0E46     		mov	r6, r1
 2002              		.loc 1 829 157 view .LVU369
 2003 0162 0022     		movs	r2, #0
 2004 0164 1A4B     		ldr	r3, .L111+4
 2005 0166 3846     		mov	r0, r7
 2006 0168 06F10041 		add	r1, r6, #-2147483648
ARM GAS  C:\Users\zhangjd\AppData\Local\Temp\cciTDb3B.s 			page 51


 2007 016c FFF7FEFF 		bl	__aeabi_dmul
 2008              	.LVL249:
 2009              		.loc 1 829 161 view .LVU370
 2010 0170 DDE90023 		ldrd	r2, [sp]
 2011 0174 FFF7FEFF 		bl	__aeabi_ddiv
 2012              	.LVL250:
 2013 0178 0646     		mov	r6, r0
 2014 017a 0F46     		mov	r7, r1
 2015              		.loc 1 829 200 view .LVU371
 2016 017c AAEB0900 		sub	r0, r10, r9
 2017              		.loc 1 829 217 view .LVU372
 2018 0180 00FB08F0 		mul	r0, r0, r8
 2019              		.loc 1 829 266 view .LVU373
 2020 0184 ABEB0A0A 		sub	r10, fp, r10
 2021              		.loc 1 829 283 view .LVU374
 2022 0188 0AFB04FA 		mul	r10, r10, r4
 2023              		.loc 1 829 299 view .LVU375
 2024 018c 0AFB04F4 		mul	r4, r10, r4
 2025              		.loc 1 829 249 view .LVU376
 2026 0190 00FB0848 		mla	r8, r0, r8, r4
 2027              		.loc 1 829 332 view .LVU377
 2028 0194 A9EB0B09 		sub	r9, r9, fp
 2029              		.loc 1 829 349 view .LVU378
 2030 0198 09FB05F9 		mul	r9, r9, r5
 2031              		.loc 1 829 315 view .LVU379
 2032 019c 09FB0585 		mla	r5, r9, r5, r8
 2033              		.loc 1 829 382 view .LVU380
 2034 01a0 05EBD575 		add	r5, r5, r5, lsr #31
 2035              		.loc 1 829 386 view .LVU381
 2036 01a4 6810     		asrs	r0, r5, #1
 2037 01a6 FFF7FEFF 		bl	__aeabi_i2d
 2038              	.LVL251:
 2039 01aa DDE90023 		ldrd	r2, [sp]
 2040 01ae FFF7FEFF 		bl	__aeabi_ddiv
 2041              	.LVL252:
 2042 01b2 0246     		mov	r2, r0
 2043 01b4 0B46     		mov	r3, r1
 2044              		.loc 1 829 182 view .LVU382
 2045 01b6 3046     		mov	r0, r6
 2046 01b8 3946     		mov	r1, r7
 2047 01ba FFF7FEFF 		bl	__aeabi_dsub
 2048              	.LVL253:
 2049              		.loc 1 829 16 view .LVU383
 2050 01be FFF7FEFF 		bl	__aeabi_d2iz
 2051              	.LVL254:
 2052 01c2 054B     		ldr	r3, .L111+12
 2053 01c4 1860     		str	r0, [r3]
 830:Core/Src/main.c **** }
 2054              		.loc 1 830 1 view .LVU384
 2055 01c6 09B0     		add	sp, sp, #36
 2056              	.LCFI17:
 2057              		.cfi_def_cfa_offset 36
 2058              		@ sp needed
 2059 01c8 BDE8F08F 		pop	{r4, r5, r6, r7, r8, r9, r10, fp, pc}
 2060              	.LVL255:
 2061              	.L112:
 2062              		.loc 1 830 1 view .LVU385
ARM GAS  C:\Users\zhangjd\AppData\Local\Temp\cciTDb3B.s 			page 52


 2063              		.align	2
 2064              	.L111:
 2065 01cc 00000000 		.word	.LANCHOR2
 2066 01d0 0000E03F 		.word	1071644672
 2067 01d4 00000000 		.word	.LANCHOR3
 2068 01d8 00000000 		.word	.LANCHOR4
 2069              		.cfi_endproc
 2070              	.LFE81:
 2072              		.global	__aeabi_d2f
 2073              		.global	__aeabi_f2d
 2074              		.global	__aeabi_dcmpge
 2075              		.global	__aeabi_dcmple
 2076              		.section	.text.find,"ax",%progbits
 2077              		.align	1
 2078              		.global	find
 2079              		.syntax unified
 2080              		.thumb
 2081              		.thumb_func
 2082              		.fpu softvfp
 2084              	find:
 2085              	.LVL256:
 2086              	.LFB82:
 831:Core/Src/main.c **** void find(int x, int y)
 832:Core/Src/main.c **** {
 2087              		.loc 1 832 1 is_stmt 1 view -0
 2088              		.cfi_startproc
 2089              		@ args = 0, pretend = 0, frame = 0
 2090              		@ frame_needed = 0, uses_anonymous_args = 0
 2091              		.loc 1 832 1 is_stmt 0 view .LVU387
 2092 0000 F8B5     		push	{r3, r4, r5, r6, r7, lr}
 2093              	.LCFI18:
 2094              		.cfi_def_cfa_offset 24
 2095              		.cfi_offset 3, -24
 2096              		.cfi_offset 4, -20
 2097              		.cfi_offset 5, -16
 2098              		.cfi_offset 6, -12
 2099              		.cfi_offset 7, -8
 2100              		.cfi_offset 14, -4
 833:Core/Src/main.c ****     float angle_obj;
 2101              		.loc 1 833 5 is_stmt 1 view .LVU388
 834:Core/Src/main.c ****     angle_obj = 360 - atan2LUTif(y - car_Pos[1], x - car_Pos[0]); ///ËÆ°ÁÆóÂà∞ÁõÆÊ†áÁÇπËøûÁ∫øÁöÑÂ§π
 2102              		.loc 1 834 5 view .LVU389
 2103              		.loc 1 834 45 is_stmt 0 view .LVU390
 2104 0002 944B     		ldr	r3, .L181
 2105 0004 5E68     		ldr	r6, [r3, #4]
 2106              		.loc 1 834 36 view .LVU391
 2107 0006 8E1B     		subs	r6, r1, r6
 2108              		.loc 1 834 61 view .LVU392
 2109 0008 1B68     		ldr	r3, [r3]
 2110              		.loc 1 834 23 view .LVU393
 2111 000a C01A     		subs	r0, r0, r3
 2112              	.LVL257:
 2113              		.loc 1 834 23 view .LVU394
 2114 000c FFF7FEFF 		bl	__aeabi_i2d
 2115              	.LVL258:
 2116              		.loc 1 834 23 view .LVU395
 2117 0010 0446     		mov	r4, r0
ARM GAS  C:\Users\zhangjd\AppData\Local\Temp\cciTDb3B.s 			page 53


 2118 0012 0D46     		mov	r5, r1
 2119 0014 3046     		mov	r0, r6
 2120 0016 FFF7FEFF 		bl	__aeabi_i2d
 2121              	.LVL259:
 2122 001a 2246     		mov	r2, r4
 2123 001c 2B46     		mov	r3, r5
 2124 001e FFF7FEFF 		bl	atan2LUTif
 2125              	.LVL260:
 2126 0022 0246     		mov	r2, r0
 2127 0024 0B46     		mov	r3, r1
 2128              		.loc 1 834 21 view .LVU396
 2129 0026 0020     		movs	r0, #0
 2130 0028 8B49     		ldr	r1, .L181+4
 2131 002a FFF7FEFF 		bl	__aeabi_dsub
 2132              	.LVL261:
 2133              		.loc 1 834 15 view .LVU397
 2134 002e FFF7FEFF 		bl	__aeabi_d2f
 2135              	.LVL262:
 2136 0032 0446     		mov	r4, r0
 2137              	.LVL263:
 835:Core/Src/main.c **** 
 836:Core/Src/main.c ****     float angle_car = GetYaw();
 2138              		.loc 1 836 5 is_stmt 1 view .LVU398
 2139              		.loc 1 836 23 is_stmt 0 view .LVU399
 2140 0034 FFF7FEFF 		bl	GetYaw
 2141              	.LVL264:
 2142              		.loc 1 836 23 view .LVU400
 2143 0038 0546     		mov	r5, r0
 2144              	.LVL265:
 837:Core/Src/main.c ****     if (angle_obj >= angle_err && angle_obj <= 360.0 - angle_err)
 2145              		.loc 1 837 5 is_stmt 1 view .LVU401
 2146              		.loc 1 837 8 is_stmt 0 view .LVU402
 2147 003a 4FF08041 		mov	r1, #1073741824
 2148 003e 2046     		mov	r0, r4
 2149              	.LVL266:
 2150              		.loc 1 837 8 view .LVU403
 2151 0040 FFF7FEFF 		bl	__aeabi_fcmpge
 2152              	.LVL267:
 2153 0044 0028     		cmp	r0, #0
 2154 0046 5FD0     		beq	.L114
 2155              		.loc 1 837 32 discriminator 1 view .LVU404
 2156 0048 8449     		ldr	r1, .L181+8
 2157 004a 2046     		mov	r0, r4
 2158 004c FFF7FEFF 		bl	__aeabi_fcmple
 2159              	.LVL268:
 2160 0050 0028     		cmp	r0, #0
 2161 0052 59D0     		beq	.L114
 838:Core/Src/main.c ****     {
 839:Core/Src/main.c ****         if (angle_car >= angle_obj - angle_err && angle_car <= angle_obj + angle_err)
 2162              		.loc 1 839 9 is_stmt 1 view .LVU405
 2163              		.loc 1 839 36 is_stmt 0 view .LVU406
 2164 0054 4FF08041 		mov	r1, #1073741824
 2165 0058 2046     		mov	r0, r4
 2166 005a FFF7FEFF 		bl	__aeabi_fsub
 2167              	.LVL269:
 2168              		.loc 1 839 12 view .LVU407
 2169 005e 2946     		mov	r1, r5
ARM GAS  C:\Users\zhangjd\AppData\Local\Temp\cciTDb3B.s 			page 54


 2170 0060 FFF7FEFF 		bl	__aeabi_fcmple
 2171              	.LVL270:
 2172 0064 40B1     		cbz	r0, .L117
 2173              		.loc 1 839 74 discriminator 1 view .LVU408
 2174 0066 4FF08041 		mov	r1, #1073741824
 2175 006a 2046     		mov	r0, r4
 2176 006c FFF7FEFF 		bl	__aeabi_fadd
 2177              	.LVL271:
 2178              		.loc 1 839 48 discriminator 1 view .LVU409
 2179 0070 2946     		mov	r1, r5
 2180 0072 FFF7FEFF 		bl	__aeabi_fcmpge
 2181              	.LVL272:
 2182 0076 B0B9     		cbnz	r0, .L173
 2183              	.L117:
 840:Core/Src/main.c ****         {
 841:Core/Src/main.c ****             if (goto_state == 2)
 842:Core/Src/main.c ****                 forward(forward_speed / 2);
 843:Core/Src/main.c ****             else
 844:Core/Src/main.c ****                 forward(forward_speed);
 845:Core/Src/main.c ****             if (goto_state == 0)
 846:Core/Src/main.c ****                 goto_state = 1;
 847:Core/Src/main.c ****             return;
 848:Core/Src/main.c ****         }
 849:Core/Src/main.c ****         else
 850:Core/Src/main.c ****         {
 851:Core/Src/main.c ****             if (angle_obj <= 180)
 2184              		.loc 1 851 13 is_stmt 1 view .LVU410
 2185              		.loc 1 851 16 is_stmt 0 view .LVU411
 2186 0078 7949     		ldr	r1, .L181+12
 2187 007a 2046     		mov	r0, r4
 2188 007c FFF7FEFF 		bl	__aeabi_fcmple
 2189              	.LVL273:
 2190 0080 58B3     		cbz	r0, .L168
 852:Core/Src/main.c ****             {
 853:Core/Src/main.c ****                 if (angle_car >= angle_obj && angle_car <= angle_obj + 180)
 2191              		.loc 1 853 17 is_stmt 1 view .LVU412
 2192              		.loc 1 853 20 is_stmt 0 view .LVU413
 2193 0082 2946     		mov	r1, r5
 2194 0084 2046     		mov	r0, r4
 2195 0086 FFF7FEFF 		bl	__aeabi_fcmple
 2196              	.LVL274:
 2197 008a 38B1     		cbz	r0, .L126
 2198              		.loc 1 853 70 discriminator 1 view .LVU414
 2199 008c 7449     		ldr	r1, .L181+12
 2200 008e 2046     		mov	r0, r4
 2201 0090 FFF7FEFF 		bl	__aeabi_fadd
 2202              	.LVL275:
 2203              		.loc 1 853 44 discriminator 1 view .LVU415
 2204 0094 2946     		mov	r1, r5
 2205 0096 FFF7FEFF 		bl	__aeabi_fcmpge
 2206              	.LVL276:
 2207 009a C8B9     		cbnz	r0, .L174
 2208              	.L126:
 854:Core/Src/main.c ****                 {
 855:Core/Src/main.c ****                     rotate_clockwise(rotate_speed);
 856:Core/Src/main.c ****                 }
 857:Core/Src/main.c ****                 else
ARM GAS  C:\Users\zhangjd\AppData\Local\Temp\cciTDb3B.s 			page 55


 858:Core/Src/main.c ****                     rotate_counterclockwise(rotate_speed);
 2209              		.loc 1 858 21 is_stmt 1 view .LVU416
 2210 009c 4FF44860 		mov	r0, #3200
 2211 00a0 FFF7FEFF 		bl	rotate_counterclockwise
 2212              	.LVL277:
 2213 00a4 68E0     		b	.L113
 2214              	.L173:
 841:Core/Src/main.c ****                 forward(forward_speed / 2);
 2215              		.loc 1 841 13 view .LVU417
 841:Core/Src/main.c ****                 forward(forward_speed / 2);
 2216              		.loc 1 841 28 is_stmt 0 view .LVU418
 2217 00a6 6F4B     		ldr	r3, .L181+16
 2218 00a8 1B68     		ldr	r3, [r3]
 841:Core/Src/main.c ****                 forward(forward_speed / 2);
 2219              		.loc 1 841 16 view .LVU419
 2220 00aa 022B     		cmp	r3, #2
 2221 00ac 0BD0     		beq	.L175
 844:Core/Src/main.c ****             if (goto_state == 0)
 2222              		.loc 1 844 17 is_stmt 1 view .LVU420
 2223 00ae 40F2DC50 		movw	r0, #1500
 2224 00b2 FFF7FEFF 		bl	forward
 2225              	.LVL278:
 2226              	.L121:
 845:Core/Src/main.c ****                 goto_state = 1;
 2227              		.loc 1 845 13 view .LVU421
 845:Core/Src/main.c ****                 goto_state = 1;
 2228              		.loc 1 845 28 is_stmt 0 view .LVU422
 2229 00b6 6B4B     		ldr	r3, .L181+16
 2230 00b8 1B68     		ldr	r3, [r3]
 845:Core/Src/main.c ****                 goto_state = 1;
 2231              		.loc 1 845 16 view .LVU423
 2232 00ba 002B     		cmp	r3, #0
 2233 00bc 5CD1     		bne	.L113
 846:Core/Src/main.c ****             return;
 2234              		.loc 1 846 17 is_stmt 1 view .LVU424
 846:Core/Src/main.c ****             return;
 2235              		.loc 1 846 28 is_stmt 0 view .LVU425
 2236 00be 694B     		ldr	r3, .L181+16
 2237 00c0 0122     		movs	r2, #1
 2238 00c2 1A60     		str	r2, [r3]
 847:Core/Src/main.c ****         }
 2239              		.loc 1 847 13 is_stmt 1 view .LVU426
 2240 00c4 58E0     		b	.L113
 2241              	.L175:
 842:Core/Src/main.c ****             else
 2242              		.loc 1 842 17 view .LVU427
 2243 00c6 40F2EE20 		movw	r0, #750
 2244 00ca FFF7FEFF 		bl	forward
 2245              	.LVL279:
 2246 00ce F2E7     		b	.L121
 2247              	.L174:
 855:Core/Src/main.c ****                 }
 2248              		.loc 1 855 21 view .LVU428
 2249 00d0 4FF44860 		mov	r0, #3200
 2250 00d4 FFF7FEFF 		bl	rotate_clockwise
 2251              	.LVL280:
 2252 00d8 4EE0     		b	.L113
ARM GAS  C:\Users\zhangjd\AppData\Local\Temp\cciTDb3B.s 			page 56


 2253              	.L168:
 859:Core/Src/main.c ****             }
 860:Core/Src/main.c ****             else
 861:Core/Src/main.c ****             {
 862:Core/Src/main.c ****                 if (angle_car <= angle_obj && angle_car >= angle_obj - 180)
 2254              		.loc 1 862 17 view .LVU429
 2255              		.loc 1 862 20 is_stmt 0 view .LVU430
 2256 00da 2946     		mov	r1, r5
 2257 00dc 2046     		mov	r0, r4
 2258 00de FFF7FEFF 		bl	__aeabi_fcmpge
 2259              	.LVL281:
 2260 00e2 38B1     		cbz	r0, .L129
 2261              		.loc 1 862 70 discriminator 1 view .LVU431
 2262 00e4 5E49     		ldr	r1, .L181+12
 2263 00e6 2046     		mov	r0, r4
 2264 00e8 FFF7FEFF 		bl	__aeabi_fsub
 2265              	.LVL282:
 2266              		.loc 1 862 44 discriminator 1 view .LVU432
 2267 00ec 2946     		mov	r1, r5
 2268 00ee FFF7FEFF 		bl	__aeabi_fcmple
 2269              	.LVL283:
 2270 00f2 20B9     		cbnz	r0, .L176
 2271              	.L129:
 863:Core/Src/main.c ****                 {
 864:Core/Src/main.c ****                     rotate_counterclockwise(rotate_speed);
 865:Core/Src/main.c ****                 }
 866:Core/Src/main.c ****                 else
 867:Core/Src/main.c ****                     rotate_clockwise(rotate_speed);
 2272              		.loc 1 867 21 is_stmt 1 view .LVU433
 2273 00f4 4FF44860 		mov	r0, #3200
 2274 00f8 FFF7FEFF 		bl	rotate_clockwise
 2275              	.LVL284:
 2276 00fc 3CE0     		b	.L113
 2277              	.L176:
 864:Core/Src/main.c ****                 }
 2278              		.loc 1 864 21 view .LVU434
 2279 00fe 4FF44860 		mov	r0, #3200
 2280 0102 FFF7FEFF 		bl	rotate_counterclockwise
 2281              	.LVL285:
 2282 0106 37E0     		b	.L113
 2283              	.L114:
 868:Core/Src/main.c ****             }
 869:Core/Src/main.c ****         }
 870:Core/Src/main.c ****     }
 871:Core/Src/main.c ****     else
 872:Core/Src/main.c ****     {
 873:Core/Src/main.c ****         if (angle_obj < angle_err)
 2284              		.loc 1 873 9 view .LVU435
 2285              		.loc 1 873 12 is_stmt 0 view .LVU436
 2286 0108 4FF08041 		mov	r1, #1073741824
 2287 010c 2046     		mov	r0, r4
 2288 010e FFF7FEFF 		bl	__aeabi_fcmplt
 2289              	.LVL286:
 2290 0112 0028     		cmp	r0, #0
 2291 0114 4BD0     		beq	.L169
 874:Core/Src/main.c ****         {
 875:Core/Src/main.c ****             if ((angle_car >= angle_obj - angle_err + 360.0 || angle_car <= angle_obj + angle_err))
ARM GAS  C:\Users\zhangjd\AppData\Local\Temp\cciTDb3B.s 			page 57


 2292              		.loc 1 875 13 is_stmt 1 view .LVU437
 2293              		.loc 1 875 28 is_stmt 0 view .LVU438
 2294 0116 2846     		mov	r0, r5
 2295 0118 FFF7FEFF 		bl	__aeabi_f2d
 2296              	.LVL287:
 2297 011c 0646     		mov	r6, r0
 2298 011e 0F46     		mov	r7, r1
 2299              		.loc 1 875 41 view .LVU439
 2300 0120 4FF08041 		mov	r1, #1073741824
 2301 0124 2046     		mov	r0, r4
 2302 0126 FFF7FEFF 		bl	__aeabi_fsub
 2303              	.LVL288:
 2304 012a FFF7FEFF 		bl	__aeabi_f2d
 2305              	.LVL289:
 2306              		.loc 1 875 53 view .LVU440
 2307 012e 0022     		movs	r2, #0
 2308 0130 494B     		ldr	r3, .L181+4
 2309 0132 FFF7FEFF 		bl	__aeabi_dadd
 2310              	.LVL290:
 2311 0136 0246     		mov	r2, r0
 2312 0138 0B46     		mov	r3, r1
 2313              		.loc 1 875 16 view .LVU441
 2314 013a 3046     		mov	r0, r6
 2315 013c 3946     		mov	r1, r7
 2316 013e FFF7FEFF 		bl	__aeabi_dcmpge
 2317              	.LVL291:
 2318 0142 D0B9     		cbnz	r0, .L134
 2319              		.loc 1 875 87 discriminator 1 view .LVU442
 2320 0144 4FF08041 		mov	r1, #1073741824
 2321 0148 2046     		mov	r0, r4
 2322 014a FFF7FEFF 		bl	__aeabi_fadd
 2323              	.LVL292:
 2324              		.loc 1 875 61 discriminator 1 view .LVU443
 2325 014e 2946     		mov	r1, r5
 2326 0150 FFF7FEFF 		bl	__aeabi_fcmpge
 2327              	.LVL293:
 2328 0154 88B9     		cbnz	r0, .L134
 876:Core/Src/main.c ****             {
 877:Core/Src/main.c ****                 if (goto_state == 2)
 878:Core/Src/main.c ****                     forward(forward_speed / 2);
 879:Core/Src/main.c ****                 else
 880:Core/Src/main.c ****                     forward(forward_speed);
 881:Core/Src/main.c ****                 if (goto_state == 0)
 882:Core/Src/main.c ****                     goto_state = 1;
 883:Core/Src/main.c ****                 return;
 884:Core/Src/main.c ****             }
 885:Core/Src/main.c ****             else
 886:Core/Src/main.c ****             {
 887:Core/Src/main.c ****                 if (angle_car >= angle_obj && angle_car <= angle_obj + 180)
 2329              		.loc 1 887 17 is_stmt 1 view .LVU444
 2330              		.loc 1 887 20 is_stmt 0 view .LVU445
 2331 0156 2946     		mov	r1, r5
 2332 0158 2046     		mov	r0, r4
 2333 015a FFF7FEFF 		bl	__aeabi_fcmple
 2334              	.LVL294:
 2335 015e 38B1     		cbz	r0, .L140
 2336              		.loc 1 887 70 discriminator 1 view .LVU446
ARM GAS  C:\Users\zhangjd\AppData\Local\Temp\cciTDb3B.s 			page 58


 2337 0160 3F49     		ldr	r1, .L181+12
 2338 0162 2046     		mov	r0, r4
 2339 0164 FFF7FEFF 		bl	__aeabi_fadd
 2340              	.LVL295:
 2341              		.loc 1 887 44 discriminator 1 view .LVU447
 2342 0168 2946     		mov	r1, r5
 2343 016a FFF7FEFF 		bl	__aeabi_fcmpge
 2344              	.LVL296:
 2345 016e C8B9     		cbnz	r0, .L177
 2346              	.L140:
 888:Core/Src/main.c ****                 {
 889:Core/Src/main.c ****                     rotate_clockwise(rotate_speed);
 890:Core/Src/main.c ****                 }
 891:Core/Src/main.c ****                 else
 892:Core/Src/main.c ****                     rotate_counterclockwise(rotate_speed);
 2347              		.loc 1 892 21 is_stmt 1 view .LVU448
 2348 0170 4FF44860 		mov	r0, #3200
 2349 0174 FFF7FEFF 		bl	rotate_counterclockwise
 2350              	.LVL297:
 2351              	.L113:
 893:Core/Src/main.c ****             }
 894:Core/Src/main.c ****         }
 895:Core/Src/main.c ****         else if (angle_obj > 360 - angle_err)
 896:Core/Src/main.c ****         {
 897:Core/Src/main.c ****             if ((angle_car <= angle_obj + angle_err - 360.0 || angle_car >= angle_obj - angle_err))
 898:Core/Src/main.c ****             {
 899:Core/Src/main.c ****                 if (goto_state == 2)
 900:Core/Src/main.c ****                     forward(forward_speed / 2);
 901:Core/Src/main.c ****                 else
 902:Core/Src/main.c ****                     forward(forward_speed);
 903:Core/Src/main.c ****                 if (goto_state == 0)
 904:Core/Src/main.c ****                     goto_state = 1;
 905:Core/Src/main.c ****                 return;
 906:Core/Src/main.c ****             }
 907:Core/Src/main.c ****             else
 908:Core/Src/main.c ****             {
 909:Core/Src/main.c ****                 if (angle_car <= angle_obj && angle_car >= angle_obj - 180)
 910:Core/Src/main.c ****                 {
 911:Core/Src/main.c ****                     rotate_counterclockwise(rotate_speed);
 912:Core/Src/main.c ****                 }
 913:Core/Src/main.c ****                 else
 914:Core/Src/main.c ****                     rotate_clockwise(rotate_speed);
 915:Core/Src/main.c ****             }
 916:Core/Src/main.c ****         }
 917:Core/Src/main.c ****     }
 918:Core/Src/main.c **** }
 2352              		.loc 1 918 1 is_stmt 0 view .LVU449
 2353 0178 F8BD     		pop	{r3, r4, r5, r6, r7, pc}
 2354              	.LVL298:
 2355              	.L134:
 877:Core/Src/main.c ****                     forward(forward_speed / 2);
 2356              		.loc 1 877 17 is_stmt 1 view .LVU450
 877:Core/Src/main.c ****                     forward(forward_speed / 2);
 2357              		.loc 1 877 32 is_stmt 0 view .LVU451
 2358 017a 3A4B     		ldr	r3, .L181+16
 2359 017c 1B68     		ldr	r3, [r3]
 877:Core/Src/main.c ****                     forward(forward_speed / 2);
ARM GAS  C:\Users\zhangjd\AppData\Local\Temp\cciTDb3B.s 			page 59


 2360              		.loc 1 877 20 view .LVU452
 2361 017e 022B     		cmp	r3, #2
 2362 0180 0BD0     		beq	.L178
 880:Core/Src/main.c ****                 if (goto_state == 0)
 2363              		.loc 1 880 21 is_stmt 1 view .LVU453
 2364 0182 40F2DC50 		movw	r0, #1500
 2365 0186 FFF7FEFF 		bl	forward
 2366              	.LVL299:
 2367              	.L138:
 881:Core/Src/main.c ****                     goto_state = 1;
 2368              		.loc 1 881 17 view .LVU454
 881:Core/Src/main.c ****                     goto_state = 1;
 2369              		.loc 1 881 32 is_stmt 0 view .LVU455
 2370 018a 364B     		ldr	r3, .L181+16
 2371 018c 1B68     		ldr	r3, [r3]
 881:Core/Src/main.c ****                     goto_state = 1;
 2372              		.loc 1 881 20 view .LVU456
 2373 018e 002B     		cmp	r3, #0
 2374 0190 F2D1     		bne	.L113
 882:Core/Src/main.c ****                 return;
 2375              		.loc 1 882 21 is_stmt 1 view .LVU457
 882:Core/Src/main.c ****                 return;
 2376              		.loc 1 882 32 is_stmt 0 view .LVU458
 2377 0192 344B     		ldr	r3, .L181+16
 2378 0194 0122     		movs	r2, #1
 2379 0196 1A60     		str	r2, [r3]
 883:Core/Src/main.c ****             }
 2380              		.loc 1 883 17 is_stmt 1 view .LVU459
 2381 0198 EEE7     		b	.L113
 2382              	.L178:
 878:Core/Src/main.c ****                 else
 2383              		.loc 1 878 21 view .LVU460
 2384 019a 40F2EE20 		movw	r0, #750
 2385 019e FFF7FEFF 		bl	forward
 2386              	.LVL300:
 2387 01a2 F2E7     		b	.L138
 2388              	.L177:
 889:Core/Src/main.c ****                 }
 2389              		.loc 1 889 21 view .LVU461
 2390 01a4 4FF44860 		mov	r0, #3200
 2391 01a8 FFF7FEFF 		bl	rotate_clockwise
 2392              	.LVL301:
 2393 01ac E4E7     		b	.L113
 2394              	.L169:
 895:Core/Src/main.c ****         {
 2395              		.loc 1 895 14 view .LVU462
 895:Core/Src/main.c ****         {
 2396              		.loc 1 895 17 is_stmt 0 view .LVU463
 2397 01ae 2B49     		ldr	r1, .L181+8
 2398 01b0 2046     		mov	r0, r4
 2399 01b2 FFF7FEFF 		bl	__aeabi_fcmpgt
 2400              	.LVL302:
 2401 01b6 0028     		cmp	r0, #0
 2402 01b8 DED0     		beq	.L113
 897:Core/Src/main.c ****             {
 2403              		.loc 1 897 13 is_stmt 1 view .LVU464
 897:Core/Src/main.c ****             {
ARM GAS  C:\Users\zhangjd\AppData\Local\Temp\cciTDb3B.s 			page 60


 2404              		.loc 1 897 28 is_stmt 0 view .LVU465
 2405 01ba 2846     		mov	r0, r5
 2406 01bc FFF7FEFF 		bl	__aeabi_f2d
 2407              	.LVL303:
 2408 01c0 0646     		mov	r6, r0
 2409 01c2 0F46     		mov	r7, r1
 897:Core/Src/main.c ****             {
 2410              		.loc 1 897 41 view .LVU466
 2411 01c4 4FF08041 		mov	r1, #1073741824
 2412 01c8 2046     		mov	r0, r4
 2413 01ca FFF7FEFF 		bl	__aeabi_fadd
 2414              	.LVL304:
 2415 01ce FFF7FEFF 		bl	__aeabi_f2d
 2416              	.LVL305:
 897:Core/Src/main.c ****             {
 2417              		.loc 1 897 53 view .LVU467
 2418 01d2 0022     		movs	r2, #0
 2419 01d4 204B     		ldr	r3, .L181+4
 2420 01d6 FFF7FEFF 		bl	__aeabi_dsub
 2421              	.LVL306:
 2422 01da 0246     		mov	r2, r0
 2423 01dc 0B46     		mov	r3, r1
 897:Core/Src/main.c ****             {
 2424              		.loc 1 897 16 view .LVU468
 2425 01de 3046     		mov	r0, r6
 2426 01e0 3946     		mov	r1, r7
 2427 01e2 FFF7FEFF 		bl	__aeabi_dcmple
 2428              	.LVL307:
 2429 01e6 D0B9     		cbnz	r0, .L144
 897:Core/Src/main.c ****             {
 2430              		.loc 1 897 87 discriminator 1 view .LVU469
 2431 01e8 4FF08041 		mov	r1, #1073741824
 2432 01ec 2046     		mov	r0, r4
 2433 01ee FFF7FEFF 		bl	__aeabi_fsub
 2434              	.LVL308:
 897:Core/Src/main.c ****             {
 2435              		.loc 1 897 61 discriminator 1 view .LVU470
 2436 01f2 2946     		mov	r1, r5
 2437 01f4 FFF7FEFF 		bl	__aeabi_fcmple
 2438              	.LVL309:
 2439 01f8 88B9     		cbnz	r0, .L144
 909:Core/Src/main.c ****                 {
 2440              		.loc 1 909 17 is_stmt 1 view .LVU471
 909:Core/Src/main.c ****                 {
 2441              		.loc 1 909 20 is_stmt 0 view .LVU472
 2442 01fa 2946     		mov	r1, r5
 2443 01fc 2046     		mov	r0, r4
 2444 01fe FFF7FEFF 		bl	__aeabi_fcmpge
 2445              	.LVL310:
 2446 0202 38B1     		cbz	r0, .L150
 909:Core/Src/main.c ****                 {
 2447              		.loc 1 909 70 discriminator 1 view .LVU473
 2448 0204 1649     		ldr	r1, .L181+12
 2449 0206 2046     		mov	r0, r4
 2450 0208 FFF7FEFF 		bl	__aeabi_fsub
 2451              	.LVL311:
 909:Core/Src/main.c ****                 {
ARM GAS  C:\Users\zhangjd\AppData\Local\Temp\cciTDb3B.s 			page 61


 2452              		.loc 1 909 44 discriminator 1 view .LVU474
 2453 020c 2946     		mov	r1, r5
 2454 020e FFF7FEFF 		bl	__aeabi_fcmple
 2455              	.LVL312:
 2456 0212 C8B9     		cbnz	r0, .L179
 2457              	.L150:
 914:Core/Src/main.c ****             }
 2458              		.loc 1 914 21 is_stmt 1 view .LVU475
 2459 0214 4FF44860 		mov	r0, #3200
 2460 0218 FFF7FEFF 		bl	rotate_clockwise
 2461              	.LVL313:
 2462 021c ACE7     		b	.L113
 2463              	.L144:
 899:Core/Src/main.c ****                     forward(forward_speed / 2);
 2464              		.loc 1 899 17 view .LVU476
 899:Core/Src/main.c ****                     forward(forward_speed / 2);
 2465              		.loc 1 899 32 is_stmt 0 view .LVU477
 2466 021e 114B     		ldr	r3, .L181+16
 2467 0220 1B68     		ldr	r3, [r3]
 899:Core/Src/main.c ****                     forward(forward_speed / 2);
 2468              		.loc 1 899 20 view .LVU478
 2469 0222 022B     		cmp	r3, #2
 2470 0224 0BD0     		beq	.L180
 902:Core/Src/main.c ****                 if (goto_state == 0)
 2471              		.loc 1 902 21 is_stmt 1 view .LVU479
 2472 0226 40F2DC50 		movw	r0, #1500
 2473 022a FFF7FEFF 		bl	forward
 2474              	.LVL314:
 2475              	.L148:
 903:Core/Src/main.c ****                     goto_state = 1;
 2476              		.loc 1 903 17 view .LVU480
 903:Core/Src/main.c ****                     goto_state = 1;
 2477              		.loc 1 903 32 is_stmt 0 view .LVU481
 2478 022e 0D4B     		ldr	r3, .L181+16
 2479 0230 1B68     		ldr	r3, [r3]
 903:Core/Src/main.c ****                     goto_state = 1;
 2480              		.loc 1 903 20 view .LVU482
 2481 0232 002B     		cmp	r3, #0
 2482 0234 A0D1     		bne	.L113
 904:Core/Src/main.c ****                 return;
 2483              		.loc 1 904 21 is_stmt 1 view .LVU483
 904:Core/Src/main.c ****                 return;
 2484              		.loc 1 904 32 is_stmt 0 view .LVU484
 2485 0236 0B4B     		ldr	r3, .L181+16
 2486 0238 0122     		movs	r2, #1
 2487 023a 1A60     		str	r2, [r3]
 905:Core/Src/main.c ****             }
 2488              		.loc 1 905 17 is_stmt 1 view .LVU485
 2489 023c 9CE7     		b	.L113
 2490              	.L180:
 900:Core/Src/main.c ****                 else
 2491              		.loc 1 900 21 view .LVU486
 2492 023e 40F2EE20 		movw	r0, #750
 2493 0242 FFF7FEFF 		bl	forward
 2494              	.LVL315:
 2495 0246 F2E7     		b	.L148
 2496              	.L179:
ARM GAS  C:\Users\zhangjd\AppData\Local\Temp\cciTDb3B.s 			page 62


 911:Core/Src/main.c ****                 }
 2497              		.loc 1 911 21 view .LVU487
 2498 0248 4FF44860 		mov	r0, #3200
 2499 024c FFF7FEFF 		bl	rotate_counterclockwise
 2500              	.LVL316:
 2501 0250 92E7     		b	.L113
 2502              	.L182:
 2503 0252 00BF     		.align	2
 2504              	.L181:
 2505 0254 00000000 		.word	.LANCHOR4
 2506 0258 00807640 		.word	1081507840
 2507 025c 0000B343 		.word	1135804416
 2508 0260 00003443 		.word	1127481344
 2509 0264 00000000 		.word	.LANCHOR5
 2510              		.cfi_endproc
 2511              	.LFE82:
 2513              		.global	__aeabi_i2f
 2514              		.section	.text.Goto,"ax",%progbits
 2515              		.align	1
 2516              		.global	Goto
 2517              		.syntax unified
 2518              		.thumb
 2519              		.thumb_func
 2520              		.fpu softvfp
 2522              	Goto:
 2523              	.LVL317:
 2524              	.LFB83:
 919:Core/Src/main.c **** 
 920:Core/Src/main.c **** void Goto(int x, int y)
 921:Core/Src/main.c **** {
 2525              		.loc 1 921 1 view -0
 2526              		.cfi_startproc
 2527              		@ args = 0, pretend = 0, frame = 0
 2528              		@ frame_needed = 0, uses_anonymous_args = 0
 2529              		.loc 1 921 1 is_stmt 0 view .LVU489
 2530 0000 38B5     		push	{r3, r4, r5, lr}
 2531              	.LCFI19:
 2532              		.cfi_def_cfa_offset 16
 2533              		.cfi_offset 3, -16
 2534              		.cfi_offset 4, -12
 2535              		.cfi_offset 5, -8
 2536              		.cfi_offset 14, -4
 2537 0002 0546     		mov	r5, r0
 2538 0004 0C46     		mov	r4, r1
 922:Core/Src/main.c ****     if (goto_state == 0 || goto_state == 2)
 2539              		.loc 1 922 5 is_stmt 1 view .LVU490
 2540              		.loc 1 922 20 is_stmt 0 view .LVU491
 2541 0006 1A4B     		ldr	r3, .L194
 2542 0008 1B68     		ldr	r3, [r3]
 2543              		.loc 1 922 8 view .LVU492
 2544 000a 0BB1     		cbz	r3, .L184
 2545              		.loc 1 922 25 discriminator 1 view .LVU493
 2546 000c 022B     		cmp	r3, #2
 2547 000e 03D1     		bne	.L185
 2548              	.L184:
 923:Core/Src/main.c ****         find(x, y);
 2549              		.loc 1 923 9 is_stmt 1 view .LVU494
ARM GAS  C:\Users\zhangjd\AppData\Local\Temp\cciTDb3B.s 			page 63


 2550 0010 2146     		mov	r1, r4
 2551              	.LVL318:
 2552              		.loc 1 923 9 is_stmt 0 view .LVU495
 2553 0012 2846     		mov	r0, r5
 2554              	.LVL319:
 2555              		.loc 1 923 9 view .LVU496
 2556 0014 FFF7FEFF 		bl	find
 2557              	.LVL320:
 2558              	.L185:
 924:Core/Src/main.c ****     dis_cur = (x - car_Pos[0]) * (x - car_Pos[0]) + (y - car_Pos[1]) * (y - car_Pos[1]);
 2559              		.loc 1 924 5 is_stmt 1 view .LVU497
 2560              		.loc 1 924 27 is_stmt 0 view .LVU498
 2561 0018 164B     		ldr	r3, .L194+4
 2562 001a 1868     		ldr	r0, [r3]
 2563              		.loc 1 924 18 view .LVU499
 2564 001c 281A     		subs	r0, r5, r0
 2565              		.loc 1 924 65 view .LVU500
 2566 001e 5968     		ldr	r1, [r3, #4]
 2567              		.loc 1 924 56 view .LVU501
 2568 0020 611A     		subs	r1, r4, r1
 2569              		.loc 1 924 70 view .LVU502
 2570 0022 01FB01F1 		mul	r1, r1, r1
 2571              		.loc 1 924 13 view .LVU503
 2572 0026 00FB0010 		mla	r0, r0, r0, r1
 2573 002a FFF7FEFF 		bl	__aeabi_i2f
 2574              	.LVL321:
 2575 002e 0446     		mov	r4, r0
 2576              	.LVL322:
 2577              		.loc 1 924 13 view .LVU504
 2578 0030 114B     		ldr	r3, .L194+8
 2579 0032 1860     		str	r0, [r3]	@ float
 925:Core/Src/main.c ****     if (goto_state == 1) //goto_state is a variable determining whether the car's head is towards t
 2580              		.loc 1 925 5 is_stmt 1 view .LVU505
 2581              		.loc 1 925 20 is_stmt 0 view .LVU506
 2582 0034 0E4B     		ldr	r3, .L194
 2583 0036 1B68     		ldr	r3, [r3]
 2584              		.loc 1 925 8 view .LVU507
 2585 0038 012B     		cmp	r3, #1
 2586 003a 0FD0     		beq	.L193
 2587              	.L186:
 926:Core/Src/main.c ****     {
 927:Core/Src/main.c ****         if (goto_state == 1 && dis_cur < 60) //when first approach the resource, state = 2
 928:Core/Src/main.c ****         {
 929:Core/Src/main.c ****             goto_state = 2;
 930:Core/Src/main.c ****         }
 931:Core/Src/main.c ****     }
 932:Core/Src/main.c ****     if (dis_cur > dis_pre + 30) // going pass by without getting the resource
 2588              		.loc 1 932 5 is_stmt 1 view .LVU508
 2589              		.loc 1 932 27 is_stmt 0 view .LVU509
 2590 003c 0F49     		ldr	r1, .L194+12
 2591 003e 104B     		ldr	r3, .L194+16
 2592 0040 1868     		ldr	r0, [r3]	@ float
 2593 0042 FFF7FEFF 		bl	__aeabi_fadd
 2594              	.LVL323:
 2595 0046 0146     		mov	r1, r0
 2596              		.loc 1 932 8 view .LVU510
 2597 0048 2046     		mov	r0, r4
ARM GAS  C:\Users\zhangjd\AppData\Local\Temp\cciTDb3B.s 			page 64


 2598 004a FFF7FEFF 		bl	__aeabi_fcmpgt
 2599              	.LVL324:
 2600 004e 10B1     		cbz	r0, .L188
 933:Core/Src/main.c ****         goto_state = 0;
 2601              		.loc 1 933 9 is_stmt 1 view .LVU511
 2602              		.loc 1 933 20 is_stmt 0 view .LVU512
 2603 0050 074B     		ldr	r3, .L194
 2604 0052 0022     		movs	r2, #0
 2605 0054 1A60     		str	r2, [r3]
 2606              	.L188:
 934:Core/Src/main.c ****     dis_pre = dis_cur;
 2607              		.loc 1 934 5 is_stmt 1 view .LVU513
 2608              		.loc 1 934 13 is_stmt 0 view .LVU514
 2609 0056 0A4B     		ldr	r3, .L194+16
 2610 0058 1C60     		str	r4, [r3]	@ float
 935:Core/Src/main.c **** }
 2611              		.loc 1 935 1 view .LVU515
 2612 005a 38BD     		pop	{r3, r4, r5, pc}
 2613              	.LVL325:
 2614              	.L193:
 927:Core/Src/main.c ****         {
 2615              		.loc 1 927 9 is_stmt 1 discriminator 1 view .LVU516
 927:Core/Src/main.c ****         {
 2616              		.loc 1 927 29 is_stmt 0 discriminator 1 view .LVU517
 2617 005c 0949     		ldr	r1, .L194+20
 2618 005e FFF7FEFF 		bl	__aeabi_fcmplt
 2619              	.LVL326:
 2620 0062 0028     		cmp	r0, #0
 2621 0064 EAD0     		beq	.L186
 929:Core/Src/main.c ****         }
 2622              		.loc 1 929 13 is_stmt 1 view .LVU518
 929:Core/Src/main.c ****         }
 2623              		.loc 1 929 24 is_stmt 0 view .LVU519
 2624 0066 024B     		ldr	r3, .L194
 2625 0068 0222     		movs	r2, #2
 2626 006a 1A60     		str	r2, [r3]
 2627 006c E6E7     		b	.L186
 2628              	.L195:
 2629 006e 00BF     		.align	2
 2630              	.L194:
 2631 0070 00000000 		.word	.LANCHOR5
 2632 0074 00000000 		.word	.LANCHOR4
 2633 0078 00000000 		.word	.LANCHOR6
 2634 007c 0000F041 		.word	1106247680
 2635 0080 00000000 		.word	.LANCHOR7
 2636 0084 00007042 		.word	1114636288
 2637              		.cfi_endproc
 2638              	.LFE83:
 2640              		.section	.text.Get_Rep_opt,"ax",%progbits
 2641              		.align	1
 2642              		.global	Get_Rep_opt
 2643              		.syntax unified
 2644              		.thumb
 2645              		.thumb_func
 2646              		.fpu softvfp
 2648              	Get_Rep_opt:
 2649              	.LVL327:
ARM GAS  C:\Users\zhangjd\AppData\Local\Temp\cciTDb3B.s 			page 65


 2650              	.LFB84:
 936:Core/Src/main.c **** 
 937:Core/Src/main.c **** //ÂØªÊâæÔøΩ??ËøëÁöÑ‰ªìÂ∫ìÂùêÊ†á
 938:Core/Src/main.c **** // Parameters: Â∞èËΩ¶ÂùêÊ†á
 939:Core/Src/main.c **** // Return: ÔøΩ??ËøëÁöÑ‰ªìÂ∫ìÂùêÊ†áÁöÑÊï∞ÁªÑÊåáÔøΩ??
 940:Core/Src/main.c **** void Get_Rep_opt(int x, int y)
 941:Core/Src/main.c **** {
 2651              		.loc 1 941 1 is_stmt 1 view -0
 2652              		.cfi_startproc
 2653              		@ args = 0, pretend = 0, frame = 0
 2654              		@ frame_needed = 0, uses_anonymous_args = 0
 2655              		.loc 1 941 1 is_stmt 0 view .LVU521
 2656 0000 2DE9F041 		push	{r4, r5, r6, r7, r8, lr}
 2657              	.LCFI20:
 2658              		.cfi_def_cfa_offset 24
 2659              		.cfi_offset 4, -24
 2660              		.cfi_offset 5, -20
 2661              		.cfi_offset 6, -16
 2662              		.cfi_offset 7, -12
 2663              		.cfi_offset 8, -8
 2664              		.cfi_offset 14, -4
 2665 0004 0646     		mov	r6, r0
 2666 0006 0F46     		mov	r7, r1
 942:Core/Src/main.c ****     int min;
 2667              		.loc 1 942 5 is_stmt 1 view .LVU522
 943:Core/Src/main.c ****     int min_rep;
 2668              		.loc 1 943 5 view .LVU523
 944:Core/Src/main.c ****     int i = 0;
 2669              		.loc 1 944 5 view .LVU524
 2670              	.LVL328:
 945:Core/Src/main.c ****     min = (x - 15) * (x - 15) + (y - 15) * (y - 15);
 2671              		.loc 1 945 5 view .LVU525
 2672              		.loc 1 945 14 is_stmt 0 view .LVU526
 2673 0008 A0F10F05 		sub	r5, r0, #15
 2674              		.loc 1 945 36 view .LVU527
 2675 000c A1F10F03 		sub	r3, r1, #15
 2676              		.loc 1 945 42 view .LVU528
 2677 0010 03FB03F3 		mul	r3, r3, r3
 2678              		.loc 1 945 9 view .LVU529
 2679 0014 05FB0535 		mla	r5, r5, r5, r3
 2680              	.LVL329:
 946:Core/Src/main.c ****     min_rep = 0;
 2681              		.loc 1 946 5 is_stmt 1 view .LVU530
 947:Core/Src/main.c ****     for (i = 0; i < 8; ++i)
 2682              		.loc 1 947 5 view .LVU531
 2683              		.loc 1 947 12 is_stmt 0 view .LVU532
 2684 0018 0024     		movs	r4, #0
 946:Core/Src/main.c ****     min_rep = 0;
 2685              		.loc 1 946 13 view .LVU533
 2686 001a A046     		mov	r8, r4
 2687              		.loc 1 947 5 view .LVU534
 2688 001c 00E0     		b	.L197
 2689              	.LVL330:
 2690              	.L198:
 2691              		.loc 1 947 24 is_stmt 1 discriminator 2 view .LVU535
 2692 001e 0134     		adds	r4, r4, #1
 2693              	.LVL331:
ARM GAS  C:\Users\zhangjd\AppData\Local\Temp\cciTDb3B.s 			page 66


 2694              	.L197:
 2695              		.loc 1 947 17 discriminator 1 view .LVU536
 2696              		.loc 1 947 5 is_stmt 0 discriminator 1 view .LVU537
 2697 0020 072C     		cmp	r4, #7
 2698 0022 17DC     		bgt	.L207
 948:Core/Src/main.c ****     {
 949:Core/Src/main.c ****         if (getParkDotMineType(i) == prev_type) //ÂêåÁ±ªÂûãÂ∑≤ÁªèÂéªËøá‰∫Ü
 2699              		.loc 1 949 9 is_stmt 1 view .LVU538
 2700              		.loc 1 949 13 is_stmt 0 view .LVU539
 2701 0024 2046     		mov	r0, r4
 2702 0026 FFF7FEFF 		bl	getParkDotMineType
 2703              	.LVL332:
 2704              		.loc 1 949 35 view .LVU540
 2705 002a 284B     		ldr	r3, .L209
 2706 002c 1B68     		ldr	r3, [r3]
 2707              		.loc 1 949 12 view .LVU541
 2708 002e 9842     		cmp	r0, r3
 2709 0030 F5D0     		beq	.L198
 950:Core/Src/main.c ****             continue;
 951:Core/Src/main.c ****         if (((rep[i][0] - x) * (rep[i][0] - x) + (rep[i][1] - y) * (rep[i][1] - y)) < min)
 2710              		.loc 1 951 9 is_stmt 1 view .LVU542
 2711              		.loc 1 951 21 is_stmt 0 view .LVU543
 2712 0032 274A     		ldr	r2, .L209+4
 2713 0034 52F83430 		ldr	r3, [r2, r4, lsl #3]
 2714              		.loc 1 951 25 view .LVU544
 2715 0038 9B1B     		subs	r3, r3, r6
 2716              		.loc 1 951 57 view .LVU545
 2717 003a 02EBC402 		add	r2, r2, r4, lsl #3
 2718 003e 5268     		ldr	r2, [r2, #4]
 2719              		.loc 1 951 61 view .LVU546
 2720 0040 D21B     		subs	r2, r2, r7
 2721              		.loc 1 951 66 view .LVU547
 2722 0042 02FB02F2 		mul	r2, r2, r2
 2723              		.loc 1 951 48 view .LVU548
 2724 0046 03FB0323 		mla	r3, r3, r3, r2
 2725              		.loc 1 951 12 view .LVU549
 2726 004a AB42     		cmp	r3, r5
 2727 004c E7DA     		bge	.L198
 952:Core/Src/main.c ****         {
 953:Core/Src/main.c ****             min_rep = i;
 2728              		.loc 1 953 21 view .LVU550
 2729 004e A046     		mov	r8, r4
 2730              	.LVL333:
 954:Core/Src/main.c ****             min = (rep[i][0] - x) * (rep[i][0] - x) + (rep[i][1] - y) * (rep[i][1] - y);
 2731              		.loc 1 954 17 view .LVU551
 2732 0050 1D46     		mov	r5, r3
 2733              	.LVL334:
 2734              		.loc 1 954 17 view .LVU552
 2735 0052 E4E7     		b	.L198
 2736              	.LVL335:
 2737              	.L207:
 955:Core/Src/main.c ****         }
 956:Core/Src/main.c ****     }
 957:Core/Src/main.c ****     for (i = 0; i < 3; ++i)
 2738              		.loc 1 957 12 view .LVU553
 2739 0054 0024     		movs	r4, #0
 2740              	.LVL336:
ARM GAS  C:\Users\zhangjd\AppData\Local\Temp\cciTDb3B.s 			page 67


 2741              		.loc 1 957 12 view .LVU554
 2742 0056 00E0     		b	.L200
 2743              	.LVL337:
 2744              	.L201:
 2745              		.loc 1 957 24 is_stmt 1 discriminator 2 view .LVU555
 2746 0058 0134     		adds	r4, r4, #1
 2747              	.LVL338:
 2748              	.L200:
 2749              		.loc 1 957 17 discriminator 1 view .LVU556
 2750              		.loc 1 957 5 is_stmt 0 discriminator 1 view .LVU557
 2751 005a 022C     		cmp	r4, #2
 2752 005c 19DC     		bgt	.L208
 958:Core/Src/main.c ****     {
 959:Core/Src/main.c ****         if (getMyBeaconMineType(i) == prev_type) //ÂêåÁ±ªÂûãÂ∑≤ÁªèÂéªËøá‰∫Ü
 2753              		.loc 1 959 9 is_stmt 1 view .LVU558
 2754              		.loc 1 959 13 is_stmt 0 view .LVU559
 2755 005e 2046     		mov	r0, r4
 2756 0060 FFF7FEFF 		bl	getMyBeaconMineType
 2757              	.LVL339:
 2758              		.loc 1 959 36 view .LVU560
 2759 0064 194B     		ldr	r3, .L209
 2760 0066 1B68     		ldr	r3, [r3]
 2761              		.loc 1 959 12 view .LVU561
 2762 0068 9842     		cmp	r0, r3
 2763 006a F5D0     		beq	.L201
 960:Core/Src/main.c ****             continue;
 961:Core/Src/main.c ****         if (((beacon_Pos[2 * i] - x) * (beacon_Pos[2 * i] - x) + (beacon_Pos[2 * i + 1] - y) * (bea
 2764              		.loc 1 961 9 is_stmt 1 view .LVU562
 2765              		.loc 1 961 28 is_stmt 0 view .LVU563
 2766 006c 6200     		lsls	r2, r4, #1
 2767              		.loc 1 961 25 view .LVU564
 2768 006e 1949     		ldr	r1, .L209+8
 2769 0070 51F82230 		ldr	r3, [r1, r2, lsl #2]
 2770              		.loc 1 961 33 view .LVU565
 2771 0074 9B1B     		subs	r3, r3, r6
 2772              		.loc 1 961 84 view .LVU566
 2773 0076 0132     		adds	r2, r2, #1
 2774              		.loc 1 961 77 view .LVU567
 2775 0078 51F82220 		ldr	r2, [r1, r2, lsl #2]
 2776              		.loc 1 961 89 view .LVU568
 2777 007c D21B     		subs	r2, r2, r7
 2778              		.loc 1 961 94 view .LVU569
 2779 007e 02FB02F2 		mul	r2, r2, r2
 2780              		.loc 1 961 64 view .LVU570
 2781 0082 03FB0323 		mla	r3, r3, r3, r2
 2782              		.loc 1 961 12 view .LVU571
 2783 0086 AB42     		cmp	r3, r5
 2784 0088 E6DA     		bge	.L201
 962:Core/Src/main.c ****         {
 963:Core/Src/main.c ****             min_rep = 8 + i; //8Âà∞10
 2785              		.loc 1 963 13 is_stmt 1 view .LVU572
 2786              		.loc 1 963 21 is_stmt 0 view .LVU573
 2787 008a 04F10808 		add	r8, r4, #8
 2788              	.LVL340:
 964:Core/Src/main.c ****             min = (beacon_Pos[2 * i] - x) * (beacon_Pos[2 * i] - x) + (beacon_Pos[2 * i + 1] - y) *
 2789              		.loc 1 964 13 is_stmt 1 view .LVU574
 2790              		.loc 1 964 17 is_stmt 0 view .LVU575
ARM GAS  C:\Users\zhangjd\AppData\Local\Temp\cciTDb3B.s 			page 68


 2791 008e 1D46     		mov	r5, r3
 2792 0090 E2E7     		b	.L201
 2793              	.LVL341:
 2794              	.L208:
 965:Core/Src/main.c ****         }
 966:Core/Src/main.c ****     }
 967:Core/Src/main.c ****     if (min_rep < 8)
 2795              		.loc 1 967 5 is_stmt 1 view .LVU576
 2796              		.loc 1 967 8 is_stmt 0 view .LVU577
 2797 0092 B8F1070F 		cmp	r8, #7
 2798 0096 0ADC     		bgt	.L203
 968:Core/Src/main.c ****     {
 969:Core/Src/main.c ****         destination[0] = rep[min_rep][0];
 2799              		.loc 1 969 9 is_stmt 1 view .LVU578
 2800              		.loc 1 969 38 is_stmt 0 view .LVU579
 2801 0098 0D4B     		ldr	r3, .L209+4
 2802 009a 53F83810 		ldr	r1, [r3, r8, lsl #3]
 2803              		.loc 1 969 24 view .LVU580
 2804 009e 0E4A     		ldr	r2, .L209+12
 2805 00a0 1160     		str	r1, [r2]
 970:Core/Src/main.c ****         destination[1] = rep[min_rep][1];
 2806              		.loc 1 970 9 is_stmt 1 view .LVU581
 2807              		.loc 1 970 38 is_stmt 0 view .LVU582
 2808 00a2 03EBC803 		add	r3, r3, r8, lsl #3
 2809 00a6 5B68     		ldr	r3, [r3, #4]
 2810              		.loc 1 970 24 view .LVU583
 2811 00a8 5360     		str	r3, [r2, #4]
 2812              	.LVL342:
 2813              	.L196:
 971:Core/Src/main.c ****         //return rep[min_rep];
 972:Core/Src/main.c ****     }
 973:Core/Src/main.c ****     else
 974:Core/Src/main.c ****     {
 975:Core/Src/main.c ****         destination[0] = beacon_Pos[2 * (min_rep - 8)];
 976:Core/Src/main.c ****         destination[1] = beacon_Pos[2 * (min_rep - 8) + 1];
 977:Core/Src/main.c ****         //return {beacon_Pos[2 * (min_rep - 8)], beacon_Pos[2 * (min_rep - 8) + 1]};}
 978:Core/Src/main.c ****     }
 979:Core/Src/main.c **** }
 2814              		.loc 1 979 1 view .LVU584
 2815 00aa BDE8F081 		pop	{r4, r5, r6, r7, r8, pc}
 2816              	.LVL343:
 2817              	.L203:
 975:Core/Src/main.c ****         destination[1] = beacon_Pos[2 * (min_rep - 8) + 1];
 2818              		.loc 1 975 9 is_stmt 1 view .LVU585
 975:Core/Src/main.c ****         destination[1] = beacon_Pos[2 * (min_rep - 8) + 1];
 2819              		.loc 1 975 50 is_stmt 0 view .LVU586
 2820 00ae A8F10808 		sub	r8, r8, #8
 2821              	.LVL344:
 975:Core/Src/main.c ****         destination[1] = beacon_Pos[2 * (min_rep - 8) + 1];
 2822              		.loc 1 975 39 view .LVU587
 2823 00b2 4FEA4808 		lsl	r8, r8, #1
 2824              	.LVL345:
 975:Core/Src/main.c ****         destination[1] = beacon_Pos[2 * (min_rep - 8) + 1];
 2825              		.loc 1 975 36 view .LVU588
 2826 00b6 074A     		ldr	r2, .L209+8
 2827 00b8 52F82810 		ldr	r1, [r2, r8, lsl #2]
 975:Core/Src/main.c ****         destination[1] = beacon_Pos[2 * (min_rep - 8) + 1];
ARM GAS  C:\Users\zhangjd\AppData\Local\Temp\cciTDb3B.s 			page 69


 2828              		.loc 1 975 24 view .LVU589
 2829 00bc 064B     		ldr	r3, .L209+12
 2830 00be 1960     		str	r1, [r3]
 976:Core/Src/main.c ****         //return {beacon_Pos[2 * (min_rep - 8)], beacon_Pos[2 * (min_rep - 8) + 1]};}
 2831              		.loc 1 976 9 is_stmt 1 view .LVU590
 976:Core/Src/main.c ****         //return {beacon_Pos[2 * (min_rep - 8)], beacon_Pos[2 * (min_rep - 8) + 1]};}
 2832              		.loc 1 976 55 is_stmt 0 view .LVU591
 2833 00c0 08F10108 		add	r8, r8, #1
 976:Core/Src/main.c ****         //return {beacon_Pos[2 * (min_rep - 8)], beacon_Pos[2 * (min_rep - 8) + 1]};}
 2834              		.loc 1 976 36 view .LVU592
 2835 00c4 52F82820 		ldr	r2, [r2, r8, lsl #2]
 976:Core/Src/main.c ****         //return {beacon_Pos[2 * (min_rep - 8)], beacon_Pos[2 * (min_rep - 8) + 1]};}
 2836              		.loc 1 976 24 view .LVU593
 2837 00c8 5A60     		str	r2, [r3, #4]
 2838              		.loc 1 979 1 view .LVU594
 2839 00ca EEE7     		b	.L196
 2840              	.L210:
 2841              		.align	2
 2842              	.L209:
 2843 00cc 00000000 		.word	.LANCHOR8
 2844 00d0 00000000 		.word	.LANCHOR9
 2845 00d4 00000000 		.word	.LANCHOR2
 2846 00d8 00000000 		.word	.LANCHOR10
 2847              		.cfi_endproc
 2848              	.LFE84:
 2850              		.global	__aeabi_fdiv
 2851              		.section	.text.HAL_TIM_PeriodElapsedCallback,"ax",%progbits
 2852              		.align	1
 2853              		.global	HAL_TIM_PeriodElapsedCallback
 2854              		.syntax unified
 2855              		.thumb
 2856              		.thumb_func
 2857              		.fpu softvfp
 2859              	HAL_TIM_PeriodElapsedCallback:
 2860              	.LVL346:
 2861              	.LFB65:
 196:Core/Src/main.c ****     HAL_UART_Receive_DMA(&huart2, jy62Receive, JY62_MESSAGE_LENGTH);
 2862              		.loc 1 196 1 is_stmt 1 view -0
 2863              		.cfi_startproc
 2864              		@ args = 0, pretend = 0, frame = 8
 2865              		@ frame_needed = 0, uses_anonymous_args = 0
 196:Core/Src/main.c ****     HAL_UART_Receive_DMA(&huart2, jy62Receive, JY62_MESSAGE_LENGTH);
 2866              		.loc 1 196 1 is_stmt 0 view .LVU596
 2867 0000 2DE9F04F 		push	{r4, r5, r6, r7, r8, r9, r10, fp, lr}
 2868              	.LCFI21:
 2869              		.cfi_def_cfa_offset 36
 2870              		.cfi_offset 4, -36
 2871              		.cfi_offset 5, -32
 2872              		.cfi_offset 6, -28
 2873              		.cfi_offset 7, -24
 2874              		.cfi_offset 8, -20
 2875              		.cfi_offset 9, -16
 2876              		.cfi_offset 10, -12
 2877              		.cfi_offset 11, -8
 2878              		.cfi_offset 14, -4
 2879 0004 8BB0     		sub	sp, sp, #44
 2880              	.LCFI22:
ARM GAS  C:\Users\zhangjd\AppData\Local\Temp\cciTDb3B.s 			page 70


 2881              		.cfi_def_cfa_offset 80
 2882 0006 0446     		mov	r4, r0
 197:Core/Src/main.c ****     if (htim->Instance == TIM1)
 2883              		.loc 1 197 5 is_stmt 1 view .LVU597
 2884 0008 0B22     		movs	r2, #11
 2885 000a B849     		ldr	r1, .L252
 2886 000c B848     		ldr	r0, .L252+4
 2887              	.LVL347:
 197:Core/Src/main.c ****     if (htim->Instance == TIM1)
 2888              		.loc 1 197 5 is_stmt 0 view .LVU598
 2889 000e FFF7FEFF 		bl	HAL_UART_Receive_DMA
 2890              	.LVL348:
 198:Core/Src/main.c ****     {
 2891              		.loc 1 198 5 is_stmt 1 view .LVU599
 198:Core/Src/main.c ****     {
 2892              		.loc 1 198 13 is_stmt 0 view .LVU600
 2893 0012 2268     		ldr	r2, [r4]
 198:Core/Src/main.c ****     {
 2894              		.loc 1 198 8 view .LVU601
 2895 0014 B74B     		ldr	r3, .L252+8
 2896 0016 9A42     		cmp	r2, r3
 2897 0018 02D0     		beq	.L243
 2898              	.LVL349:
 2899              	.L211:
 460:Core/Src/main.c **** /* USER CODE END 0 */
 2900              		.loc 1 460 1 view .LVU602
 2901 001a 0BB0     		add	sp, sp, #44
 2902              	.LCFI23:
 2903              		.cfi_remember_state
 2904              		.cfi_def_cfa_offset 36
 2905              		@ sp needed
 2906 001c BDE8F08F 		pop	{r4, r5, r6, r7, r8, r9, r10, fp, pc}
 2907              	.LVL350:
 2908              	.L243:
 2909              	.LCFI24:
 2910              		.cfi_restore_state
 2911              	.LBB4:
 200:Core/Src/main.c ****             Abs(__HAL_TIM_GetCounter(&htim2)),
 2912              		.loc 1 200 9 is_stmt 1 view .LVU603
 201:Core/Src/main.c ****             Abs(__HAL_TIM_GetCounter(&htim3)),
 2913              		.loc 1 201 17 is_stmt 0 view .LVU604
 2914 0020 B54B     		ldr	r3, .L252+12
 2915 0022 D3F800B0 		ldr	fp, [r3]
 2916 0026 DBF82400 		ldr	r0, [fp, #36]
 201:Core/Src/main.c ****             Abs(__HAL_TIM_GetCounter(&htim3)),
 2917              		.loc 1 201 13 view .LVU605
 2918 002a 00B2     		sxth	r0, r0
 2919 002c FFF7FEFF 		bl	Abs
 2920              	.LVL351:
 2921 0030 0746     		mov	r7, r0
 200:Core/Src/main.c ****             Abs(__HAL_TIM_GetCounter(&htim2)),
 2922              		.loc 1 200 15 view .LVU606
 2923 0032 ADF82000 		strh	r0, [sp, #32]	@ movhi
 202:Core/Src/main.c ****             Abs(__HAL_TIM_GetCounter(&htim4)),
 2924              		.loc 1 202 17 view .LVU607
 2925 0036 B14B     		ldr	r3, .L252+16
 2926 0038 D3F800A0 		ldr	r10, [r3]
ARM GAS  C:\Users\zhangjd\AppData\Local\Temp\cciTDb3B.s 			page 71


 2927 003c DAF82400 		ldr	r0, [r10, #36]
 202:Core/Src/main.c ****             Abs(__HAL_TIM_GetCounter(&htim4)),
 2928              		.loc 1 202 13 view .LVU608
 2929 0040 00B2     		sxth	r0, r0
 2930 0042 FFF7FEFF 		bl	Abs
 2931              	.LVL352:
 2932 0046 0646     		mov	r6, r0
 200:Core/Src/main.c ****             Abs(__HAL_TIM_GetCounter(&htim2)),
 2933              		.loc 1 200 15 view .LVU609
 2934 0048 ADF82200 		strh	r0, [sp, #34]	@ movhi
 203:Core/Src/main.c ****             Abs(__HAL_TIM_GetCounter(&htim5))};
 2935              		.loc 1 203 17 view .LVU610
 2936 004c AC4B     		ldr	r3, .L252+20
 2937 004e D3F80090 		ldr	r9, [r3]
 2938 0052 D9F82400 		ldr	r0, [r9, #36]
 203:Core/Src/main.c ****             Abs(__HAL_TIM_GetCounter(&htim5))};
 2939              		.loc 1 203 13 view .LVU611
 2940 0056 00B2     		sxth	r0, r0
 2941 0058 FFF7FEFF 		bl	Abs
 2942              	.LVL353:
 2943 005c 0546     		mov	r5, r0
 200:Core/Src/main.c ****             Abs(__HAL_TIM_GetCounter(&htim2)),
 2944              		.loc 1 200 15 view .LVU612
 2945 005e ADF82400 		strh	r0, [sp, #36]	@ movhi
 204:Core/Src/main.c **** 
 2946              		.loc 1 204 17 view .LVU613
 2947 0062 A84B     		ldr	r3, .L252+24
 2948 0064 D3F80080 		ldr	r8, [r3]
 2949 0068 D8F82400 		ldr	r0, [r8, #36]
 204:Core/Src/main.c **** 
 2950              		.loc 1 204 13 view .LVU614
 2951 006c 00B2     		sxth	r0, r0
 2952 006e FFF7FEFF 		bl	Abs
 2953              	.LVL354:
 2954 0072 0446     		mov	r4, r0
 2955              	.LVL355:
 200:Core/Src/main.c ****             Abs(__HAL_TIM_GetCounter(&htim2)),
 2956              		.loc 1 200 15 view .LVU615
 2957 0074 ADF82600 		strh	r0, [sp, #38]	@ movhi
 206:Core/Src/main.c ****         __HAL_TIM_SetCounter(&htim3, 0);
 2958              		.loc 1 206 9 is_stmt 1 view .LVU616
 2959 0078 0023     		movs	r3, #0
 2960 007a CBF82430 		str	r3, [fp, #36]
 207:Core/Src/main.c ****         __HAL_TIM_SetCounter(&htim4, 0);
 2961              		.loc 1 207 9 view .LVU617
 2962 007e CAF82430 		str	r3, [r10, #36]
 208:Core/Src/main.c ****         __HAL_TIM_SetCounter(&htim5, 0);
 2963              		.loc 1 208 9 view .LVU618
 2964 0082 C9F82430 		str	r3, [r9, #36]
 209:Core/Src/main.c **** 
 2965              		.loc 1 209 9 view .LVU619
 2966 0086 C8F82430 		str	r3, [r8, #36]
 211:Core/Src/main.c ****         speed2 = (float)Count[1] / 1060 * 20; //cm/s
 2967              		.loc 1 211 9 view .LVU620
 211:Core/Src/main.c ****         speed2 = (float)Count[1] / 1060 * 20; //cm/s
 2968              		.loc 1 211 18 is_stmt 0 view .LVU621
 2969 008a 3846     		mov	r0, r7
ARM GAS  C:\Users\zhangjd\AppData\Local\Temp\cciTDb3B.s 			page 72


 2970 008c FFF7FEFF 		bl	__aeabi_i2f
 2971              	.LVL356:
 211:Core/Src/main.c ****         speed2 = (float)Count[1] / 1060 * 20; //cm/s
 2972              		.loc 1 211 34 view .LVU622
 2973 0090 9D49     		ldr	r1, .L252+28
 2974 0092 FFF7FEFF 		bl	__aeabi_fdiv
 2975              	.LVL357:
 211:Core/Src/main.c ****         speed2 = (float)Count[1] / 1060 * 20; //cm/s
 2976              		.loc 1 211 41 view .LVU623
 2977 0096 9D49     		ldr	r1, .L252+32
 2978 0098 FFF7FEFF 		bl	__aeabi_fmul
 2979              	.LVL358:
 211:Core/Src/main.c ****         speed2 = (float)Count[1] / 1060 * 20; //cm/s
 2980              		.loc 1 211 16 view .LVU624
 2981 009c 9C4B     		ldr	r3, .L252+36
 2982 009e 1860     		str	r0, [r3]	@ float
 212:Core/Src/main.c ****         speed3 = (float)Count[2] / 1060 * 20; //cm/s
 2983              		.loc 1 212 9 is_stmt 1 view .LVU625
 212:Core/Src/main.c ****         speed3 = (float)Count[2] / 1060 * 20; //cm/s
 2984              		.loc 1 212 18 is_stmt 0 view .LVU626
 2985 00a0 3046     		mov	r0, r6
 2986 00a2 FFF7FEFF 		bl	__aeabi_i2f
 2987              	.LVL359:
 212:Core/Src/main.c ****         speed3 = (float)Count[2] / 1060 * 20; //cm/s
 2988              		.loc 1 212 34 view .LVU627
 2989 00a6 9849     		ldr	r1, .L252+28
 2990 00a8 FFF7FEFF 		bl	__aeabi_fdiv
 2991              	.LVL360:
 212:Core/Src/main.c ****         speed3 = (float)Count[2] / 1060 * 20; //cm/s
 2992              		.loc 1 212 41 view .LVU628
 2993 00ac 9749     		ldr	r1, .L252+32
 2994 00ae FFF7FEFF 		bl	__aeabi_fmul
 2995              	.LVL361:
 212:Core/Src/main.c ****         speed3 = (float)Count[2] / 1060 * 20; //cm/s
 2996              		.loc 1 212 16 view .LVU629
 2997 00b2 984B     		ldr	r3, .L252+40
 2998 00b4 1860     		str	r0, [r3]	@ float
 213:Core/Src/main.c ****         speed4 = (float)Count[3] / 1060 * 20; //cm/s
 2999              		.loc 1 213 9 is_stmt 1 view .LVU630
 213:Core/Src/main.c ****         speed4 = (float)Count[3] / 1060 * 20; //cm/s
 3000              		.loc 1 213 18 is_stmt 0 view .LVU631
 3001 00b6 2846     		mov	r0, r5
 3002 00b8 FFF7FEFF 		bl	__aeabi_i2f
 3003              	.LVL362:
 213:Core/Src/main.c ****         speed4 = (float)Count[3] / 1060 * 20; //cm/s
 3004              		.loc 1 213 34 view .LVU632
 3005 00bc 9249     		ldr	r1, .L252+28
 3006 00be FFF7FEFF 		bl	__aeabi_fdiv
 3007              	.LVL363:
 213:Core/Src/main.c ****         speed4 = (float)Count[3] / 1060 * 20; //cm/s
 3008              		.loc 1 213 41 view .LVU633
 3009 00c2 9249     		ldr	r1, .L252+32
 3010 00c4 FFF7FEFF 		bl	__aeabi_fmul
 3011              	.LVL364:
 213:Core/Src/main.c ****         speed4 = (float)Count[3] / 1060 * 20; //cm/s
 3012              		.loc 1 213 16 view .LVU634
 3013 00c8 934B     		ldr	r3, .L252+44
ARM GAS  C:\Users\zhangjd\AppData\Local\Temp\cciTDb3B.s 			page 73


 3014 00ca 1860     		str	r0, [r3]	@ float
 214:Core/Src/main.c **** 
 3015              		.loc 1 214 9 is_stmt 1 view .LVU635
 214:Core/Src/main.c **** 
 3016              		.loc 1 214 18 is_stmt 0 view .LVU636
 3017 00cc 2046     		mov	r0, r4
 3018 00ce FFF7FEFF 		bl	__aeabi_i2f
 3019              	.LVL365:
 214:Core/Src/main.c **** 
 3020              		.loc 1 214 34 view .LVU637
 3021 00d2 8D49     		ldr	r1, .L252+28
 3022 00d4 FFF7FEFF 		bl	__aeabi_fdiv
 3023              	.LVL366:
 214:Core/Src/main.c **** 
 3024              		.loc 1 214 41 view .LVU638
 3025 00d8 8C49     		ldr	r1, .L252+32
 3026 00da FFF7FEFF 		bl	__aeabi_fmul
 3027              	.LVL367:
 214:Core/Src/main.c **** 
 3028              		.loc 1 214 16 view .LVU639
 3029 00de 8F4B     		ldr	r3, .L252+48
 3030 00e0 1860     		str	r0, [r3]	@ float
 216:Core/Src/main.c ****         {
 3031              		.loc 1 216 9 is_stmt 1 view .LVU640
 216:Core/Src/main.c ****         {
 3032              		.loc 1 216 19 is_stmt 0 view .LVU641
 3033 00e2 8F4B     		ldr	r3, .L252+52
 3034 00e4 1B68     		ldr	r3, [r3]
 216:Core/Src/main.c ****         {
 3035              		.loc 1 216 12 view .LVU642
 3036 00e6 092B     		cmp	r3, #9
 3037 00e8 33DC     		bgt	.L213
 218:Core/Src/main.c ****             if (count_pos == 2)
 3038              		.loc 1 218 13 is_stmt 1 view .LVU643
 218:Core/Src/main.c ****             if (count_pos == 2)
 3039              		.loc 1 218 22 is_stmt 0 view .LVU644
 3040 00ea 8E4A     		ldr	r2, .L252+56
 3041 00ec 1368     		ldr	r3, [r2]
 3042 00ee 0133     		adds	r3, r3, #1
 3043 00f0 1360     		str	r3, [r2]
 219:Core/Src/main.c ****             {
 3044              		.loc 1 219 13 is_stmt 1 view .LVU645
 219:Core/Src/main.c ****             {
 3045              		.loc 1 219 16 is_stmt 0 view .LVU646
 3046 00f2 022B     		cmp	r3, #2
 3047 00f4 22D0     		beq	.L244
 3048              	.L214:
 235:Core/Src/main.c ****         {
 3049              		.loc 1 235 9 is_stmt 1 view .LVU647
 3050 00f6 8A4B     		ldr	r3, .L252+52
 3051 00f8 1B68     		ldr	r3, [r3]
 3052 00fa 0D2B     		cmp	r3, #13
 3053 00fc 8DD8     		bhi	.L211
 3054 00fe 01A2     		adr	r2, .L217
 3055 0100 52F823F0 		ldr	pc, [r2, r3, lsl #2]
 3056              		.p2align 2
 3057              	.L217:
ARM GAS  C:\Users\zhangjd\AppData\Local\Temp\cciTDb3B.s 			page 74


 3058 0104 97010000 		.word	.L227+1
 3059 0108 93020000 		.word	.L226+1
 3060 010c BD020000 		.word	.L225+1
 3061 0110 41030000 		.word	.L224+1
 3062 0114 F1030000 		.word	.L223+1
 3063 0118 A1040000 		.word	.L222+1
 3064 011c 51050000 		.word	.L221+1
 3065 0120 1B000000 		.word	.L211+1
 3066 0124 1B000000 		.word	.L211+1
 3067 0128 1B000000 		.word	.L211+1
 3068 012c C1050000 		.word	.L220+1
 3069 0130 C3060000 		.word	.L219+1
 3070 0134 07070000 		.word	.L218+1
 3071 0138 17070000 		.word	.L216+1
 3072              		.p2align 1
 3073              	.L244:
 221:Core/Src/main.c ****                 car_Pos[1] = getCarPosY(); ///Êõ¥Êñ∞Â∞èËΩ¶xyÂùêÊ†á
 3074              		.loc 1 221 17 view .LVU648
 221:Core/Src/main.c ****                 car_Pos[1] = getCarPosY(); ///Êõ¥Êñ∞Â∞èËΩ¶xyÂùêÊ†á
 3075              		.loc 1 221 30 is_stmt 0 view .LVU649
 3076 013c FFF7FEFF 		bl	getCarPosX
 3077              	.LVL368:
 221:Core/Src/main.c ****                 car_Pos[1] = getCarPosY(); ///Êõ¥Êñ∞Â∞èËΩ¶xyÂùêÊ†á
 3078              		.loc 1 221 28 view .LVU650
 3079 0140 794C     		ldr	r4, .L252+60
 3080 0142 2060     		str	r0, [r4]
 222:Core/Src/main.c ****                 count_pos = 0;
 3081              		.loc 1 222 17 is_stmt 1 view .LVU651
 222:Core/Src/main.c ****                 count_pos = 0;
 3082              		.loc 1 222 30 is_stmt 0 view .LVU652
 3083 0144 FFF7FEFF 		bl	getCarPosY
 3084              	.LVL369:
 222:Core/Src/main.c ****                 count_pos = 0;
 3085              		.loc 1 222 28 view .LVU653
 3086 0148 6060     		str	r0, [r4, #4]
 223:Core/Src/main.c ****             }
 3087              		.loc 1 223 17 is_stmt 1 view .LVU654
 223:Core/Src/main.c ****             }
 3088              		.loc 1 223 27 is_stmt 0 view .LVU655
 3089 014a 764B     		ldr	r3, .L252+56
 3090 014c 0022     		movs	r2, #0
 3091 014e 1A60     		str	r2, [r3]
 3092 0150 D1E7     		b	.L214
 3093              	.L213:
 3094              	.LBB5:
 228:Core/Src/main.c ****             r_0 = getDistanceOfMyBeacon(0);
 3095              		.loc 1 228 13 is_stmt 1 view .LVU656
 229:Core/Src/main.c ****             r_1 = getDistanceOfMyBeacon(1);
 3096              		.loc 1 229 13 view .LVU657
 229:Core/Src/main.c ****             r_1 = getDistanceOfMyBeacon(1);
 3097              		.loc 1 229 19 is_stmt 0 view .LVU658
 3098 0152 0020     		movs	r0, #0
 3099 0154 FFF7FEFF 		bl	getDistanceOfMyBeacon
 3100              	.LVL370:
 3101 0158 0446     		mov	r4, r0
 3102              	.LVL371:
 230:Core/Src/main.c ****             r_2 = getDistanceOfMyBeacon(2);
ARM GAS  C:\Users\zhangjd\AppData\Local\Temp\cciTDb3B.s 			page 75


 3103              		.loc 1 230 13 is_stmt 1 view .LVU659
 230:Core/Src/main.c ****             r_2 = getDistanceOfMyBeacon(2);
 3104              		.loc 1 230 19 is_stmt 0 view .LVU660
 3105 015a 0120     		movs	r0, #1
 3106 015c FFF7FEFF 		bl	getDistanceOfMyBeacon
 3107              	.LVL372:
 3108 0160 0546     		mov	r5, r0
 3109              	.LVL373:
 231:Core/Src/main.c ****             Sol_Car_Pos(r_0, r_1, r_2); ///Êõ¥Êñ∞Â∞èËΩ¶xyÂùêÊ†á
 3110              		.loc 1 231 13 is_stmt 1 view .LVU661
 231:Core/Src/main.c ****             Sol_Car_Pos(r_0, r_1, r_2); ///Êõ¥Êñ∞Â∞èËΩ¶xyÂùêÊ†á
 3111              		.loc 1 231 19 is_stmt 0 view .LVU662
 3112 0162 0220     		movs	r0, #2
 3113 0164 FFF7FEFF 		bl	getDistanceOfMyBeacon
 3114              	.LVL374:
 3115 0168 8046     		mov	r8, r0
 3116              	.LVL375:
 232:Core/Src/main.c ****         }
 3117              		.loc 1 232 13 is_stmt 1 view .LVU663
 3118 016a 2846     		mov	r0, r5
 3119 016c FFF7FEFF 		bl	__aeabi_ui2d
 3120              	.LVL376:
 3121 0170 0646     		mov	r6, r0
 3122 0172 0F46     		mov	r7, r1
 3123 0174 2046     		mov	r0, r4
 3124 0176 FFF7FEFF 		bl	__aeabi_ui2d
 3125              	.LVL377:
 3126 017a 0446     		mov	r4, r0
 3127              	.LVL378:
 232:Core/Src/main.c ****         }
 3128              		.loc 1 232 13 is_stmt 0 view .LVU664
 3129 017c 0D46     		mov	r5, r1
 3130              	.LVL379:
 232:Core/Src/main.c ****         }
 3131              		.loc 1 232 13 view .LVU665
 3132 017e 4046     		mov	r0, r8
 3133 0180 FFF7FEFF 		bl	__aeabi_ui2d
 3134              	.LVL380:
 3135 0184 CDE90001 		strd	r0, [sp]
 3136 0188 3246     		mov	r2, r6
 3137 018a 3B46     		mov	r3, r7
 3138 018c 2046     		mov	r0, r4
 3139 018e 2946     		mov	r1, r5
 3140 0190 FFF7FEFF 		bl	Sol_Car_Pos
 3141              	.LVL381:
 3142 0194 AFE7     		b	.L214
 3143              	.LVL382:
 3144              	.L227:
 232:Core/Src/main.c ****         }
 3145              		.loc 1 232 13 view .LVU666
 3146              	.LBE5:
 240:Core/Src/main.c ****             //Ê≠•È™§2ÔºöËß£ÁÆó‰∏§‰∏™ËµÑÊ∫êÂùêÔøΩ?? =====ÂæÖÂÆûÔøΩ??=====
 3147              		.loc 1 240 13 is_stmt 1 view .LVU667
 3148 0196 4FF44860 		mov	r0, #3200
 3149 019a FFF7FEFF 		bl	rotate_clockwise_plus_forward
 3150              	.LVL383:
 249:Core/Src/main.c ****             {
ARM GAS  C:\Users\zhangjd\AppData\Local\Temp\cciTDb3B.s 			page 76


 3151              		.loc 1 249 13 view .LVU668
 249:Core/Src/main.c ****             {
 3152              		.loc 1 249 17 is_stmt 0 view .LVU669
 3153 019e 6348     		ldr	r0, .L252+64
 3154 01a0 634B     		ldr	r3, .L252+68
 3155 01a2 03F10802 		add	r2, r3, #8
 3156 01a6 0692     		str	r2, [sp, #24]
 3157 01a8 0593     		str	r3, [sp, #20]
 3158 01aa C369     		ldr	r3, [r0, #28]
 3159 01ac 0493     		str	r3, [sp, #16]
 3160 01ae 438B     		ldrh	r3, [r0, #26]
 3161 01b0 0393     		str	r3, [sp, #12]
 3162 01b2 038B     		ldrh	r3, [r0, #24]
 3163 01b4 0293     		str	r3, [sp, #8]
 3164 01b6 0369     		ldr	r3, [r0, #16]
 3165 01b8 0193     		str	r3, [sp, #4]
 3166 01ba C389     		ldrh	r3, [r0, #14]
 3167 01bc 0093     		str	r3, [sp]
 3168 01be 8389     		ldrh	r3, [r0, #12]
 3169 01c0 4268     		ldr	r2, [r0, #4]
 3170 01c2 4188     		ldrh	r1, [r0, #2]
 3171 01c4 0088     		ldrh	r0, [r0]
 3172 01c6 FFF7FEFF 		bl	Solve_Mine_Pos
 3173              	.LVL384:
 249:Core/Src/main.c ****             {
 3174              		.loc 1 249 16 view .LVU670
 3175 01ca 0028     		cmp	r0, #0
 3176 01cc 2DD0     		beq	.L228
 249:Core/Src/main.c ****             {
 3177              		.loc 1 249 218 discriminator 1 view .LVU671
 3178 01ce 5748     		ldr	r0, .L252+64
 3179 01d0 574B     		ldr	r3, .L252+68
 3180 01d2 03F10C02 		add	r2, r3, #12
 3181 01d6 0692     		str	r2, [sp, #24]
 3182 01d8 0433     		adds	r3, r3, #4
 3183 01da 0593     		str	r3, [sp, #20]
 3184 01dc 036A     		ldr	r3, [r0, #32]
 3185 01de 0493     		str	r3, [sp, #16]
 3186 01e0 438B     		ldrh	r3, [r0, #26]
 3187 01e2 0393     		str	r3, [sp, #12]
 3188 01e4 038B     		ldrh	r3, [r0, #24]
 3189 01e6 0293     		str	r3, [sp, #8]
 3190 01e8 4369     		ldr	r3, [r0, #20]
 3191 01ea 0193     		str	r3, [sp, #4]
 3192 01ec C389     		ldrh	r3, [r0, #14]
 3193 01ee 0093     		str	r3, [sp]
 3194 01f0 8389     		ldrh	r3, [r0, #12]
 3195 01f2 8268     		ldr	r2, [r0, #8]
 3196 01f4 4188     		ldrh	r1, [r0, #2]
 3197 01f6 0088     		ldrh	r0, [r0]
 3198 01f8 FFF7FEFF 		bl	Solve_Mine_Pos
 3199              	.LVL385:
 249:Core/Src/main.c ****             {
 3200              		.loc 1 249 215 discriminator 1 view .LVU672
 3201 01fc A8B1     		cbz	r0, .L228
 252:Core/Src/main.c ****                 //Ê≠•È™§3ÔºöÁ°ÆÂÆöÁ¶ªËΩ¶ÊúÄËøëÁöÑÔøΩ??ÔøΩ??
 3202              		.loc 1 252 17 is_stmt 1 view .LVU673
ARM GAS  C:\Users\zhangjd\AppData\Local\Temp\cciTDb3B.s 			page 77


 252:Core/Src/main.c ****                 //Ê≠•È™§3ÔºöÁ°ÆÂÆöÁ¶ªËΩ¶ÊúÄËøëÁöÑÔøΩ??ÔøΩ??
 3203              		.loc 1 252 23 is_stmt 0 view .LVU674
 3204 01fe 484B     		ldr	r3, .L252+52
 3205 0200 0122     		movs	r2, #1
 3206 0202 1A60     		str	r2, [r3]
 254:Core/Src/main.c ****                 break;
 3207              		.loc 1 254 17 is_stmt 1 view .LVU675
 254:Core/Src/main.c ****                 break;
 3208              		.loc 1 254 66 is_stmt 0 view .LVU676
 3209 0204 4A4A     		ldr	r2, .L252+68
 3210 0206 1368     		ldr	r3, [r2]
 254:Core/Src/main.c ****                 break;
 3211              		.loc 1 254 116 view .LVU677
 3212 0208 9168     		ldr	r1, [r2, #8]
 254:Core/Src/main.c ****                 break;
 3213              		.loc 1 254 120 view .LVU678
 3214 020a 01FB01F1 		mul	r1, r1, r1
 254:Core/Src/main.c ****                 break;
 3215              		.loc 1 254 95 view .LVU679
 3216 020e 03FB0313 		mla	r3, r3, r3, r1
 254:Core/Src/main.c ****                 break;
 3217              		.loc 1 254 168 view .LVU680
 3218 0212 5168     		ldr	r1, [r2, #4]
 254:Core/Src/main.c ****                 break;
 3219              		.loc 1 254 218 view .LVU681
 3220 0214 D068     		ldr	r0, [r2, #12]
 254:Core/Src/main.c ****                 break;
 3221              		.loc 1 254 222 view .LVU682
 3222 0216 00FB00F0 		mul	r0, r0, r0
 254:Core/Src/main.c ****                 break;
 3223              		.loc 1 254 197 view .LVU683
 3224 021a 01FB0101 		mla	r1, r1, r1, r0
 254:Core/Src/main.c ****                 break;
 3225              		.loc 1 254 252 view .LVU684
 3226 021e 8B42     		cmp	r3, r1
 3227 0220 B4BF     		ite	lt
 3228 0222 0023     		movlt	r3, #0
 3229 0224 0123     		movge	r3, #1
 254:Core/Src/main.c ****                 break;
 3230              		.loc 1 254 44 view .LVU685
 3231 0226 5361     		str	r3, [r2, #20]
 255:Core/Src/main.c ****             }
 3232              		.loc 1 255 17 is_stmt 1 view .LVU686
 3233 0228 F7E6     		b	.L211
 3234              	.L228:
 260:Core/Src/main.c ****                 Prev_Pos[Prev_Pos_head].y = getCarPosY();          //Âêå‰∏ä
 3235              		.loc 1 260 17 view .LVU687
 260:Core/Src/main.c ****                 Prev_Pos[Prev_Pos_head].y = getCarPosY();          //Âêå‰∏ä
 3236              		.loc 1 260 40 is_stmt 0 view .LVU688
 3237 022a 424C     		ldr	r4, .L252+72
 3238 022c B4F90060 		ldrsh	r6, [r4]
 260:Core/Src/main.c ****                 Prev_Pos[Prev_Pos_head].y = getCarPosY();          //Âêå‰∏ä
 3239              		.loc 1 260 45 view .LVU689
 3240 0230 FFF7FEFF 		bl	getCarPosX
 3241              	.LVL386:
 260:Core/Src/main.c ****                 Prev_Pos[Prev_Pos_head].y = getCarPosY();          //Âêå‰∏ä
 3242              		.loc 1 260 43 view .LVU690
ARM GAS  C:\Users\zhangjd\AppData\Local\Temp\cciTDb3B.s 			page 78


 3243 0234 3D4D     		ldr	r5, .L252+64
 3244 0236 06EB4606 		add	r6, r6, r6, lsl #1
 3245 023a 25F82600 		strh	r0, [r5, r6, lsl #2]	@ movhi
 261:Core/Src/main.c ****                 Prev_Pos[Prev_Pos_head].E_1 = getMineIntensity(0); //Âà©Áî®getMineIntensityÂáΩÊï∞Êõ
 3246              		.loc 1 261 17 is_stmt 1 view .LVU691
 261:Core/Src/main.c ****                 Prev_Pos[Prev_Pos_head].E_1 = getMineIntensity(0); //Âà©Áî®getMineIntensityÂáΩÊï∞Êõ
 3247              		.loc 1 261 40 is_stmt 0 view .LVU692
 3248 023e B4F90060 		ldrsh	r6, [r4]
 261:Core/Src/main.c ****                 Prev_Pos[Prev_Pos_head].E_1 = getMineIntensity(0); //Âà©Áî®getMineIntensityÂáΩÊï∞Êõ
 3249              		.loc 1 261 45 view .LVU693
 3250 0242 FFF7FEFF 		bl	getCarPosY
 3251              	.LVL387:
 261:Core/Src/main.c ****                 Prev_Pos[Prev_Pos_head].E_1 = getMineIntensity(0); //Âà©Áî®getMineIntensityÂáΩÊï∞Êõ
 3252              		.loc 1 261 43 view .LVU694
 3253 0246 06EB4606 		add	r6, r6, r6, lsl #1
 3254 024a 05EB8606 		add	r6, r5, r6, lsl #2
 3255 024e 7080     		strh	r0, [r6, #2]	@ movhi
 262:Core/Src/main.c ****                 Prev_Pos[Prev_Pos_head].E_2 = getMineIntensity(1); //Âêå‰∏ä
 3256              		.loc 1 262 17 is_stmt 1 view .LVU695
 262:Core/Src/main.c ****                 Prev_Pos[Prev_Pos_head].E_2 = getMineIntensity(1); //Âêå‰∏ä
 3257              		.loc 1 262 40 is_stmt 0 view .LVU696
 3258 0250 B4F90060 		ldrsh	r6, [r4]
 262:Core/Src/main.c ****                 Prev_Pos[Prev_Pos_head].E_2 = getMineIntensity(1); //Âêå‰∏ä
 3259              		.loc 1 262 47 view .LVU697
 3260 0254 0020     		movs	r0, #0
 3261 0256 FFF7FEFF 		bl	getMineIntensity
 3262              	.LVL388:
 262:Core/Src/main.c ****                 Prev_Pos[Prev_Pos_head].E_2 = getMineIntensity(1); //Âêå‰∏ä
 3263              		.loc 1 262 45 view .LVU698
 3264 025a 06EB4606 		add	r6, r6, r6, lsl #1
 3265 025e 05EB8606 		add	r6, r5, r6, lsl #2
 3266 0262 7060     		str	r0, [r6, #4]
 263:Core/Src/main.c ****                 Prev_Pos_head = (Prev_Pos_head + 1) % 3;           //Â§¥ÊåáÈíàÂæ™ÁéØÂú∞ÂêéÁßª
 3267              		.loc 1 263 17 is_stmt 1 view .LVU699
 263:Core/Src/main.c ****                 Prev_Pos_head = (Prev_Pos_head + 1) % 3;           //Â§¥ÊåáÈíàÂæ™ÁéØÂú∞ÂêéÁßª
 3268              		.loc 1 263 40 is_stmt 0 view .LVU700
 3269 0264 B4F90060 		ldrsh	r6, [r4]
 263:Core/Src/main.c ****                 Prev_Pos_head = (Prev_Pos_head + 1) % 3;           //Â§¥ÊåáÈíàÂæ™ÁéØÂú∞ÂêéÁßª
 3270              		.loc 1 263 47 view .LVU701
 3271 0268 0120     		movs	r0, #1
 3272 026a FFF7FEFF 		bl	getMineIntensity
 3273              	.LVL389:
 263:Core/Src/main.c ****                 Prev_Pos_head = (Prev_Pos_head + 1) % 3;           //Â§¥ÊåáÈíàÂæ™ÁéØÂú∞ÂêéÁßª
 3274              		.loc 1 263 45 view .LVU702
 3275 026e 06EB4606 		add	r6, r6, r6, lsl #1
 3276 0272 05EB8605 		add	r5, r5, r6, lsl #2
 3277 0276 A860     		str	r0, [r5, #8]
 264:Core/Src/main.c ****                 break;
 3278              		.loc 1 264 17 is_stmt 1 view .LVU703
 264:Core/Src/main.c ****                 break;
 3279              		.loc 1 264 48 is_stmt 0 view .LVU704
 3280 0278 B4F90020 		ldrsh	r2, [r4]
 3281 027c 0132     		adds	r2, r2, #1
 264:Core/Src/main.c ****                 break;
 3282              		.loc 1 264 53 view .LVU705
 3283 027e 2E4B     		ldr	r3, .L252+76
 3284 0280 83FB0213 		smull	r1, r3, r3, r2
ARM GAS  C:\Users\zhangjd\AppData\Local\Temp\cciTDb3B.s 			page 79


 3285 0284 A3EBE273 		sub	r3, r3, r2, asr #31
 3286 0288 03EB4303 		add	r3, r3, r3, lsl #1
 3287 028c D31A     		subs	r3, r2, r3
 264:Core/Src/main.c ****                 break;
 3288              		.loc 1 264 31 view .LVU706
 3289 028e 2380     		strh	r3, [r4]	@ movhi
 265:Core/Src/main.c ****             }
 3290              		.loc 1 265 17 is_stmt 1 view .LVU707
 3291 0290 C3E6     		b	.L211
 3292              	.L226:
 271:Core/Src/main.c ****             if (getCarMineSumNum() == 1)
 3293              		.loc 1 271 13 view .LVU708
 271:Core/Src/main.c ****             if (getCarMineSumNum() == 1)
 3294              		.loc 1 271 55 is_stmt 0 view .LVU709
 3295 0292 274B     		ldr	r3, .L252+68
 3296 0294 5A69     		ldr	r2, [r3, #20]
 271:Core/Src/main.c ****             if (getCarMineSumNum() == 1)
 3297              		.loc 1 271 13 view .LVU710
 3298 0296 911C     		adds	r1, r2, #2
 3299 0298 53F82110 		ldr	r1, [r3, r1, lsl #2]
 3300 029c 53F82200 		ldr	r0, [r3, r2, lsl #2]
 3301 02a0 FFF7FEFF 		bl	Goto
 3302              	.LVL390:
 272:Core/Src/main.c ****             {
 3303              		.loc 1 272 13 is_stmt 1 view .LVU711
 272:Core/Src/main.c ****             {
 3304              		.loc 1 272 17 is_stmt 0 view .LVU712
 3305 02a4 FFF7FEFF 		bl	getCarMineSumNum
 3306              	.LVL391:
 272:Core/Src/main.c ****             {
 3307              		.loc 1 272 16 view .LVU713
 3308 02a8 0128     		cmp	r0, #1
 3309 02aa 7FF4B6AE 		bne	.L211
 274:Core/Src/main.c ****                 goto_state = 0;
 3310              		.loc 1 274 17 is_stmt 1 view .LVU714
 274:Core/Src/main.c ****                 goto_state = 0;
 3311              		.loc 1 274 23 is_stmt 0 view .LVU715
 3312 02ae 1C4B     		ldr	r3, .L252+52
 3313 02b0 0222     		movs	r2, #2
 3314 02b2 1A60     		str	r2, [r3]
 275:Core/Src/main.c ****             }
 3315              		.loc 1 275 17 is_stmt 1 view .LVU716
 275:Core/Src/main.c ****             }
 3316              		.loc 1 275 28 is_stmt 0 view .LVU717
 3317 02b4 214B     		ldr	r3, .L252+80
 3318 02b6 0022     		movs	r2, #0
 3319 02b8 1A60     		str	r2, [r3]
 3320 02ba AEE6     		b	.L211
 3321              	.L225:
 282:Core/Src/main.c ****             if (getCarMineSumNum() == 2)
 3322              		.loc 1 282 13 is_stmt 1 view .LVU718
 282:Core/Src/main.c ****             if (getCarMineSumNum() == 2)
 3323              		.loc 1 282 56 is_stmt 0 view .LVU719
 3324 02bc 1C4A     		ldr	r2, .L252+68
 3325 02be 5369     		ldr	r3, [r2, #20]
 282:Core/Src/main.c ****             if (getCarMineSumNum() == 2)
 3326              		.loc 1 282 38 view .LVU720
ARM GAS  C:\Users\zhangjd\AppData\Local\Temp\cciTDb3B.s 			page 80


 3327 02c0 B3FA83F3 		clz	r3, r3
 3328 02c4 5B09     		lsrs	r3, r3, #5
 282:Core/Src/main.c ****             if (getCarMineSumNum() == 2)
 3329              		.loc 1 282 13 view .LVU721
 3330 02c6 991C     		adds	r1, r3, #2
 3331 02c8 52F82110 		ldr	r1, [r2, r1, lsl #2]
 3332 02cc 52F82300 		ldr	r0, [r2, r3, lsl #2]
 3333 02d0 FFF7FEFF 		bl	Goto
 3334              	.LVL392:
 283:Core/Src/main.c ****             {
 3335              		.loc 1 283 13 is_stmt 1 view .LVU722
 283:Core/Src/main.c ****             {
 3336              		.loc 1 283 17 is_stmt 0 view .LVU723
 3337 02d4 FFF7FEFF 		bl	getCarMineSumNum
 3338              	.LVL393:
 283:Core/Src/main.c ****             {
 3339              		.loc 1 283 16 view .LVU724
 3340 02d8 0228     		cmp	r0, #2
 3341 02da 7FF49EAE 		bne	.L211
 285:Core/Src/main.c ****                 goto_state = 0;
 3342              		.loc 1 285 17 is_stmt 1 view .LVU725
 285:Core/Src/main.c ****                 goto_state = 0;
 3343              		.loc 1 285 23 is_stmt 0 view .LVU726
 3344 02de 104B     		ldr	r3, .L252+52
 3345 02e0 0322     		movs	r2, #3
 3346 02e2 1A60     		str	r2, [r3]
 286:Core/Src/main.c ****             }
 3347              		.loc 1 286 17 is_stmt 1 view .LVU727
 286:Core/Src/main.c ****             }
 3348              		.loc 1 286 28 is_stmt 0 view .LVU728
 3349 02e4 154B     		ldr	r3, .L252+80
 3350 02e6 0022     		movs	r2, #0
 3351 02e8 1A60     		str	r2, [r3]
 3352 02ea 96E6     		b	.L211
 3353              	.L253:
 3354              		.align	2
 3355              	.L252:
 3356 02ec 00000000 		.word	jy62Receive
 3357 02f0 00000000 		.word	huart2
 3358 02f4 002C0140 		.word	1073818624
 3359 02f8 00000000 		.word	htim2
 3360 02fc 00000000 		.word	htim3
 3361 0300 00000000 		.word	htim4
 3362 0304 00000000 		.word	htim5
 3363 0308 00808444 		.word	1149534208
 3364 030c 0000A041 		.word	1101004800
 3365 0310 00000000 		.word	.LANCHOR11
 3366 0314 00000000 		.word	.LANCHOR12
 3367 0318 00000000 		.word	.LANCHOR13
 3368 031c 00000000 		.word	.LANCHOR14
 3369 0320 00000000 		.word	.LANCHOR15
 3370 0324 00000000 		.word	.LANCHOR16
 3371 0328 00000000 		.word	.LANCHOR4
 3372 032c 00000000 		.word	.LANCHOR17
 3373 0330 00000000 		.word	.LANCHOR18
 3374 0334 00000000 		.word	.LANCHOR19
 3375 0338 56555555 		.word	1431655766
ARM GAS  C:\Users\zhangjd\AppData\Local\Temp\cciTDb3B.s 			page 81


 3376 033c 00000000 		.word	.LANCHOR5
 3377              	.L224:
 3378              	.LBB6:
 293:Core/Src/main.c ****             float dis = (getCarPosX() - 127) * (getCarPosX() - 127) + (getCarPosY() - 50) * (getCar
 3379              		.loc 1 293 13 is_stmt 1 view .LVU729
 3380 0340 3221     		movs	r1, #50
 3381 0342 7F20     		movs	r0, #127
 3382 0344 FFF7FEFF 		bl	Goto
 3383              	.LVL394:
 294:Core/Src/main.c ****             if (dis < 300 || getCarPosX() < 15 || getCarPosX() > 240 || getCarPosY() < 15 || getCar
 3384              		.loc 1 294 13 view .LVU730
 294:Core/Src/main.c ****             if (dis < 300 || getCarPosX() < 15 || getCarPosX() > 240 || getCarPosY() < 15 || getCar
 3385              		.loc 1 294 26 is_stmt 0 view .LVU731
 3386 0348 FFF7FEFF 		bl	getCarPosX
 3387              	.LVL395:
 294:Core/Src/main.c ****             if (dis < 300 || getCarPosX() < 15 || getCarPosX() > 240 || getCarPosY() < 15 || getCar
 3388              		.loc 1 294 39 view .LVU732
 3389 034c A0F17F04 		sub	r4, r0, #127
 294:Core/Src/main.c ****             if (dis < 300 || getCarPosX() < 15 || getCarPosX() > 240 || getCarPosY() < 15 || getCar
 3390              		.loc 1 294 49 view .LVU733
 3391 0350 FFF7FEFF 		bl	getCarPosX
 3392              	.LVL396:
 294:Core/Src/main.c ****             if (dis < 300 || getCarPosX() < 15 || getCarPosX() > 240 || getCarPosY() < 15 || getCar
 3393              		.loc 1 294 62 view .LVU734
 3394 0354 7F38     		subs	r0, r0, #127
 294:Core/Src/main.c ****             if (dis < 300 || getCarPosX() < 15 || getCarPosX() > 240 || getCarPosY() < 15 || getCar
 3395              		.loc 1 294 46 view .LVU735
 3396 0356 00FB04F4 		mul	r4, r0, r4
 294:Core/Src/main.c ****             if (dis < 300 || getCarPosX() < 15 || getCarPosX() > 240 || getCarPosY() < 15 || getCar
 3397              		.loc 1 294 72 view .LVU736
 3398 035a FFF7FEFF 		bl	getCarPosY
 3399              	.LVL397:
 294:Core/Src/main.c ****             if (dis < 300 || getCarPosX() < 15 || getCarPosX() > 240 || getCarPosY() < 15 || getCar
 3400              		.loc 1 294 85 view .LVU737
 3401 035e A0F13205 		sub	r5, r0, #50
 294:Core/Src/main.c ****             if (dis < 300 || getCarPosX() < 15 || getCarPosX() > 240 || getCarPosY() < 15 || getCar
 3402              		.loc 1 294 94 view .LVU738
 3403 0362 FFF7FEFF 		bl	getCarPosY
 3404              	.LVL398:
 294:Core/Src/main.c ****             if (dis < 300 || getCarPosX() < 15 || getCarPosX() > 240 || getCarPosY() < 15 || getCar
 3405              		.loc 1 294 107 view .LVU739
 3406 0366 3238     		subs	r0, r0, #50
 294:Core/Src/main.c ****             if (dis < 300 || getCarPosX() < 15 || getCarPosX() > 240 || getCarPosY() < 15 || getCar
 3407              		.loc 1 294 19 view .LVU740
 3408 0368 00FB0540 		mla	r0, r0, r5, r4
 3409 036c FFF7FEFF 		bl	__aeabi_i2f
 3410              	.LVL399:
 295:Core/Src/main.c ****             //also, not beyond the boundary
 3411              		.loc 1 295 13 is_stmt 1 view .LVU741
 295:Core/Src/main.c ****             //also, not beyond the boundary
 3412              		.loc 1 295 16 is_stmt 0 view .LVU742
 3413 0370 8C49     		ldr	r1, .L254
 3414 0372 FFF7FEFF 		bl	__aeabi_fcmplt
 3415              	.LVL400:
 295:Core/Src/main.c ****             //also, not beyond the boundary
 3416              		.loc 1 295 16 view .LVU743
 3417 0376 18B9     		cbnz	r0, .L229
ARM GAS  C:\Users\zhangjd\AppData\Local\Temp\cciTDb3B.s 			page 82


 295:Core/Src/main.c ****             //also, not beyond the boundary
 3418              		.loc 1 295 30 discriminator 1 view .LVU744
 3419 0378 FFF7FEFF 		bl	getCarPosX
 3420              	.LVL401:
 295:Core/Src/main.c ****             //also, not beyond the boundary
 3421              		.loc 1 295 27 discriminator 1 view .LVU745
 3422 037c 0E28     		cmp	r0, #14
 3423 037e 10D8     		bhi	.L245
 3424              	.L229:
 298:Core/Src/main.c ****                 if (count_beacon == 0)
 3425              		.loc 1 298 17 is_stmt 1 view .LVU746
 3426 0380 FFF7FEFF 		bl	brake
 3427              	.LVL402:
 299:Core/Src/main.c ****                     zigbeeSend(0x00);
 3428              		.loc 1 299 17 view .LVU747
 299:Core/Src/main.c ****                     zigbeeSend(0x00);
 3429              		.loc 1 299 34 is_stmt 0 view .LVU748
 3430 0384 884B     		ldr	r3, .L254+4
 3431 0386 1B68     		ldr	r3, [r3]
 299:Core/Src/main.c ****                     zigbeeSend(0x00);
 3432              		.loc 1 299 20 view .LVU749
 3433 0388 CBB1     		cbz	r3, .L246
 3434              	.L230:
 301:Core/Src/main.c ****                 if (count_beacon <= 20)
 3435              		.loc 1 301 17 is_stmt 1 view .LVU750
 301:Core/Src/main.c ****                 if (count_beacon <= 20)
 3436              		.loc 1 301 29 is_stmt 0 view .LVU751
 3437 038a 874A     		ldr	r2, .L254+4
 3438 038c 1368     		ldr	r3, [r2]
 3439 038e 0133     		adds	r3, r3, #1
 3440 0390 1360     		str	r3, [r2]
 302:Core/Src/main.c ****                 {
 3441              		.loc 1 302 17 is_stmt 1 view .LVU752
 302:Core/Src/main.c ****                 {
 3442              		.loc 1 302 20 is_stmt 0 view .LVU753
 3443 0392 142B     		cmp	r3, #20
 3444 0394 17DC     		bgt	.L231
 304:Core/Src/main.c ****                 }
 3445              		.loc 1 304 21 is_stmt 1 view .LVU754
 3446 0396 0122     		movs	r2, #1
 3447 0398 1146     		mov	r1, r2
 3448 039a 8448     		ldr	r0, .L254+8
 3449 039c FFF7FEFF 		bl	HAL_GPIO_WritePin
 3450              	.LVL403:
 3451 03a0 3BE6     		b	.L211
 3452              	.L245:
 295:Core/Src/main.c ****             //also, not beyond the boundary
 3453              		.loc 1 295 51 is_stmt 0 discriminator 2 view .LVU755
 3454 03a2 FFF7FEFF 		bl	getCarPosX
 3455              	.LVL404:
 295:Core/Src/main.c ****             //also, not beyond the boundary
 3456              		.loc 1 295 48 discriminator 2 view .LVU756
 3457 03a6 F028     		cmp	r0, #240
 3458 03a8 EAD8     		bhi	.L229
 295:Core/Src/main.c ****             //also, not beyond the boundary
 3459              		.loc 1 295 73 discriminator 3 view .LVU757
 3460 03aa FFF7FEFF 		bl	getCarPosY
ARM GAS  C:\Users\zhangjd\AppData\Local\Temp\cciTDb3B.s 			page 83


 3461              	.LVL405:
 295:Core/Src/main.c ****             //also, not beyond the boundary
 3462              		.loc 1 295 70 discriminator 3 view .LVU758
 3463 03ae 0E28     		cmp	r0, #14
 3464 03b0 E6D9     		bls	.L229
 295:Core/Src/main.c ****             //also, not beyond the boundary
 3465              		.loc 1 295 94 discriminator 4 view .LVU759
 3466 03b2 FFF7FEFF 		bl	getCarPosY
 3467              	.LVL406:
 295:Core/Src/main.c ****             //also, not beyond the boundary
 3468              		.loc 1 295 91 discriminator 4 view .LVU760
 3469 03b6 F028     		cmp	r0, #240
 3470 03b8 7FF62FAE 		bls	.L211
 3471 03bc E0E7     		b	.L229
 3472              	.L246:
 300:Core/Src/main.c ****                 count_beacon++;
 3473              		.loc 1 300 21 is_stmt 1 view .LVU761
 3474 03be 0020     		movs	r0, #0
 3475 03c0 FFF7FEFF 		bl	zigbeeSend
 3476              	.LVL407:
 3477 03c4 E1E7     		b	.L230
 3478              	.L231:
 308:Core/Src/main.c ****                     count_beacon = 0;
 3479              		.loc 1 308 21 view .LVU762
 308:Core/Src/main.c ****                     count_beacon = 0;
 3480              		.loc 1 308 27 is_stmt 0 view .LVU763
 3481 03c6 7A4B     		ldr	r3, .L254+12
 3482 03c8 0422     		movs	r2, #4
 3483 03ca 1A60     		str	r2, [r3]
 309:Core/Src/main.c ****                     beacon_Pos[0] = getCarPosX();
 3484              		.loc 1 309 21 is_stmt 1 view .LVU764
 309:Core/Src/main.c ****                     beacon_Pos[0] = getCarPosX();
 3485              		.loc 1 309 34 is_stmt 0 view .LVU765
 3486 03cc 0024     		movs	r4, #0
 3487 03ce 764B     		ldr	r3, .L254+4
 3488 03d0 1C60     		str	r4, [r3]
 310:Core/Src/main.c ****                     beacon_Pos[1] = getCarPosY(); //Áªôbeacon_PosËµãÔøΩ?ÔøΩÔºåÁî®‰∫éÁ¨¨‰∫åÂõûÂêàÁ≤æ
 3489              		.loc 1 310 21 is_stmt 1 view .LVU766
 310:Core/Src/main.c ****                     beacon_Pos[1] = getCarPosY(); //Áªôbeacon_PosËµãÔøΩ?ÔøΩÔºåÁî®‰∫éÁ¨¨‰∫åÂõûÂêàÁ≤æ
 3490              		.loc 1 310 37 is_stmt 0 view .LVU767
 3491 03d2 FFF7FEFF 		bl	getCarPosX
 3492              	.LVL408:
 310:Core/Src/main.c ****                     beacon_Pos[1] = getCarPosY(); //Áªôbeacon_PosËµãÔøΩ?ÔøΩÔºåÁî®‰∫éÁ¨¨‰∫åÂõûÂêàÁ≤æ
 3493              		.loc 1 310 35 view .LVU768
 3494 03d6 774D     		ldr	r5, .L254+16
 3495 03d8 2860     		str	r0, [r5]
 311:Core/Src/main.c ****                     HAL_GPIO_WritePin(GPIOC, GPIO_PIN_0, GPIO_PIN_RESET);
 3496              		.loc 1 311 21 is_stmt 1 view .LVU769
 311:Core/Src/main.c ****                     HAL_GPIO_WritePin(GPIOC, GPIO_PIN_0, GPIO_PIN_RESET);
 3497              		.loc 1 311 37 is_stmt 0 view .LVU770
 3498 03da FFF7FEFF 		bl	getCarPosY
 3499              	.LVL409:
 311:Core/Src/main.c ****                     HAL_GPIO_WritePin(GPIOC, GPIO_PIN_0, GPIO_PIN_RESET);
 3500              		.loc 1 311 35 view .LVU771
 3501 03de 6860     		str	r0, [r5, #4]
 312:Core/Src/main.c ****                     goto_state = 0;
 3502              		.loc 1 312 21 is_stmt 1 view .LVU772
ARM GAS  C:\Users\zhangjd\AppData\Local\Temp\cciTDb3B.s 			page 84


 3503 03e0 2246     		mov	r2, r4
 3504 03e2 0121     		movs	r1, #1
 3505 03e4 7148     		ldr	r0, .L254+8
 3506 03e6 FFF7FEFF 		bl	HAL_GPIO_WritePin
 3507              	.LVL410:
 313:Core/Src/main.c ****                 }
 3508              		.loc 1 313 21 view .LVU773
 313:Core/Src/main.c ****                 }
 3509              		.loc 1 313 32 is_stmt 0 view .LVU774
 3510 03ea 734B     		ldr	r3, .L254+20
 3511 03ec 1C60     		str	r4, [r3]
 3512 03ee 14E6     		b	.L211
 3513              	.L223:
 313:Core/Src/main.c ****                 }
 3514              		.loc 1 313 32 view .LVU775
 3515              	.LBE6:
 3516              	.LBB7:
 321:Core/Src/main.c ****             float dis = (getCarPosX() - 127) * (getCarPosX() - 127) + (getCarPosY() - 127) * (getCa
 3517              		.loc 1 321 13 is_stmt 1 view .LVU776
 3518 03f0 7F21     		movs	r1, #127
 3519 03f2 0846     		mov	r0, r1
 3520 03f4 FFF7FEFF 		bl	Goto
 3521              	.LVL411:
 322:Core/Src/main.c ****             if (dis < 300 || getCarPosX() < 15 || getCarPosX() > 240 || getCarPosY() < 15 || getCar
 3522              		.loc 1 322 13 view .LVU777
 322:Core/Src/main.c ****             if (dis < 300 || getCarPosX() < 15 || getCarPosX() > 240 || getCarPosY() < 15 || getCar
 3523              		.loc 1 322 26 is_stmt 0 view .LVU778
 3524 03f8 FFF7FEFF 		bl	getCarPosX
 3525              	.LVL412:
 322:Core/Src/main.c ****             if (dis < 300 || getCarPosX() < 15 || getCarPosX() > 240 || getCarPosY() < 15 || getCar
 3526              		.loc 1 322 39 view .LVU779
 3527 03fc A0F17F04 		sub	r4, r0, #127
 322:Core/Src/main.c ****             if (dis < 300 || getCarPosX() < 15 || getCarPosX() > 240 || getCarPosY() < 15 || getCar
 3528              		.loc 1 322 49 view .LVU780
 3529 0400 FFF7FEFF 		bl	getCarPosX
 3530              	.LVL413:
 322:Core/Src/main.c ****             if (dis < 300 || getCarPosX() < 15 || getCarPosX() > 240 || getCarPosY() < 15 || getCar
 3531              		.loc 1 322 62 view .LVU781
 3532 0404 7F38     		subs	r0, r0, #127
 322:Core/Src/main.c ****             if (dis < 300 || getCarPosX() < 15 || getCarPosX() > 240 || getCarPosY() < 15 || getCar
 3533              		.loc 1 322 46 view .LVU782
 3534 0406 00FB04F4 		mul	r4, r0, r4
 322:Core/Src/main.c ****             if (dis < 300 || getCarPosX() < 15 || getCarPosX() > 240 || getCarPosY() < 15 || getCar
 3535              		.loc 1 322 72 view .LVU783
 3536 040a FFF7FEFF 		bl	getCarPosY
 3537              	.LVL414:
 322:Core/Src/main.c ****             if (dis < 300 || getCarPosX() < 15 || getCarPosX() > 240 || getCarPosY() < 15 || getCar
 3538              		.loc 1 322 85 view .LVU784
 3539 040e A0F17F05 		sub	r5, r0, #127
 322:Core/Src/main.c ****             if (dis < 300 || getCarPosX() < 15 || getCarPosX() > 240 || getCarPosY() < 15 || getCar
 3540              		.loc 1 322 95 view .LVU785
 3541 0412 FFF7FEFF 		bl	getCarPosY
 3542              	.LVL415:
 322:Core/Src/main.c ****             if (dis < 300 || getCarPosX() < 15 || getCarPosX() > 240 || getCarPosY() < 15 || getCar
 3543              		.loc 1 322 108 view .LVU786
 3544 0416 7F38     		subs	r0, r0, #127
 322:Core/Src/main.c ****             if (dis < 300 || getCarPosX() < 15 || getCarPosX() > 240 || getCarPosY() < 15 || getCar
ARM GAS  C:\Users\zhangjd\AppData\Local\Temp\cciTDb3B.s 			page 85


 3545              		.loc 1 322 19 view .LVU787
 3546 0418 00FB0540 		mla	r0, r0, r5, r4
 3547 041c FFF7FEFF 		bl	__aeabi_i2f
 3548              	.LVL416:
 323:Core/Src/main.c ****             //also, not beyond the boundary
 3549              		.loc 1 323 13 is_stmt 1 view .LVU788
 323:Core/Src/main.c ****             //also, not beyond the boundary
 3550              		.loc 1 323 16 is_stmt 0 view .LVU789
 3551 0420 6049     		ldr	r1, .L254
 3552 0422 FFF7FEFF 		bl	__aeabi_fcmplt
 3553              	.LVL417:
 323:Core/Src/main.c ****             //also, not beyond the boundary
 3554              		.loc 1 323 16 view .LVU790
 3555 0426 18B9     		cbnz	r0, .L232
 323:Core/Src/main.c ****             //also, not beyond the boundary
 3556              		.loc 1 323 30 discriminator 1 view .LVU791
 3557 0428 FFF7FEFF 		bl	getCarPosX
 3558              	.LVL418:
 323:Core/Src/main.c ****             //also, not beyond the boundary
 3559              		.loc 1 323 27 discriminator 1 view .LVU792
 3560 042c 0E28     		cmp	r0, #14
 3561 042e 10D8     		bhi	.L247
 3562              	.L232:
 326:Core/Src/main.c ****                 if (count_beacon == 0)
 3563              		.loc 1 326 17 is_stmt 1 view .LVU793
 3564 0430 FFF7FEFF 		bl	brake
 3565              	.LVL419:
 327:Core/Src/main.c ****                     zigbeeSend(0x01);
 3566              		.loc 1 327 17 view .LVU794
 327:Core/Src/main.c ****                     zigbeeSend(0x01);
 3567              		.loc 1 327 34 is_stmt 0 view .LVU795
 3568 0434 5C4B     		ldr	r3, .L254+4
 3569 0436 1B68     		ldr	r3, [r3]
 327:Core/Src/main.c ****                     zigbeeSend(0x01);
 3570              		.loc 1 327 20 view .LVU796
 3571 0438 CBB1     		cbz	r3, .L248
 3572              	.L233:
 329:Core/Src/main.c ****                 if (count_beacon <= 20)
 3573              		.loc 1 329 17 is_stmt 1 view .LVU797
 329:Core/Src/main.c ****                 if (count_beacon <= 20)
 3574              		.loc 1 329 29 is_stmt 0 view .LVU798
 3575 043a 5B4A     		ldr	r2, .L254+4
 3576 043c 1368     		ldr	r3, [r2]
 3577 043e 0133     		adds	r3, r3, #1
 3578 0440 1360     		str	r3, [r2]
 330:Core/Src/main.c ****                 {
 3579              		.loc 1 330 17 is_stmt 1 view .LVU799
 330:Core/Src/main.c ****                 {
 3580              		.loc 1 330 20 is_stmt 0 view .LVU800
 3581 0442 142B     		cmp	r3, #20
 3582 0444 17DC     		bgt	.L234
 332:Core/Src/main.c ****                 }
 3583              		.loc 1 332 21 is_stmt 1 view .LVU801
 3584 0446 0122     		movs	r2, #1
 3585 0448 1146     		mov	r1, r2
 3586 044a 5848     		ldr	r0, .L254+8
 3587 044c FFF7FEFF 		bl	HAL_GPIO_WritePin
ARM GAS  C:\Users\zhangjd\AppData\Local\Temp\cciTDb3B.s 			page 86


 3588              	.LVL420:
 3589 0450 E3E5     		b	.L211
 3590              	.L247:
 323:Core/Src/main.c ****             //also, not beyond the boundary
 3591              		.loc 1 323 51 is_stmt 0 discriminator 2 view .LVU802
 3592 0452 FFF7FEFF 		bl	getCarPosX
 3593              	.LVL421:
 323:Core/Src/main.c ****             //also, not beyond the boundary
 3594              		.loc 1 323 48 discriminator 2 view .LVU803
 3595 0456 F028     		cmp	r0, #240
 3596 0458 EAD8     		bhi	.L232
 323:Core/Src/main.c ****             //also, not beyond the boundary
 3597              		.loc 1 323 73 discriminator 3 view .LVU804
 3598 045a FFF7FEFF 		bl	getCarPosY
 3599              	.LVL422:
 323:Core/Src/main.c ****             //also, not beyond the boundary
 3600              		.loc 1 323 70 discriminator 3 view .LVU805
 3601 045e 0E28     		cmp	r0, #14
 3602 0460 E6D9     		bls	.L232
 323:Core/Src/main.c ****             //also, not beyond the boundary
 3603              		.loc 1 323 94 discriminator 4 view .LVU806
 3604 0462 FFF7FEFF 		bl	getCarPosY
 3605              	.LVL423:
 323:Core/Src/main.c ****             //also, not beyond the boundary
 3606              		.loc 1 323 91 discriminator 4 view .LVU807
 3607 0466 F028     		cmp	r0, #240
 3608 0468 7FF6D7AD 		bls	.L211
 3609 046c E0E7     		b	.L232
 3610              	.L248:
 328:Core/Src/main.c ****                 count_beacon++;
 3611              		.loc 1 328 21 is_stmt 1 view .LVU808
 3612 046e 0120     		movs	r0, #1
 3613 0470 FFF7FEFF 		bl	zigbeeSend
 3614              	.LVL424:
 3615 0474 E1E7     		b	.L233
 3616              	.L234:
 336:Core/Src/main.c ****                     count_beacon = 0;
 3617              		.loc 1 336 21 view .LVU809
 336:Core/Src/main.c ****                     count_beacon = 0;
 3618              		.loc 1 336 27 is_stmt 0 view .LVU810
 3619 0476 4E4B     		ldr	r3, .L254+12
 3620 0478 0522     		movs	r2, #5
 3621 047a 1A60     		str	r2, [r3]
 337:Core/Src/main.c ****                     beacon_Pos[2] = getCarPosX();
 3622              		.loc 1 337 21 is_stmt 1 view .LVU811
 337:Core/Src/main.c ****                     beacon_Pos[2] = getCarPosX();
 3623              		.loc 1 337 34 is_stmt 0 view .LVU812
 3624 047c 0024     		movs	r4, #0
 3625 047e 4A4B     		ldr	r3, .L254+4
 3626 0480 1C60     		str	r4, [r3]
 338:Core/Src/main.c ****                     beacon_Pos[3] = getCarPosY(); //Áªôbeacon_PosËµãÔøΩ?ÔøΩÔºåÁî®‰∫éÁ¨¨‰∫åÂõûÂêàÁ≤æ
 3627              		.loc 1 338 21 is_stmt 1 view .LVU813
 338:Core/Src/main.c ****                     beacon_Pos[3] = getCarPosY(); //Áªôbeacon_PosËµãÔøΩ?ÔøΩÔºåÁî®‰∫éÁ¨¨‰∫åÂõûÂêàÁ≤æ
 3628              		.loc 1 338 37 is_stmt 0 view .LVU814
 3629 0482 FFF7FEFF 		bl	getCarPosX
 3630              	.LVL425:
 338:Core/Src/main.c ****                     beacon_Pos[3] = getCarPosY(); //Áªôbeacon_PosËµãÔøΩ?ÔøΩÔºåÁî®‰∫éÁ¨¨‰∫åÂõûÂêàÁ≤æ
ARM GAS  C:\Users\zhangjd\AppData\Local\Temp\cciTDb3B.s 			page 87


 3631              		.loc 1 338 35 view .LVU815
 3632 0486 4B4D     		ldr	r5, .L254+16
 3633 0488 A860     		str	r0, [r5, #8]
 339:Core/Src/main.c ****                     HAL_GPIO_WritePin(GPIOC, GPIO_PIN_0, GPIO_PIN_RESET);
 3634              		.loc 1 339 21 is_stmt 1 view .LVU816
 339:Core/Src/main.c ****                     HAL_GPIO_WritePin(GPIOC, GPIO_PIN_0, GPIO_PIN_RESET);
 3635              		.loc 1 339 37 is_stmt 0 view .LVU817
 3636 048a FFF7FEFF 		bl	getCarPosY
 3637              	.LVL426:
 339:Core/Src/main.c ****                     HAL_GPIO_WritePin(GPIOC, GPIO_PIN_0, GPIO_PIN_RESET);
 3638              		.loc 1 339 35 view .LVU818
 3639 048e E860     		str	r0, [r5, #12]
 340:Core/Src/main.c ****                     goto_state = 0;
 3640              		.loc 1 340 21 is_stmt 1 view .LVU819
 3641 0490 2246     		mov	r2, r4
 3642 0492 0121     		movs	r1, #1
 3643 0494 4548     		ldr	r0, .L254+8
 3644 0496 FFF7FEFF 		bl	HAL_GPIO_WritePin
 3645              	.LVL427:
 341:Core/Src/main.c ****                 }
 3646              		.loc 1 341 21 view .LVU820
 341:Core/Src/main.c ****                 }
 3647              		.loc 1 341 32 is_stmt 0 view .LVU821
 3648 049a 474B     		ldr	r3, .L254+20
 3649 049c 1C60     		str	r4, [r3]
 3650 049e BCE5     		b	.L211
 3651              	.L222:
 341:Core/Src/main.c ****                 }
 3652              		.loc 1 341 32 view .LVU822
 3653              	.LBE7:
 3654              	.LBB8:
 349:Core/Src/main.c ****             float dis = (getCarPosX() - 60) * (getCarPosX() - 60) + (getCarPosY() - 127) * (getCarP
 3655              		.loc 1 349 13 is_stmt 1 view .LVU823
 3656 04a0 7F21     		movs	r1, #127
 3657 04a2 3C20     		movs	r0, #60
 3658 04a4 FFF7FEFF 		bl	Goto
 3659              	.LVL428:
 350:Core/Src/main.c ****             if (dis < 300 || getCarPosX() < 15 || getCarPosX() > 240 || getCarPosY() < 15 || getCar
 3660              		.loc 1 350 13 view .LVU824
 350:Core/Src/main.c ****             if (dis < 300 || getCarPosX() < 15 || getCarPosX() > 240 || getCarPosY() < 15 || getCar
 3661              		.loc 1 350 26 is_stmt 0 view .LVU825
 3662 04a8 FFF7FEFF 		bl	getCarPosX
 3663              	.LVL429:
 350:Core/Src/main.c ****             if (dis < 300 || getCarPosX() < 15 || getCarPosX() > 240 || getCarPosY() < 15 || getCar
 3664              		.loc 1 350 39 view .LVU826
 3665 04ac A0F13C04 		sub	r4, r0, #60
 350:Core/Src/main.c ****             if (dis < 300 || getCarPosX() < 15 || getCarPosX() > 240 || getCarPosY() < 15 || getCar
 3666              		.loc 1 350 48 view .LVU827
 3667 04b0 FFF7FEFF 		bl	getCarPosX
 3668              	.LVL430:
 350:Core/Src/main.c ****             if (dis < 300 || getCarPosX() < 15 || getCarPosX() > 240 || getCarPosY() < 15 || getCar
 3669              		.loc 1 350 61 view .LVU828
 3670 04b4 3C38     		subs	r0, r0, #60
 350:Core/Src/main.c ****             if (dis < 300 || getCarPosX() < 15 || getCarPosX() > 240 || getCarPosY() < 15 || getCar
 3671              		.loc 1 350 45 view .LVU829
 3672 04b6 00FB04F4 		mul	r4, r0, r4
 350:Core/Src/main.c ****             if (dis < 300 || getCarPosX() < 15 || getCarPosX() > 240 || getCarPosY() < 15 || getCar
ARM GAS  C:\Users\zhangjd\AppData\Local\Temp\cciTDb3B.s 			page 88


 3673              		.loc 1 350 70 view .LVU830
 3674 04ba FFF7FEFF 		bl	getCarPosY
 3675              	.LVL431:
 350:Core/Src/main.c ****             if (dis < 300 || getCarPosX() < 15 || getCarPosX() > 240 || getCarPosY() < 15 || getCar
 3676              		.loc 1 350 83 view .LVU831
 3677 04be A0F17F05 		sub	r5, r0, #127
 350:Core/Src/main.c ****             if (dis < 300 || getCarPosX() < 15 || getCarPosX() > 240 || getCarPosY() < 15 || getCar
 3678              		.loc 1 350 93 view .LVU832
 3679 04c2 FFF7FEFF 		bl	getCarPosY
 3680              	.LVL432:
 350:Core/Src/main.c ****             if (dis < 300 || getCarPosX() < 15 || getCarPosX() > 240 || getCarPosY() < 15 || getCar
 3681              		.loc 1 350 106 view .LVU833
 3682 04c6 7F38     		subs	r0, r0, #127
 350:Core/Src/main.c ****             if (dis < 300 || getCarPosX() < 15 || getCarPosX() > 240 || getCarPosY() < 15 || getCar
 3683              		.loc 1 350 19 view .LVU834
 3684 04c8 00FB0540 		mla	r0, r0, r5, r4
 3685 04cc FFF7FEFF 		bl	__aeabi_i2f
 3686              	.LVL433:
 351:Core/Src/main.c ****             {
 3687              		.loc 1 351 13 is_stmt 1 view .LVU835
 351:Core/Src/main.c ****             {
 3688              		.loc 1 351 16 is_stmt 0 view .LVU836
 3689 04d0 3449     		ldr	r1, .L254
 3690 04d2 FFF7FEFF 		bl	__aeabi_fcmplt
 3691              	.LVL434:
 351:Core/Src/main.c ****             {
 3692              		.loc 1 351 16 view .LVU837
 3693 04d6 18B9     		cbnz	r0, .L235
 351:Core/Src/main.c ****             {
 3694              		.loc 1 351 30 discriminator 1 view .LVU838
 3695 04d8 FFF7FEFF 		bl	getCarPosX
 3696              	.LVL435:
 351:Core/Src/main.c ****             {
 3697              		.loc 1 351 27 discriminator 1 view .LVU839
 3698 04dc 0E28     		cmp	r0, #14
 3699 04de 10D8     		bhi	.L249
 3700              	.L235:
 353:Core/Src/main.c ****                 if (count_beacon == 0)
 3701              		.loc 1 353 17 is_stmt 1 view .LVU840
 3702 04e0 FFF7FEFF 		bl	brake
 3703              	.LVL436:
 354:Core/Src/main.c ****                     zigbeeSend(0x02);
 3704              		.loc 1 354 17 view .LVU841
 354:Core/Src/main.c ****                     zigbeeSend(0x02);
 3705              		.loc 1 354 34 is_stmt 0 view .LVU842
 3706 04e4 304B     		ldr	r3, .L254+4
 3707 04e6 1B68     		ldr	r3, [r3]
 354:Core/Src/main.c ****                     zigbeeSend(0x02);
 3708              		.loc 1 354 20 view .LVU843
 3709 04e8 CBB1     		cbz	r3, .L250
 3710              	.L236:
 356:Core/Src/main.c ****                 if (count_beacon <= 20)
 3711              		.loc 1 356 17 is_stmt 1 view .LVU844
 356:Core/Src/main.c ****                 if (count_beacon <= 20)
 3712              		.loc 1 356 29 is_stmt 0 view .LVU845
 3713 04ea 2F4A     		ldr	r2, .L254+4
 3714 04ec 1368     		ldr	r3, [r2]
ARM GAS  C:\Users\zhangjd\AppData\Local\Temp\cciTDb3B.s 			page 89


 3715 04ee 0133     		adds	r3, r3, #1
 3716 04f0 1360     		str	r3, [r2]
 357:Core/Src/main.c ****                 {
 3717              		.loc 1 357 17 is_stmt 1 view .LVU846
 357:Core/Src/main.c ****                 {
 3718              		.loc 1 357 20 is_stmt 0 view .LVU847
 3719 04f2 142B     		cmp	r3, #20
 3720 04f4 17DC     		bgt	.L237
 359:Core/Src/main.c ****                 }
 3721              		.loc 1 359 21 is_stmt 1 view .LVU848
 3722 04f6 0122     		movs	r2, #1
 3723 04f8 1146     		mov	r1, r2
 3724 04fa 2C48     		ldr	r0, .L254+8
 3725 04fc FFF7FEFF 		bl	HAL_GPIO_WritePin
 3726              	.LVL437:
 3727 0500 8BE5     		b	.L211
 3728              	.L249:
 351:Core/Src/main.c ****             {
 3729              		.loc 1 351 51 is_stmt 0 discriminator 2 view .LVU849
 3730 0502 FFF7FEFF 		bl	getCarPosX
 3731              	.LVL438:
 351:Core/Src/main.c ****             {
 3732              		.loc 1 351 48 discriminator 2 view .LVU850
 3733 0506 F028     		cmp	r0, #240
 3734 0508 EAD8     		bhi	.L235
 351:Core/Src/main.c ****             {
 3735              		.loc 1 351 73 discriminator 3 view .LVU851
 3736 050a FFF7FEFF 		bl	getCarPosY
 3737              	.LVL439:
 351:Core/Src/main.c ****             {
 3738              		.loc 1 351 70 discriminator 3 view .LVU852
 3739 050e 0E28     		cmp	r0, #14
 3740 0510 E6D9     		bls	.L235
 351:Core/Src/main.c ****             {
 3741              		.loc 1 351 94 discriminator 4 view .LVU853
 3742 0512 FFF7FEFF 		bl	getCarPosY
 3743              	.LVL440:
 351:Core/Src/main.c ****             {
 3744              		.loc 1 351 91 discriminator 4 view .LVU854
 3745 0516 F028     		cmp	r0, #240
 3746 0518 7FF67FAD 		bls	.L211
 3747 051c E0E7     		b	.L235
 3748              	.L250:
 355:Core/Src/main.c ****                 count_beacon++;
 3749              		.loc 1 355 21 is_stmt 1 view .LVU855
 3750 051e 0220     		movs	r0, #2
 3751 0520 FFF7FEFF 		bl	zigbeeSend
 3752              	.LVL441:
 3753 0524 E1E7     		b	.L236
 3754              	.L237:
 363:Core/Src/main.c ****                     count_beacon = 0;
 3755              		.loc 1 363 21 view .LVU856
 363:Core/Src/main.c ****                     count_beacon = 0;
 3756              		.loc 1 363 27 is_stmt 0 view .LVU857
 3757 0526 224B     		ldr	r3, .L254+12
 3758 0528 0622     		movs	r2, #6
 3759 052a 1A60     		str	r2, [r3]
ARM GAS  C:\Users\zhangjd\AppData\Local\Temp\cciTDb3B.s 			page 90


 364:Core/Src/main.c ****                     beacon_Pos[4] = getCarPosX();
 3760              		.loc 1 364 21 is_stmt 1 view .LVU858
 364:Core/Src/main.c ****                     beacon_Pos[4] = getCarPosX();
 3761              		.loc 1 364 34 is_stmt 0 view .LVU859
 3762 052c 0024     		movs	r4, #0
 3763 052e 1E4B     		ldr	r3, .L254+4
 3764 0530 1C60     		str	r4, [r3]
 365:Core/Src/main.c ****                     beacon_Pos[5] = getCarPosY(); //Áªôbeacon_PosËµãÔøΩ?ÔøΩÔºåÁî®‰∫éÁ¨¨‰∫åÂõûÂêàÁ≤æ
 3765              		.loc 1 365 21 is_stmt 1 view .LVU860
 365:Core/Src/main.c ****                     beacon_Pos[5] = getCarPosY(); //Áªôbeacon_PosËµãÔøΩ?ÔøΩÔºåÁî®‰∫éÁ¨¨‰∫åÂõûÂêàÁ≤æ
 3766              		.loc 1 365 37 is_stmt 0 view .LVU861
 3767 0532 FFF7FEFF 		bl	getCarPosX
 3768              	.LVL442:
 365:Core/Src/main.c ****                     beacon_Pos[5] = getCarPosY(); //Áªôbeacon_PosËµãÔøΩ?ÔøΩÔºåÁî®‰∫éÁ¨¨‰∫åÂõûÂêàÁ≤æ
 3769              		.loc 1 365 35 view .LVU862
 3770 0536 1F4D     		ldr	r5, .L254+16
 3771 0538 2861     		str	r0, [r5, #16]
 366:Core/Src/main.c ****                     HAL_GPIO_WritePin(GPIOC, GPIO_PIN_0, GPIO_PIN_RESET);
 3772              		.loc 1 366 21 is_stmt 1 view .LVU863
 366:Core/Src/main.c ****                     HAL_GPIO_WritePin(GPIOC, GPIO_PIN_0, GPIO_PIN_RESET);
 3773              		.loc 1 366 37 is_stmt 0 view .LVU864
 3774 053a FFF7FEFF 		bl	getCarPosY
 3775              	.LVL443:
 366:Core/Src/main.c ****                     HAL_GPIO_WritePin(GPIOC, GPIO_PIN_0, GPIO_PIN_RESET);
 3776              		.loc 1 366 35 view .LVU865
 3777 053e 6861     		str	r0, [r5, #20]
 367:Core/Src/main.c ****                     goto_state = 0;
 3778              		.loc 1 367 21 is_stmt 1 view .LVU866
 3779 0540 2246     		mov	r2, r4
 3780 0542 0121     		movs	r1, #1
 3781 0544 1948     		ldr	r0, .L254+8
 3782 0546 FFF7FEFF 		bl	HAL_GPIO_WritePin
 3783              	.LVL444:
 368:Core/Src/main.c ****                 }
 3784              		.loc 1 368 21 view .LVU867
 368:Core/Src/main.c ****                 }
 3785              		.loc 1 368 32 is_stmt 0 view .LVU868
 3786 054a 1B4B     		ldr	r3, .L254+20
 3787 054c 1C60     		str	r4, [r3]
 3788 054e 64E5     		b	.L211
 3789              	.L221:
 368:Core/Src/main.c ****                 }
 3790              		.loc 1 368 32 view .LVU869
 3791              	.LBE8:
 377:Core/Src/main.c ****             if ((car_Pos[0] < 18) || (car_Pos[0] > 250) || (car_Pos[1] < 18) || (car_Pos[1] > 250))
 3792              		.loc 1 377 13 is_stmt 1 view .LVU870
 3793 0550 7F21     		movs	r1, #127
 3794 0552 0F20     		movs	r0, #15
 3795 0554 FFF7FEFF 		bl	Goto
 3796              	.LVL445:
 378:Core/Src/main.c ****             {
 3797              		.loc 1 378 13 view .LVU871
 378:Core/Src/main.c ****             {
 3798              		.loc 1 378 25 is_stmt 0 view .LVU872
 3799 0558 184B     		ldr	r3, .L254+24
 3800 055a 1B68     		ldr	r3, [r3]
 378:Core/Src/main.c ****             {
ARM GAS  C:\Users\zhangjd\AppData\Local\Temp\cciTDb3B.s 			page 91


 3801              		.loc 1 378 35 view .LVU873
 3802 055c A3F11202 		sub	r2, r3, #18
 378:Core/Src/main.c ****             {
 3803              		.loc 1 378 16 view .LVU874
 3804 0560 E82A     		cmp	r2, #232
 3805 0562 05D8     		bhi	.L238
 378:Core/Src/main.c ****             {
 3806              		.loc 1 378 68 discriminator 1 view .LVU875
 3807 0564 154A     		ldr	r2, .L254+24
 3808 0566 5268     		ldr	r2, [r2, #4]
 378:Core/Src/main.c ****             {
 3809              		.loc 1 378 57 discriminator 1 view .LVU876
 3810 0568 112A     		cmp	r2, #17
 3811 056a 01DD     		ble	.L238
 378:Core/Src/main.c ****             {
 3812              		.loc 1 378 78 discriminator 2 view .LVU877
 3813 056c FA2A     		cmp	r2, #250
 3814 056e 05DD     		ble	.L239
 3815              	.L238:
 381:Core/Src/main.c ****                 goto_state = 0;
 3816              		.loc 1 381 17 is_stmt 1 view .LVU878
 3817 0570 FFF7FEFF 		bl	brake
 3818              	.LVL446:
 382:Core/Src/main.c ****                 break;
 3819              		.loc 1 382 17 view .LVU879
 382:Core/Src/main.c ****                 break;
 3820              		.loc 1 382 28 is_stmt 0 view .LVU880
 3821 0574 104B     		ldr	r3, .L254+20
 3822 0576 0022     		movs	r2, #0
 3823 0578 1A60     		str	r2, [r3]
 383:Core/Src/main.c ****             }
 3824              		.loc 1 383 17 is_stmt 1 view .LVU881
 3825 057a 4EE5     		b	.L211
 3826              	.L239:
 385:Core/Src/main.c ****             {
 3827              		.loc 1 385 13 view .LVU882
 385:Core/Src/main.c ****             {
 3828              		.loc 1 385 29 is_stmt 0 view .LVU883
 3829 057c 0F3B     		subs	r3, r3, #15
 385:Core/Src/main.c ****             {
 3830              		.loc 1 385 69 view .LVU884
 3831 057e 7F3A     		subs	r2, r2, #127
 385:Core/Src/main.c ****             {
 3832              		.loc 1 385 76 view .LVU885
 3833 0580 02FB02F2 		mul	r2, r2, r2
 385:Core/Src/main.c ****             {
 3834              		.loc 1 385 55 view .LVU886
 3835 0584 03FB0323 		mla	r3, r3, r3, r2
 385:Core/Src/main.c ****             {
 3836              		.loc 1 385 16 view .LVU887
 3837 0588 1D2B     		cmp	r3, #29
 3838 058a 3FF746AD 		bgt	.L211
 387:Core/Src/main.c ****                 State = -1; //Á¨¨‰∏ÄÂõûÂêàÁªìÊùü
 3839              		.loc 1 387 17 is_stmt 1 view .LVU888
 3840 058e FFF7FEFF 		bl	brake
 3841              	.LVL447:
 388:Core/Src/main.c ****                 goto_state = 0;
ARM GAS  C:\Users\zhangjd\AppData\Local\Temp\cciTDb3B.s 			page 92


 3842              		.loc 1 388 17 view .LVU889
 388:Core/Src/main.c ****                 goto_state = 0;
 3843              		.loc 1 388 23 is_stmt 0 view .LVU890
 3844 0592 074B     		ldr	r3, .L254+12
 3845 0594 4FF0FF32 		mov	r2, #-1
 3846 0598 1A60     		str	r2, [r3]
 389:Core/Src/main.c ****             }
 3847              		.loc 1 389 17 is_stmt 1 view .LVU891
 389:Core/Src/main.c ****             }
 3848              		.loc 1 389 28 is_stmt 0 view .LVU892
 3849 059a 074B     		ldr	r3, .L254+20
 3850 059c 0022     		movs	r2, #0
 3851 059e 1A60     		str	r2, [r3]
 3852 05a0 3BE5     		b	.L211
 3853              	.L255:
 3854 05a2 00BF     		.align	2
 3855              	.L254:
 3856 05a4 00009643 		.word	1133903872
 3857 05a8 00000000 		.word	.LANCHOR20
 3858 05ac 00100140 		.word	1073811456
 3859 05b0 00000000 		.word	.LANCHOR15
 3860 05b4 00000000 		.word	.LANCHOR2
 3861 05b8 00000000 		.word	.LANCHOR5
 3862 05bc 00000000 		.word	.LANCHOR4
 3863              	.L220:
 396:Core/Src/main.c **** 
 3864              		.loc 1 396 13 is_stmt 1 view .LVU893
 3865 05c0 4FF44860 		mov	r0, #3200
 3866 05c4 FFF7FEFF 		bl	rotate_clockwise_plus_forward
 3867              	.LVL448:
 399:Core/Src/main.c ****             {
 3868              		.loc 1 399 13 view .LVU894
 399:Core/Src/main.c ****             {
 3869              		.loc 1 399 17 is_stmt 0 view .LVU895
 3870 05c8 6948     		ldr	r0, .L256
 3871 05ca 6A4B     		ldr	r3, .L256+4
 3872 05cc 03F10802 		add	r2, r3, #8
 3873 05d0 0692     		str	r2, [sp, #24]
 3874 05d2 0593     		str	r3, [sp, #20]
 3875 05d4 C369     		ldr	r3, [r0, #28]
 3876 05d6 0493     		str	r3, [sp, #16]
 3877 05d8 438B     		ldrh	r3, [r0, #26]
 3878 05da 0393     		str	r3, [sp, #12]
 3879 05dc 038B     		ldrh	r3, [r0, #24]
 3880 05de 0293     		str	r3, [sp, #8]
 3881 05e0 0369     		ldr	r3, [r0, #16]
 3882 05e2 0193     		str	r3, [sp, #4]
 3883 05e4 C389     		ldrh	r3, [r0, #14]
 3884 05e6 0093     		str	r3, [sp]
 3885 05e8 8389     		ldrh	r3, [r0, #12]
 3886 05ea 4268     		ldr	r2, [r0, #4]
 3887 05ec 4188     		ldrh	r1, [r0, #2]
 3888 05ee 0088     		ldrh	r0, [r0]
 3889 05f0 FFF7FEFF 		bl	Solve_Mine_Pos
 3890              	.LVL449:
 399:Core/Src/main.c ****             {
 3891              		.loc 1 399 16 view .LVU896
ARM GAS  C:\Users\zhangjd\AppData\Local\Temp\cciTDb3B.s 			page 93


 3892 05f4 B8B1     		cbz	r0, .L240
 399:Core/Src/main.c ****             {
 3893              		.loc 1 399 218 discriminator 1 view .LVU897
 3894 05f6 5E48     		ldr	r0, .L256
 3895 05f8 5E4B     		ldr	r3, .L256+4
 3896 05fa 03F10C02 		add	r2, r3, #12
 3897 05fe 0692     		str	r2, [sp, #24]
 3898 0600 0433     		adds	r3, r3, #4
 3899 0602 0593     		str	r3, [sp, #20]
 3900 0604 036A     		ldr	r3, [r0, #32]
 3901 0606 0493     		str	r3, [sp, #16]
 3902 0608 438B     		ldrh	r3, [r0, #26]
 3903 060a 0393     		str	r3, [sp, #12]
 3904 060c 038B     		ldrh	r3, [r0, #24]
 3905 060e 0293     		str	r3, [sp, #8]
 3906 0610 4369     		ldr	r3, [r0, #20]
 3907 0612 0193     		str	r3, [sp, #4]
 3908 0614 C389     		ldrh	r3, [r0, #14]
 3909 0616 0093     		str	r3, [sp]
 3910 0618 8389     		ldrh	r3, [r0, #12]
 3911 061a 8268     		ldr	r2, [r0, #8]
 3912 061c 4188     		ldrh	r1, [r0, #2]
 3913 061e 0088     		ldrh	r0, [r0]
 3914 0620 FFF7FEFF 		bl	Solve_Mine_Pos
 3915              	.LVL450:
 399:Core/Src/main.c ****             {
 3916              		.loc 1 399 215 discriminator 1 view .LVU898
 3917 0624 98BB     		cbnz	r0, .L251
 3918              	.L240:
 410:Core/Src/main.c ****                 Prev_Pos[Prev_Pos_head].y = getCarPosY();          //Âêå‰∏ä
 3919              		.loc 1 410 17 is_stmt 1 view .LVU899
 410:Core/Src/main.c ****                 Prev_Pos[Prev_Pos_head].y = getCarPosY();          //Âêå‰∏ä
 3920              		.loc 1 410 40 is_stmt 0 view .LVU900
 3921 0626 544C     		ldr	r4, .L256+8
 3922 0628 B4F90060 		ldrsh	r6, [r4]
 410:Core/Src/main.c ****                 Prev_Pos[Prev_Pos_head].y = getCarPosY();          //Âêå‰∏ä
 3923              		.loc 1 410 45 view .LVU901
 3924 062c FFF7FEFF 		bl	getCarPosX
 3925              	.LVL451:
 410:Core/Src/main.c ****                 Prev_Pos[Prev_Pos_head].y = getCarPosY();          //Âêå‰∏ä
 3926              		.loc 1 410 43 view .LVU902
 3927 0630 4F4D     		ldr	r5, .L256
 3928 0632 06EB4606 		add	r6, r6, r6, lsl #1
 3929 0636 25F82600 		strh	r0, [r5, r6, lsl #2]	@ movhi
 411:Core/Src/main.c ****                 Prev_Pos[Prev_Pos_head].E_1 = getMineIntensity(0); //Âà©Áî®getMineIntensityÂáΩÊï∞Êõ
 3930              		.loc 1 411 17 is_stmt 1 view .LVU903
 411:Core/Src/main.c ****                 Prev_Pos[Prev_Pos_head].E_1 = getMineIntensity(0); //Âà©Áî®getMineIntensityÂáΩÊï∞Êõ
 3931              		.loc 1 411 40 is_stmt 0 view .LVU904
 3932 063a B4F90060 		ldrsh	r6, [r4]
 411:Core/Src/main.c ****                 Prev_Pos[Prev_Pos_head].E_1 = getMineIntensity(0); //Âà©Áî®getMineIntensityÂáΩÊï∞Êõ
 3933              		.loc 1 411 45 view .LVU905
 3934 063e FFF7FEFF 		bl	getCarPosY
 3935              	.LVL452:
 411:Core/Src/main.c ****                 Prev_Pos[Prev_Pos_head].E_1 = getMineIntensity(0); //Âà©Áî®getMineIntensityÂáΩÊï∞Êõ
 3936              		.loc 1 411 43 view .LVU906
 3937 0642 06EB4606 		add	r6, r6, r6, lsl #1
 3938 0646 05EB8606 		add	r6, r5, r6, lsl #2
ARM GAS  C:\Users\zhangjd\AppData\Local\Temp\cciTDb3B.s 			page 94


 3939 064a 7080     		strh	r0, [r6, #2]	@ movhi
 412:Core/Src/main.c ****                 Prev_Pos[Prev_Pos_head].E_1 = getMineIntensity(1); //Âêå‰∏ä
 3940              		.loc 1 412 17 is_stmt 1 view .LVU907
 412:Core/Src/main.c ****                 Prev_Pos[Prev_Pos_head].E_1 = getMineIntensity(1); //Âêå‰∏ä
 3941              		.loc 1 412 40 is_stmt 0 view .LVU908
 3942 064c B4F90060 		ldrsh	r6, [r4]
 412:Core/Src/main.c ****                 Prev_Pos[Prev_Pos_head].E_1 = getMineIntensity(1); //Âêå‰∏ä
 3943              		.loc 1 412 47 view .LVU909
 3944 0650 0020     		movs	r0, #0
 3945 0652 FFF7FEFF 		bl	getMineIntensity
 3946              	.LVL453:
 412:Core/Src/main.c ****                 Prev_Pos[Prev_Pos_head].E_1 = getMineIntensity(1); //Âêå‰∏ä
 3947              		.loc 1 412 45 view .LVU910
 3948 0656 06EB4606 		add	r6, r6, r6, lsl #1
 3949 065a 05EB8606 		add	r6, r5, r6, lsl #2
 3950 065e 7060     		str	r0, [r6, #4]
 413:Core/Src/main.c ****                 Prev_Pos_head = (Prev_Pos_head + 1) % 3;           //Â§¥ÊåáÈíàÂæ™ÁéØÂú∞ÂêéÁßª
 3951              		.loc 1 413 17 is_stmt 1 view .LVU911
 413:Core/Src/main.c ****                 Prev_Pos_head = (Prev_Pos_head + 1) % 3;           //Â§¥ÊåáÈíàÂæ™ÁéØÂú∞ÂêéÁßª
 3952              		.loc 1 413 40 is_stmt 0 view .LVU912
 3953 0660 B4F90060 		ldrsh	r6, [r4]
 413:Core/Src/main.c ****                 Prev_Pos_head = (Prev_Pos_head + 1) % 3;           //Â§¥ÊåáÈíàÂæ™ÁéØÂú∞ÂêéÁßª
 3954              		.loc 1 413 47 view .LVU913
 3955 0664 0120     		movs	r0, #1
 3956 0666 FFF7FEFF 		bl	getMineIntensity
 3957              	.LVL454:
 413:Core/Src/main.c ****                 Prev_Pos_head = (Prev_Pos_head + 1) % 3;           //Â§¥ÊåáÈíàÂæ™ÁéØÂú∞ÂêéÁßª
 3958              		.loc 1 413 45 view .LVU914
 3959 066a 06EB4606 		add	r6, r6, r6, lsl #1
 3960 066e 05EB8605 		add	r5, r5, r6, lsl #2
 3961 0672 6860     		str	r0, [r5, #4]
 414:Core/Src/main.c ****             }
 3962              		.loc 1 414 17 is_stmt 1 view .LVU915
 414:Core/Src/main.c ****             }
 3963              		.loc 1 414 48 is_stmt 0 view .LVU916
 3964 0674 B4F90020 		ldrsh	r2, [r4]
 3965 0678 0132     		adds	r2, r2, #1
 414:Core/Src/main.c ****             }
 3966              		.loc 1 414 53 view .LVU917
 3967 067a 404B     		ldr	r3, .L256+12
 3968 067c 83FB0213 		smull	r1, r3, r3, r2
 3969 0680 A3EBE273 		sub	r3, r3, r2, asr #31
 3970 0684 03EB4303 		add	r3, r3, r3, lsl #1
 3971 0688 D31A     		subs	r3, r2, r3
 414:Core/Src/main.c ****             }
 3972              		.loc 1 414 31 view .LVU918
 3973 068a 2380     		strh	r3, [r4]	@ movhi
 3974 068c C5E4     		b	.L211
 3975              	.L251:
 402:Core/Src/main.c ****                 //Á°ÆÂÆöÁ¶ªËΩ¶ÊúÄËøëÁöÑËµÑÊ∫ê
 3976              		.loc 1 402 17 is_stmt 1 view .LVU919
 402:Core/Src/main.c ****                 //Á°ÆÂÆöÁ¶ªËΩ¶ÊúÄËøëÁöÑËµÑÊ∫ê
 3977              		.loc 1 402 23 is_stmt 0 view .LVU920
 3978 068e 3C4B     		ldr	r3, .L256+16
 3979 0690 0B22     		movs	r2, #11
 3980 0692 1A60     		str	r2, [r3]
 404:Core/Src/main.c ****                 resource_location.priority = (resource_location.x[0] * resource_location.x[0] + res
ARM GAS  C:\Users\zhangjd\AppData\Local\Temp\cciTDb3B.s 			page 95


 3981              		.loc 1 404 17 is_stmt 1 view .LVU921
 404:Core/Src/main.c ****                 resource_location.priority = (resource_location.x[0] * resource_location.x[0] + res
 3982              		.loc 1 404 31 is_stmt 0 view .LVU922
 3983 0694 FFF7FEFF 		bl	getCarMineSumNum
 3984              	.LVL455:
 404:Core/Src/main.c ****                 resource_location.priority = (resource_location.x[0] * resource_location.x[0] + res
 3985              		.loc 1 404 29 view .LVU923
 3986 0698 3A4B     		ldr	r3, .L256+20
 3987 069a 1860     		str	r0, [r3]
 405:Core/Src/main.c ****             }
 3988              		.loc 1 405 17 is_stmt 1 view .LVU924
 405:Core/Src/main.c ****             }
 3989              		.loc 1 405 66 is_stmt 0 view .LVU925
 3990 069c 354A     		ldr	r2, .L256+4
 3991 069e 1368     		ldr	r3, [r2]
 405:Core/Src/main.c ****             }
 3992              		.loc 1 405 116 view .LVU926
 3993 06a0 9168     		ldr	r1, [r2, #8]
 405:Core/Src/main.c ****             }
 3994              		.loc 1 405 120 view .LVU927
 3995 06a2 01FB01F1 		mul	r1, r1, r1
 405:Core/Src/main.c ****             }
 3996              		.loc 1 405 95 view .LVU928
 3997 06a6 03FB0313 		mla	r3, r3, r3, r1
 405:Core/Src/main.c ****             }
 3998              		.loc 1 405 168 view .LVU929
 3999 06aa 5168     		ldr	r1, [r2, #4]
 405:Core/Src/main.c ****             }
 4000              		.loc 1 405 218 view .LVU930
 4001 06ac D068     		ldr	r0, [r2, #12]
 405:Core/Src/main.c ****             }
 4002              		.loc 1 405 222 view .LVU931
 4003 06ae 00FB00F0 		mul	r0, r0, r0
 405:Core/Src/main.c ****             }
 4004              		.loc 1 405 197 view .LVU932
 4005 06b2 01FB0101 		mla	r1, r1, r1, r0
 405:Core/Src/main.c ****             }
 4006              		.loc 1 405 252 view .LVU933
 4007 06b6 8B42     		cmp	r3, r1
 4008 06b8 B4BF     		ite	lt
 4009 06ba 0023     		movlt	r3, #0
 4010 06bc 0123     		movge	r3, #1
 405:Core/Src/main.c ****             }
 4011              		.loc 1 405 44 view .LVU934
 4012 06be 5361     		str	r3, [r2, #20]
 4013 06c0 ABE4     		b	.L211
 4014              	.L219:
 420:Core/Src/main.c ****             if (getCarMineSumNum() > current_Res)
 4015              		.loc 1 420 13 is_stmt 1 view .LVU935
 420:Core/Src/main.c ****             if (getCarMineSumNum() > current_Res)
 4016              		.loc 1 420 56 is_stmt 0 view .LVU936
 4017 06c2 2C4A     		ldr	r2, .L256+4
 4018 06c4 5369     		ldr	r3, [r2, #20]
 420:Core/Src/main.c ****             if (getCarMineSumNum() > current_Res)
 4019              		.loc 1 420 38 view .LVU937
 4020 06c6 B3FA83F3 		clz	r3, r3
 4021 06ca 5B09     		lsrs	r3, r3, #5
ARM GAS  C:\Users\zhangjd\AppData\Local\Temp\cciTDb3B.s 			page 96


 420:Core/Src/main.c ****             if (getCarMineSumNum() > current_Res)
 4022              		.loc 1 420 13 view .LVU938
 4023 06cc 991C     		adds	r1, r3, #2
 4024 06ce 52F82110 		ldr	r1, [r2, r1, lsl #2]
 4025 06d2 52F82300 		ldr	r0, [r2, r3, lsl #2]
 4026 06d6 FFF7FEFF 		bl	Goto
 4027              	.LVL456:
 421:Core/Src/main.c ****             {
 4028              		.loc 1 421 13 is_stmt 1 view .LVU939
 421:Core/Src/main.c ****             {
 4029              		.loc 1 421 17 is_stmt 0 view .LVU940
 4030 06da FFF7FEFF 		bl	getCarMineSumNum
 4031              	.LVL457:
 421:Core/Src/main.c ****             {
 4032              		.loc 1 421 36 view .LVU941
 4033 06de 294B     		ldr	r3, .L256+20
 4034 06e0 1B68     		ldr	r3, [r3]
 421:Core/Src/main.c ****             {
 4035              		.loc 1 421 16 view .LVU942
 4036 06e2 9842     		cmp	r0, r3
 4037 06e4 7FF799AC 		ble	.L211
 423:Core/Src/main.c ****                 State = 10;                   //ËøîÂõûËÆ°ÁÆóÁä∂ÊÄÅ
 4038              		.loc 1 423 17 is_stmt 1 view .LVU943
 423:Core/Src/main.c ****                 State = 10;                   //ËøîÂõûËÆ°ÁÆóÁä∂ÊÄÅ
 4039              		.loc 1 423 28 is_stmt 0 view .LVU944
 4040 06e8 274B     		ldr	r3, .L256+24
 4041 06ea 0022     		movs	r2, #0
 4042 06ec 1A60     		str	r2, [r3]
 424:Core/Src/main.c ****                 if (getCarMineSumNum() == 10) //Êª°ËΩΩ
 4043              		.loc 1 424 17 is_stmt 1 view .LVU945
 424:Core/Src/main.c ****                 if (getCarMineSumNum() == 10) //Êª°ËΩΩ
 4044              		.loc 1 424 23 is_stmt 0 view .LVU946
 4045 06ee 244B     		ldr	r3, .L256+16
 4046 06f0 0A22     		movs	r2, #10
 4047 06f2 1A60     		str	r2, [r3]
 425:Core/Src/main.c ****                     State = 12;               //ËÄåÂΩí
 4048              		.loc 1 425 17 is_stmt 1 view .LVU947
 425:Core/Src/main.c ****                     State = 12;               //ËÄåÂΩí
 4049              		.loc 1 425 21 is_stmt 0 view .LVU948
 4050 06f4 FFF7FEFF 		bl	getCarMineSumNum
 4051              	.LVL458:
 425:Core/Src/main.c ****                     State = 12;               //ËÄåÂΩí
 4052              		.loc 1 425 20 view .LVU949
 4053 06f8 0A28     		cmp	r0, #10
 4054 06fa 7FF48EAC 		bne	.L211
 426:Core/Src/main.c ****             }
 4055              		.loc 1 426 21 is_stmt 1 view .LVU950
 426:Core/Src/main.c ****             }
 4056              		.loc 1 426 27 is_stmt 0 view .LVU951
 4057 06fe 204B     		ldr	r3, .L256+16
 4058 0700 0C22     		movs	r2, #12
 4059 0702 1A60     		str	r2, [r3]
 4060 0704 89E4     		b	.L211
 4061              	.L218:
 433:Core/Src/main.c ****             State = 13;
 4062              		.loc 1 433 13 is_stmt 1 view .LVU952
 4063 0706 214B     		ldr	r3, .L256+28
ARM GAS  C:\Users\zhangjd\AppData\Local\Temp\cciTDb3B.s 			page 97


 4064 0708 5968     		ldr	r1, [r3, #4]
 4065 070a 1868     		ldr	r0, [r3]
 4066 070c FFF7FEFF 		bl	Get_Rep_opt
 4067              	.LVL459:
 434:Core/Src/main.c ****         }
 4068              		.loc 1 434 13 view .LVU953
 434:Core/Src/main.c ****         }
 4069              		.loc 1 434 19 is_stmt 0 view .LVU954
 4070 0710 1B4B     		ldr	r3, .L256+16
 4071 0712 0D22     		movs	r2, #13
 4072 0714 1A60     		str	r2, [r3]
 4073              	.L216:
 439:Core/Src/main.c ****                     (car_Pos[1] - destination[1]) * (car_Pos[1] - destination[1]) <
 4074              		.loc 1 439 13 is_stmt 1 view .LVU955
 439:Core/Src/main.c ****                     (car_Pos[1] - destination[1]) * (car_Pos[1] - destination[1]) <
 4075              		.loc 1 439 25 is_stmt 0 view .LVU956
 4076 0716 1D4A     		ldr	r2, .L256+28
 4077 0718 1368     		ldr	r3, [r2]
 439:Core/Src/main.c ****                     (car_Pos[1] - destination[1]) * (car_Pos[1] - destination[1]) <
 4078              		.loc 1 439 42 view .LVU957
 4079 071a 1D49     		ldr	r1, .L256+32
 4080 071c 0868     		ldr	r0, [r1]
 439:Core/Src/main.c ****                     (car_Pos[1] - destination[1]) * (car_Pos[1] - destination[1]) <
 4081              		.loc 1 439 29 view .LVU958
 4082 071e 1B1A     		subs	r3, r3, r0
 440:Core/Src/main.c ****                 20) //ËøêÈÄÅÊàêÂäü
 4083              		.loc 1 440 29 view .LVU959
 4084 0720 5268     		ldr	r2, [r2, #4]
 440:Core/Src/main.c ****                 20) //ËøêÈÄÅÊàêÂäü
 4085              		.loc 1 440 46 view .LVU960
 4086 0722 4968     		ldr	r1, [r1, #4]
 440:Core/Src/main.c ****                 20) //ËøêÈÄÅÊàêÂäü
 4087              		.loc 1 440 33 view .LVU961
 4088 0724 521A     		subs	r2, r2, r1
 440:Core/Src/main.c ****                 20) //ËøêÈÄÅÊàêÂäü
 4089              		.loc 1 440 51 view .LVU962
 4090 0726 02FB02F2 		mul	r2, r2, r2
 439:Core/Src/main.c ****                     (car_Pos[1] - destination[1]) * (car_Pos[1] - destination[1]) <
 4091              		.loc 1 439 79 view .LVU963
 4092 072a 03FB0323 		mla	r3, r3, r3, r2
 439:Core/Src/main.c ****                     (car_Pos[1] - destination[1]) * (car_Pos[1] - destination[1]) <
 4093              		.loc 1 439 16 view .LVU964
 4094 072e 132B     		cmp	r3, #19
 4095 0730 1ADC     		bgt	.L241
 443:Core/Src/main.c ****                 goto_state = 0;
 4096              		.loc 1 443 17 is_stmt 1 view .LVU965
 4097 0732 FFF7FEFF 		bl	brake
 4098              	.LVL460:
 444:Core/Src/main.c ****                 count_rep++;
 4099              		.loc 1 444 17 view .LVU966
 444:Core/Src/main.c ****                 count_rep++;
 4100              		.loc 1 444 28 is_stmt 0 view .LVU967
 4101 0736 144B     		ldr	r3, .L256+24
 4102 0738 0022     		movs	r2, #0
 4103 073a 1A60     		str	r2, [r3]
 445:Core/Src/main.c ****                 if (count_rep > 40)
 4104              		.loc 1 445 17 is_stmt 1 view .LVU968
ARM GAS  C:\Users\zhangjd\AppData\Local\Temp\cciTDb3B.s 			page 98


 445:Core/Src/main.c ****                 if (count_rep > 40)
 4105              		.loc 1 445 26 is_stmt 0 view .LVU969
 4106 073c 154A     		ldr	r2, .L256+36
 4107 073e 1368     		ldr	r3, [r2]
 4108 0740 0133     		adds	r3, r3, #1
 4109 0742 1360     		str	r3, [r2]
 446:Core/Src/main.c ****                 {
 4110              		.loc 1 446 17 is_stmt 1 view .LVU970
 446:Core/Src/main.c ****                 {
 4111              		.loc 1 446 20 is_stmt 0 view .LVU971
 4112 0744 282B     		cmp	r3, #40
 4113 0746 7FF768AC 		ble	.L211
 448:Core/Src/main.c ****                     count_rep = 0;
 4114              		.loc 1 448 21 is_stmt 1 view .LVU972
 448:Core/Src/main.c ****                     count_rep = 0;
 4115              		.loc 1 448 27 is_stmt 0 view .LVU973
 4116 074a 0D4B     		ldr	r3, .L256+16
 4117 074c 0C22     		movs	r2, #12
 4118 074e 1A60     		str	r2, [r3]
 449:Core/Src/main.c ****                     if (getCarMineSumNum() == 0) //ÂÖ®ÈÉ®Âç∏ËΩΩ
 4119              		.loc 1 449 21 is_stmt 1 view .LVU974
 449:Core/Src/main.c ****                     if (getCarMineSumNum() == 0) //ÂÖ®ÈÉ®Âç∏ËΩΩ
 4120              		.loc 1 449 31 is_stmt 0 view .LVU975
 4121 0750 104B     		ldr	r3, .L256+36
 4122 0752 0022     		movs	r2, #0
 4123 0754 1A60     		str	r2, [r3]
 450:Core/Src/main.c ****                         State = 10;
 4124              		.loc 1 450 21 is_stmt 1 view .LVU976
 450:Core/Src/main.c ****                         State = 10;
 4125              		.loc 1 450 25 is_stmt 0 view .LVU977
 4126 0756 FFF7FEFF 		bl	getCarMineSumNum
 4127              	.LVL461:
 450:Core/Src/main.c ****                         State = 10;
 4128              		.loc 1 450 24 view .LVU978
 4129 075a 0028     		cmp	r0, #0
 4130 075c 7FF45DAC 		bne	.L211
 451:Core/Src/main.c ****                 }
 4131              		.loc 1 451 25 is_stmt 1 view .LVU979
 451:Core/Src/main.c ****                 }
 4132              		.loc 1 451 31 is_stmt 0 view .LVU980
 4133 0760 074B     		ldr	r3, .L256+16
 4134 0762 0A22     		movs	r2, #10
 4135 0764 1A60     		str	r2, [r3]
 4136 0766 58E4     		b	.L211
 4137              	.L241:
 455:Core/Src/main.c ****             break;
 4138              		.loc 1 455 17 is_stmt 1 view .LVU981
 4139 0768 FFF7FEFF 		bl	Goto
 4140              	.LVL462:
 4141              	.LBE4:
 460:Core/Src/main.c **** /* USER CODE END 0 */
 4142              		.loc 1 460 1 is_stmt 0 view .LVU982
 4143 076c 55E4     		b	.L211
 4144              	.L257:
 4145 076e 00BF     		.align	2
 4146              	.L256:
 4147 0770 00000000 		.word	.LANCHOR17
ARM GAS  C:\Users\zhangjd\AppData\Local\Temp\cciTDb3B.s 			page 99


 4148 0774 00000000 		.word	.LANCHOR18
 4149 0778 00000000 		.word	.LANCHOR19
 4150 077c 56555555 		.word	1431655766
 4151 0780 00000000 		.word	.LANCHOR15
 4152 0784 00000000 		.word	.LANCHOR21
 4153 0788 00000000 		.word	.LANCHOR5
 4154 078c 00000000 		.word	.LANCHOR4
 4155 0790 00000000 		.word	.LANCHOR10
 4156 0794 00000000 		.word	.LANCHOR22
 4157              		.cfi_endproc
 4158              	.LFE65:
 4160              		.global	__aeabi_f2iz
 4161              		.section	.text.Get_rotate_pwm,"ax",%progbits
 4162              		.align	1
 4163              		.global	Get_rotate_pwm
 4164              		.syntax unified
 4165              		.thumb
 4166              		.thumb_func
 4167              		.fpu softvfp
 4169              	Get_rotate_pwm:
 4170              	.LFB85:
 980:Core/Src/main.c **** 
 981:Core/Src/main.c **** void Get_rotate_pwm()
 982:Core/Src/main.c **** {
 4171              		.loc 1 982 1 is_stmt 1 view -0
 4172              		.cfi_startproc
 4173              		@ args = 0, pretend = 0, frame = 0
 4174              		@ frame_needed = 0, uses_anonymous_args = 0
 4175 0000 10B5     		push	{r4, lr}
 4176              	.LCFI25:
 4177              		.cfi_def_cfa_offset 8
 4178              		.cfi_offset 4, -8
 4179              		.cfi_offset 14, -4
 983:Core/Src/main.c ****     rotate_pwm[0] = pid(-speed1 + rotate_rpm);
 4180              		.loc 1 983 5 view .LVU984
 4181              		.loc 1 983 21 is_stmt 0 view .LVU985
 4182 0002 154B     		ldr	r3, .L260
 4183 0004 1968     		ldr	r1, [r3]	@ float
 4184 0006 1548     		ldr	r0, .L260+4
 4185 0008 FFF7FEFF 		bl	__aeabi_fsub
 4186              	.LVL463:
 4187 000c FFF7FEFF 		bl	pid
 4188              	.LVL464:
 4189              		.loc 1 983 19 view .LVU986
 4190 0010 134C     		ldr	r4, .L260+8
 4191 0012 FFF7FEFF 		bl	__aeabi_f2iz
 4192              	.LVL465:
 4193 0016 2060     		str	r0, [r4]
 984:Core/Src/main.c ****     rotate_pwm[1] = pid(-speed2 + rotate_rpm);
 4194              		.loc 1 984 5 is_stmt 1 view .LVU987
 4195              		.loc 1 984 21 is_stmt 0 view .LVU988
 4196 0018 124B     		ldr	r3, .L260+12
 4197 001a 1968     		ldr	r1, [r3]	@ float
 4198 001c 0F48     		ldr	r0, .L260+4
 4199 001e FFF7FEFF 		bl	__aeabi_fsub
 4200              	.LVL466:
 4201 0022 FFF7FEFF 		bl	pid
ARM GAS  C:\Users\zhangjd\AppData\Local\Temp\cciTDb3B.s 			page 100


 4202              	.LVL467:
 4203              		.loc 1 984 19 view .LVU989
 4204 0026 FFF7FEFF 		bl	__aeabi_f2iz
 4205              	.LVL468:
 4206 002a 6060     		str	r0, [r4, #4]
 985:Core/Src/main.c ****     rotate_pwm[2] = pid(-speed3 + rotate_rpm);
 4207              		.loc 1 985 5 is_stmt 1 view .LVU990
 4208              		.loc 1 985 21 is_stmt 0 view .LVU991
 4209 002c 0E4B     		ldr	r3, .L260+16
 4210 002e 1968     		ldr	r1, [r3]	@ float
 4211 0030 0A48     		ldr	r0, .L260+4
 4212 0032 FFF7FEFF 		bl	__aeabi_fsub
 4213              	.LVL469:
 4214 0036 FFF7FEFF 		bl	pid
 4215              	.LVL470:
 4216              		.loc 1 985 19 view .LVU992
 4217 003a FFF7FEFF 		bl	__aeabi_f2iz
 4218              	.LVL471:
 4219 003e A060     		str	r0, [r4, #8]
 986:Core/Src/main.c ****     rotate_pwm[3] = pid(-speed4 + rotate_rpm);
 4220              		.loc 1 986 5 is_stmt 1 view .LVU993
 4221              		.loc 1 986 21 is_stmt 0 view .LVU994
 4222 0040 0A4B     		ldr	r3, .L260+20
 4223 0042 1968     		ldr	r1, [r3]	@ float
 4224 0044 0548     		ldr	r0, .L260+4
 4225 0046 FFF7FEFF 		bl	__aeabi_fsub
 4226              	.LVL472:
 4227 004a FFF7FEFF 		bl	pid
 4228              	.LVL473:
 4229              		.loc 1 986 19 view .LVU995
 4230 004e FFF7FEFF 		bl	__aeabi_f2iz
 4231              	.LVL474:
 4232 0052 E060     		str	r0, [r4, #12]
 987:Core/Src/main.c **** }
 4233              		.loc 1 987 1 view .LVU996
 4234 0054 10BD     		pop	{r4, pc}
 4235              	.L261:
 4236 0056 00BF     		.align	2
 4237              	.L260:
 4238 0058 00000000 		.word	.LANCHOR11
 4239 005c 0000A041 		.word	1101004800
 4240 0060 00000000 		.word	.LANCHOR23
 4241 0064 00000000 		.word	.LANCHOR12
 4242 0068 00000000 		.word	.LANCHOR13
 4243 006c 00000000 		.word	.LANCHOR14
 4244              		.cfi_endproc
 4245              	.LFE85:
 4247              		.section	.text.Error_Handler,"ax",%progbits
 4248              		.align	1
 4249              		.global	Error_Handler
 4250              		.syntax unified
 4251              		.thumb
 4252              		.thumb_func
 4253              		.fpu softvfp
 4255              	Error_Handler:
 4256              	.LFB86:
 988:Core/Src/main.c **** /* USER CODE END 4 */
ARM GAS  C:\Users\zhangjd\AppData\Local\Temp\cciTDb3B.s 			page 101


 989:Core/Src/main.c **** 
 990:Core/Src/main.c **** /**
 991:Core/Src/main.c ****   * @brief  This function is executed in case of error occurrence.
 992:Core/Src/main.c ****   * @retval None
 993:Core/Src/main.c ****   */
 994:Core/Src/main.c **** void Error_Handler(void)
 995:Core/Src/main.c **** {
 4257              		.loc 1 995 1 is_stmt 1 view -0
 4258              		.cfi_startproc
 4259              		@ Volatile: function does not return.
 4260              		@ args = 0, pretend = 0, frame = 0
 4261              		@ frame_needed = 0, uses_anonymous_args = 0
 4262              		@ link register save eliminated.
 996:Core/Src/main.c ****     /* USER CODE BEGIN Error_Handler_Debug */
 997:Core/Src/main.c ****     /* User can add his own implementation to report the HAL error return state */
 998:Core/Src/main.c ****     __disable_irq();
 4263              		.loc 1 998 5 view .LVU998
 4264              	.LBB9:
 4265              	.LBI9:
 4266              		.file 2 "Drivers/CMSIS/Include/cmsis_gcc.h"
   1:Drivers/CMSIS/Include/cmsis_gcc.h **** /**************************************************************************//**
   2:Drivers/CMSIS/Include/cmsis_gcc.h ****  * @file     cmsis_gcc.h
   3:Drivers/CMSIS/Include/cmsis_gcc.h ****  * @brief    CMSIS compiler GCC header file
   4:Drivers/CMSIS/Include/cmsis_gcc.h ****  * @version  V5.0.4
   5:Drivers/CMSIS/Include/cmsis_gcc.h ****  * @date     09. April 2018
   6:Drivers/CMSIS/Include/cmsis_gcc.h ****  ******************************************************************************/
   7:Drivers/CMSIS/Include/cmsis_gcc.h **** /*
   8:Drivers/CMSIS/Include/cmsis_gcc.h ****  * Copyright (c) 2009-2018 Arm Limited. All rights reserved.
   9:Drivers/CMSIS/Include/cmsis_gcc.h ****  *
  10:Drivers/CMSIS/Include/cmsis_gcc.h ****  * SPDX-License-Identifier: Apache-2.0
  11:Drivers/CMSIS/Include/cmsis_gcc.h ****  *
  12:Drivers/CMSIS/Include/cmsis_gcc.h ****  * Licensed under the Apache License, Version 2.0 (the License); you may
  13:Drivers/CMSIS/Include/cmsis_gcc.h ****  * not use this file except in compliance with the License.
  14:Drivers/CMSIS/Include/cmsis_gcc.h ****  * You may obtain a copy of the License at
  15:Drivers/CMSIS/Include/cmsis_gcc.h ****  *
  16:Drivers/CMSIS/Include/cmsis_gcc.h ****  * www.apache.org/licenses/LICENSE-2.0
  17:Drivers/CMSIS/Include/cmsis_gcc.h ****  *
  18:Drivers/CMSIS/Include/cmsis_gcc.h ****  * Unless required by applicable law or agreed to in writing, software
  19:Drivers/CMSIS/Include/cmsis_gcc.h ****  * distributed under the License is distributed on an AS IS BASIS, WITHOUT
  20:Drivers/CMSIS/Include/cmsis_gcc.h ****  * WARRANTIES OR CONDITIONS OF ANY KIND, either express or implied.
  21:Drivers/CMSIS/Include/cmsis_gcc.h ****  * See the License for the specific language governing permissions and
  22:Drivers/CMSIS/Include/cmsis_gcc.h ****  * limitations under the License.
  23:Drivers/CMSIS/Include/cmsis_gcc.h ****  */
  24:Drivers/CMSIS/Include/cmsis_gcc.h **** 
  25:Drivers/CMSIS/Include/cmsis_gcc.h **** #ifndef __CMSIS_GCC_H
  26:Drivers/CMSIS/Include/cmsis_gcc.h **** #define __CMSIS_GCC_H
  27:Drivers/CMSIS/Include/cmsis_gcc.h **** 
  28:Drivers/CMSIS/Include/cmsis_gcc.h **** /* ignore some GCC warnings */
  29:Drivers/CMSIS/Include/cmsis_gcc.h **** #pragma GCC diagnostic push
  30:Drivers/CMSIS/Include/cmsis_gcc.h **** #pragma GCC diagnostic ignored "-Wsign-conversion"
  31:Drivers/CMSIS/Include/cmsis_gcc.h **** #pragma GCC diagnostic ignored "-Wconversion"
  32:Drivers/CMSIS/Include/cmsis_gcc.h **** #pragma GCC diagnostic ignored "-Wunused-parameter"
  33:Drivers/CMSIS/Include/cmsis_gcc.h **** 
  34:Drivers/CMSIS/Include/cmsis_gcc.h **** /* Fallback for __has_builtin */
  35:Drivers/CMSIS/Include/cmsis_gcc.h **** #ifndef __has_builtin
  36:Drivers/CMSIS/Include/cmsis_gcc.h ****   #define __has_builtin(x) (0)
  37:Drivers/CMSIS/Include/cmsis_gcc.h **** #endif
ARM GAS  C:\Users\zhangjd\AppData\Local\Temp\cciTDb3B.s 			page 102


  38:Drivers/CMSIS/Include/cmsis_gcc.h **** 
  39:Drivers/CMSIS/Include/cmsis_gcc.h **** /* CMSIS compiler specific defines */
  40:Drivers/CMSIS/Include/cmsis_gcc.h **** #ifndef   __ASM
  41:Drivers/CMSIS/Include/cmsis_gcc.h ****   #define __ASM                                  __asm
  42:Drivers/CMSIS/Include/cmsis_gcc.h **** #endif
  43:Drivers/CMSIS/Include/cmsis_gcc.h **** #ifndef   __INLINE
  44:Drivers/CMSIS/Include/cmsis_gcc.h ****   #define __INLINE                               inline
  45:Drivers/CMSIS/Include/cmsis_gcc.h **** #endif
  46:Drivers/CMSIS/Include/cmsis_gcc.h **** #ifndef   __STATIC_INLINE
  47:Drivers/CMSIS/Include/cmsis_gcc.h ****   #define __STATIC_INLINE                        static inline
  48:Drivers/CMSIS/Include/cmsis_gcc.h **** #endif
  49:Drivers/CMSIS/Include/cmsis_gcc.h **** #ifndef   __STATIC_FORCEINLINE                 
  50:Drivers/CMSIS/Include/cmsis_gcc.h ****   #define __STATIC_FORCEINLINE                   __attribute__((always_inline)) static inline
  51:Drivers/CMSIS/Include/cmsis_gcc.h **** #endif                                           
  52:Drivers/CMSIS/Include/cmsis_gcc.h **** #ifndef   __NO_RETURN
  53:Drivers/CMSIS/Include/cmsis_gcc.h ****   #define __NO_RETURN                            __attribute__((__noreturn__))
  54:Drivers/CMSIS/Include/cmsis_gcc.h **** #endif
  55:Drivers/CMSIS/Include/cmsis_gcc.h **** #ifndef   __USED
  56:Drivers/CMSIS/Include/cmsis_gcc.h ****   #define __USED                                 __attribute__((used))
  57:Drivers/CMSIS/Include/cmsis_gcc.h **** #endif
  58:Drivers/CMSIS/Include/cmsis_gcc.h **** #ifndef   __WEAK
  59:Drivers/CMSIS/Include/cmsis_gcc.h ****   #define __WEAK                                 __attribute__((weak))
  60:Drivers/CMSIS/Include/cmsis_gcc.h **** #endif
  61:Drivers/CMSIS/Include/cmsis_gcc.h **** #ifndef   __PACKED
  62:Drivers/CMSIS/Include/cmsis_gcc.h ****   #define __PACKED                               __attribute__((packed, aligned(1)))
  63:Drivers/CMSIS/Include/cmsis_gcc.h **** #endif
  64:Drivers/CMSIS/Include/cmsis_gcc.h **** #ifndef   __PACKED_STRUCT
  65:Drivers/CMSIS/Include/cmsis_gcc.h ****   #define __PACKED_STRUCT                        struct __attribute__((packed, aligned(1)))
  66:Drivers/CMSIS/Include/cmsis_gcc.h **** #endif
  67:Drivers/CMSIS/Include/cmsis_gcc.h **** #ifndef   __PACKED_UNION
  68:Drivers/CMSIS/Include/cmsis_gcc.h ****   #define __PACKED_UNION                         union __attribute__((packed, aligned(1)))
  69:Drivers/CMSIS/Include/cmsis_gcc.h **** #endif
  70:Drivers/CMSIS/Include/cmsis_gcc.h **** #ifndef   __UNALIGNED_UINT32        /* deprecated */
  71:Drivers/CMSIS/Include/cmsis_gcc.h ****   #pragma GCC diagnostic push
  72:Drivers/CMSIS/Include/cmsis_gcc.h ****   #pragma GCC diagnostic ignored "-Wpacked"
  73:Drivers/CMSIS/Include/cmsis_gcc.h ****   #pragma GCC diagnostic ignored "-Wattributes"
  74:Drivers/CMSIS/Include/cmsis_gcc.h ****   struct __attribute__((packed)) T_UINT32 { uint32_t v; };
  75:Drivers/CMSIS/Include/cmsis_gcc.h ****   #pragma GCC diagnostic pop
  76:Drivers/CMSIS/Include/cmsis_gcc.h ****   #define __UNALIGNED_UINT32(x)                  (((struct T_UINT32 *)(x))->v)
  77:Drivers/CMSIS/Include/cmsis_gcc.h **** #endif
  78:Drivers/CMSIS/Include/cmsis_gcc.h **** #ifndef   __UNALIGNED_UINT16_WRITE
  79:Drivers/CMSIS/Include/cmsis_gcc.h ****   #pragma GCC diagnostic push
  80:Drivers/CMSIS/Include/cmsis_gcc.h ****   #pragma GCC diagnostic ignored "-Wpacked"
  81:Drivers/CMSIS/Include/cmsis_gcc.h ****   #pragma GCC diagnostic ignored "-Wattributes"
  82:Drivers/CMSIS/Include/cmsis_gcc.h ****   __PACKED_STRUCT T_UINT16_WRITE { uint16_t v; };
  83:Drivers/CMSIS/Include/cmsis_gcc.h ****   #pragma GCC diagnostic pop
  84:Drivers/CMSIS/Include/cmsis_gcc.h ****   #define __UNALIGNED_UINT16_WRITE(addr, val)    (void)((((struct T_UINT16_WRITE *)(void *)(addr))-
  85:Drivers/CMSIS/Include/cmsis_gcc.h **** #endif
  86:Drivers/CMSIS/Include/cmsis_gcc.h **** #ifndef   __UNALIGNED_UINT16_READ
  87:Drivers/CMSIS/Include/cmsis_gcc.h ****   #pragma GCC diagnostic push
  88:Drivers/CMSIS/Include/cmsis_gcc.h ****   #pragma GCC diagnostic ignored "-Wpacked"
  89:Drivers/CMSIS/Include/cmsis_gcc.h ****   #pragma GCC diagnostic ignored "-Wattributes"
  90:Drivers/CMSIS/Include/cmsis_gcc.h ****   __PACKED_STRUCT T_UINT16_READ { uint16_t v; };
  91:Drivers/CMSIS/Include/cmsis_gcc.h ****   #pragma GCC diagnostic pop
  92:Drivers/CMSIS/Include/cmsis_gcc.h ****   #define __UNALIGNED_UINT16_READ(addr)          (((const struct T_UINT16_READ *)(const void *)(add
  93:Drivers/CMSIS/Include/cmsis_gcc.h **** #endif
  94:Drivers/CMSIS/Include/cmsis_gcc.h **** #ifndef   __UNALIGNED_UINT32_WRITE
ARM GAS  C:\Users\zhangjd\AppData\Local\Temp\cciTDb3B.s 			page 103


  95:Drivers/CMSIS/Include/cmsis_gcc.h ****   #pragma GCC diagnostic push
  96:Drivers/CMSIS/Include/cmsis_gcc.h ****   #pragma GCC diagnostic ignored "-Wpacked"
  97:Drivers/CMSIS/Include/cmsis_gcc.h ****   #pragma GCC diagnostic ignored "-Wattributes"
  98:Drivers/CMSIS/Include/cmsis_gcc.h ****   __PACKED_STRUCT T_UINT32_WRITE { uint32_t v; };
  99:Drivers/CMSIS/Include/cmsis_gcc.h ****   #pragma GCC diagnostic pop
 100:Drivers/CMSIS/Include/cmsis_gcc.h ****   #define __UNALIGNED_UINT32_WRITE(addr, val)    (void)((((struct T_UINT32_WRITE *)(void *)(addr))-
 101:Drivers/CMSIS/Include/cmsis_gcc.h **** #endif
 102:Drivers/CMSIS/Include/cmsis_gcc.h **** #ifndef   __UNALIGNED_UINT32_READ
 103:Drivers/CMSIS/Include/cmsis_gcc.h ****   #pragma GCC diagnostic push
 104:Drivers/CMSIS/Include/cmsis_gcc.h ****   #pragma GCC diagnostic ignored "-Wpacked"
 105:Drivers/CMSIS/Include/cmsis_gcc.h ****   #pragma GCC diagnostic ignored "-Wattributes"
 106:Drivers/CMSIS/Include/cmsis_gcc.h ****   __PACKED_STRUCT T_UINT32_READ { uint32_t v; };
 107:Drivers/CMSIS/Include/cmsis_gcc.h ****   #pragma GCC diagnostic pop
 108:Drivers/CMSIS/Include/cmsis_gcc.h ****   #define __UNALIGNED_UINT32_READ(addr)          (((const struct T_UINT32_READ *)(const void *)(add
 109:Drivers/CMSIS/Include/cmsis_gcc.h **** #endif
 110:Drivers/CMSIS/Include/cmsis_gcc.h **** #ifndef   __ALIGNED
 111:Drivers/CMSIS/Include/cmsis_gcc.h ****   #define __ALIGNED(x)                           __attribute__((aligned(x)))
 112:Drivers/CMSIS/Include/cmsis_gcc.h **** #endif
 113:Drivers/CMSIS/Include/cmsis_gcc.h **** #ifndef   __RESTRICT
 114:Drivers/CMSIS/Include/cmsis_gcc.h ****   #define __RESTRICT                             __restrict
 115:Drivers/CMSIS/Include/cmsis_gcc.h **** #endif
 116:Drivers/CMSIS/Include/cmsis_gcc.h **** 
 117:Drivers/CMSIS/Include/cmsis_gcc.h **** 
 118:Drivers/CMSIS/Include/cmsis_gcc.h **** /* ###########################  Core Function Access  ########################### */
 119:Drivers/CMSIS/Include/cmsis_gcc.h **** /** \ingroup  CMSIS_Core_FunctionInterface
 120:Drivers/CMSIS/Include/cmsis_gcc.h ****     \defgroup CMSIS_Core_RegAccFunctions CMSIS Core Register Access Functions
 121:Drivers/CMSIS/Include/cmsis_gcc.h ****   @{
 122:Drivers/CMSIS/Include/cmsis_gcc.h ****  */
 123:Drivers/CMSIS/Include/cmsis_gcc.h **** 
 124:Drivers/CMSIS/Include/cmsis_gcc.h **** /**
 125:Drivers/CMSIS/Include/cmsis_gcc.h ****   \brief   Enable IRQ Interrupts
 126:Drivers/CMSIS/Include/cmsis_gcc.h ****   \details Enables IRQ interrupts by clearing the I-bit in the CPSR.
 127:Drivers/CMSIS/Include/cmsis_gcc.h ****            Can only be executed in Privileged modes.
 128:Drivers/CMSIS/Include/cmsis_gcc.h ****  */
 129:Drivers/CMSIS/Include/cmsis_gcc.h **** __STATIC_FORCEINLINE void __enable_irq(void)
 130:Drivers/CMSIS/Include/cmsis_gcc.h **** {
 131:Drivers/CMSIS/Include/cmsis_gcc.h ****   __ASM volatile ("cpsie i" : : : "memory");
 132:Drivers/CMSIS/Include/cmsis_gcc.h **** }
 133:Drivers/CMSIS/Include/cmsis_gcc.h **** 
 134:Drivers/CMSIS/Include/cmsis_gcc.h **** 
 135:Drivers/CMSIS/Include/cmsis_gcc.h **** /**
 136:Drivers/CMSIS/Include/cmsis_gcc.h ****   \brief   Disable IRQ Interrupts
 137:Drivers/CMSIS/Include/cmsis_gcc.h ****   \details Disables IRQ interrupts by setting the I-bit in the CPSR.
 138:Drivers/CMSIS/Include/cmsis_gcc.h ****            Can only be executed in Privileged modes.
 139:Drivers/CMSIS/Include/cmsis_gcc.h ****  */
 140:Drivers/CMSIS/Include/cmsis_gcc.h **** __STATIC_FORCEINLINE void __disable_irq(void)
 4267              		.loc 2 140 27 view .LVU999
 4268              	.LBB10:
 141:Drivers/CMSIS/Include/cmsis_gcc.h **** {
 142:Drivers/CMSIS/Include/cmsis_gcc.h ****   __ASM volatile ("cpsid i" : : : "memory");
 4269              		.loc 2 142 3 view .LVU1000
 4270              		.syntax unified
 4271              	@ 142 "Drivers/CMSIS/Include/cmsis_gcc.h" 1
 4272 0000 72B6     		cpsid i
 4273              	@ 0 "" 2
 4274              		.thumb
 4275              		.syntax unified
ARM GAS  C:\Users\zhangjd\AppData\Local\Temp\cciTDb3B.s 			page 104


 4276              	.L263:
 4277              	.LBE10:
 4278              	.LBE9:
 999:Core/Src/main.c ****     while (1)
 4279              		.loc 1 999 5 discriminator 1 view .LVU1001
1000:Core/Src/main.c ****     {
1001:Core/Src/main.c ****     }
 4280              		.loc 1 1001 5 discriminator 1 view .LVU1002
 999:Core/Src/main.c ****     while (1)
 4281              		.loc 1 999 11 discriminator 1 view .LVU1003
 4282 0002 FEE7     		b	.L263
 4283              		.cfi_endproc
 4284              	.LFE86:
 4286              		.section	.text.SystemClock_Config,"ax",%progbits
 4287              		.align	1
 4288              		.global	SystemClock_Config
 4289              		.syntax unified
 4290              		.thumb
 4291              		.thumb_func
 4292              		.fpu softvfp
 4294              	SystemClock_Config:
 4295              	.LFB67:
 568:Core/Src/main.c ****     RCC_OscInitTypeDef RCC_OscInitStruct = {0};
 4296              		.loc 1 568 1 view -0
 4297              		.cfi_startproc
 4298              		@ args = 0, pretend = 0, frame = 64
 4299              		@ frame_needed = 0, uses_anonymous_args = 0
 4300 0000 00B5     		push	{lr}
 4301              	.LCFI26:
 4302              		.cfi_def_cfa_offset 4
 4303              		.cfi_offset 14, -4
 4304 0002 91B0     		sub	sp, sp, #68
 4305              	.LCFI27:
 4306              		.cfi_def_cfa_offset 72
 569:Core/Src/main.c ****     RCC_ClkInitTypeDef RCC_ClkInitStruct = {0};
 4307              		.loc 1 569 5 view .LVU1005
 569:Core/Src/main.c ****     RCC_ClkInitTypeDef RCC_ClkInitStruct = {0};
 4308              		.loc 1 569 24 is_stmt 0 view .LVU1006
 4309 0004 2822     		movs	r2, #40
 4310 0006 0021     		movs	r1, #0
 4311 0008 06A8     		add	r0, sp, #24
 4312 000a FFF7FEFF 		bl	memset
 4313              	.LVL475:
 570:Core/Src/main.c **** 
 4314              		.loc 1 570 5 is_stmt 1 view .LVU1007
 570:Core/Src/main.c **** 
 4315              		.loc 1 570 24 is_stmt 0 view .LVU1008
 4316 000e 0023     		movs	r3, #0
 4317 0010 0193     		str	r3, [sp, #4]
 4318 0012 0293     		str	r3, [sp, #8]
 4319 0014 0393     		str	r3, [sp, #12]
 4320 0016 0493     		str	r3, [sp, #16]
 4321 0018 0593     		str	r3, [sp, #20]
 575:Core/Src/main.c ****     RCC_OscInitStruct.HSEState = RCC_HSE_ON;
 4322              		.loc 1 575 5 is_stmt 1 view .LVU1009
 575:Core/Src/main.c ****     RCC_OscInitStruct.HSEState = RCC_HSE_ON;
 4323              		.loc 1 575 38 is_stmt 0 view .LVU1010
ARM GAS  C:\Users\zhangjd\AppData\Local\Temp\cciTDb3B.s 			page 105


 4324 001a 0122     		movs	r2, #1
 4325 001c 0692     		str	r2, [sp, #24]
 576:Core/Src/main.c ****     RCC_OscInitStruct.HSEPredivValue = RCC_HSE_PREDIV_DIV1;
 4326              		.loc 1 576 5 is_stmt 1 view .LVU1011
 576:Core/Src/main.c ****     RCC_OscInitStruct.HSEPredivValue = RCC_HSE_PREDIV_DIV1;
 4327              		.loc 1 576 32 is_stmt 0 view .LVU1012
 4328 001e 4FF48033 		mov	r3, #65536
 4329 0022 0793     		str	r3, [sp, #28]
 577:Core/Src/main.c ****     RCC_OscInitStruct.HSIState = RCC_HSI_ON;
 4330              		.loc 1 577 5 is_stmt 1 view .LVU1013
 578:Core/Src/main.c ****     RCC_OscInitStruct.PLL.PLLState = RCC_PLL_ON;
 4331              		.loc 1 578 5 view .LVU1014
 578:Core/Src/main.c ****     RCC_OscInitStruct.PLL.PLLState = RCC_PLL_ON;
 4332              		.loc 1 578 32 is_stmt 0 view .LVU1015
 4333 0024 0A92     		str	r2, [sp, #40]
 579:Core/Src/main.c ****     RCC_OscInitStruct.PLL.PLLSource = RCC_PLLSOURCE_HSE;
 4334              		.loc 1 579 5 is_stmt 1 view .LVU1016
 579:Core/Src/main.c ****     RCC_OscInitStruct.PLL.PLLSource = RCC_PLLSOURCE_HSE;
 4335              		.loc 1 579 36 is_stmt 0 view .LVU1017
 4336 0026 0222     		movs	r2, #2
 4337 0028 0D92     		str	r2, [sp, #52]
 580:Core/Src/main.c ****     RCC_OscInitStruct.PLL.PLLMUL = RCC_PLL_MUL9;
 4338              		.loc 1 580 5 is_stmt 1 view .LVU1018
 580:Core/Src/main.c ****     RCC_OscInitStruct.PLL.PLLMUL = RCC_PLL_MUL9;
 4339              		.loc 1 580 37 is_stmt 0 view .LVU1019
 4340 002a 0E93     		str	r3, [sp, #56]
 581:Core/Src/main.c ****     if (HAL_RCC_OscConfig(&RCC_OscInitStruct) != HAL_OK)
 4341              		.loc 1 581 5 is_stmt 1 view .LVU1020
 581:Core/Src/main.c ****     if (HAL_RCC_OscConfig(&RCC_OscInitStruct) != HAL_OK)
 4342              		.loc 1 581 34 is_stmt 0 view .LVU1021
 4343 002c 4FF4E013 		mov	r3, #1835008
 4344 0030 0F93     		str	r3, [sp, #60]
 582:Core/Src/main.c ****     {
 4345              		.loc 1 582 5 is_stmt 1 view .LVU1022
 582:Core/Src/main.c ****     {
 4346              		.loc 1 582 9 is_stmt 0 view .LVU1023
 4347 0032 06A8     		add	r0, sp, #24
 4348 0034 FFF7FEFF 		bl	HAL_RCC_OscConfig
 4349              	.LVL476:
 582:Core/Src/main.c ****     {
 4350              		.loc 1 582 8 view .LVU1024
 4351 0038 80B9     		cbnz	r0, .L268
 588:Core/Src/main.c ****     RCC_ClkInitStruct.SYSCLKSource = RCC_SYSCLKSOURCE_PLLCLK;
 4352              		.loc 1 588 5 is_stmt 1 view .LVU1025
 588:Core/Src/main.c ****     RCC_ClkInitStruct.SYSCLKSource = RCC_SYSCLKSOURCE_PLLCLK;
 4353              		.loc 1 588 33 is_stmt 0 view .LVU1026
 4354 003a 0F23     		movs	r3, #15
 4355 003c 0193     		str	r3, [sp, #4]
 589:Core/Src/main.c ****     RCC_ClkInitStruct.AHBCLKDivider = RCC_SYSCLK_DIV1;
 4356              		.loc 1 589 5 is_stmt 1 view .LVU1027
 589:Core/Src/main.c ****     RCC_ClkInitStruct.AHBCLKDivider = RCC_SYSCLK_DIV1;
 4357              		.loc 1 589 36 is_stmt 0 view .LVU1028
 4358 003e 0221     		movs	r1, #2
 4359 0040 0291     		str	r1, [sp, #8]
 590:Core/Src/main.c ****     RCC_ClkInitStruct.APB1CLKDivider = RCC_HCLK_DIV2;
 4360              		.loc 1 590 5 is_stmt 1 view .LVU1029
 590:Core/Src/main.c ****     RCC_ClkInitStruct.APB1CLKDivider = RCC_HCLK_DIV2;
ARM GAS  C:\Users\zhangjd\AppData\Local\Temp\cciTDb3B.s 			page 106


 4361              		.loc 1 590 37 is_stmt 0 view .LVU1030
 4362 0042 0023     		movs	r3, #0
 4363 0044 0393     		str	r3, [sp, #12]
 591:Core/Src/main.c ****     RCC_ClkInitStruct.APB2CLKDivider = RCC_HCLK_DIV1;
 4364              		.loc 1 591 5 is_stmt 1 view .LVU1031
 591:Core/Src/main.c ****     RCC_ClkInitStruct.APB2CLKDivider = RCC_HCLK_DIV1;
 4365              		.loc 1 591 38 is_stmt 0 view .LVU1032
 4366 0046 4FF48062 		mov	r2, #1024
 4367 004a 0492     		str	r2, [sp, #16]
 592:Core/Src/main.c **** 
 4368              		.loc 1 592 5 is_stmt 1 view .LVU1033
 592:Core/Src/main.c **** 
 4369              		.loc 1 592 38 is_stmt 0 view .LVU1034
 4370 004c 0593     		str	r3, [sp, #20]
 594:Core/Src/main.c ****     {
 4371              		.loc 1 594 5 is_stmt 1 view .LVU1035
 594:Core/Src/main.c ****     {
 4372              		.loc 1 594 9 is_stmt 0 view .LVU1036
 4373 004e 01A8     		add	r0, sp, #4
 4374 0050 FFF7FEFF 		bl	HAL_RCC_ClockConfig
 4375              	.LVL477:
 594:Core/Src/main.c ****     {
 4376              		.loc 1 594 8 view .LVU1037
 4377 0054 20B9     		cbnz	r0, .L269
 598:Core/Src/main.c **** 
 4378              		.loc 1 598 1 view .LVU1038
 4379 0056 11B0     		add	sp, sp, #68
 4380              	.LCFI28:
 4381              		.cfi_remember_state
 4382              		.cfi_def_cfa_offset 4
 4383              		@ sp needed
 4384 0058 5DF804FB 		ldr	pc, [sp], #4
 4385              	.L268:
 4386              	.LCFI29:
 4387              		.cfi_restore_state
 584:Core/Src/main.c ****     }
 4388              		.loc 1 584 9 is_stmt 1 view .LVU1039
 4389 005c FFF7FEFF 		bl	Error_Handler
 4390              	.LVL478:
 4391              	.L269:
 596:Core/Src/main.c ****     }
 4392              		.loc 1 596 9 view .LVU1040
 4393 0060 FFF7FEFF 		bl	Error_Handler
 4394              	.LVL479:
 4395              		.cfi_endproc
 4396              	.LFE67:
 4398              		.section	.text.main,"ax",%progbits
 4399              		.align	1
 4400              		.global	main
 4401              		.syntax unified
 4402              		.thumb
 4403              		.thumb_func
 4404              		.fpu softvfp
 4406              	main:
 4407              	.LFB66:
 468:Core/Src/main.c ****     /* USER CODE BEGIN 1 */
 4408              		.loc 1 468 1 view -0
ARM GAS  C:\Users\zhangjd\AppData\Local\Temp\cciTDb3B.s 			page 107


 4409              		.cfi_startproc
 4410              		@ Volatile: function does not return.
 4411              		@ args = 0, pretend = 0, frame = 0
 4412              		@ frame_needed = 0, uses_anonymous_args = 0
 4413 0000 08B5     		push	{r3, lr}
 4414              	.LCFI30:
 4415              		.cfi_def_cfa_offset 8
 4416              		.cfi_offset 3, -8
 4417              		.cfi_offset 14, -4
 475:Core/Src/main.c **** 
 4418              		.loc 1 475 5 view .LVU1042
 4419 0002 FFF7FEFF 		bl	HAL_Init
 4420              	.LVL480:
 478:Core/Src/main.c ****     SetBaud(115200);
 4421              		.loc 1 478 5 view .LVU1043
 4422 0006 654D     		ldr	r5, .L282
 4423 0008 2846     		mov	r0, r5
 4424 000a FFF7FEFF 		bl	jy62_Init
 4425              	.LVL481:
 479:Core/Src/main.c ****     SetHorizontal();
 4426              		.loc 1 479 5 view .LVU1044
 4427 000e 4FF4E130 		mov	r0, #115200
 4428 0012 FFF7FEFF 		bl	SetBaud
 4429              	.LVL482:
 480:Core/Src/main.c ****     InitAngle();
 4430              		.loc 1 480 5 view .LVU1045
 4431 0016 FFF7FEFF 		bl	SetHorizontal
 4432              	.LVL483:
 481:Core/Src/main.c ****     Calibrate();
 4433              		.loc 1 481 5 view .LVU1046
 4434 001a FFF7FEFF 		bl	InitAngle
 4435              	.LVL484:
 482:Core/Src/main.c ****     SleepOrAwake();
 4436              		.loc 1 482 5 view .LVU1047
 4437 001e FFF7FEFF 		bl	Calibrate
 4438              	.LVL485:
 483:Core/Src/main.c ****     /* USER CODE END Init */
 4439              		.loc 1 483 5 view .LVU1048
 4440 0022 FFF7FEFF 		bl	SleepOrAwake
 4441              	.LVL486:
 487:Core/Src/main.c **** 
 4442              		.loc 1 487 5 view .LVU1049
 4443 0026 FFF7FEFF 		bl	SystemClock_Config
 4444              	.LVL487:
 494:Core/Src/main.c ****     MX_TIM1_Init();
 4445              		.loc 1 494 5 view .LVU1050
 4446 002a FFF7FEFF 		bl	MX_GPIO_Init
 4447              	.LVL488:
 495:Core/Src/main.c ****     MX_TIM2_Init();
 4448              		.loc 1 495 5 view .LVU1051
 4449 002e FFF7FEFF 		bl	MX_TIM1_Init
 4450              	.LVL489:
 496:Core/Src/main.c ****     MX_TIM8_Init();
 4451              		.loc 1 496 5 view .LVU1052
 4452 0032 FFF7FEFF 		bl	MX_TIM2_Init
 4453              	.LVL490:
 497:Core/Src/main.c ****     MX_TIM3_Init();
ARM GAS  C:\Users\zhangjd\AppData\Local\Temp\cciTDb3B.s 			page 108


 4454              		.loc 1 497 5 view .LVU1053
 4455 0036 FFF7FEFF 		bl	MX_TIM8_Init
 4456              	.LVL491:
 498:Core/Src/main.c ****     MX_TIM4_Init();
 4457              		.loc 1 498 5 view .LVU1054
 4458 003a FFF7FEFF 		bl	MX_TIM3_Init
 4459              	.LVL492:
 499:Core/Src/main.c ****     MX_DMA_Init();
 4460              		.loc 1 499 5 view .LVU1055
 4461 003e FFF7FEFF 		bl	MX_TIM4_Init
 4462              	.LVL493:
 500:Core/Src/main.c ****     MX_USART2_UART_Init();
 4463              		.loc 1 500 5 view .LVU1056
 4464 0042 FFF7FEFF 		bl	MX_DMA_Init
 4465              	.LVL494:
 501:Core/Src/main.c ****     MX_USART1_UART_Init();
 4466              		.loc 1 501 5 view .LVU1057
 4467 0046 FFF7FEFF 		bl	MX_USART2_UART_Init
 4468              	.LVL495:
 502:Core/Src/main.c ****     MX_TIM5_Init();
 4469              		.loc 1 502 5 view .LVU1058
 4470 004a FFF7FEFF 		bl	MX_USART1_UART_Init
 4471              	.LVL496:
 503:Core/Src/main.c ****     /* USER CODE BEGIN 2 */
 4472              		.loc 1 503 5 view .LVU1059
 4473 004e FFF7FEFF 		bl	MX_TIM5_Init
 4474              	.LVL497:
 505:Core/Src/main.c ****     HAL_TIM_Base_Start_IT(&htim1);
 4475              		.loc 1 505 5 view .LVU1060
 4476 0052 5348     		ldr	r0, .L282+4
 4477 0054 FFF7FEFF 		bl	zigbee_Init
 4478              	.LVL498:
 506:Core/Src/main.c ****     HAL_TIM_PWM_Start(&htim8, TIM_CHANNEL_1);
 4479              		.loc 1 506 5 view .LVU1061
 4480 0058 5248     		ldr	r0, .L282+8
 4481 005a FFF7FEFF 		bl	HAL_TIM_Base_Start_IT
 4482              	.LVL499:
 507:Core/Src/main.c ****     HAL_TIM_PWM_Start(&htim8, TIM_CHANNEL_2);
 4483              		.loc 1 507 5 view .LVU1062
 4484 005e 524C     		ldr	r4, .L282+12
 4485 0060 0021     		movs	r1, #0
 4486 0062 2046     		mov	r0, r4
 4487 0064 FFF7FEFF 		bl	HAL_TIM_PWM_Start
 4488              	.LVL500:
 508:Core/Src/main.c ****     HAL_TIM_PWM_Start(&htim8, TIM_CHANNEL_3);
 4489              		.loc 1 508 5 view .LVU1063
 4490 0068 0421     		movs	r1, #4
 4491 006a 2046     		mov	r0, r4
 4492 006c FFF7FEFF 		bl	HAL_TIM_PWM_Start
 4493              	.LVL501:
 509:Core/Src/main.c ****     HAL_TIM_PWM_Start(&htim8, TIM_CHANNEL_4);
 4494              		.loc 1 509 5 view .LVU1064
 4495 0070 0821     		movs	r1, #8
 4496 0072 2046     		mov	r0, r4
 4497 0074 FFF7FEFF 		bl	HAL_TIM_PWM_Start
 4498              	.LVL502:
 510:Core/Src/main.c ****     HAL_TIM_Encoder_Start(&htim2, TIM_CHANNEL_1);
ARM GAS  C:\Users\zhangjd\AppData\Local\Temp\cciTDb3B.s 			page 109


 4499              		.loc 1 510 5 view .LVU1065
 4500 0078 0C21     		movs	r1, #12
 4501 007a 2046     		mov	r0, r4
 4502 007c FFF7FEFF 		bl	HAL_TIM_PWM_Start
 4503              	.LVL503:
 511:Core/Src/main.c ****     HAL_TIM_Encoder_Start(&htim2, TIM_CHANNEL_2);
 4504              		.loc 1 511 5 view .LVU1066
 4505 0080 4A4C     		ldr	r4, .L282+16
 4506 0082 0021     		movs	r1, #0
 4507 0084 2046     		mov	r0, r4
 4508 0086 FFF7FEFF 		bl	HAL_TIM_Encoder_Start
 4509              	.LVL504:
 512:Core/Src/main.c ****     HAL_TIM_Encoder_Start(&htim3, TIM_CHANNEL_1);
 4510              		.loc 1 512 5 view .LVU1067
 4511 008a 0421     		movs	r1, #4
 4512 008c 2046     		mov	r0, r4
 4513 008e FFF7FEFF 		bl	HAL_TIM_Encoder_Start
 4514              	.LVL505:
 513:Core/Src/main.c ****     HAL_TIM_Encoder_Start(&htim3, TIM_CHANNEL_2);
 4515              		.loc 1 513 5 view .LVU1068
 4516 0092 474C     		ldr	r4, .L282+20
 4517 0094 0021     		movs	r1, #0
 4518 0096 2046     		mov	r0, r4
 4519 0098 FFF7FEFF 		bl	HAL_TIM_Encoder_Start
 4520              	.LVL506:
 514:Core/Src/main.c ****     HAL_TIM_Encoder_Start(&htim4, TIM_CHANNEL_1);
 4521              		.loc 1 514 5 view .LVU1069
 4522 009c 0421     		movs	r1, #4
 4523 009e 2046     		mov	r0, r4
 4524 00a0 FFF7FEFF 		bl	HAL_TIM_Encoder_Start
 4525              	.LVL507:
 515:Core/Src/main.c ****     HAL_TIM_Encoder_Start(&htim4, TIM_CHANNEL_2);
 4526              		.loc 1 515 5 view .LVU1070
 4527 00a4 434C     		ldr	r4, .L282+24
 4528 00a6 0021     		movs	r1, #0
 4529 00a8 2046     		mov	r0, r4
 4530 00aa FFF7FEFF 		bl	HAL_TIM_Encoder_Start
 4531              	.LVL508:
 516:Core/Src/main.c ****     HAL_TIM_Encoder_Start(&htim5, TIM_CHANNEL_1);
 4532              		.loc 1 516 5 view .LVU1071
 4533 00ae 0421     		movs	r1, #4
 4534 00b0 2046     		mov	r0, r4
 4535 00b2 FFF7FEFF 		bl	HAL_TIM_Encoder_Start
 4536              	.LVL509:
 517:Core/Src/main.c ****     HAL_TIM_Encoder_Start(&htim5, TIM_CHANNEL_2);
 4537              		.loc 1 517 5 view .LVU1072
 4538 00b6 404C     		ldr	r4, .L282+28
 4539 00b8 0021     		movs	r1, #0
 4540 00ba 2046     		mov	r0, r4
 4541 00bc FFF7FEFF 		bl	HAL_TIM_Encoder_Start
 4542              	.LVL510:
 518:Core/Src/main.c ****     jy62_Init(&huart2);
 4543              		.loc 1 518 5 view .LVU1073
 4544 00c0 0421     		movs	r1, #4
 4545 00c2 2046     		mov	r0, r4
 4546 00c4 FFF7FEFF 		bl	HAL_TIM_Encoder_Start
 4547              	.LVL511:
ARM GAS  C:\Users\zhangjd\AppData\Local\Temp\cciTDb3B.s 			page 110


 519:Core/Src/main.c ****     void jy62_Init(UART_HandleTypeDef * huart);
 4548              		.loc 1 519 5 view .LVU1074
 4549 00c8 2846     		mov	r0, r5
 4550 00ca FFF7FEFF 		bl	jy62_Init
 4551              	.LVL512:
 520:Core/Src/main.c **** 
 4552              		.loc 1 520 5 view .LVU1075
 522:Core/Src/main.c ****     HAL_GPIO_WritePin(GPIOB, GPIO_PIN_1, GPIO_PIN_RESET);
 4553              		.loc 1 522 5 view .LVU1076
 4554 00ce 3B4C     		ldr	r4, .L282+32
 4555 00d0 0122     		movs	r2, #1
 4556 00d2 1146     		mov	r1, r2
 4557 00d4 2046     		mov	r0, r4
 4558 00d6 FFF7FEFF 		bl	HAL_GPIO_WritePin
 4559              	.LVL513:
 523:Core/Src/main.c ****     HAL_GPIO_WritePin(GPIOB, GPIO_PIN_2, GPIO_PIN_RESET);
 4560              		.loc 1 523 5 view .LVU1077
 4561 00da 0022     		movs	r2, #0
 4562 00dc 0221     		movs	r1, #2
 4563 00de 2046     		mov	r0, r4
 4564 00e0 FFF7FEFF 		bl	HAL_GPIO_WritePin
 4565              	.LVL514:
 524:Core/Src/main.c ****     HAL_GPIO_WritePin(GPIOB, GPIO_PIN_10, GPIO_PIN_SET);
 4566              		.loc 1 524 5 view .LVU1078
 4567 00e4 0022     		movs	r2, #0
 4568 00e6 0421     		movs	r1, #4
 4569 00e8 2046     		mov	r0, r4
 4570 00ea FFF7FEFF 		bl	HAL_GPIO_WritePin
 4571              	.LVL515:
 525:Core/Src/main.c ****     HAL_GPIO_WritePin(GPIOB, GPIO_PIN_11, GPIO_PIN_SET);
 4572              		.loc 1 525 5 view .LVU1079
 4573 00ee 0122     		movs	r2, #1
 4574 00f0 4FF48061 		mov	r1, #1024
 4575 00f4 2046     		mov	r0, r4
 4576 00f6 FFF7FEFF 		bl	HAL_GPIO_WritePin
 4577              	.LVL516:
 526:Core/Src/main.c ****     HAL_GPIO_WritePin(GPIOB, GPIO_PIN_12, GPIO_PIN_RESET);
 4578              		.loc 1 526 5 view .LVU1080
 4579 00fa 0122     		movs	r2, #1
 4580 00fc 4FF40061 		mov	r1, #2048
 4581 0100 2046     		mov	r0, r4
 4582 0102 FFF7FEFF 		bl	HAL_GPIO_WritePin
 4583              	.LVL517:
 527:Core/Src/main.c ****     HAL_GPIO_WritePin(GPIOB, GPIO_PIN_13, GPIO_PIN_RESET);
 4584              		.loc 1 527 5 view .LVU1081
 4585 0106 0022     		movs	r2, #0
 4586 0108 4FF48051 		mov	r1, #4096
 4587 010c 2046     		mov	r0, r4
 4588 010e FFF7FEFF 		bl	HAL_GPIO_WritePin
 4589              	.LVL518:
 528:Core/Src/main.c ****     HAL_GPIO_WritePin(GPIOB, GPIO_PIN_14, GPIO_PIN_SET);
 4590              		.loc 1 528 5 view .LVU1082
 4591 0112 0022     		movs	r2, #0
 4592 0114 4FF40051 		mov	r1, #8192
 4593 0118 2046     		mov	r0, r4
 4594 011a FFF7FEFF 		bl	HAL_GPIO_WritePin
 4595              	.LVL519:
ARM GAS  C:\Users\zhangjd\AppData\Local\Temp\cciTDb3B.s 			page 111


 529:Core/Src/main.c ****     /* USER CODE END 2 */
 4596              		.loc 1 529 5 view .LVU1083
 4597 011e 0122     		movs	r2, #1
 4598 0120 4FF48041 		mov	r1, #16384
 4599 0124 2046     		mov	r0, r4
 4600 0126 FFF7FEFF 		bl	HAL_GPIO_WritePin
 4601              	.LVL520:
 4602 012a 07E0     		b	.L274
 4603              	.L272:
 545:Core/Src/main.c ****         {
 4604              		.loc 1 545 9 view .LVU1084
 545:Core/Src/main.c ****         {
 4605              		.loc 1 545 14 is_stmt 0 view .LVU1085
 4606 012c FFF7FEFF 		bl	getGameState
 4607              	.LVL521:
 545:Core/Src/main.c ****         {
 4608              		.loc 1 545 12 view .LVU1086
 4609 0130 0128     		cmp	r0, #1
 4610 0132 0CD0     		beq	.L279
 4611              	.L273:
 549:Core/Src/main.c ****         {
 4612              		.loc 1 549 9 is_stmt 1 view .LVU1087
 549:Core/Src/main.c ****         {
 4613              		.loc 1 549 14 is_stmt 0 view .LVU1088
 4614 0134 FFF7FEFF 		bl	getGameState
 4615              	.LVL522:
 549:Core/Src/main.c ****         {
 4616              		.loc 1 549 12 view .LVU1089
 4617 0138 0128     		cmp	r0, #1
 4618 013a 14D0     		beq	.L280
 4619              	.L274:
 534:Core/Src/main.c ****     {
 4620              		.loc 1 534 5 is_stmt 1 view .LVU1090
 541:Core/Src/main.c ****         {
 4621              		.loc 1 541 9 view .LVU1091
 541:Core/Src/main.c ****         {
 4622              		.loc 1 541 13 is_stmt 0 view .LVU1092
 4623 013c FFF7FEFF 		bl	getGameState
 4624              	.LVL523:
 541:Core/Src/main.c ****         {
 4625              		.loc 1 541 12 view .LVU1093
 4626 0140 0328     		cmp	r0, #3
 4627 0142 F3D1     		bne	.L272
 543:Core/Src/main.c ****         }
 4628              		.loc 1 543 13 is_stmt 1 view .LVU1094
 543:Core/Src/main.c ****         }
 4629              		.loc 1 543 19 is_stmt 0 view .LVU1095
 4630 0144 1E4B     		ldr	r3, .L282+36
 4631 0146 4FF0FF32 		mov	r2, #-1
 4632 014a 1A60     		str	r2, [r3]
 4633 014c EEE7     		b	.L272
 4634              	.L279:
 545:Core/Src/main.c ****         {
 4635              		.loc 1 545 39 discriminator 1 view .LVU1096
 4636 014e FFF7FEFF 		bl	getCarTask
 4637              	.LVL524:
 545:Core/Src/main.c ****         {
ARM GAS  C:\Users\zhangjd\AppData\Local\Temp\cciTDb3B.s 			page 112


 4638              		.loc 1 545 35 discriminator 1 view .LVU1097
 4639 0152 0028     		cmp	r0, #0
 4640 0154 EED1     		bne	.L273
 545:Core/Src/main.c ****         {
 4641              		.loc 1 545 68 discriminator 2 view .LVU1098
 4642 0156 1A4B     		ldr	r3, .L282+36
 4643 0158 1B68     		ldr	r3, [r3]
 545:Core/Src/main.c ****         {
 4644              		.loc 1 545 58 discriminator 2 view .LVU1099
 4645 015a 002B     		cmp	r3, #0
 4646 015c EADA     		bge	.L273
 547:Core/Src/main.c ****         }
 4647              		.loc 1 547 13 is_stmt 1 view .LVU1100
 547:Core/Src/main.c ****         }
 4648              		.loc 1 547 19 is_stmt 0 view .LVU1101
 4649 015e 184B     		ldr	r3, .L282+36
 4650 0160 0022     		movs	r2, #0
 4651 0162 1A60     		str	r2, [r3]
 4652 0164 E6E7     		b	.L273
 4653              	.L280:
 549:Core/Src/main.c ****         {
 4654              		.loc 1 549 39 discriminator 1 view .LVU1102
 4655 0166 FFF7FEFF 		bl	getCarTask
 4656              	.LVL525:
 549:Core/Src/main.c ****         {
 4657              		.loc 1 549 35 discriminator 1 view .LVU1103
 4658 016a 0128     		cmp	r0, #1
 4659 016c E6D1     		bne	.L274
 551:Core/Src/main.c ****             {
 4660              		.loc 1 551 13 is_stmt 1 view .LVU1104
 551:Core/Src/main.c ****             {
 4661              		.loc 1 551 23 is_stmt 0 view .LVU1105
 4662 016e 144B     		ldr	r3, .L282+36
 4663 0170 1B68     		ldr	r3, [r3]
 551:Core/Src/main.c ****             {
 4664              		.loc 1 551 16 view .LVU1106
 4665 0172 092B     		cmp	r3, #9
 4666 0174 0CDD     		ble	.L281
 4667              	.L276:
 556:Core/Src/main.c ****                 State = 12;
 4668              		.loc 1 556 13 is_stmt 1 view .LVU1107
 556:Core/Src/main.c ****                 State = 12;
 4669              		.loc 1 556 18 is_stmt 0 view .LVU1108
 4670 0176 FFF7FEFF 		bl	getGameTime
 4671              	.LVL526:
 556:Core/Src/main.c ****                 State = 12;
 4672              		.loc 1 556 16 view .LVU1109
 4673 017a B0F57A7F 		cmp	r0, #1000
 4674 017e DDD9     		bls	.L274
 556:Core/Src/main.c ****                 State = 12;
 4675              		.loc 1 556 50 discriminator 1 view .LVU1110
 4676 0180 0F4B     		ldr	r3, .L282+36
 4677 0182 1B68     		ldr	r3, [r3]
 556:Core/Src/main.c ****                 State = 12;
 4678              		.loc 1 556 40 discriminator 1 view .LVU1111
 4679 0184 0B2B     		cmp	r3, #11
 4680 0186 D9DC     		bgt	.L274
ARM GAS  C:\Users\zhangjd\AppData\Local\Temp\cciTDb3B.s 			page 113


 557:Core/Src/main.c ****         }
 4681              		.loc 1 557 17 is_stmt 1 view .LVU1112
 557:Core/Src/main.c ****         }
 4682              		.loc 1 557 23 is_stmt 0 view .LVU1113
 4683 0188 0D4B     		ldr	r3, .L282+36
 4684 018a 0C22     		movs	r2, #12
 4685 018c 1A60     		str	r2, [r3]
 4686 018e D5E7     		b	.L274
 4687              	.L281:
 553:Core/Src/main.c ****                 Sol_Car_Pos_INIT();
 4688              		.loc 1 553 17 is_stmt 1 view .LVU1114
 553:Core/Src/main.c ****                 Sol_Car_Pos_INIT();
 4689              		.loc 1 553 23 is_stmt 0 view .LVU1115
 4690 0190 0B4B     		ldr	r3, .L282+36
 4691 0192 0A22     		movs	r2, #10
 4692 0194 1A60     		str	r2, [r3]
 554:Core/Src/main.c ****             }
 4693              		.loc 1 554 17 is_stmt 1 view .LVU1116
 4694 0196 FFF7FEFF 		bl	Sol_Car_Pos_INIT
 4695              	.LVL527:
 4696 019a ECE7     		b	.L276
 4697              	.L283:
 4698              		.align	2
 4699              	.L282:
 4700 019c 00000000 		.word	huart2
 4701 01a0 00000000 		.word	huart1
 4702 01a4 00000000 		.word	htim1
 4703 01a8 00000000 		.word	htim8
 4704 01ac 00000000 		.word	htim2
 4705 01b0 00000000 		.word	htim3
 4706 01b4 00000000 		.word	htim4
 4707 01b8 00000000 		.word	htim5
 4708 01bc 000C0140 		.word	1073810432
 4709 01c0 00000000 		.word	.LANCHOR15
 4710              		.cfi_endproc
 4711              	.LFE66:
 4713              		.global	state
 4714              		.global	Kd
 4715              		.global	Ki
 4716              		.global	Kp
 4717              		.global	ATAN_LUT
 4718              		.global	speed4
 4719              		.global	speed3
 4720              		.global	speed2
 4721              		.global	speed1
 4722              		.global	rotate_pwm
 4723              		.global	current_Res
 4724              		.global	count_rep
 4725              		.global	prev_type
 4726              		.global	destination
 4727              		.global	State
 4728              		.global	rep
 4729              		.global	dis_pre
 4730              		.global	dis_cur
 4731              		.global	goto_state
 4732              		.global	now
 4733              		.global	count_storehouse
ARM GAS  C:\Users\zhangjd\AppData\Local\Temp\cciTDb3B.s 			page 114


 4734              		.global	count_beacon
 4735              		.global	count_pos
 4736              		.global	score
 4737              		.global	resource_location
 4738              		.global	Prev_Pos_head
 4739              		.global	Prev_Pos
 4740              		.global	beacon_determinant
 4741              		.global	car_Pos
 4742              		.global	beacon_Pos
 4743              		.global	car_y
 4744              		.global	car_x
 4745              		.global	obj_y
 4746              		.global	obj_x
 4747              		.global	dis_obj
 4748              		.global	angle_obj
 4749              		.global	distance4
 4750              		.global	distance3
 4751              		.global	distance2
 4752              		.global	distance1
 4753              		.section	.bss.Prev_Pos,"aw",%nobits
 4754              		.align	2
 4755              		.set	.LANCHOR17,. + 0
 4758              	Prev_Pos:
 4759 0000 00000000 		.space	36
 4759      00000000 
 4759      00000000 
 4759      00000000 
 4759      00000000 
 4760              		.section	.bss.Prev_Pos_head,"aw",%nobits
 4761              		.align	1
 4762              		.set	.LANCHOR19,. + 0
 4765              	Prev_Pos_head:
 4766 0000 0000     		.space	2
 4767              		.section	.bss.angle_obj,"aw",%nobits
 4768              		.align	2
 4771              	angle_obj:
 4772 0000 00000000 		.space	4
 4773              		.section	.bss.beacon_Pos,"aw",%nobits
 4774              		.align	2
 4775              		.set	.LANCHOR2,. + 0
 4778              	beacon_Pos:
 4779 0000 00000000 		.space	24
 4779      00000000 
 4779      00000000 
 4779      00000000 
 4779      00000000 
 4780              		.section	.bss.beacon_determinant,"aw",%nobits
 4781              		.align	3
 4782              		.set	.LANCHOR3,. + 0
 4785              	beacon_determinant:
 4786 0000 00000000 		.space	8
 4786      00000000 
 4787              		.section	.bss.car_Pos,"aw",%nobits
 4788              		.align	2
 4789              		.set	.LANCHOR4,. + 0
 4792              	car_Pos:
 4793 0000 00000000 		.space	8
ARM GAS  C:\Users\zhangjd\AppData\Local\Temp\cciTDb3B.s 			page 115


 4793      00000000 
 4794              		.section	.bss.car_x,"aw",%nobits
 4795              		.align	2
 4798              	car_x:
 4799 0000 00000000 		.space	4
 4800              		.section	.bss.car_y,"aw",%nobits
 4801              		.align	2
 4804              	car_y:
 4805 0000 00000000 		.space	4
 4806              		.section	.bss.count_beacon,"aw",%nobits
 4807              		.align	2
 4808              		.set	.LANCHOR20,. + 0
 4811              	count_beacon:
 4812 0000 00000000 		.space	4
 4813              		.section	.bss.count_pos,"aw",%nobits
 4814              		.align	2
 4815              		.set	.LANCHOR16,. + 0
 4818              	count_pos:
 4819 0000 00000000 		.space	4
 4820              		.section	.bss.count_rep,"aw",%nobits
 4821              		.align	2
 4822              		.set	.LANCHOR22,. + 0
 4825              	count_rep:
 4826 0000 00000000 		.space	4
 4827              		.section	.bss.count_storehouse,"aw",%nobits
 4828              		.align	2
 4831              	count_storehouse:
 4832 0000 00000000 		.space	4
 4833              		.section	.bss.current_Res,"aw",%nobits
 4834              		.align	2
 4835              		.set	.LANCHOR21,. + 0
 4838              	current_Res:
 4839 0000 00000000 		.space	4
 4840              		.section	.bss.destination,"aw",%nobits
 4841              		.align	2
 4842              		.set	.LANCHOR10,. + 0
 4845              	destination:
 4846 0000 00000000 		.space	8
 4846      00000000 
 4847              		.section	.bss.dis_cur,"aw",%nobits
 4848              		.align	2
 4849              		.set	.LANCHOR6,. + 0
 4852              	dis_cur:
 4853 0000 00000000 		.space	4
 4854              		.section	.bss.dis_obj,"aw",%nobits
 4855              		.align	2
 4858              	dis_obj:
 4859 0000 00000000 		.space	4
 4860              		.section	.bss.dis_pre,"aw",%nobits
 4861              		.align	2
 4862              		.set	.LANCHOR7,. + 0
 4865              	dis_pre:
 4866 0000 00000000 		.space	4
 4867              		.section	.bss.distance1,"aw",%nobits
 4868              		.align	2
 4871              	distance1:
 4872 0000 00000000 		.space	4
ARM GAS  C:\Users\zhangjd\AppData\Local\Temp\cciTDb3B.s 			page 116


 4873              		.section	.bss.distance2,"aw",%nobits
 4874              		.align	2
 4877              	distance2:
 4878 0000 00000000 		.space	4
 4879              		.section	.bss.distance3,"aw",%nobits
 4880              		.align	2
 4883              	distance3:
 4884 0000 00000000 		.space	4
 4885              		.section	.bss.distance4,"aw",%nobits
 4886              		.align	2
 4889              	distance4:
 4890 0000 00000000 		.space	4
 4891              		.section	.bss.goto_state,"aw",%nobits
 4892              		.align	2
 4893              		.set	.LANCHOR5,. + 0
 4896              	goto_state:
 4897 0000 00000000 		.space	4
 4898              		.section	.bss.now,"aw",%nobits
 4899              		.align	1
 4902              	now:
 4903 0000 0000     		.space	2
 4904              		.section	.bss.obj_x,"aw",%nobits
 4905              		.align	2
 4908              	obj_x:
 4909 0000 00000000 		.space	4
 4910              		.section	.bss.obj_y,"aw",%nobits
 4911              		.align	2
 4914              	obj_y:
 4915 0000 00000000 		.space	4
 4916              		.section	.bss.prev_type,"aw",%nobits
 4917              		.align	2
 4918              		.set	.LANCHOR8,. + 0
 4921              	prev_type:
 4922 0000 00000000 		.space	4
 4923              		.section	.bss.rotate_pwm,"aw",%nobits
 4924              		.align	2
 4925              		.set	.LANCHOR23,. + 0
 4928              	rotate_pwm:
 4929 0000 00000000 		.space	16
 4929      00000000 
 4929      00000000 
 4929      00000000 
 4930              		.section	.bss.score,"aw",%nobits
 4931              		.align	2
 4934              	score:
 4935 0000 00000000 		.space	4
 4936              		.section	.bss.speed1,"aw",%nobits
 4937              		.align	2
 4938              		.set	.LANCHOR11,. + 0
 4941              	speed1:
 4942 0000 00000000 		.space	4
 4943              		.section	.bss.speed2,"aw",%nobits
 4944              		.align	2
 4945              		.set	.LANCHOR12,. + 0
 4948              	speed2:
 4949 0000 00000000 		.space	4
 4950              		.section	.bss.speed3,"aw",%nobits
ARM GAS  C:\Users\zhangjd\AppData\Local\Temp\cciTDb3B.s 			page 117


 4951              		.align	2
 4952              		.set	.LANCHOR13,. + 0
 4955              	speed3:
 4956 0000 00000000 		.space	4
 4957              		.section	.bss.speed4,"aw",%nobits
 4958              		.align	2
 4959              		.set	.LANCHOR14,. + 0
 4962              	speed4:
 4963 0000 00000000 		.space	4
 4964              		.section	.bss.state,"aw",%nobits
 4965              		.align	2
 4966              		.set	.LANCHOR0,. + 0
 4969              	state:
 4970 0000 00000000 		.space	12
 4970      00000000 
 4970      00000000 
 4971              		.section	.data.State,"aw"
 4972              		.align	2
 4973              		.set	.LANCHOR15,. + 0
 4976              	State:
 4977 0000 FFFFFFFF 		.word	-1
 4978              		.section	.data.rep,"aw"
 4979              		.align	2
 4980              		.set	.LANCHOR9,. + 0
 4983              	rep:
 4984 0000 0F000000 		.word	15
 4985 0004 0F000000 		.word	15
 4986 0008 7F000000 		.word	127
 4987 000c 0F000000 		.word	15
 4988 0010 EF000000 		.word	239
 4989 0014 7F000000 		.word	127
 4990 0018 EF000000 		.word	239
 4991 001c EF000000 		.word	239
 4992 0020 7F000000 		.word	127
 4993 0024 EF000000 		.word	239
 4994 0028 0F000000 		.word	15
 4995 002c EF000000 		.word	239
 4996 0030 0F000000 		.word	15
 4997 0034 7F000000 		.word	127
 4998 0038 00000000 		.space	8
 4998      00000000 
 4999              		.section	.data.resource_location,"aw"
 5000              		.align	2
 5001              		.set	.LANCHOR18,. + 0
 5004              	resource_location:
 5005 0000 FFFFFFFF 		.word	-1
 5006 0004 FFFFFFFF 		.word	-1
 5007 0008 FFFFFFFF 		.word	-1
 5008 000c FFFFFFFF 		.word	-1
 5009 0010 00000000 		.word	0
 5010 0014 FFFFFFFF 		.word	-1
 5011              		.section	.rodata.ATAN_LUT,"a"
 5012              		.align	3
 5013              		.set	.LANCHOR1,. + 0
 5016              	ATAN_LUT:
 5017 0000 00000000 		.word	0
 5018 0004 00000000 		.word	0
ARM GAS  C:\Users\zhangjd\AppData\Local\Temp\cciTDb3B.s 			page 118


 5019 0008 5433EAA8 		.word	-1461046444
 5020 000c 0A10703F 		.word	1064308746
 5021 0010 CC612179 		.word	2032230860
 5022 0014 FA0F803F 		.word	1065357306
 5023 0018 DF063C3E 		.word	1044121311
 5024 001c CF17883F 		.word	1065883599
 5025 0020 AAE9B5BB 		.word	-1145706070
 5026 0024 B90F903F 		.word	1066405817
 5027 0028 D1C82B7C 		.word	2083244241
 5028 002c 6B13943F 		.word	1066668907
 5029 0030 1E0653CA 		.word	-900528610
 5030 0034 F416983F 		.word	1066931956
 5031 0038 C2702695 		.word	-1792642878
 5032 003c 4D1A9C3F 		.word	1067194957
 5033 0040 F752ACE6 		.word	-424914185
 5034 0044 B60EA03F 		.word	1067454134
 5035 0048 6808AAB2 		.word	-1297479576
 5036 004c 2610A23F 		.word	1067585574
 5037 0050 4A759D28 		.word	681407818
 5038 0054 7211A43F 		.word	1067716978
 5039 0058 2D520746 		.word	1174884909
 5040 005c 9512A63F 		.word	1067848341
 5041 0060 A3576808 		.word	141055907
 5042 0064 8C13A83F 		.word	1067979660
 5043 0068 36C18C71 		.word	1905049910
 5044 006c 5214AA3F 		.word	1068110930
 5045 0070 73E36482 		.word	-2107317389
 5046 0074 E414AC3F 		.word	1068242148
 5047 0078 DE63E441 		.word	1105486814
 5048 007c 3E15AE3F 		.word	1068373310
 5049 0080 FD737FDB 		.word	-612404227
 5050 0084 AD0AB03F 		.word	1068501677
 5051 0088 22CC7976 		.word	1987693602
 5052 008c 9C0AB13F 		.word	1068567196
 5053 0090 9DB55CF8 		.word	-128141923
 5054 0094 680AB23F 		.word	1068632680
 5055 0098 286DC969 		.word	1774808360
 5056 009c 110AB33F 		.word	1068698129
 5057 00a0 FC09ABD4 		.word	-726988292
 5058 00a4 9309B43F 		.word	1068763539
 5059 00a8 4E588045 		.word	1166039118
 5060 00ac EE08B53F 		.word	1068828910
 5061 00b0 D41736C9 		.word	-919201836
 5062 00b4 1E08B63F 		.word	1068894238
 5063 00b8 BDB0BA6F 		.word	1874505917
 5064 00bc 2307B73F 		.word	1068959523
 5065 00c0 B84C224B 		.word	1260539064
 5066 00c4 FA05B83F 		.word	1069024762
 5067 00c8 6FE3386F 		.word	1865999215
 5068 00cc A104B93F 		.word	1069089953
 5069 00d0 0D4714F1 		.word	-250329331
 5070 00d4 1603BA3F 		.word	1069155094
 5071 00d8 B5CC15EA 		.word	-367670091
 5072 00dc 5801BB3F 		.word	1069220184
 5073 00e0 88B07A74 		.word	1954197640
 5074 00e4 65FFBB3F 		.word	1069285221
 5075 00e8 A6E313AD 		.word	-1391205466
ARM GAS  C:\Users\zhangjd\AppData\Local\Temp\cciTDb3B.s 			page 119


 5076 00ec 3AFDBC3F 		.word	1069350202
 5077 00f0 29F321B4 		.word	-1272843479
 5078 00f4 D6FABD3F 		.word	1069415126
 5079 00f8 A9462FAB 		.word	-1422965079
 5080 00fc 37F8BE3F 		.word	1069479991
 5081 0100 1832D5CE 		.word	-824888808
 5082 0104 5BF5BF3F 		.word	1069544795
 5083 0108 34B81880 		.word	-2145863628
 5084 010c 2079C03F 		.word	1069578528
 5085 0110 22B021D8 		.word	-668880862
 5086 0114 72F7C03F 		.word	1069610866
 5087 0118 695D7EFA 		.word	-92381847
 5088 011c A375C13F 		.word	1069643171
 5089 0120 4C1F41FF 		.word	-12509364
 5090 0124 B2F3C13F 		.word	1069675442
 5091 0128 CA1C6B00 		.word	7019722
 5092 012c 9F71C23F 		.word	1069707679
 5093 0130 216AA218 		.word	413297185
 5094 0134 67EFC23F 		.word	1069739879
 5095 0138 4CCA5765 		.word	1700252236
 5096 013c 0A6DC33F 		.word	1069772042
 5097 0140 43E7D704 		.word	81258307
 5098 0144 88EAC33F 		.word	1069804168
 5099 0148 3F3FF016 		.word	384843583
 5100 014c DF67C43F 		.word	1069836255
 5101 0150 730502BE 		.word	-1107163789
 5102 0154 0EE5C43F 		.word	1069868302
 5103 0158 525A131D 		.word	487807570
 5104 015c 1662C53F 		.word	1069900310
 5105 0160 4A13BE59 		.word	1505629002
 5106 0164 F4DEC53F 		.word	1069932276
 5107 0168 09DA1C9B 		.word	-1692607991
 5108 016c A85BC63F 		.word	1069964200
 5109 0170 3A26020A 		.word	167913018
 5110 0174 32D8C63F 		.word	1069996082
 5111 0178 843DF8D0 		.word	-789037692
 5112 017c 8F54C73F 		.word	1070027919
 5113 0180 CE20E61C 		.word	484843726
 5114 0184 C1D0C73F 		.word	1070059713
 5115 0188 F99E6A1C 		.word	476749561
 5116 018c C54CC83F 		.word	1070091461
 5117 0190 275BA5FF 		.word	-5940441
 5118 0194 9AC8C83F 		.word	1070123162
 5119 0198 F4B9DBF8 		.word	-119817740
 5120 019c 4144C93F 		.word	1070154817
 5121 01a0 FBD4E63C 		.word	1021760763
 5122 01a4 B9BFC93F 		.word	1070186425
 5123 01a8 53A0E901 		.word	32088147
 5124 01ac 003BCA3F 		.word	1070217984
 5125 01b0 93D12C80 		.word	-2144546413
 5126 01b4 15B6CA3F 		.word	1070249493
 5127 01b8 8DD955F2 		.word	-229254771
 5128 01bc F830CB3F 		.word	1070280952
 5129 01c0 0EF7C194 		.word	-1799227634
 5130 01c4 A9ABCB3F 		.word	1070312361
 5131 01c8 662AF4A5 		.word	-1510725018
 5132 01cc 2626CC3F 		.word	1070343718
ARM GAS  C:\Users\zhangjd\AppData\Local\Temp\cciTDb3B.s 			page 120


 5133 01d0 DB280367 		.word	1728260315
 5134 01d4 6FA0CC3F 		.word	1070375023
 5135 01d8 36824F1A 		.word	441418294
 5136 01dc 831ACD3F 		.word	1070406275
 5137 01e0 FA740405 		.word	84178170
 5138 01e4 6194CD3F 		.word	1070437473
 5139 01e8 68073C6E 		.word	1849427816
 5140 01ec 080ECE3F 		.word	1070468616
 5141 01f0 BCF4A39F 		.word	-1616644932
 5142 01f4 7887CE3F 		.word	1070499704
 5143 01f8 B3D233E4 		.word	-466365773
 5144 01fc B000CF3F 		.word	1070530736
 5145 0200 42D91B8A 		.word	-1977886398
 5146 0204 B079CF3F 		.word	1070561712
 5147 0208 9E140DE1 		.word	-519236450
 5148 020c 76F2CF3F 		.word	1070592630
 5149 0210 DD9FC19D 		.word	-1648255011
 5150 0214 8135D03F 		.word	1070609793
 5151 0218 A06EF476 		.word	1995730592
 5152 021c AA71D03F 		.word	1070625194
 5153 0220 B01867A7 		.word	-1486415696
 5154 0224 B5ADD03F 		.word	1070640565
 5155 0228 7F17C7DB 		.word	-607709313
 5156 022c A2E9D03F 		.word	1070655906
 5157 0230 81CB9DC1 		.word	-1046623359
 5158 0234 7125D13F 		.word	1070671217
 5159 0238 85ECD907 		.word	131722373
 5160 023c 2261D13F 		.word	1070686498
 5161 0240 5A19465E 		.word	1581652314
 5162 0244 B39CD13F 		.word	1070701747
 5163 0248 0FC52D76 		.word	1982711055
 5164 024c 25D8D13F 		.word	1070716965
 5165 0250 6F43EF01 		.word	32457583
 5166 0254 7813D23F 		.word	1070732152
 5167 0258 45CFC4B4 		.word	-1262170299
 5168 025c AA4ED23F 		.word	1070747306
 5169 0260 78F48443 		.word	1132786808
 5170 0264 BD89D23F 		.word	1070762429
 5171 0268 D0A2FD63 		.word	1677566672
 5172 026c AFC4D23F 		.word	1070777519
 5173 0270 D2AA0FCD 		.word	-854611246
 5174 0274 80FFD23F 		.word	1070792576
 5175 0278 63340137 		.word	922825827
 5176 027c 313AD33F 		.word	1070807601
 5177 0280 43CB0F5B 		.word	1527761731
 5178 0284 C074D33F 		.word	1070822592
 5179 0288 74CFF9F3 		.word	-201732236
 5180 028c 2DAFD33F 		.word	1070837549
 5181 0290 F48759BD 		.word	-1118205964
 5182 0294 79E9D33F 		.word	1070852473
 5183 0298 2E5F21AF 		.word	-1356767442
 5184 029c A323D43F 		.word	1070867363
 5185 02a0 74F938D6 		.word	-700909196
 5186 02a4 AA5DD43F 		.word	1070882218
 5187 02a8 2A8B27A3 		.word	-1557689558
 5188 02ac 8F97D43F 		.word	1070897039
 5189 02b0 BA054E9B 		.word	-1689385542
ARM GAS  C:\Users\zhangjd\AppData\Local\Temp\cciTDb3B.s 			page 121


 5190 02b4 51D1D43F 		.word	1070911825
 5191 02b8 1A014A80 		.word	-2142633702
 5192 02bc F00AD53F 		.word	1070926576
 5193 02c0 BFEF0215 		.word	352513983
 5194 02c4 6C44D53F 		.word	1070941292
 5195 02c8 DD24731D 		.word	494085341
 5196 02cc C47DD53F 		.word	1070955972
 5197 02d0 4551C35E 		.word	1589858629
 5198 02d4 F8B6D53F 		.word	1070970616
 5199 02d8 68834A9F 		.word	-1622506648
 5200 02dc 08F0D53F 		.word	1070985224
 5201 02e0 1321C5A6 		.word	-1497030381
 5202 02e4 F428D63F 		.word	1070999796
 5203 02e8 1377CB3D 		.word	1036744467
 5204 02ec BC61D63F 		.word	1071014332
 5205 02f0 B4AC3F2E 		.word	775924916
 5206 02f4 5F9AD63F 		.word	1071028831
 5207 02f8 BEC34D43 		.word	1129169854
 5208 02fc DDD2D63F 		.word	1071043293
 5209 0300 DB211949 		.word	1226383835
 5210 0304 360BD73F 		.word	1071057718
 5211 0308 2F070F0D 		.word	219088687
 5212 030c 6A43D73F 		.word	1071072106
 5213 0310 A094AF5D 		.word	1571787936
 5214 0314 787BD73F 		.word	1071086456
 5215 0318 7042E00A 		.word	182469232
 5216 031c 61B3D73F 		.word	1071100769
 5217 0320 FA434AEB 		.word	-347454470
 5218 0324 23EBD73F 		.word	1071115043
 5219 0328 D4D925BF 		.word	-1088038444
 5220 032c C022D83F 		.word	1071129280
 5221 0330 A617646B 		.word	1801721766
 5222 0334 375AD83F 		.word	1071143479
 5223 0338 73A169BE 		.word	-1100373645
 5224 033c 8791D83F 		.word	1071157639
 5225 0340 17D0958D 		.word	-1919561705
 5226 0344 B1C8D83F 		.word	1071171761
 5227 0348 ECD691AF 		.word	-1349396756
 5228 034c B4FFD83F 		.word	1071185844
 5229 0350 49D0E2FB 		.word	-69021623
 5230 0354 9036D93F 		.word	1071199888
 5231 0358 06B1574B 		.word	1264038150
 5232 035c 466DD93F 		.word	1071213894
 5233 0360 96CBED77 		.word	2012072854
 5234 0364 D4A3D93F 		.word	1071227860
 5235 0368 6D597E5C 		.word	1551784301
 5236 036c 3BDAD93F 		.word	1071241787
 5237 0370 7D6E2CD5 		.word	-718508419
 5238 0374 7A10DA3F 		.word	1071255674
 5239 0378 978212BF 		.word	-1089305961
 5240 037c 9246DA3F 		.word	1071269522
 5241 0380 09E894F8 		.word	-124458999
 5242 0384 827CDA3F 		.word	1071283330
 5243 0388 21D8F360 		.word	1626593313
 5244 038c 4BB2DA3F 		.word	1071297099
 5245 0390 CAE99DD8 		.word	-660739638
 5246 0394 EBE7DA3F 		.word	1071310827
ARM GAS  C:\Users\zhangjd\AppData\Local\Temp\cciTDb3B.s 			page 122


 5247 0398 CF17F940 		.word	1090066383
 5248 039c 641DDB3F 		.word	1071324516
 5249 03a0 B93D7E7C 		.word	2088648121
 5250 03a4 B452DB3F 		.word	1071338164
 5251 03a8 AF94D46E 		.word	1859425455
 5252 03ac DC87DB3F 		.word	1071351772
 5253 03b0 F8BF63FC 		.word	-60571656
 5254 03b4 DBBCDB3F 		.word	1071365339
 5255 03b8 38BAF80A 		.word	184072760
 5256 03bc B3F1DB3F 		.word	1071378867
 5257 03c0 32E82081 		.word	-2128549838
 5258 03c4 6126DC3F 		.word	1071392353
 5259 03c8 688F7C46 		.word	1182568296
 5260 03cc E75ADC3F 		.word	1071405799
 5261 03d0 1BD6BE43 		.word	1136580123
 5262 03d4 448FDC3F 		.word	1071419204
 5263 03d8 69469262 		.word	1653753449
 5264 03dc 78C3DC3F 		.word	1071432568
 5265 03e0 70517D8D 		.word	-1921166992
 5266 03e4 83F7DC3F 		.word	1071445891
 5267 03e8 0D4919B0 		.word	-1340520179
 5268 03ec 652BDD3F 		.word	1071459173
 5269 03f0 DB5F12B7 		.word	-1223532581
 5270 03f4 1E5FDD3F 		.word	1071472414
 5271 03f8 9232D58F 		.word	-1881853294
 5272 03fc AE92DD3F 		.word	1071485614
 5273 0400 AD3EE128 		.word	685850285
 5274 0404 15C6DD3F 		.word	1071498773
 5275 0408 60E2C871 		.word	1908990560
 5276 040c 52F9DD3F 		.word	1071511890
 5277 0410 2369C35A 		.word	1522755875
 5278 0414 662CDE3F 		.word	1071524966
 5279 0418 4982FFD4 		.word	-721452471
 5280 041c 505FDE3F 		.word	1071538000
 5281 0420 A6B7F5D2 		.word	-755648602
 5282 0424 1192DE3F 		.word	1071550993
 5283 0428 AC097147 		.word	1198590380
 5284 042c A9C4DE3F 		.word	1071563945
 5285 0430 2BD0A126 		.word	648138795
 5286 0434 17F7DE3F 		.word	1071576855
 5287 0438 53D34165 		.word	1698812755
 5288 043c 5B29DF3F 		.word	1071589723
 5289 0440 F23839F9 		.word	-113690382
 5290 0444 755BDF3F 		.word	1071602549
 5291 0448 3597F9D8 		.word	-654731467
 5292 044c 668DDF3F 		.word	1071615334
 5293 0450 096507FC 		.word	-66624247
 5294 0454 2DBFDF3F 		.word	1071628077
 5295 0458 7783A75A 		.word	1520927607
 5296 045c CBF0DF3F 		.word	1071640779
 5297 0460 B41B0B77 		.word	1997216692
 5298 0464 1F11E03F 		.word	1071649055
 5299 0468 F4172858 		.word	1479022580
 5300 046c C429E03F 		.word	1071655364
 5301 0470 9D84FB4D 		.word	1308329117
 5302 0474 5442E03F 		.word	1071661652
 5303 0478 C3E15156 		.word	1448206787
ARM GAS  C:\Users\zhangjd\AppData\Local\Temp\cciTDb3B.s 			page 123


 5304 047c CF5AE03F 		.word	1071667919
 5305 0480 6961736F 		.word	1869832553
 5306 0484 3573E03F 		.word	1071674165
 5307 0488 502FDF97 		.word	-1746981040
 5308 048c 868BE03F 		.word	1071680390
 5309 0490 2A2990CE 		.word	-829413078
 5310 0494 C2A3E03F 		.word	1071686594
 5311 0498 2820EF12 		.word	317661224
 5312 049c EABBE03F 		.word	1071692778
 5313 04a0 3ADF9B64 		.word	1687936826
 5314 04a4 FCD3E03F 		.word	1071698940
 5315 04a8 2060CDC3 		.word	-1009950688
 5316 04ac F9EBE03F 		.word	1071705081
 5317 04b0 5996F130 		.word	821139033
 5318 04b4 E203E13F 		.word	1071711202
 5319 04b8 05ECC8AC 		.word	-1396118523
 5320 04bc B51BE13F 		.word	1071717301
 5321 04c0 A13B9D38 		.word	949828513
 5322 04c4 7433E13F 		.word	1071723380
 5323 04c8 DB17FDD5 		.word	-704833573
 5324 04cc 1D4BE13F 		.word	1071729437
 5325 04d0 220DAE86 		.word	-2035413726
 5326 04d4 B262E13F 		.word	1071735474
 5327 04d8 4118FF4C 		.word	1291786305
 5328 04dc 327AE13F 		.word	1071741490
 5329 04e0 35EE832B 		.word	730066485
 5330 04e4 9D91E13F 		.word	1071747485
 5331 04e8 2AFC1425 		.word	622132266
 5332 04ec F3A8E13F 		.word	1071753459
 5333 04f0 CCA2F83C 		.word	1022927564
 5334 04f4 34C0E13F 		.word	1071759412
 5335 04f8 F6FAB976 		.word	1991899894
 5336 04fc 60D7E13F 		.word	1071765344
 5337 0500 B2D528D6 		.word	-701966926
 5338 0504 77EEE13F 		.word	1071771255
 5339 0508 8BF7825F 		.word	1602418571
 5340 050c 7A05E23F 		.word	1071777146
 5341 0510 5A602F17 		.word	388980826
 5342 0514 681CE23F 		.word	1071783016
 5343 0518 E8C11002 		.word	34652648
 5344 051c 4133E23F 		.word	1071788865
 5345 0520 50093325 		.word	624101712
 5346 0524 054AE23F 		.word	1071794693
 5347 0528 489AF485 		.word	-2047567288
 5348 052c B460E23F 		.word	1071800500
 5349 0530 BA90F829 		.word	704155834
 5350 0534 4F77E23F 		.word	1071806287
 5351 0538 2D7F3417 		.word	389316397
 5352 053c D58DE23F 		.word	1071812053
 5353 0540 C86EF053 		.word	1408265928
 5354 0544 46A4E23F 		.word	1071817798
 5355 0548 02A49DE6 		.word	-425876478
 5356 054c A2BAE23F 		.word	1071823522
 5357 0550 F3D9FFD5 		.word	-704652813
 5358 0554 EAD0E23F 		.word	1071829226
 5359 0558 50422D29 		.word	690831952
 5360 055c 1EE7E23F 		.word	1071834910
ARM GAS  C:\Users\zhangjd\AppData\Local\Temp\cciTDb3B.s 			page 124


 5361 0560 1F4A65E7 		.word	-412792289
 5362 0564 3CFDE23F 		.word	1071840572
 5363 0568 95162C18 		.word	405542549
 5364 056c 4713E33F 		.word	1071846215
 5365 0570 F90166C3 		.word	-1016724999
 5366 0574 3C29E33F 		.word	1071851836
 5367 0578 FE2405F1 		.word	-251321090
 5368 057c 1D3FE33F 		.word	1071857437
 5369 0580 F90E4EA9 		.word	-1454502151
 5370 0584 EA54E33F 		.word	1071863018
 5371 0588 4F84E5F4 		.word	-186284977
 5372 058c A26AE33F 		.word	1071868578
 5373 0590 624970DC 		.word	-596620958
 5374 0594 4680E33F 		.word	1071874118
 5375 0598 3899E568 		.word	1759877432
 5376 059c D695E33F 		.word	1071879638
 5377 05a0 72258FA3 		.word	-1550899854
 5378 05a4 51ABE33F 		.word	1071885137
 5379 05a8 941CD295 		.word	-1781392236
 5380 05ac B8C0E33F 		.word	1071890616
 5381 05b0 71E83C49 		.word	1228728433
 5382 05b4 0BD6E33F 		.word	1071896075
 5383 05b8 7B69B0C7 		.word	-944739973
 5384 05bc 49EBE33F 		.word	1071901513
 5385 05c0 5338521B 		.word	458373203
 5386 05c4 7400E43F 		.word	1071906932
 5387 05c8 2D2F3A4E 		.word	1312436013
 5388 05cc 8A15E43F 		.word	1071912330
 5389 05d0 B81BEE6A 		.word	1793989560
 5390 05d4 8C2AE43F 		.word	1071917708
 5391 05d8 F7061D7C 		.word	2082277111
 5392 05dc 7A3FE43F 		.word	1071923066
 5393 05e0 5AB8838C 		.word	-1937524646
 5394 05e4 5454E43F 		.word	1071928404
 5395 05e8 622C3FA7 		.word	-1489032094
 5396 05ec 1A69E43F 		.word	1071933722
 5397 05f0 905F6CD7 		.word	-680763504
 5398 05f4 CC7DE43F 		.word	1071939020
 5399 05f8 94066D28 		.word	678233748
 5400 05fc 6B92E43F 		.word	1071944299
 5401 0600 6D11CCA5 		.word	-1513352851
 5402 0604 F5A6E43F 		.word	1071949557
 5403 0608 DC694B5B 		.word	1531668956
 5404 060c 6CBBE43F 		.word	1071954796
 5405 0610 7F76C854 		.word	1422423679
 5406 0614 CFCFE43F 		.word	1071960015
 5407 0618 D71A3C9E 		.word	-1640228137
 5408 061c 1EE4E43F 		.word	1071965214
 5409 0620 93F2E343 		.word	1139012243
 5410 0624 5AF8E43F 		.word	1071970394
 5411 0628 B0D42652 		.word	1378276528
 5412 062c 820CE53F 		.word	1071975554
 5413 0630 2F986BD5 		.word	-714368977
 5414 0634 9620E53F 		.word	1071980694
 5415 0638 AC8A6BDA 		.word	-630486356
 5416 063c 9734E53F 		.word	1071985815
 5417 0640 C8F9DF6D 		.word	1843395016
ARM GAS  C:\Users\zhangjd\AppData\Local\Temp\cciTDb3B.s 			page 125


 5418 0644 8548E53F 		.word	1071990917
 5419 0648 DF2CB99C 		.word	-1665585953
 5420 064c 5F5CE53F 		.word	1071995999
 5421 0650 9FA61074 		.word	1947248287
 5422 0654 2670E53F 		.word	1072001062
 5423 0658 26A80D01 		.word	17672230
 5424 065c DA83E53F 		.word	1072006106
 5425 0660 E3AD0051 		.word	1358999011
 5426 0664 7A97E53F 		.word	1072011130
 5427 0668 916F6371 		.word	1902342033
 5428 066c 07ABE53F 		.word	1072016135
 5429 0670 CE21CB6F 		.word	1875583438
 5430 0674 81BEE53F 		.word	1072021121
 5431 0678 A8B7DA59 		.word	1507506088
 5432 067c E8D1E53F 		.word	1072026088
 5433 0680 7B5F5E3D 		.word	1029595003
 5434 0684 3CE5E53F 		.word	1072031036
 5435 0688 F3824B28 		.word	676037363
 5436 068c 7DF8E53F 		.word	1072035965
 5437 0690 BE8B9728 		.word	681020350
 5438 0694 AB0BE63F 		.word	1072040875
 5439 0698 47DD6E4C 		.word	1282334023
 5440 069c C61EE63F 		.word	1072045766
 5441 06a0 6B990BA2 		.word	-1576298133
 5442 06a4 CE31E63F 		.word	1072050638
 5443 06a8 07E2A737 		.word	933749255
 5444 06ac C444E63F 		.word	1072055492
 5445 06b0 954FD01B 		.word	466636693
 5446 06b4 A757E63F 		.word	1072060327
 5447 06b8 B2FDF55C 		.word	1559625138
 5448 06bc 776AE63F 		.word	1072065143
 5449 06c0 BA01C109 		.word	163643834
 5450 06c4 357DE63F 		.word	1072069941
 5451 06c8 98B2CB30 		.word	818655896
 5452 06cc E08FE63F 		.word	1072074720
 5453 06d0 F860E7E0 		.word	-521707272
 5454 06d4 78A2E63F 		.word	1072079480
 5455 06d8 F51BF328 		.word	687021045
 5456 06dc FFB4E63F 		.word	1072084223
 5457 06e0 1AB1DB17 		.word	400273690
 5458 06e4 73C7E63F 		.word	1072088947
 5459 06e8 62AC9BBC 		.word	-1130648478
 5460 06ec D4D9E63F 		.word	1072093652
 5461 06f0 AA164926 		.word	642324138
 5462 06f4 24ECE63F 		.word	1072098340
 5463 06f8 AA751564 		.word	1679127978
 5464 06fc 61FEE63F 		.word	1072103009
 5465 0700 B0902485 		.word	-2061201232
 5466 0704 8C10E73F 		.word	1072107660
 5467 0708 C428D198 		.word	-1731123004
 5468 070c A522E73F 		.word	1072112293
 5469 0710 834068AE 		.word	-1368899453
 5470 0714 AC34E73F 		.word	1072116908
 5471 0718 665752D5 		.word	-716023962
 5472 071c A146E73F 		.word	1072121505
 5473 0720 58AB051D 		.word	486910808
 5474 0724 8558E73F 		.word	1072126085
ARM GAS  C:\Users\zhangjd\AppData\Local\Temp\cciTDb3B.s 			page 126


 5475 0728 B4380695 		.word	-1794754380
 5476 072c 566AE73F 		.word	1072130646
 5477 0730 43BAE54C 		.word	1290123843
 5478 0734 167CE73F 		.word	1072135190
 5479 0738 41A94354 		.word	1413720385
 5480 073c C48DE73F 		.word	1072139716
 5481 0740 573DCDBA 		.word	-1160954537
 5482 0744 609FE73F 		.word	1072144224
 5483 0748 31AE2F90 		.word	-1875923407
 5484 074c EBB0E73F 		.word	1072148715
 5485 0750 E7F125E4 		.word	-467275289
 5486 0754 64C2E73F 		.word	1072153188
 5487 0758 747B86C6 		.word	-964265100
 5488 075c CCD3E73F 		.word	1072157644
 5489 0760 D1BD2747 		.word	1193786833
 5490 0764 23E5E73F 		.word	1072162083
 5491 0768 FA2BE075 		.word	1977625594
 5492 076c 68F6E73F 		.word	1072166504
 5493 0770 58F79362 		.word	1653864280
 5494 0774 9C07E83F 		.word	1072170908
 5495 0778 C40F351D 		.word	490016708
 5496 077c BF18E83F 		.word	1072175295
 5497 0780 8923C3B5 		.word	-1245502583
 5498 0784 D029E83F 		.word	1072179664
 5499 0788 8122303C 		.word	1009787521
 5500 078c D13AE83F 		.word	1072184017
 5501 0790 F4BA7BC0 		.word	-1065633036
 5502 0794 C04BE83F 		.word	1072188352
 5503 0798 0E18C152 		.word	1388386318
 5504 079c 9F5CE83F 		.word	1072192671
 5505 07a0 17E8FF02 		.word	50325527
 5506 07a4 6D6DE83F 		.word	1072196973
 5507 07a8 395653E1 		.word	-514632135
 5508 07ac 297EE83F 		.word	1072201257
 5509 07b0 9E8DD6FD 		.word	-36270690
 5510 07b4 D58EE83F 		.word	1072205525
 5511 07b8 E077B268 		.word	1756526560
 5512 07bc 719FE83F 		.word	1072209777
 5513 07c0 B881F431 		.word	838107576
 5514 07c4 FCAFE83F 		.word	1072214012
 5515 07c8 C094C569 		.word	1774556352
 5516 07cc 76C0E83F 		.word	1072218230
 5517 07d0 01595C20 		.word	542923009
 5518 07d4 E0D0E83F 		.word	1072222432
 5519 07d8 A5F9D365 		.word	1708390821
 5520 07dc 39E1E83F 		.word	1072226617
 5521 07e0 B51E634A 		.word	1248009909
 5522 07e4 82F1E83F 		.word	1072230786
 5523 07e8 CBB132DE 		.word	-567103029
 5524 07ec BA01E93F 		.word	1072234938
 5525 07f0 819C6B31 		.word	829136001
 5526 07f4 E311E93F 		.word	1072239075
 5527 07f8 E0864454 		.word	1413777120
 5528 07fc FB21E93F 		.word	1072243195
 5529              		.section	.rodata.Kd,"a"
 5530              		.align	2
 5533              	Kd:
ARM GAS  C:\Users\zhangjd\AppData\Local\Temp\cciTDb3B.s 			page 127


 5534 0000 00004842 		.word	1112014848
 5535              		.section	.rodata.Ki,"a"
 5536              		.align	2
 5539              	Ki:
 5540 0000 0000ECC2 		.word	-1024720896
 5541              		.section	.rodata.Kp,"a"
 5542              		.align	2
 5545              	Kp:
 5546 0000 00009643 		.word	1133903872
 5547              		.text
 5548              	.Letext0:
 5549              		.file 3 "d:\\program files (x86)\\gnu arm embedded toolchain\\10 2021.07\\arm-none-eabi\\include\\
 5550              		.file 4 "d:\\program files (x86)\\gnu arm embedded toolchain\\10 2021.07\\arm-none-eabi\\include\\
 5551              		.file 5 "Drivers/CMSIS/Device/ST/STM32F1xx/Include/stm32f103xe.h"
 5552              		.file 6 "Drivers/STM32F1xx_HAL_Driver/Inc/stm32f1xx_hal_def.h"
 5553              		.file 7 "Drivers/STM32F1xx_HAL_Driver/Inc/stm32f1xx_hal_rcc.h"
 5554              		.file 8 "Drivers/STM32F1xx_HAL_Driver/Inc/stm32f1xx_hal_rcc_ex.h"
 5555              		.file 9 "Drivers/STM32F1xx_HAL_Driver/Inc/stm32f1xx_hal_gpio.h"
 5556              		.file 10 "Drivers/STM32F1xx_HAL_Driver/Inc/stm32f1xx_hal_dma.h"
 5557              		.file 11 "Drivers/STM32F1xx_HAL_Driver/Inc/stm32f1xx_hal_tim.h"
 5558              		.file 12 "Drivers/STM32F1xx_HAL_Driver/Inc/stm32f1xx_hal_uart.h"
 5559              		.file 13 "Core/Inc/tim.h"
 5560              		.file 14 "Core/Inc/usart.h"
 5561              		.file 15 "Core/Inc/zigbee.h"
 5562              		.file 16 "Core/Inc/jy62.h"
 5563              		.file 17 "Drivers/STM32F1xx_HAL_Driver/Inc/stm32f1xx_hal.h"
 5564              		.file 18 "Core/Inc/gpio.h"
 5565              		.file 19 "Core/Inc/dma.h"
 5566              		.file 20 "<built-in>"
ARM GAS  C:\Users\zhangjd\AppData\Local\Temp\cciTDb3B.s 			page 128


DEFINED SYMBOLS
                            *ABS*:00000000 main.c
C:\Users\zhangjd\AppData\Local\Temp\cciTDb3B.s:20     .text.pid:00000000 $t
C:\Users\zhangjd\AppData\Local\Temp\cciTDb3B.s:28     .text.pid:00000000 pid
C:\Users\zhangjd\AppData\Local\Temp\cciTDb3B.s:128    .text.pid:00000064 $d
C:\Users\zhangjd\AppData\Local\Temp\cciTDb3B.s:137    .text.Abs:00000000 $t
C:\Users\zhangjd\AppData\Local\Temp\cciTDb3B.s:144    .text.Abs:00000000 Abs
C:\Users\zhangjd\AppData\Local\Temp\cciTDb3B.s:168    .text.qiuyu360:00000000 $t
C:\Users\zhangjd\AppData\Local\Temp\cciTDb3B.s:175    .text.qiuyu360:00000000 qiuyu360
C:\Users\zhangjd\AppData\Local\Temp\cciTDb3B.s:240    .text.qiuyu360:00000038 $d
C:\Users\zhangjd\AppData\Local\Temp\cciTDb3B.s:245    .text.forward:00000000 $t
C:\Users\zhangjd\AppData\Local\Temp\cciTDb3B.s:252    .text.forward:00000000 forward
C:\Users\zhangjd\AppData\Local\Temp\cciTDb3B.s:336    .text.forward:00000070 $d
C:\Users\zhangjd\AppData\Local\Temp\cciTDb3B.s:342    .text.backward:00000000 $t
C:\Users\zhangjd\AppData\Local\Temp\cciTDb3B.s:349    .text.backward:00000000 backward
C:\Users\zhangjd\AppData\Local\Temp\cciTDb3B.s:433    .text.backward:00000070 $d
C:\Users\zhangjd\AppData\Local\Temp\cciTDb3B.s:439    .text.rotate_counterclockwise:00000000 $t
C:\Users\zhangjd\AppData\Local\Temp\cciTDb3B.s:446    .text.rotate_counterclockwise:00000000 rotate_counterclockwise
C:\Users\zhangjd\AppData\Local\Temp\cciTDb3B.s:527    .text.rotate_counterclockwise:00000074 $d
C:\Users\zhangjd\AppData\Local\Temp\cciTDb3B.s:533    .text.rotate_clockwise:00000000 $t
C:\Users\zhangjd\AppData\Local\Temp\cciTDb3B.s:540    .text.rotate_clockwise:00000000 rotate_clockwise
C:\Users\zhangjd\AppData\Local\Temp\cciTDb3B.s:621    .text.rotate_clockwise:00000074 $d
C:\Users\zhangjd\AppData\Local\Temp\cciTDb3B.s:627    .text.rotate_clockwise_plus_forward:00000000 $t
C:\Users\zhangjd\AppData\Local\Temp\cciTDb3B.s:634    .text.rotate_clockwise_plus_forward:00000000 rotate_clockwise_plus_forward
C:\Users\zhangjd\AppData\Local\Temp\cciTDb3B.s:715    .text.rotate_clockwise_plus_forward:00000074 $d
C:\Users\zhangjd\AppData\Local\Temp\cciTDb3B.s:721    .text.brake:00000000 $t
C:\Users\zhangjd\AppData\Local\Temp\cciTDb3B.s:728    .text.brake:00000000 brake
C:\Users\zhangjd\AppData\Local\Temp\cciTDb3B.s:804    .text.brake:00000070 $d
C:\Users\zhangjd\AppData\Local\Temp\cciTDb3B.s:811    .text.fabs:00000000 $t
C:\Users\zhangjd\AppData\Local\Temp\cciTDb3B.s:818    .text.fabs:00000000 fabs
C:\Users\zhangjd\AppData\Local\Temp\cciTDb3B.s:866    .text.atan2LUTif:00000000 $t
C:\Users\zhangjd\AppData\Local\Temp\cciTDb3B.s:873    .text.atan2LUTif:00000000 atan2LUTif
C:\Users\zhangjd\AppData\Local\Temp\cciTDb3B.s:1237   .text.atan2LUTif:000001f8 $d
C:\Users\zhangjd\AppData\Local\Temp\cciTDb3B.s:1256   .text.Solve_Mine_Pos:00000000 $t
C:\Users\zhangjd\AppData\Local\Temp\cciTDb3B.s:1263   .text.Solve_Mine_Pos:00000000 Solve_Mine_Pos
C:\Users\zhangjd\AppData\Local\Temp\cciTDb3B.s:1725   .text.Solve_Mine_Pos:00000308 $d
C:\Users\zhangjd\AppData\Local\Temp\cciTDb3B.s:1735   .text.Sol_Car_Pos_INIT:00000000 $t
C:\Users\zhangjd\AppData\Local\Temp\cciTDb3B.s:1742   .text.Sol_Car_Pos_INIT:00000000 Sol_Car_Pos_INIT
C:\Users\zhangjd\AppData\Local\Temp\cciTDb3B.s:1790   .text.Sol_Car_Pos_INIT:00000034 $d
C:\Users\zhangjd\AppData\Local\Temp\cciTDb3B.s:1796   .text.Sol_Car_Pos:00000000 $t
C:\Users\zhangjd\AppData\Local\Temp\cciTDb3B.s:1803   .text.Sol_Car_Pos:00000000 Sol_Car_Pos
C:\Users\zhangjd\AppData\Local\Temp\cciTDb3B.s:2065   .text.Sol_Car_Pos:000001cc $d
C:\Users\zhangjd\AppData\Local\Temp\cciTDb3B.s:2077   .text.find:00000000 $t
C:\Users\zhangjd\AppData\Local\Temp\cciTDb3B.s:2084   .text.find:00000000 find
C:\Users\zhangjd\AppData\Local\Temp\cciTDb3B.s:2505   .text.find:00000254 $d
C:\Users\zhangjd\AppData\Local\Temp\cciTDb3B.s:2515   .text.Goto:00000000 $t
C:\Users\zhangjd\AppData\Local\Temp\cciTDb3B.s:2522   .text.Goto:00000000 Goto
C:\Users\zhangjd\AppData\Local\Temp\cciTDb3B.s:2631   .text.Goto:00000070 $d
C:\Users\zhangjd\AppData\Local\Temp\cciTDb3B.s:2641   .text.Get_Rep_opt:00000000 $t
C:\Users\zhangjd\AppData\Local\Temp\cciTDb3B.s:2648   .text.Get_Rep_opt:00000000 Get_Rep_opt
C:\Users\zhangjd\AppData\Local\Temp\cciTDb3B.s:2843   .text.Get_Rep_opt:000000cc $d
C:\Users\zhangjd\AppData\Local\Temp\cciTDb3B.s:2852   .text.HAL_TIM_PeriodElapsedCallback:00000000 $t
C:\Users\zhangjd\AppData\Local\Temp\cciTDb3B.s:2859   .text.HAL_TIM_PeriodElapsedCallback:00000000 HAL_TIM_PeriodElapsedCallback
C:\Users\zhangjd\AppData\Local\Temp\cciTDb3B.s:3058   .text.HAL_TIM_PeriodElapsedCallback:00000104 $d
C:\Users\zhangjd\AppData\Local\Temp\cciTDb3B.s:3072   .text.HAL_TIM_PeriodElapsedCallback:0000013c $t
C:\Users\zhangjd\AppData\Local\Temp\cciTDb3B.s:3356   .text.HAL_TIM_PeriodElapsedCallback:000002ec $d
C:\Users\zhangjd\AppData\Local\Temp\cciTDb3B.s:3380   .text.HAL_TIM_PeriodElapsedCallback:00000340 $t
ARM GAS  C:\Users\zhangjd\AppData\Local\Temp\cciTDb3B.s 			page 129


C:\Users\zhangjd\AppData\Local\Temp\cciTDb3B.s:3856   .text.HAL_TIM_PeriodElapsedCallback:000005a4 $d
C:\Users\zhangjd\AppData\Local\Temp\cciTDb3B.s:3865   .text.HAL_TIM_PeriodElapsedCallback:000005c0 $t
C:\Users\zhangjd\AppData\Local\Temp\cciTDb3B.s:4147   .text.HAL_TIM_PeriodElapsedCallback:00000770 $d
C:\Users\zhangjd\AppData\Local\Temp\cciTDb3B.s:4162   .text.Get_rotate_pwm:00000000 $t
C:\Users\zhangjd\AppData\Local\Temp\cciTDb3B.s:4169   .text.Get_rotate_pwm:00000000 Get_rotate_pwm
C:\Users\zhangjd\AppData\Local\Temp\cciTDb3B.s:4238   .text.Get_rotate_pwm:00000058 $d
C:\Users\zhangjd\AppData\Local\Temp\cciTDb3B.s:4248   .text.Error_Handler:00000000 $t
C:\Users\zhangjd\AppData\Local\Temp\cciTDb3B.s:4255   .text.Error_Handler:00000000 Error_Handler
C:\Users\zhangjd\AppData\Local\Temp\cciTDb3B.s:4287   .text.SystemClock_Config:00000000 $t
C:\Users\zhangjd\AppData\Local\Temp\cciTDb3B.s:4294   .text.SystemClock_Config:00000000 SystemClock_Config
C:\Users\zhangjd\AppData\Local\Temp\cciTDb3B.s:4399   .text.main:00000000 $t
C:\Users\zhangjd\AppData\Local\Temp\cciTDb3B.s:4406   .text.main:00000000 main
C:\Users\zhangjd\AppData\Local\Temp\cciTDb3B.s:4700   .text.main:0000019c $d
C:\Users\zhangjd\AppData\Local\Temp\cciTDb3B.s:4969   .bss.state:00000000 state
C:\Users\zhangjd\AppData\Local\Temp\cciTDb3B.s:5533   .rodata.Kd:00000000 Kd
C:\Users\zhangjd\AppData\Local\Temp\cciTDb3B.s:5539   .rodata.Ki:00000000 Ki
C:\Users\zhangjd\AppData\Local\Temp\cciTDb3B.s:5545   .rodata.Kp:00000000 Kp
C:\Users\zhangjd\AppData\Local\Temp\cciTDb3B.s:5016   .rodata.ATAN_LUT:00000000 ATAN_LUT
C:\Users\zhangjd\AppData\Local\Temp\cciTDb3B.s:4962   .bss.speed4:00000000 speed4
C:\Users\zhangjd\AppData\Local\Temp\cciTDb3B.s:4955   .bss.speed3:00000000 speed3
C:\Users\zhangjd\AppData\Local\Temp\cciTDb3B.s:4948   .bss.speed2:00000000 speed2
C:\Users\zhangjd\AppData\Local\Temp\cciTDb3B.s:4941   .bss.speed1:00000000 speed1
C:\Users\zhangjd\AppData\Local\Temp\cciTDb3B.s:4928   .bss.rotate_pwm:00000000 rotate_pwm
C:\Users\zhangjd\AppData\Local\Temp\cciTDb3B.s:4838   .bss.current_Res:00000000 current_Res
C:\Users\zhangjd\AppData\Local\Temp\cciTDb3B.s:4825   .bss.count_rep:00000000 count_rep
C:\Users\zhangjd\AppData\Local\Temp\cciTDb3B.s:4921   .bss.prev_type:00000000 prev_type
C:\Users\zhangjd\AppData\Local\Temp\cciTDb3B.s:4845   .bss.destination:00000000 destination
C:\Users\zhangjd\AppData\Local\Temp\cciTDb3B.s:4976   .data.State:00000000 State
C:\Users\zhangjd\AppData\Local\Temp\cciTDb3B.s:4983   .data.rep:00000000 rep
C:\Users\zhangjd\AppData\Local\Temp\cciTDb3B.s:4865   .bss.dis_pre:00000000 dis_pre
C:\Users\zhangjd\AppData\Local\Temp\cciTDb3B.s:4852   .bss.dis_cur:00000000 dis_cur
C:\Users\zhangjd\AppData\Local\Temp\cciTDb3B.s:4896   .bss.goto_state:00000000 goto_state
C:\Users\zhangjd\AppData\Local\Temp\cciTDb3B.s:4902   .bss.now:00000000 now
C:\Users\zhangjd\AppData\Local\Temp\cciTDb3B.s:4831   .bss.count_storehouse:00000000 count_storehouse
C:\Users\zhangjd\AppData\Local\Temp\cciTDb3B.s:4811   .bss.count_beacon:00000000 count_beacon
C:\Users\zhangjd\AppData\Local\Temp\cciTDb3B.s:4818   .bss.count_pos:00000000 count_pos
C:\Users\zhangjd\AppData\Local\Temp\cciTDb3B.s:4934   .bss.score:00000000 score
C:\Users\zhangjd\AppData\Local\Temp\cciTDb3B.s:5004   .data.resource_location:00000000 resource_location
C:\Users\zhangjd\AppData\Local\Temp\cciTDb3B.s:4765   .bss.Prev_Pos_head:00000000 Prev_Pos_head
C:\Users\zhangjd\AppData\Local\Temp\cciTDb3B.s:4758   .bss.Prev_Pos:00000000 Prev_Pos
C:\Users\zhangjd\AppData\Local\Temp\cciTDb3B.s:4785   .bss.beacon_determinant:00000000 beacon_determinant
C:\Users\zhangjd\AppData\Local\Temp\cciTDb3B.s:4792   .bss.car_Pos:00000000 car_Pos
C:\Users\zhangjd\AppData\Local\Temp\cciTDb3B.s:4778   .bss.beacon_Pos:00000000 beacon_Pos
C:\Users\zhangjd\AppData\Local\Temp\cciTDb3B.s:4804   .bss.car_y:00000000 car_y
C:\Users\zhangjd\AppData\Local\Temp\cciTDb3B.s:4798   .bss.car_x:00000000 car_x
C:\Users\zhangjd\AppData\Local\Temp\cciTDb3B.s:4914   .bss.obj_y:00000000 obj_y
C:\Users\zhangjd\AppData\Local\Temp\cciTDb3B.s:4908   .bss.obj_x:00000000 obj_x
C:\Users\zhangjd\AppData\Local\Temp\cciTDb3B.s:4858   .bss.dis_obj:00000000 dis_obj
C:\Users\zhangjd\AppData\Local\Temp\cciTDb3B.s:4771   .bss.angle_obj:00000000 angle_obj
C:\Users\zhangjd\AppData\Local\Temp\cciTDb3B.s:4889   .bss.distance4:00000000 distance4
C:\Users\zhangjd\AppData\Local\Temp\cciTDb3B.s:4883   .bss.distance3:00000000 distance3
C:\Users\zhangjd\AppData\Local\Temp\cciTDb3B.s:4877   .bss.distance2:00000000 distance2
C:\Users\zhangjd\AppData\Local\Temp\cciTDb3B.s:4871   .bss.distance1:00000000 distance1
C:\Users\zhangjd\AppData\Local\Temp\cciTDb3B.s:4754   .bss.Prev_Pos:00000000 $d
C:\Users\zhangjd\AppData\Local\Temp\cciTDb3B.s:4761   .bss.Prev_Pos_head:00000000 $d
C:\Users\zhangjd\AppData\Local\Temp\cciTDb3B.s:4768   .bss.angle_obj:00000000 $d
C:\Users\zhangjd\AppData\Local\Temp\cciTDb3B.s:4774   .bss.beacon_Pos:00000000 $d
ARM GAS  C:\Users\zhangjd\AppData\Local\Temp\cciTDb3B.s 			page 130


C:\Users\zhangjd\AppData\Local\Temp\cciTDb3B.s:4781   .bss.beacon_determinant:00000000 $d
C:\Users\zhangjd\AppData\Local\Temp\cciTDb3B.s:4788   .bss.car_Pos:00000000 $d
C:\Users\zhangjd\AppData\Local\Temp\cciTDb3B.s:4795   .bss.car_x:00000000 $d
C:\Users\zhangjd\AppData\Local\Temp\cciTDb3B.s:4801   .bss.car_y:00000000 $d
C:\Users\zhangjd\AppData\Local\Temp\cciTDb3B.s:4807   .bss.count_beacon:00000000 $d
C:\Users\zhangjd\AppData\Local\Temp\cciTDb3B.s:4814   .bss.count_pos:00000000 $d
C:\Users\zhangjd\AppData\Local\Temp\cciTDb3B.s:4821   .bss.count_rep:00000000 $d
C:\Users\zhangjd\AppData\Local\Temp\cciTDb3B.s:4828   .bss.count_storehouse:00000000 $d
C:\Users\zhangjd\AppData\Local\Temp\cciTDb3B.s:4834   .bss.current_Res:00000000 $d
C:\Users\zhangjd\AppData\Local\Temp\cciTDb3B.s:4841   .bss.destination:00000000 $d
C:\Users\zhangjd\AppData\Local\Temp\cciTDb3B.s:4848   .bss.dis_cur:00000000 $d
C:\Users\zhangjd\AppData\Local\Temp\cciTDb3B.s:4855   .bss.dis_obj:00000000 $d
C:\Users\zhangjd\AppData\Local\Temp\cciTDb3B.s:4861   .bss.dis_pre:00000000 $d
C:\Users\zhangjd\AppData\Local\Temp\cciTDb3B.s:4868   .bss.distance1:00000000 $d
C:\Users\zhangjd\AppData\Local\Temp\cciTDb3B.s:4874   .bss.distance2:00000000 $d
C:\Users\zhangjd\AppData\Local\Temp\cciTDb3B.s:4880   .bss.distance3:00000000 $d
C:\Users\zhangjd\AppData\Local\Temp\cciTDb3B.s:4886   .bss.distance4:00000000 $d
C:\Users\zhangjd\AppData\Local\Temp\cciTDb3B.s:4892   .bss.goto_state:00000000 $d
C:\Users\zhangjd\AppData\Local\Temp\cciTDb3B.s:4899   .bss.now:00000000 $d
C:\Users\zhangjd\AppData\Local\Temp\cciTDb3B.s:4905   .bss.obj_x:00000000 $d
C:\Users\zhangjd\AppData\Local\Temp\cciTDb3B.s:4911   .bss.obj_y:00000000 $d
C:\Users\zhangjd\AppData\Local\Temp\cciTDb3B.s:4917   .bss.prev_type:00000000 $d
C:\Users\zhangjd\AppData\Local\Temp\cciTDb3B.s:4924   .bss.rotate_pwm:00000000 $d
C:\Users\zhangjd\AppData\Local\Temp\cciTDb3B.s:4931   .bss.score:00000000 $d
C:\Users\zhangjd\AppData\Local\Temp\cciTDb3B.s:4937   .bss.speed1:00000000 $d
C:\Users\zhangjd\AppData\Local\Temp\cciTDb3B.s:4944   .bss.speed2:00000000 $d
C:\Users\zhangjd\AppData\Local\Temp\cciTDb3B.s:4951   .bss.speed3:00000000 $d
C:\Users\zhangjd\AppData\Local\Temp\cciTDb3B.s:4958   .bss.speed4:00000000 $d
C:\Users\zhangjd\AppData\Local\Temp\cciTDb3B.s:4965   .bss.state:00000000 $d
C:\Users\zhangjd\AppData\Local\Temp\cciTDb3B.s:4972   .data.State:00000000 $d
C:\Users\zhangjd\AppData\Local\Temp\cciTDb3B.s:4979   .data.rep:00000000 $d
C:\Users\zhangjd\AppData\Local\Temp\cciTDb3B.s:5000   .data.resource_location:00000000 $d
C:\Users\zhangjd\AppData\Local\Temp\cciTDb3B.s:5012   .rodata.ATAN_LUT:00000000 $d
C:\Users\zhangjd\AppData\Local\Temp\cciTDb3B.s:5530   .rodata.Kd:00000000 $d
C:\Users\zhangjd\AppData\Local\Temp\cciTDb3B.s:5536   .rodata.Ki:00000000 $d
C:\Users\zhangjd\AppData\Local\Temp\cciTDb3B.s:5542   .rodata.Kp:00000000 $d

UNDEFINED SYMBOLS
__aeabi_fmul
__aeabi_fadd
__aeabi_fcmpge
__aeabi_fcmple
__aeabi_fsub
__aeabi_fcmpgt
__aeabi_fcmplt
HAL_GPIO_WritePin
htim8
__aeabi_dcmpgt
__aeabi_dcmpeq
__aeabi_dsub
__aeabi_dcmplt
__aeabi_dmul
__aeabi_ddiv
__aeabi_d2iz
__aeabi_dadd
__aeabi_i2d
__aeabi_ui2d
ARM GAS  C:\Users\zhangjd\AppData\Local\Temp\cciTDb3B.s 			page 131


__aeabi_d2f
__aeabi_f2d
__aeabi_dcmpge
__aeabi_dcmple
GetYaw
__aeabi_i2f
getParkDotMineType
getMyBeaconMineType
__aeabi_fdiv
HAL_UART_Receive_DMA
getCarPosX
getCarPosY
getDistanceOfMyBeacon
getMineIntensity
getCarMineSumNum
jy62Receive
huart2
htim2
htim3
htim4
htim5
zigbeeSend
__aeabi_f2iz
memset
HAL_RCC_OscConfig
HAL_RCC_ClockConfig
HAL_Init
jy62_Init
SetBaud
SetHorizontal
InitAngle
Calibrate
SleepOrAwake
MX_GPIO_Init
MX_TIM1_Init
MX_TIM2_Init
MX_TIM8_Init
MX_TIM3_Init
MX_TIM4_Init
MX_DMA_Init
MX_USART2_UART_Init
MX_USART1_UART_Init
MX_TIM5_Init
zigbee_Init
HAL_TIM_Base_Start_IT
HAL_TIM_PWM_Start
HAL_TIM_Encoder_Start
getGameState
getCarTask
getGameTime
huart1
htim1
