ARM GAS  C:\Users\zhangjd\AppData\Local\Temp\ccXlXJUr.s 			page 1


   1              		.cpu cortex-m3
   2              		.eabi_attribute 20, 1
   3              		.eabi_attribute 21, 1
   4              		.eabi_attribute 23, 3
   5              		.eabi_attribute 24, 1
   6              		.eabi_attribute 25, 1
   7              		.eabi_attribute 26, 1
   8              		.eabi_attribute 30, 1
   9              		.eabi_attribute 34, 1
  10              		.eabi_attribute 18, 4
  11              		.file	"main.c"
  12              		.text
  13              	.Ltext0:
  14              		.cfi_sections	.debug_frame
  15              		.global	__aeabi_fmul
  16              		.global	__aeabi_fadd
  17              		.global	__aeabi_fcmpge
  18              		.global	__aeabi_fcmple
  19              		.section	.text.pid,"ax",%progbits
  20              		.align	1
  21              		.global	pid
  22              		.arch armv7-m
  23              		.syntax unified
  24              		.thumb
  25              		.thumb_func
  26              		.fpu softvfp
  28              	pid:
  29              	.LVL0:
  30              	.LFB68:
  31              		.file 1 "Core/Src/main.c"
   1:Core/Src/main.c **** /* USER CODE BEGIN Header */
   2:Core/Src/main.c **** /**
   3:Core/Src/main.c ****   ******************************************************************************
   4:Core/Src/main.c ****   * @file           : main.c
   5:Core/Src/main.c ****   * @brief          : Main program body
   6:Core/Src/main.c ****   ******************************************************************************
   7:Core/Src/main.c ****   * @attention
   8:Core/Src/main.c ****   *
   9:Core/Src/main.c ****   * <h2><center>&copy; Copyright (c) 2021 STMicroelectronics.
  10:Core/Src/main.c ****   * All rights reserved.</center></h2>
  11:Core/Src/main.c ****   *
  12:Core/Src/main.c ****   * This software component is licensed by ST under BSD 3-Clause license,
  13:Core/Src/main.c ****   * the "License"; You may not use this file except in compliance with the
  14:Core/Src/main.c ****   * License. You may obtain a copy of the License at:
  15:Core/Src/main.c ****   *                        opensource.org/licenses/BSD-3-Clause
  16:Core/Src/main.c ****   *
  17:Core/Src/main.c ****   ******************************************************************************
  18:Core/Src/main.c ****   */
  19:Core/Src/main.c **** /* USER CODE END Header */
  20:Core/Src/main.c **** /* Includes ------------------------------------------------------------------*/
  21:Core/Src/main.c **** #include "main.h"
  22:Core/Src/main.c **** #include "dma.h"
  23:Core/Src/main.c **** #include "tim.h"
  24:Core/Src/main.c **** #include "usart.h"
  25:Core/Src/main.c **** #include "gpio.h"
  26:Core/Src/main.c **** 
  27:Core/Src/main.c **** /* Private includes ----------------------------------------------------------*/
ARM GAS  C:\Users\zhangjd\AppData\Local\Temp\ccXlXJUr.s 			page 2


  28:Core/Src/main.c **** /* USER CODE BEGIN Includes */
  29:Core/Src/main.c **** #include "jy62.h"
  30:Core/Src/main.c **** #include "zigbee.h"
  31:Core/Src/main.c **** /* USER CODE END Includes */
  32:Core/Src/main.c **** 
  33:Core/Src/main.c **** /* Private typedef -----------------------------------------------------------*/
  34:Core/Src/main.c **** /* USER CODE BEGIN PTD */
  35:Core/Src/main.c **** 
  36:Core/Src/main.c **** //////////////////////////////////////Âü∫Êú¨‰ø°ÊÅØ///////////////////////////////////////////
  37:Core/Src/main.c **** //ÂÆöÊó∂Âô®Âë®Êúü‰∏∫50ms
  38:Core/Src/main.c **** 
  39:Core/Src/main.c **** volatile float distance1 = 0.0, distance2 = 0.0, distance3 = 0.0, distance4 = 0.0;
  40:Core/Src/main.c **** extern uint8_t jy62Receive[JY62_MESSAGE_LENGTH];
  41:Core/Src/main.c **** extern uint8_t jy62Message[JY62_MESSAGE_LENGTH];
  42:Core/Src/main.c **** 
  43:Core/Src/main.c **** float angle_obj, dis_obj;         //Êú™‰ΩøÁî®ÁöÑÂÖ®Â±ÄÂèòÈáè??
  44:Core/Src/main.c **** float obj_x, obj_y, car_x, car_y; //Êú™‰ΩøÁî®ÁöÑÂÖ®Â±ÄÂèòÈáè??
  45:Core/Src/main.c **** 
  46:Core/Src/main.c **** //////////////////////////////////////Sol_Car_PosÂáΩÊï∞ÂèòÈáèÂÆö‰πâ////////////////////////////////
  47:Core/Src/main.c **** int beacon_Pos[6];               //‰∏â‰∏™‰ø°Ê†áÂùêÊ†áÔºå‰æùÊ¨°Â≠òÊîæx_1„ÄÅy_1„ÄÅx_2„ÄÅy_2„ÄÅx_3„ÄÅy
  48:Core/Src/main.c **** int car_Pos[2];                  //Â∞èËΩ¶ÂΩìÂâçÂùêÊ†á
  49:Core/Src/main.c **** double beacon_determinant = 0.0; //ËÆ°ÁÆó‰∏≠Èó¥ÂèòÈáè
  50:Core/Src/main.c **** //////////////////////////////////////Sol_Car_PosÂáΩÊï∞ÂÆö‰πâÁªìÊùü////////////////////////////////
  51:Core/Src/main.c **** //////////////////////////////////////Ê±ÇËß£ÈáëÁüø‰ΩçÁΩÆ‰∏≠Èó¥ÂèòÈáèÂÆπÂô®/////////////////////////
  52:Core/Src/main.c **** //Ê±ÇËß£ÈáëÁüø‰ΩçÁΩÆÔøΩ??Ë¶ÅÁî®Âà∞ÂΩìÂâçÊó∂ÂàªÔøΩ?ÔøΩ‰∏äÔøΩ??Êó∂Âàª„ÄÅ‰∏ä‰∏ä‰∏™Êó∂ÂàªÁöÑÂ∞èËΩ¶‰ΩçÁΩ
  53:Core/Src/main.c **** struct Sol_Mine_Pos_Temp
  54:Core/Src/main.c **** {
  55:Core/Src/main.c ****     uint16_t x;   //Â∞èËΩ¶xÂùêÊ†á
  56:Core/Src/main.c ****     uint16_t y;   //Â∞èËΩ¶yÂùêÊ†á
  57:Core/Src/main.c ****     uint32_t E_1; //Âú∫Âº∫1
  58:Core/Src/main.c ****     uint32_t E_2; //Âú∫Âº∫2
  59:Core/Src/main.c **** } Prev_Pos[3] = {{0, 0, 0}, {0, 0, 0}, {0, 0, 0}};
  60:Core/Src/main.c **** short Prev_Pos_head = 0;
  61:Core/Src/main.c **** ////////////////////////////////////Ê±ÇËß£ÈáëÁüø‰ΩçÁΩÆ‰∏≠Èó¥ÂèòÈáèÂÆπÂô®ÁªìÊùü/////////////////////
  62:Core/Src/main.c **** 
  63:Core/Src/main.c **** struct A //ËµÑÊ∫êÂùêÊ†á
  64:Core/Src/main.c **** {
  65:Core/Src/main.c ****     int x[2];         //(x[0],y[0])ÊòØÁ¨¨ÔøΩ??‰∏™ËµÑÊ∫êÁöÑÂùêÊ†á
  66:Core/Src/main.c ****     int y[2];         //(x[1],y[1])ÊòØÁ¨¨‰∫å‰∏™ËµÑÊ∫êÁöÑÂùêÔøΩ??
  67:Core/Src/main.c ****     int iscalculated; //ÊòØÂê¶Ë¢´ËÆ°ÁÆóÂá∫ÔøΩ?? 0-false
  68:Core/Src/main.c ****     int priority;     //ÔøΩ??ËøëËµÑÊ∫êÁöÑ‰∏ãÊ†á
  69:Core/Src/main.c **** } resource_location = {{-1, -1}, {-1, -1}, 0, -1};
  70:Core/Src/main.c **** int score;                //ÂæóÂàÜÔøΩ??
  71:Core/Src/main.c **** int count_pos = 0;        //ÂùêÊ†áËÆ°Êï∞Âô®ÔºåÂåπÈÖç‰∏ä‰ΩçÊú∫È¢ëÁéá
  72:Core/Src/main.c **** int count_beacon = 0;     //‰ø°Ê†áËÆ°Êï∞Âô®ÔºåÁ°Æ‰øùÂÅúÁïô‰∏ÄÁßí
  73:Core/Src/main.c **** int count_storehouse = 0; //‰ªìÂ∫ìËÆ°Êó∂Âô®ÔºåÁ°Æ‰øùÂÅúÁïô‰∏§Áßí
  74:Core/Src/main.c **** uint16_t now;             //ËÆ∞ÂΩïÂΩìÂâçÊó∂Èó¥
  75:Core/Src/main.c **** 
  76:Core/Src/main.c **** int goto_state = 0;
  77:Core/Src/main.c **** float dis_cur, dis_pre;
  78:Core/Src/main.c **** //‰ªìÂ∫ìÂùêÊ†á
  79:Core/Src/main.c **** int rep[8][2] = {{15, 15},
  80:Core/Src/main.c ****                  {127, 15},
  81:Core/Src/main.c ****                  {239, 127},
  82:Core/Src/main.c ****                  {239, 239},
  83:Core/Src/main.c ****                  {127, 239},
  84:Core/Src/main.c ****                  {15, 239},
ARM GAS  C:\Users\zhangjd\AppData\Local\Temp\ccXlXJUr.s 			page 3


  85:Core/Src/main.c ****                  {15, 127}};
  86:Core/Src/main.c **** 
  87:Core/Src/main.c **** int State = -1;
  88:Core/Src/main.c **** //Áä∂ÔøΩ?ÔøΩÂèòÈáèÂØπÂ∫îË°®
  89:Core/Src/main.c **** // -1-ÊØîËµõÊú™ÂºÄÂßãÊàñÂ∑≤ÁªìÔøΩ?
  90:Core/Src/main.c **** // 0-ÂàùÂßã/ÈöèÊÑèÊ∏∏Ëµ∞Ëß£ËµÑÊ∫êÂùêÔøΩ?
  91:Core/Src/main.c **** // 1-Â∑≤Ëé∑ÂæóËµÑÊ∫êÂùêÊ†áÔºåÂéªÁ¨¨ÔøΩ?‰∏™ËµÑÔøΩ?
  92:Core/Src/main.c **** // 2-Â∑≤Êç°Ëµ∑Á¨¨ÔøΩ?‰∏™ËµÑÊ∫êÔºåÂéªÁ¨¨‰∫å‰∏™
  93:Core/Src/main.c **** // 3-ËµÑÊ∫êÂÖ®ÈÉ®Êç°Âà∞ÔºåÂéªÊîæÁ¨¨ÔøΩ?‰∏™‰ø°ÔøΩ?(beacon)
  94:Core/Src/main.c **** // 4-ÂéªÊîæÁ¨¨‰∫å‰∏™‰ø°ÔøΩ?
  95:Core/Src/main.c **** // 5-ÂéªÊîæÁ¨¨‰∏â‰∏™‰ø°ÔøΩ?
  96:Core/Src/main.c **** // 6-Âéª‰ªìÔøΩ?
  97:Core/Src/main.c **** 
  98:Core/Src/main.c **** int destination[2]; //ÊîæÂà∞ÂÖ®Â±Ä
  99:Core/Src/main.c **** int prev_type;      //ÂÖ®Â±Ä ËÆ∞ÂΩï‰∏ä‰∏ÄÊ¨°ÊäµËææ‰ªìÂ∫ìÁöÑÁßçÁ±ª
 100:Core/Src/main.c **** 
 101:Core/Src/main.c **** #define forward_speed 3000
 102:Core/Src/main.c **** #define rotate_speed 3800
 103:Core/Src/main.c **** #define angle_err 5
 104:Core/Src/main.c **** /* USER CODE END PTD */
 105:Core/Src/main.c **** 
 106:Core/Src/main.c **** /* Private define ------------------------------------------------------------*/
 107:Core/Src/main.c **** /* USER CODE BEGIN PD */
 108:Core/Src/main.c **** //////////////////////////////////////Solve_Mine_PosÂáΩÊï∞ÂÆèÂÆöÔøΩ???/////////////////////////////
 109:Core/Src/main.c **** #define A_COFFIENT 1000000000.0 //ÈáëÁüøÂº∫Â∫¶Á≥ªÊï∞A
 110:Core/Src/main.c **** #define POS_ERR_TOL 4           //ÈáëÁüø‰ΩçÁΩÆËÆ°ÁÆóÁªìÊûúÂÅèÁ¶ªÂú∫Âú∞ÁöÑÊúÄÂ§ßËØØÔøΩ???
 111:Core/Src/main.c **** //////////////////////////////////////Solve_Mine_PosÂÆèÂÆö‰πâÁªìÔøΩ???/////////////////////////////
 112:Core/Src/main.c **** ////////////////////////////////////////atan2LUTifÂáΩÊï∞ÂÆèÂÆöÔøΩ???///////////////////////////////
 113:Core/Src/main.c **** #define M_PI_2 1.5707963
 114:Core/Src/main.c **** #define M_PI 3.141592654
 115:Core/Src/main.c **** #define M_PI_4_P_0273 1.05839816339744830962 //M_PI/4 + 0.273
 116:Core/Src/main.c **** const double ATAN_LUT[256] = {0.0000000000, 0.0039215485, 0.0078429764, 0.0117641631, 0.0156849881,
 117:Core/Src/main.c ****                               0.0235250710, 0.0274440882, 0.0313622624, 0.0352794736, 0.0391956019,
 118:Core/Src/main.c ****                               0.0470241318, 0.0509362949, 0.0548468980, 0.0587558227, 0.0626629506,
 119:Core/Src/main.c ****                               0.0704713446, 0.0743723758, 0.0782711405, 0.0821675224, 0.0860614053,
 120:Core/Src/main.c ****                               0.0938412126, 0.0977269074, 0.1016096438, 0.1054893085, 0.1093657884,
 121:Core/Src/main.c ****                               0.1171087446, 0.1209749978, 0.1248376255, 0.1286965013, 0.1325515323,
 122:Core/Src/main.c ****                               0.1402496096, 0.1440924408, 0.1479309912, 0.1517651553, 0.1555948280,
 123:Core/Src/main.c ****                               0.1632402828, 0.1670558588, 0.1708665312, 0.1746721990, 0.1784727620,
 124:Core/Src/main.c ****                               0.1860581771, 0.1898428334, 0.1936219929, 0.1973955598, 0.2011634395,
 125:Core/Src/main.c ****                               0.2086817623, 0.2124320205, 0.2161762215, 0.2199142752, 0.2236460927,
 126:Core/Src/main.c ****                               0.2310906672, 0.2348032511, 0.2385092525, 0.2422085871, 0.2459011721,
 127:Core/Src/main.c ****                               0.2532657662, 0.2569376146, 0.2606023917, 0.2642600199, 0.2679104224,
 128:Core/Src/main.c ****                               0.2751892491, 0.2788175253, 0.2824382800, 0.2860514417, 0.2896569404,
 129:Core/Src/main.c ****                               0.2968446734, 0.3004267728, 0.3040009393, 0.3075671084, 0.3111252164,
 130:Core/Src/main.c ****                               0.3182170002, 0.3217505544, 0.3252758042, 0.3287926915, 0.3323011594,
 131:Core/Src/main.c ****                               0.3392926145, 0.3427754932, 0.3462497357, 0.3497152904, 0.3531721069,
 132:Core/Src/main.c ****                               0.3600593294, 0.3634896400, 0.3669110217, 0.3703234297, 0.3737268255,
 133:Core/Src/main.c ****                               0.3805063771, 0.3838824615, 0.3872493632, 0.3906070437, 0.3939554653,
 134:Core/Src/main.c ****                               0.4006243869, 0.4039448169, 0.4072558481, 0.4105574480, 0.4138495853,
 135:Core/Src/main.c ****                               0.4204053512, 0.4236689219, 0.4269229141, 0.4301673014, 0.4334020581,
 136:Core/Src/main.c ****                               0.4398425828, 0.4430483044, 0.4462443029, 0.4494305575, 0.4526070482,
 137:Core/Src/main.c ****                               0.4589306629, 0.4620777516, 0.4652150058, 0.4683424102, 0.4714599501,
 138:Core/Src/main.c ****                               0.4776653824, 0.4807532499, 0.4838312032, 0.4868992318, 0.4899573263,
 139:Core/Src/main.c ****                               0.4960436784, 0.4990719209, 0.5020901990, 0.5050985071, 0.5080968402,
 140:Core/Src/main.c ****                               0.5140635659, 0.5170319525, 0.5199903521, 0.5229387636, 0.5258771863,
 141:Core/Src/main.c ****                               0.5317240673, 0.5346325278, 0.5375310045, 0.5404195003, 0.5432980185,
ARM GAS  C:\Users\zhangjd\AppData\Local\Temp\ccXlXJUr.s 			page 4


 142:Core/Src/main.c ****                               0.5490251398, 0.5518737530, 0.5547124091, 0.5575411147, 0.5603598769,
 143:Core/Src/main.c ****                               0.5659676030, 0.5687565842, 0.5715356566, 0.5743048302, 0.5770641155,
 144:Core/Src/main.c ****                               0.5825530662, 0.5852827553, 0.5880026035, 0.5907126240, 0.5934128303,
 145:Core/Src/main.c ****                               0.5987838570, 0.6014547069, 0.6041158015, 0.6067671569, 0.6094087892,
 146:Core/Src/main.c ****                               0.6146629519, 0.6172755171, 0.6198784285, 0.6224717045, 0.6250553640,
 147:Core/Src/main.c ****                               0.6301939095, 0.6327488350, 0.6352942223, 0.6378300921, 0.6403564651,
 148:Core/Src/main.c ****                               0.6453808058, 0.6478788169, 0.6503674179, 0.6528466311, 0.6553164793,
 149:Core/Src/main.c ****                               0.6602281731, 0.6626700655, 0.6651026865, 0.6675260602, 0.6699402110,
 150:Core/Src/main.c ****                               0.6747409422, 0.6771275725, 0.6795050796, 0.6818734889, 0.6842328261,
 151:Core/Src/main.c ****                               0.6889243882, 0.6912566655, 0.6935799756, 0.6958943450, 0.6981998008,
 152:Core/Src/main.c ****                               0.7027840796, 0.7050629571, 0.7073330300, 0.7095943260, 0.7118468729,
 153:Core/Src/main.c ****                               0.7163258312, 0.7185522990, 0.7207701302, 0.7229793534, 0.7251799971,
 154:Core/Src/main.c ****                               0.7295556609, 0.7317307387, 0.7338973524, 0.7360555311, 0.7382053040,
 155:Core/Src/main.c ****                               0.7424797493, 0.7446044805, 0.7467209234, 0.7488291075, 0.7509290624,
 156:Core/Src/main.c ****                               0.7551044035, 0.7571798492, 0.7592471847, 0.7613064400, 0.7633576449,
 157:Core/Src/main.c ****                               0.7674360235, 0.7694632573, 0.7714825607, 0.7734939638, 0.7754974968,
 158:Core/Src/main.c ****                               0.7794810727, 0.7814611759, 0.7834335294, 0.7853981634};
 159:Core/Src/main.c **** ////////////////////////////////////////atan2LUTifÂÆèÂÆö‰πâÁªìÔøΩ???///////////////////////////////
 160:Core/Src/main.c **** 
 161:Core/Src/main.c **** /* USER CODE END PD */
 162:Core/Src/main.c **** 
 163:Core/Src/main.c **** /* Private macro -------------------------------------------------------------*/
 164:Core/Src/main.c **** /* USER CODE BEGIN PM */
 165:Core/Src/main.c **** 
 166:Core/Src/main.c **** /* USER CODE END PM */
 167:Core/Src/main.c **** 
 168:Core/Src/main.c **** /* Private variables ---------------------------------------------------------*/
 169:Core/Src/main.c **** 
 170:Core/Src/main.c **** /* USER CODE BEGIN PV */
 171:Core/Src/main.c **** const float Kp = 300.0;
 172:Core/Src/main.c **** const float Ki = -118;
 173:Core/Src/main.c **** const float Kd = 50;
 174:Core/Src/main.c **** float state[3] = {0.0};
 175:Core/Src/main.c **** /* USER CODE END PV */
 176:Core/Src/main.c **** 
 177:Core/Src/main.c **** /* Private function prototypes -----------------------------------------------*/
 178:Core/Src/main.c **** void SystemClock_Config(void);
 179:Core/Src/main.c **** /* USER CODE BEGIN PFP */
 180:Core/Src/main.c **** 
 181:Core/Src/main.c **** /* USER CODE END PFP */
 182:Core/Src/main.c **** 
 183:Core/Src/main.c **** /* Private user code ---------------------------------------------------------*/
 184:Core/Src/main.c **** /* USER CODE BEGIN 0 */
 185:Core/Src/main.c **** 
 186:Core/Src/main.c **** void HAL_TIM_PeriodElapsedCallback(TIM_HandleTypeDef *htim)
 187:Core/Src/main.c **** {
 188:Core/Src/main.c ****     HAL_UART_Receive_DMA(&huart2, jy62Receive, JY62_MESSAGE_LENGTH);
 189:Core/Src/main.c ****     if (htim->Instance == TIM1)
 190:Core/Src/main.c ****     {
 191:Core/Src/main.c ****         if (State < 10)
 192:Core/Src/main.c ****         {
 193:Core/Src/main.c ****             count_pos++; //Ëøõ‰∏§Ê¨°ÂÆöÊó∂Âô®Êõ¥Êñ∞‰∏ÄÊ¨°Â∞èËΩ¶xyÂùêÊ†á
 194:Core/Src/main.c ****             if (count_pos == 2)
 195:Core/Src/main.c ****             {
 196:Core/Src/main.c ****                 car_Pos[0] = getCarPosX();
 197:Core/Src/main.c ****                 car_Pos[1] = getCarPosY(); ///Êõ¥Êñ∞Â∞èËΩ¶xyÂùêÊ†á
 198:Core/Src/main.c ****                 count_pos = 0;
ARM GAS  C:\Users\zhangjd\AppData\Local\Temp\ccXlXJUr.s 			page 5


 199:Core/Src/main.c ****             }
 200:Core/Src/main.c ****         }
 201:Core/Src/main.c ****         else
 202:Core/Src/main.c ****         {
 203:Core/Src/main.c ****             uint16_t r_0, r_1, r_2; //Â∞èËΩ¶Âà∞‰ø°Ê†áÁöÑË∑ùÁ¶ª ÊîæÂà∞ÂÖ®Â±Ä
 204:Core/Src/main.c ****             r_0 = getDistanceOfMyBeacon(0);
 205:Core/Src/main.c ****             r_1 = getDistanceOfMyBeacon(1);
 206:Core/Src/main.c ****             r_2 = getDistanceOfMyBeacon(2);
 207:Core/Src/main.c ****             Sol_Car_Pos(r_0, r_1, r_2); ///Êõ¥Êñ∞Â∞èËΩ¶xyÂùêÊ†á
 208:Core/Src/main.c ****         }
 209:Core/Src/main.c **** 
 210:Core/Src/main.c ****         switch (State)
 211:Core/Src/main.c ****         {
 212:Core/Src/main.c ****         case (0): //ÂàùÂßãÁä∂ÔøΩ??
 213:Core/Src/main.c ****         {
 214:Core/Src/main.c ****             ////////////////////////Ëøô‰∏ÄÈÉ®ÂàÜÂ∫îÂΩì‰ªîÁªÜÔøΩ??ÔøΩ??/////////////////////////////
 215:Core/Src/main.c ****             ////////////////////////Ëøô‰∏ÄÈÉ®ÂàÜÂ∫îÂΩì‰ªîÁªÜÔøΩ??ÔøΩ??/////////////////////////////
 216:Core/Src/main.c ****             ////////////////////////Ëøô‰∏ÄÈÉ®ÂàÜÂ∫îÂΩì‰ªîÁªÜÔøΩ??ÔøΩ??/////////////////////////////
 217:Core/Src/main.c ****             //Ê≠•È™§1ÔºöÈöèÊÑèËµ∞ÔøΩ??
 218:Core/Src/main.c ****             rotate_clockwise_plus_forward(rotate_speed); ///ÂàùÂßãÊó∂ËΩ¨ÂúàÔºåÁ°ÆÂÆöËµÑÊ∫êÂùêÊ†á
 219:Core/Src/main.c ****             //Ê≠•È™§2ÔºöËß£ÁÆó‰∏§‰∏™ËµÑÊ∫êÂùêÔøΩ?? =====ÂæÖÂÆûÔøΩ??=====
 220:Core/Src/main.c ****             // if (resource_location.iscalculated == 1) //Â¶ÇÊûúÊµãÁÆóÂá∫ÂùêÔøΩ??
 221:Core/Src/main.c ****             // {
 222:Core/Src/main.c ****             //     State = 1; //ËøõÂÖ•‰∏ã‰∏ÄÁä∂ÔøΩ??
 223:Core/Src/main.c ****             //     //Ê≠•È™§3ÔºöÁ°ÆÂÆöÁ¶ªËΩ¶ÊúÄËøëÁöÑÔøΩ??ÔøΩ??
 224:Core/Src/main.c ****             //     resource_location.priority = (resource_location.x[0]*resource_location.x[0]+reso
 225:Core/Src/main.c ****             // }
 226:Core/Src/main.c ****             // break;
 227:Core/Src/main.c ****             if (Solve_Mine_Pos(Prev_Pos[0].x, Prev_Pos[0].y, Prev_Pos[0].E_1, Prev_Pos[1].x, Prev_P
 228:Core/Src/main.c ****             {
 229:Core/Src/main.c ****                 //Âà©Áî®Solve_Mine_PosÂáΩÊï∞ËøîÂõûÂÄºÁõ¥Êé•Âà§Êñ≠ËÆ°ÁÆóÊòØÂê¶ÊàêÔøΩ??
 230:Core/Src/main.c ****                 State = 1; //ËøõÂÖ•‰∏ã‰∏ÄÁä∂ÔøΩ??
 231:Core/Src/main.c ****                 //Ê≠•È™§3ÔºöÁ°ÆÂÆöÁ¶ªËΩ¶ÊúÄËøëÁöÑÔøΩ??ÔøΩ??
 232:Core/Src/main.c ****                 resource_location.priority = (resource_location.x[0] * resource_location.x[0] + res
 233:Core/Src/main.c ****                 break;
 234:Core/Src/main.c ****             }
 235:Core/Src/main.c ****             else
 236:Core/Src/main.c ****             {
 237:Core/Src/main.c ****                 //caseËÆ°ÁÆó‰∏çÊàêÂäüÔºåÔøΩ??Ë¶ÅÊõ¥Êñ∞‰ΩçÁΩÆ‰∏éÂú∫Âº∫‰ø°ÊÅØÔºåÈáçÊñ∞ËÆ°ÁÆóÔøΩ??
 238:Core/Src/main.c ****                 Prev_Pos[Prev_Pos_head].x = getCarPosX();          //Âà©Áî®getCarPosXÂáΩÊï∞Ëé∑ÂèñÂ∞
 239:Core/Src/main.c ****                 Prev_Pos[Prev_Pos_head].y = getCarPosY();          //Âêå‰∏ä
 240:Core/Src/main.c ****                 Prev_Pos[Prev_Pos_head].E_1 = getMineIntensity(0); //Âà©Áî®getMineIntensityÂáΩÊï∞Êõ
 241:Core/Src/main.c ****                 Prev_Pos[Prev_Pos_head].E_2 = getMineIntensity(1); //Âêå‰∏ä
 242:Core/Src/main.c ****                 Prev_Pos_head = (Prev_Pos_head + 1) % 3;           //Â§¥ÊåáÈíàÂæ™ÁéØÂú∞ÂêéÁßª
 243:Core/Src/main.c ****                 break;
 244:Core/Src/main.c ****             }
 245:Core/Src/main.c ****         }
 246:Core/Src/main.c ****         case (1):
 247:Core/Src/main.c ****         {
 248:Core/Src/main.c ****             //ÂéªÊúÄËøëÁöÑËµÑÊ∫ê
 249:Core/Src/main.c ****             if (goto_state == 0)
 250:Core/Src/main.c ****                 Goto(resource_location.x[resource_location.priority], resource_location.y[resource_
 251:Core/Src/main.c ****             dis_cur = (resource_location.x[resource_location.priority] - car_Pos[0]) * (resource_lo
 252:Core/Src/main.c ****             if (getCarMineSumNum() == 1)
 253:Core/Src/main.c ****             {
 254:Core/Src/main.c ****                 State = 2; //ËøõÂÖ•‰∏ã‰∏ÄÁä∂ÔøΩ??
 255:Core/Src/main.c ****                 goto_state = 0;
ARM GAS  C:\Users\zhangjd\AppData\Local\Temp\ccXlXJUr.s 			page 6


 256:Core/Src/main.c ****                 // score = getCarScore(); //Êõ¥Êñ∞ÂΩìÂâçÂàÜÊï∞
 257:Core/Src/main.c ****             }
 258:Core/Src/main.c ****             if (goto_state)
 259:Core/Src/main.c ****             {
 260:Core/Src/main.c ****                 if (dis_cur > dis_pre + 300)
 261:Core/Src/main.c ****                     goto_state = 0;
 262:Core/Src/main.c ****             }
 263:Core/Src/main.c ****             dis_pre = dis_cur;
 264:Core/Src/main.c ****             break;
 265:Core/Src/main.c ****         }
 266:Core/Src/main.c ****         case (2):
 267:Core/Src/main.c ****         {
 268:Core/Src/main.c ****             //ÂéªÁ¨¨‰∫å‰∏™ËµÑÊ∫ê
 269:Core/Src/main.c ****             if (goto_state == 0)
 270:Core/Src/main.c ****                 Goto(resource_location.x[!resource_location.priority], resource_location.y[!resourc
 271:Core/Src/main.c ****             dis_cur = (resource_location.x[!resource_location.priority] - car_Pos[0]) * (resource_l
 272:Core/Src/main.c ****             if (getCarMineSumNum() == 1)
 273:Core/Src/main.c ****             {
 274:Core/Src/main.c ****                 State = 3; //ËøõÂÖ•‰∏ã‰∏ÄÁä∂ÔøΩ??
 275:Core/Src/main.c ****                 goto_state = 0;
 276:Core/Src/main.c ****                 // score = getCarScore(); //Êõ¥Êñ∞ÂΩìÂâçÂàÜÊï∞
 277:Core/Src/main.c ****             }
 278:Core/Src/main.c ****             if (goto_state)
 279:Core/Src/main.c ****             {
 280:Core/Src/main.c ****                 if (dis_cur > dis_pre + 300)
 281:Core/Src/main.c ****                     goto_state = 0;
 282:Core/Src/main.c ****             }
 283:Core/Src/main.c ****             dis_pre = dis_cur;
 284:Core/Src/main.c ****             break;
 285:Core/Src/main.c ****         }
 286:Core/Src/main.c ****         case (3):
 287:Core/Src/main.c ****         {
 288:Core/Src/main.c ****             //ÊîæÁΩÆÁ¨¨‰∏Ä‰∏™‰ø°ÔøΩ? (127,60Ôºâ‰∏≠ÂÅè‰∏ä
 289:Core/Src/main.c ****             if ((car_Pos[0] - 127) * (car_Pos[0] - 127) + (car_Pos[1] - 30) * (car_Pos[1] - 30) < 1
 290:Core/Src/main.c ****             {
 291:Core/Src/main.c ****                 brake(); //ÂàπËΩ¶
 292:Core/Src/main.c ****                 count_beacon++;
 293:Core/Src/main.c ****                 if (count_beacon <= 20)
 294:Core/Src/main.c ****                 {
 295:Core/Src/main.c ****                     HAL_GPIO_WritePin(GPIOC, GPIO_PIN_0, GPIO_PIN_SET);
 296:Core/Src/main.c ****                 }
 297:Core/Src/main.c ****                 else
 298:Core/Src/main.c ****                 {
 299:Core/Src/main.c ****                     State = 4;
 300:Core/Src/main.c ****                     count_beacon = 0;
 301:Core/Src/main.c ****                     beacon_Pos[0] = getCarPosX();
 302:Core/Src/main.c ****                     beacon_Pos[1] = getCarPosY(); //Áªôbeacon_PosËµãÔøΩ?ÔøΩÔºåÁî®‰∫éÁ¨¨‰∫åÂõûÂêàÁ≤æ
 303:Core/Src/main.c ****                     HAL_GPIO_WritePin(GPIOC, GPIO_PIN_0, GPIO_PIN_RESET);
 304:Core/Src/main.c ****                     goto_state = 0;
 305:Core/Src/main.c ****                 }
 306:Core/Src/main.c ****             }
 307:Core/Src/main.c ****             else
 308:Core/Src/main.c ****             {
 309:Core/Src/main.c ****                 if (goto_state == 0)
 310:Core/Src/main.c ****                     Goto(127, 30);
 311:Core/Src/main.c ****             }
 312:Core/Src/main.c **** 
ARM GAS  C:\Users\zhangjd\AppData\Local\Temp\ccXlXJUr.s 			page 7


 313:Core/Src/main.c ****             break;
 314:Core/Src/main.c ****         }
 315:Core/Src/main.c ****         case (4):
 316:Core/Src/main.c ****         {
 317:Core/Src/main.c ****             //ÊîæÁΩÆÁ¨¨‰∫å‰∏™‰ø°ÔøΩ?? (127,127)Ê≠£‰∏≠ÔøΩ??
 318:Core/Src/main.c ****             if ((car_Pos[0] - 127) * (car_Pos[0] - 127) + (car_Pos[1] - 127) * (car_Pos[1] - 127) <
 319:Core/Src/main.c ****             {
 320:Core/Src/main.c ****                 brake(); //ÂàπËΩ¶
 321:Core/Src/main.c ****                 count_beacon++;
 322:Core/Src/main.c ****                 if (count_beacon <= 20)
 323:Core/Src/main.c ****                 {
 324:Core/Src/main.c ****                     HAL_GPIO_WritePin(GPIOC, GPIO_PIN_0, GPIO_PIN_SET);
 325:Core/Src/main.c ****                 }
 326:Core/Src/main.c ****                 else
 327:Core/Src/main.c ****                 {
 328:Core/Src/main.c ****                     State = 5;
 329:Core/Src/main.c ****                     count_beacon = 0;
 330:Core/Src/main.c ****                     beacon_Pos[2] = getCarPosX();
 331:Core/Src/main.c ****                     beacon_Pos[3] = getCarPosY(); //Áªôbeacon_PosËµãÔøΩ?ÔøΩÔºåÁî®‰∫éÁ¨¨‰∫åÂõûÂêàÁ≤æ
 332:Core/Src/main.c ****                     HAL_GPIO_WritePin(GPIOC, GPIO_PIN_0, GPIO_PIN_RESET);
 333:Core/Src/main.c ****                     goto_state = 0;
 334:Core/Src/main.c ****                 }
 335:Core/Src/main.c ****             }
 336:Core/Src/main.c ****             else
 337:Core/Src/main.c ****             {
 338:Core/Src/main.c ****                 if (goto_state == 0)
 339:Core/Src/main.c ****                     Goto(127, 60);
 340:Core/Src/main.c ****             }
 341:Core/Src/main.c ****             break;
 342:Core/Src/main.c ****         }
 343:Core/Src/main.c ****         case (5):
 344:Core/Src/main.c ****         {
 345:Core/Src/main.c ****             //ÊîæÁΩÆÁ¨¨‰∏â‰∏™‰ø°ÔøΩ?? (60,127)‰∏≠ÂÅèÔøΩ??
 346:Core/Src/main.c ****             if ((car_Pos[0] - 60) * (car_Pos[0] - 60) + (car_Pos[1] - 127) * (car_Pos[1] - 127) < 1
 347:Core/Src/main.c ****             {
 348:Core/Src/main.c ****                 brake(); //ÂàπËΩ¶
 349:Core/Src/main.c ****                 count_beacon++;
 350:Core/Src/main.c ****                 if (count_beacon <= 20)
 351:Core/Src/main.c ****                 {
 352:Core/Src/main.c ****                     HAL_GPIO_WritePin(GPIOC, GPIO_PIN_0, GPIO_PIN_SET);
 353:Core/Src/main.c ****                 }
 354:Core/Src/main.c ****                 else
 355:Core/Src/main.c ****                 {
 356:Core/Src/main.c ****                     State = 6;
 357:Core/Src/main.c ****                     count_beacon = 0;
 358:Core/Src/main.c ****                     beacon_Pos[4] = getCarPosX();
 359:Core/Src/main.c ****                     beacon_Pos[5] = getCarPosY(); //Áªôbeacon_PosËµãÔøΩ?ÔøΩÔºåÁî®‰∫éÁ¨¨‰∫åÂõûÂêàÁ≤æ
 360:Core/Src/main.c ****                     HAL_GPIO_WritePin(GPIOC, GPIO_PIN_0, GPIO_PIN_RESET);
 361:Core/Src/main.c ****                     goto_state = 0;
 362:Core/Src/main.c ****                 }
 363:Core/Src/main.c ****             }
 364:Core/Src/main.c ****             else
 365:Core/Src/main.c ****             {
 366:Core/Src/main.c ****                 if (goto_state == 0)
 367:Core/Src/main.c ****                     Goto(127, 30);
 368:Core/Src/main.c ****             }
 369:Core/Src/main.c ****             break;
ARM GAS  C:\Users\zhangjd\AppData\Local\Temp\ccXlXJUr.s 			page 8


 370:Core/Src/main.c ****         }
 371:Core/Src/main.c ****         case (6):
 372:Core/Src/main.c ****         {
 373:Core/Src/main.c ****             //ÂéªÊúÄËøë‰ªìÔøΩ?7Âè∑Ôºå‰∏çÂà§Êñ≠ÊòØÂê¶Âà∞ÔøΩ??
 374:Core/Src/main.c ****             //ËøòÊòØÂà§Êñ≠‰∏Ä‰∏ãÂêß
 375:Core/Src/main.c ****             if ((car_Pos[0] - 15) * (car_Pos[0] - 15) + (car_Pos[1] - 127) * (car_Pos[1] - 127) < 1
 376:Core/Src/main.c ****             {
 377:Core/Src/main.c ****                 brake();    //ÂàπËΩ¶
 378:Core/Src/main.c ****                 State = -1; //Á¨¨‰∏ÄÂõûÂêàÁªìÊùü
 379:Core/Src/main.c ****             }
 380:Core/Src/main.c ****             else
 381:Core/Src/main.c ****                 Goto(15, 127);
 382:Core/Src/main.c ****             break;
 383:Core/Src/main.c ****         }
 384:Core/Src/main.c ****         case (10):
 385:Core/Src/main.c ****         {
 386:Core/Src/main.c ****             score = getCarScore();
 387:Core/Src/main.c ****             //Ê±ÇËß£ËµÑÊ∫êÂùêÊ†á
 388:Core/Src/main.c ****             if (Solve_Mine_Pos(Prev_Pos[0].x, Prev_Pos[0].y, Prev_Pos[0].E_1, Prev_Pos[1].x, Prev_P
 389:Core/Src/main.c ****             {
 390:Core/Src/main.c ****                 //Âà©Áî®Solve_Mine_PosÂáΩÊï∞ËøîÂõûÂÄºÁõ¥Êé•Âà§Êñ≠ËÆ°ÁÆóÊòØÂê¶ÊàêÔøΩ?
 391:Core/Src/main.c ****                 State = 11; //ËøõÂÖ•Ë°åËøõÊ®°Âºè
 392:Core/Src/main.c ****                 //Á°ÆÂÆöÁ¶ªËΩ¶ÊúÄËøëÁöÑËµÑÊ∫ê
 393:Core/Src/main.c ****                 resource_location.priority = (resource_location.x[0] * resource_location.x[0] + res
 394:Core/Src/main.c ****             }
 395:Core/Src/main.c ****             else
 396:Core/Src/main.c ****             {
 397:Core/Src/main.c ****                 //caseËÆ°ÁÆó‰∏çÊàêÂäüÔºåÔøΩ?Ë¶ÅÊõ¥Êñ∞‰ΩçÁΩÆ‰∏éÂú∫Âº∫‰ø°ÊÅØÔºåÈáçÊñ∞ËÆ°ÁÆóÔøΩ??
 398:Core/Src/main.c ****                 Prev_Pos[Prev_Pos_head].x = getCarPosX();          //Âà©Áî®getCarPosXÂáΩÊï∞Ëé∑ÂèñÂ∞
 399:Core/Src/main.c ****                 Prev_Pos[Prev_Pos_head].y = getCarPosY();          //Âêå‰∏ä
 400:Core/Src/main.c ****                 Prev_Pos[Prev_Pos_head].E_1 = getMineIntensity(0); //Âà©Áî®getMineIntensityÂáΩÊï∞Êõ
 401:Core/Src/main.c ****                 Prev_Pos[Prev_Pos_head].E_1 = getMineIntensity(1); //Âêå‰∏ä
 402:Core/Src/main.c ****                 Prev_Pos_head = (Prev_Pos_head + 1) % 3;           //Â§¥ÊåáÈíàÂæ™ÁéØÂú∞ÂêéÁßª
 403:Core/Src/main.c ****             }
 404:Core/Src/main.c ****             break;
 405:Core/Src/main.c ****         }
 406:Core/Src/main.c ****         case (11):
 407:Core/Src/main.c ****         {
 408:Core/Src/main.c ****             Goto(resource_location.x[!resource_location.priority], resource_location.y[!resource_lo
 409:Core/Src/main.c ****             if (getCarScore() > score)
 410:Core/Src/main.c ****             {
 411:Core/Src/main.c ****                 State = 10;                   //ËøîÂõûËÆ°ÁÆóÁä∂ÊÄÅ
 412:Core/Src/main.c ****                 if (getCarMineSumNum() == 10) //Êª°ËΩΩ
 413:Core/Src/main.c ****                     State = 12;               //ËÄåÂΩí
 414:Core/Src/main.c ****             }
 415:Core/Src/main.c ****             break;
 416:Core/Src/main.c ****         }
 417:Core/Src/main.c ****         case (12):
 418:Core/Src/main.c ****         {
 419:Core/Src/main.c ****             //ËÆ°ÁÆóÂ∞èËΩ¶Âà∞8‰∏™‰ªìÂ∫ìÁöÑË∑ùÁ¶ª
 420:Core/Src/main.c ****             Get_Rep_opt(car_Pos[0], car_Pos[1]);
 421:Core/Src/main.c ****             State = 13;
 422:Core/Src/main.c ****         }
 423:Core/Src/main.c ****         case (13):
 424:Core/Src/main.c ****         {
 425:Core/Src/main.c ****             Goto(destination[0], destination[1]); //ÂâçÂæÄ‰ªìÂ∫ì
 426:Core/Src/main.c ****             if (getCarScore() > score)            //ËøêÈÄÅÊàêÂäü
ARM GAS  C:\Users\zhangjd\AppData\Local\Temp\ccXlXJUr.s 			page 9


 427:Core/Src/main.c ****             {
 428:Core/Src/main.c ****                 State = 12;                  //ËøîÂõûËÆ°ÁÆóÁä∂ÊÄÅ
 429:Core/Src/main.c ****                 if (getCarMineSumNum() == 0) //ÂÖ®ÈÉ®Âç∏ËΩΩ
 430:Core/Src/main.c ****                     State = 10;
 431:Core/Src/main.c ****             }
 432:Core/Src/main.c ****             break;
 433:Core/Src/main.c ****         }
 434:Core/Src/main.c ****         }
 435:Core/Src/main.c ****     }
 436:Core/Src/main.c **** }
 437:Core/Src/main.c **** /* USER CODE END 0 */
 438:Core/Src/main.c **** 
 439:Core/Src/main.c **** /**
 440:Core/Src/main.c ****   * @brief  The application entry point.
 441:Core/Src/main.c ****   * @retval int
 442:Core/Src/main.c ****   */
 443:Core/Src/main.c **** int main(void)
 444:Core/Src/main.c **** {
 445:Core/Src/main.c ****     /* USER CODE BEGIN 1 */
 446:Core/Src/main.c ****     /* USER CODE END 1 */
 447:Core/Src/main.c **** 
 448:Core/Src/main.c ****     /* MCU Configuration--------------------------------------------------------*/
 449:Core/Src/main.c **** 
 450:Core/Src/main.c ****     /* Reset of all peripherals, Initializes the Flash interface and the Systick. */
 451:Core/Src/main.c ****     HAL_Init();
 452:Core/Src/main.c **** 
 453:Core/Src/main.c ****     /* USER CODE BEGIN Init */
 454:Core/Src/main.c ****     jy62_Init(&huart2);
 455:Core/Src/main.c ****     SetBaud(115200);
 456:Core/Src/main.c ****     SetHorizontal();
 457:Core/Src/main.c ****     InitAngle();
 458:Core/Src/main.c ****     Calibrate();
 459:Core/Src/main.c ****     SleepOrAwake();
 460:Core/Src/main.c ****     /* USER CODE END Init */
 461:Core/Src/main.c **** 
 462:Core/Src/main.c ****     /* Configure the system clock */
 463:Core/Src/main.c ****     SystemClock_Config();
 464:Core/Src/main.c **** 
 465:Core/Src/main.c ****     /* USER CODE BEGIN SysInit */
 466:Core/Src/main.c **** 
 467:Core/Src/main.c ****     /* USER CODE END SysInit */
 468:Core/Src/main.c **** 
 469:Core/Src/main.c ****     /* Initialize all configured peripherals */
 470:Core/Src/main.c ****     MX_GPIO_Init();
 471:Core/Src/main.c ****     MX_TIM1_Init();
 472:Core/Src/main.c ****     MX_TIM2_Init();
 473:Core/Src/main.c ****     MX_TIM8_Init();
 474:Core/Src/main.c ****     MX_TIM3_Init();
 475:Core/Src/main.c ****     MX_TIM4_Init();
 476:Core/Src/main.c ****     MX_DMA_Init();
 477:Core/Src/main.c ****     MX_USART2_UART_Init();
 478:Core/Src/main.c ****     MX_USART1_UART_Init();
 479:Core/Src/main.c ****     MX_TIM5_Init();
 480:Core/Src/main.c ****     /* USER CODE BEGIN 2 */
 481:Core/Src/main.c ****     zigbee_Init(&huart1);
 482:Core/Src/main.c ****     HAL_TIM_Base_Start_IT(&htim1);
 483:Core/Src/main.c ****     HAL_TIM_PWM_Start(&htim8, TIM_CHANNEL_1);
ARM GAS  C:\Users\zhangjd\AppData\Local\Temp\ccXlXJUr.s 			page 10


 484:Core/Src/main.c ****     HAL_TIM_PWM_Start(&htim8, TIM_CHANNEL_2);
 485:Core/Src/main.c ****     HAL_TIM_PWM_Start(&htim8, TIM_CHANNEL_3);
 486:Core/Src/main.c ****     HAL_TIM_PWM_Start(&htim8, TIM_CHANNEL_4);
 487:Core/Src/main.c ****     HAL_TIM_Encoder_Start(&htim2, TIM_CHANNEL_1);
 488:Core/Src/main.c ****     HAL_TIM_Encoder_Start(&htim2, TIM_CHANNEL_2);
 489:Core/Src/main.c ****     HAL_TIM_Encoder_Start(&htim3, TIM_CHANNEL_1);
 490:Core/Src/main.c ****     HAL_TIM_Encoder_Start(&htim3, TIM_CHANNEL_2);
 491:Core/Src/main.c ****     HAL_TIM_Encoder_Start(&htim4, TIM_CHANNEL_1);
 492:Core/Src/main.c ****     HAL_TIM_Encoder_Start(&htim4, TIM_CHANNEL_2);
 493:Core/Src/main.c ****     HAL_TIM_Encoder_Start(&htim5, TIM_CHANNEL_1);
 494:Core/Src/main.c ****     HAL_TIM_Encoder_Start(&htim5, TIM_CHANNEL_2);
 495:Core/Src/main.c ****     jy62_Init(&huart2);
 496:Core/Src/main.c ****     void jy62_Init(UART_HandleTypeDef * huart);
 497:Core/Src/main.c **** 
 498:Core/Src/main.c ****     HAL_GPIO_WritePin(GPIOB, GPIO_PIN_0, GPIO_PIN_SET);
 499:Core/Src/main.c ****     HAL_GPIO_WritePin(GPIOB, GPIO_PIN_1, GPIO_PIN_RESET);
 500:Core/Src/main.c ****     HAL_GPIO_WritePin(GPIOB, GPIO_PIN_2, GPIO_PIN_RESET);
 501:Core/Src/main.c ****     HAL_GPIO_WritePin(GPIOB, GPIO_PIN_10, GPIO_PIN_SET);
 502:Core/Src/main.c ****     HAL_GPIO_WritePin(GPIOB, GPIO_PIN_11, GPIO_PIN_SET);
 503:Core/Src/main.c ****     HAL_GPIO_WritePin(GPIOB, GPIO_PIN_12, GPIO_PIN_RESET);
 504:Core/Src/main.c ****     HAL_GPIO_WritePin(GPIOB, GPIO_PIN_13, GPIO_PIN_RESET);
 505:Core/Src/main.c ****     HAL_GPIO_WritePin(GPIOB, GPIO_PIN_14, GPIO_PIN_SET);
 506:Core/Src/main.c ****     /* USER CODE END 2 */
 507:Core/Src/main.c **** 
 508:Core/Src/main.c ****     /* Infinite loop */
 509:Core/Src/main.c ****     /* USER CODE BEGIN WHILE */
 510:Core/Src/main.c ****     while (1)
 511:Core/Src/main.c ****     {
 512:Core/Src/main.c ****         /* USER CODE END WHILE */
 513:Core/Src/main.c **** 
 514:Core/Src/main.c ****         /* USER CODE BEGIN 3 */
 515:Core/Src/main.c ****         // rotate_clockwise_plus_forward(rotate_speed);
 516:Core/Src/main.c ****         // u1_printf(getGameState());
 517:Core/Src/main.c ****         // u1_printf("\n");
 518:Core/Src/main.c ****         // rotate_clockwise(rotate_speed);
 519:Core/Src/main.c ****         // Goto(20, 20);
 520:Core/Src/main.c ****         // HAL_Delay(100);
 521:Core/Src/main.c ****         if (getGameState() == 3)
 522:Core/Src/main.c ****         {
 523:Core/Src/main.c ****             State = -1;
 524:Core/Src/main.c ****         }
 525:Core/Src/main.c ****         if ((getGameState() == 1) && (getCarTask() == 0) && (State < 0)) //‰∏äÂçäÔøΩ?
 526:Core/Src/main.c ****         {
 527:Core/Src/main.c ****             State = 0;
 528:Core/Src/main.c ****         }
 529:Core/Src/main.c ****         if ((getGameState() == 1) && (getCarTask() == 1)) //‰∏ãÂçäÔøΩ?
 530:Core/Src/main.c ****         {
 531:Core/Src/main.c ****             if (State < 10)
 532:Core/Src/main.c ****             {
 533:Core/Src/main.c ****                 State = 10;
 534:Core/Src/main.c ****                 Sol_Car_Pos_INIT();
 535:Core/Src/main.c ****             }
 536:Core/Src/main.c ****             if ((getGameTime() > 1000) && (State < 12)) //ÔøΩ?ÂêéÊó∂ÔøΩ?
 537:Core/Src/main.c ****                 State = 12;
 538:Core/Src/main.c ****         }
 539:Core/Src/main.c ****     }
 540:Core/Src/main.c ****     /* USER CODE END 3 */
ARM GAS  C:\Users\zhangjd\AppData\Local\Temp\ccXlXJUr.s 			page 11


 541:Core/Src/main.c **** }
 542:Core/Src/main.c **** 
 543:Core/Src/main.c **** /**
 544:Core/Src/main.c ****   * @brief System Clock Configuration
 545:Core/Src/main.c ****   * @retval None
 546:Core/Src/main.c ****   */
 547:Core/Src/main.c **** void SystemClock_Config(void)
 548:Core/Src/main.c **** {
 549:Core/Src/main.c ****     RCC_OscInitTypeDef RCC_OscInitStruct = {0};
 550:Core/Src/main.c ****     RCC_ClkInitTypeDef RCC_ClkInitStruct = {0};
 551:Core/Src/main.c **** 
 552:Core/Src/main.c ****     /** Initializes the RCC Oscillators according to the specified parameters
 553:Core/Src/main.c ****   * in the RCC_OscInitTypeDef structure.
 554:Core/Src/main.c ****   */
 555:Core/Src/main.c ****     RCC_OscInitStruct.OscillatorType = RCC_OSCILLATORTYPE_HSE;
 556:Core/Src/main.c ****     RCC_OscInitStruct.HSEState = RCC_HSE_ON;
 557:Core/Src/main.c ****     RCC_OscInitStruct.HSEPredivValue = RCC_HSE_PREDIV_DIV1;
 558:Core/Src/main.c ****     RCC_OscInitStruct.HSIState = RCC_HSI_ON;
 559:Core/Src/main.c ****     RCC_OscInitStruct.PLL.PLLState = RCC_PLL_ON;
 560:Core/Src/main.c ****     RCC_OscInitStruct.PLL.PLLSource = RCC_PLLSOURCE_HSE;
 561:Core/Src/main.c ****     RCC_OscInitStruct.PLL.PLLMUL = RCC_PLL_MUL9;
 562:Core/Src/main.c ****     if (HAL_RCC_OscConfig(&RCC_OscInitStruct) != HAL_OK)
 563:Core/Src/main.c ****     {
 564:Core/Src/main.c ****         Error_Handler();
 565:Core/Src/main.c ****     }
 566:Core/Src/main.c ****     /** Initializes the CPU, AHB and APB buses clocks
 567:Core/Src/main.c ****   */
 568:Core/Src/main.c ****     RCC_ClkInitStruct.ClockType = RCC_CLOCKTYPE_HCLK | RCC_CLOCKTYPE_SYSCLK | RCC_CLOCKTYPE_PCLK1 |
 569:Core/Src/main.c ****     RCC_ClkInitStruct.SYSCLKSource = RCC_SYSCLKSOURCE_PLLCLK;
 570:Core/Src/main.c ****     RCC_ClkInitStruct.AHBCLKDivider = RCC_SYSCLK_DIV1;
 571:Core/Src/main.c ****     RCC_ClkInitStruct.APB1CLKDivider = RCC_HCLK_DIV2;
 572:Core/Src/main.c ****     RCC_ClkInitStruct.APB2CLKDivider = RCC_HCLK_DIV1;
 573:Core/Src/main.c **** 
 574:Core/Src/main.c ****     if (HAL_RCC_ClockConfig(&RCC_ClkInitStruct, FLASH_LATENCY_2) != HAL_OK)
 575:Core/Src/main.c ****     {
 576:Core/Src/main.c ****         Error_Handler();
 577:Core/Src/main.c ****     }
 578:Core/Src/main.c **** }
 579:Core/Src/main.c **** 
 580:Core/Src/main.c **** /* USER CODE BEGIN 4 */
 581:Core/Src/main.c **** float pid(float in)
 582:Core/Src/main.c **** {
  32              		.loc 1 582 1 view -0
  33              		.cfi_startproc
  34              		@ args = 0, pretend = 0, frame = 0
  35              		@ frame_needed = 0, uses_anonymous_args = 0
  36              		.loc 1 582 1 is_stmt 0 view .LVU1
  37 0000 F8B5     		push	{r3, r4, r5, r6, r7, lr}
  38              	.LCFI0:
  39              		.cfi_def_cfa_offset 24
  40              		.cfi_offset 3, -24
  41              		.cfi_offset 4, -20
  42              		.cfi_offset 5, -16
  43              		.cfi_offset 6, -12
  44              		.cfi_offset 7, -8
  45              		.cfi_offset 14, -4
  46 0002 0546     		mov	r5, r0
ARM GAS  C:\Users\zhangjd\AppData\Local\Temp\ccXlXJUr.s 			page 12


 583:Core/Src/main.c ****     float out;
  47              		.loc 1 583 5 is_stmt 1 view .LVU2
 584:Core/Src/main.c ****     // y[n] = A0 * x[n] + A1 * x[n-1] + A2 * x[n-2]
 585:Core/Src/main.c ****     out = ((Kp + Ki + Kd) * in) + ((-Ki - 2 * Kd) * state[0]) + (Kd * state[1]);
  48              		.loc 1 585 5 view .LVU3
  49              		.loc 1 585 27 is_stmt 0 view .LVU4
  50 0004 1749     		ldr	r1, .L13
  51 0006 FFF7FEFF 		bl	__aeabi_fmul
  52              	.LVL1:
  53              		.loc 1 585 27 view .LVU5
  54 000a 0646     		mov	r6, r0
  55              		.loc 1 585 58 view .LVU6
  56 000c 164C     		ldr	r4, .L13+4
  57 000e 2768     		ldr	r7, [r4]	@ float
  58              		.loc 1 585 51 view .LVU7
  59 0010 1649     		ldr	r1, .L13+8
  60 0012 3846     		mov	r0, r7
  61 0014 FFF7FEFF 		bl	__aeabi_fmul
  62              	.LVL2:
  63 0018 0146     		mov	r1, r0
  64              		.loc 1 585 33 view .LVU8
  65 001a 3046     		mov	r0, r6
  66 001c FFF7FEFF 		bl	__aeabi_fadd
  67              	.LVL3:
  68 0020 0646     		mov	r6, r0
  69              		.loc 1 585 69 view .LVU9
  70 0022 1349     		ldr	r1, .L13+12
  71 0024 6068     		ldr	r0, [r4, #4]	@ float
  72 0026 FFF7FEFF 		bl	__aeabi_fmul
  73              	.LVL4:
  74 002a 0146     		mov	r1, r0
  75              		.loc 1 585 9 view .LVU10
  76 002c 3046     		mov	r0, r6
  77 002e FFF7FEFF 		bl	__aeabi_fadd
  78              	.LVL5:
  79 0032 0646     		mov	r6, r0
  80              	.LVL6:
 586:Core/Src/main.c ****     state[1] = state[0];
  81              		.loc 1 586 5 is_stmt 1 view .LVU11
  82              		.loc 1 586 14 is_stmt 0 view .LVU12
  83 0034 6760     		str	r7, [r4, #4]	@ float
 587:Core/Src/main.c ****     state[0] = in;
  84              		.loc 1 587 5 is_stmt 1 view .LVU13
  85              		.loc 1 587 14 is_stmt 0 view .LVU14
  86 0036 2560     		str	r5, [r4]	@ float
 588:Core/Src/main.c ****     if (out >= PID_MAX)
  87              		.loc 1 588 5 is_stmt 1 view .LVU15
  88              		.loc 1 588 8 is_stmt 0 view .LVU16
  89 0038 0E49     		ldr	r1, .L13+16
  90 003a FFF7FEFF 		bl	__aeabi_fcmpge
  91              	.LVL7:
  92              		.loc 1 588 8 view .LVU17
  93 003e 20B1     		cbz	r0, .L9
 589:Core/Src/main.c ****         state[2] = PID_MAX;
  94              		.loc 1 589 9 is_stmt 1 view .LVU18
  95              		.loc 1 589 18 is_stmt 0 view .LVU19
  96 0040 0C4A     		ldr	r2, .L13+16
ARM GAS  C:\Users\zhangjd\AppData\Local\Temp\ccXlXJUr.s 			page 13


  97 0042 A260     		str	r2, [r4, #8]	@ float
  98              	.L4:
 590:Core/Src/main.c ****     else if (out <= PID_MIN)
 591:Core/Src/main.c ****         state[2] = PID_MIN;
 592:Core/Src/main.c ****     else
 593:Core/Src/main.c ****         state[2] = out;
 594:Core/Src/main.c ****     return (state[2]);
  99              		.loc 1 594 5 is_stmt 1 view .LVU20
 595:Core/Src/main.c **** }
 100              		.loc 1 595 1 is_stmt 0 view .LVU21
 101 0044 084B     		ldr	r3, .L13+4
 102 0046 9868     		ldr	r0, [r3, #8]	@ float
 103 0048 F8BD     		pop	{r3, r4, r5, r6, r7, pc}
 104              	.LVL8:
 105              	.L9:
 590:Core/Src/main.c ****     else if (out <= PID_MIN)
 106              		.loc 1 590 10 is_stmt 1 view .LVU22
 590:Core/Src/main.c ****     else if (out <= PID_MIN)
 107              		.loc 1 590 13 is_stmt 0 view .LVU23
 108 004a 0021     		movs	r1, #0
 109 004c 3046     		mov	r0, r6
 110 004e FFF7FEFF 		bl	__aeabi_fcmple
 111              	.LVL9:
 112 0052 10B9     		cbnz	r0, .L12
 593:Core/Src/main.c ****     return (state[2]);
 113              		.loc 1 593 9 is_stmt 1 view .LVU24
 593:Core/Src/main.c ****     return (state[2]);
 114              		.loc 1 593 18 is_stmt 0 view .LVU25
 115 0054 044B     		ldr	r3, .L13+4
 116 0056 9E60     		str	r6, [r3, #8]	@ float
 117 0058 F4E7     		b	.L4
 118              	.L12:
 591:Core/Src/main.c ****     else
 119              		.loc 1 591 9 is_stmt 1 view .LVU26
 591:Core/Src/main.c ****     else
 120              		.loc 1 591 18 is_stmt 0 view .LVU27
 121 005a 034B     		ldr	r3, .L13+4
 122 005c 0022     		movs	r2, #0
 123 005e 9A60     		str	r2, [r3, #8]	@ float
 124 0060 F0E7     		b	.L4
 125              	.L14:
 126 0062 00BF     		.align	2
 127              	.L13:
 128 0064 00006843 		.word	1130889216
 129 0068 00000000 		.word	.LANCHOR0
 130 006c 00009041 		.word	1099956224
 131 0070 00004842 		.word	1112014848
 132 0074 00803B45 		.word	1161527296
 133              		.cfi_endproc
 134              	.LFE68:
 136              		.section	.text.Abs,"ax",%progbits
 137              		.align	1
 138              		.global	Abs
 139              		.syntax unified
 140              		.thumb
 141              		.thumb_func
 142              		.fpu softvfp
ARM GAS  C:\Users\zhangjd\AppData\Local\Temp\ccXlXJUr.s 			page 14


 144              	Abs:
 145              	.LVL10:
 146              	.LFB69:
 596:Core/Src/main.c **** 
 597:Core/Src/main.c **** short Abs(short in)
 598:Core/Src/main.c **** {
 147              		.loc 1 598 1 is_stmt 1 view -0
 148              		.cfi_startproc
 149              		@ args = 0, pretend = 0, frame = 0
 150              		@ frame_needed = 0, uses_anonymous_args = 0
 151              		@ link register save eliminated.
 599:Core/Src/main.c ****     return in >= 0 ? in : -in;
 152              		.loc 1 599 5 view .LVU29
 153              		.loc 1 599 25 is_stmt 0 view .LVU30
 154 0000 0028     		cmp	r0, #0
 155 0002 B8BF     		it	lt
 156 0004 4042     		rsblt	r0, r0, #0
 157              	.LVL11:
 600:Core/Src/main.c **** }
 158              		.loc 1 600 1 view .LVU31
 159 0006 00B2     		sxth	r0, r0
 160 0008 7047     		bx	lr
 161              		.cfi_endproc
 162              	.LFE69:
 164              		.global	__aeabi_fsub
 165              		.global	__aeabi_fcmpgt
 166              		.global	__aeabi_fcmplt
 167              		.section	.text.qiuyu360,"ax",%progbits
 168              		.align	1
 169              		.global	qiuyu360
 170              		.syntax unified
 171              		.thumb
 172              		.thumb_func
 173              		.fpu softvfp
 175              	qiuyu360:
 176              	.LVL12:
 177              	.LFB70:
 601:Core/Src/main.c **** 
 602:Core/Src/main.c **** float qiuyu360(float in)
 603:Core/Src/main.c **** {
 178              		.loc 1 603 1 is_stmt 1 view -0
 179              		.cfi_startproc
 180              		@ args = 0, pretend = 0, frame = 0
 181              		@ frame_needed = 0, uses_anonymous_args = 0
 182              		.loc 1 603 1 is_stmt 0 view .LVU33
 183 0000 10B5     		push	{r4, lr}
 184              	.LCFI1:
 185              		.cfi_def_cfa_offset 8
 186              		.cfi_offset 4, -8
 187              		.cfi_offset 14, -4
 188 0002 0446     		mov	r4, r0
 604:Core/Src/main.c ****     while (in > 360)
 189              		.loc 1 604 5 is_stmt 1 view .LVU34
 190              		.loc 1 604 11 is_stmt 0 view .LVU35
 191 0004 04E0     		b	.L17
 192              	.LVL13:
 193              	.L18:
ARM GAS  C:\Users\zhangjd\AppData\Local\Temp\ccXlXJUr.s 			page 15


 605:Core/Src/main.c ****         in -= 360.0;
 194              		.loc 1 605 9 is_stmt 1 view .LVU36
 195              		.loc 1 605 12 is_stmt 0 view .LVU37
 196 0006 0C49     		ldr	r1, .L22
 197 0008 2046     		mov	r0, r4
 198 000a FFF7FEFF 		bl	__aeabi_fsub
 199              	.LVL14:
 200 000e 0446     		mov	r4, r0
 201              	.LVL15:
 202              	.L17:
 604:Core/Src/main.c ****     while (in > 360)
 203              		.loc 1 604 11 is_stmt 1 view .LVU38
 204 0010 0949     		ldr	r1, .L22
 205 0012 2046     		mov	r0, r4
 604:Core/Src/main.c ****     while (in > 360)
 206              		.loc 1 604 11 is_stmt 0 view .LVU39
 207 0014 FFF7FEFF 		bl	__aeabi_fcmpgt
 208              	.LVL16:
 604:Core/Src/main.c ****     while (in > 360)
 209              		.loc 1 604 11 view .LVU40
 210 0018 0028     		cmp	r0, #0
 211 001a F4D1     		bne	.L18
 604:Core/Src/main.c ****     while (in > 360)
 212              		.loc 1 604 11 view .LVU41
 213 001c 04E0     		b	.L19
 214              	.L20:
 606:Core/Src/main.c ****     while (in < 0)
 607:Core/Src/main.c ****         in += 360.0;
 215              		.loc 1 607 9 is_stmt 1 view .LVU42
 216              		.loc 1 607 12 is_stmt 0 view .LVU43
 217 001e 0649     		ldr	r1, .L22
 218 0020 2046     		mov	r0, r4
 219 0022 FFF7FEFF 		bl	__aeabi_fadd
 220              	.LVL17:
 221 0026 0446     		mov	r4, r0
 222              	.LVL18:
 223              	.L19:
 606:Core/Src/main.c ****     while (in < 0)
 224              		.loc 1 606 11 is_stmt 1 view .LVU44
 225 0028 0021     		movs	r1, #0
 226 002a 2046     		mov	r0, r4
 227 002c FFF7FEFF 		bl	__aeabi_fcmplt
 228              	.LVL19:
 229 0030 0028     		cmp	r0, #0
 230 0032 F4D1     		bne	.L20
 608:Core/Src/main.c ****     return in;
 231              		.loc 1 608 5 view .LVU45
 609:Core/Src/main.c **** }
 232              		.loc 1 609 1 is_stmt 0 view .LVU46
 233 0034 2046     		mov	r0, r4
 234 0036 10BD     		pop	{r4, pc}
 235              	.LVL20:
 236              	.L23:
 237              		.loc 1 609 1 view .LVU47
 238              		.align	2
 239              	.L22:
 240 0038 0000B443 		.word	1135869952
ARM GAS  C:\Users\zhangjd\AppData\Local\Temp\ccXlXJUr.s 			page 16


 241              		.cfi_endproc
 242              	.LFE70:
 244              		.section	.text.forward,"ax",%progbits
 245              		.align	1
 246              		.global	forward
 247              		.syntax unified
 248              		.thumb
 249              		.thumb_func
 250              		.fpu softvfp
 252              	forward:
 253              	.LVL21:
 254              	.LFB71:
 610:Core/Src/main.c **** 
 611:Core/Src/main.c **** void forward(int pwm)
 612:Core/Src/main.c **** {
 255              		.loc 1 612 1 is_stmt 1 view -0
 256              		.cfi_startproc
 257              		@ args = 0, pretend = 0, frame = 0
 258              		@ frame_needed = 0, uses_anonymous_args = 0
 259              		.loc 1 612 1 is_stmt 0 view .LVU49
 260 0000 38B5     		push	{r3, r4, r5, lr}
 261              	.LCFI2:
 262              		.cfi_def_cfa_offset 16
 263              		.cfi_offset 3, -16
 264              		.cfi_offset 4, -12
 265              		.cfi_offset 5, -8
 266              		.cfi_offset 14, -4
 267 0002 0546     		mov	r5, r0
 613:Core/Src/main.c ****     //change rotate direction of wheel
 614:Core/Src/main.c ****     HAL_GPIO_WritePin(GPIOB, GPIO_PIN_0, GPIO_PIN_SET);
 268              		.loc 1 614 5 is_stmt 1 view .LVU50
 269 0004 1A4C     		ldr	r4, .L26
 270 0006 0122     		movs	r2, #1
 271 0008 1146     		mov	r1, r2
 272 000a 2046     		mov	r0, r4
 273              	.LVL22:
 274              		.loc 1 614 5 is_stmt 0 view .LVU51
 275 000c FFF7FEFF 		bl	HAL_GPIO_WritePin
 276              	.LVL23:
 615:Core/Src/main.c ****     HAL_GPIO_WritePin(GPIOB, GPIO_PIN_1, GPIO_PIN_RESET);
 277              		.loc 1 615 5 is_stmt 1 view .LVU52
 278 0010 0022     		movs	r2, #0
 279 0012 0221     		movs	r1, #2
 280 0014 2046     		mov	r0, r4
 281 0016 FFF7FEFF 		bl	HAL_GPIO_WritePin
 282              	.LVL24:
 616:Core/Src/main.c ****     HAL_GPIO_WritePin(GPIOB, GPIO_PIN_2, GPIO_PIN_RESET);
 283              		.loc 1 616 5 view .LVU53
 284 001a 0022     		movs	r2, #0
 285 001c 0421     		movs	r1, #4
 286 001e 2046     		mov	r0, r4
 287 0020 FFF7FEFF 		bl	HAL_GPIO_WritePin
 288              	.LVL25:
 617:Core/Src/main.c ****     HAL_GPIO_WritePin(GPIOB, GPIO_PIN_10, GPIO_PIN_SET);
 289              		.loc 1 617 5 view .LVU54
 290 0024 0122     		movs	r2, #1
 291 0026 4FF48061 		mov	r1, #1024
ARM GAS  C:\Users\zhangjd\AppData\Local\Temp\ccXlXJUr.s 			page 17


 292 002a 2046     		mov	r0, r4
 293 002c FFF7FEFF 		bl	HAL_GPIO_WritePin
 294              	.LVL26:
 618:Core/Src/main.c ****     HAL_GPIO_WritePin(GPIOB, GPIO_PIN_11, GPIO_PIN_SET);
 295              		.loc 1 618 5 view .LVU55
 296 0030 0122     		movs	r2, #1
 297 0032 4FF40061 		mov	r1, #2048
 298 0036 2046     		mov	r0, r4
 299 0038 FFF7FEFF 		bl	HAL_GPIO_WritePin
 300              	.LVL27:
 619:Core/Src/main.c ****     HAL_GPIO_WritePin(GPIOB, GPIO_PIN_12, GPIO_PIN_RESET);
 301              		.loc 1 619 5 view .LVU56
 302 003c 0022     		movs	r2, #0
 303 003e 4FF48051 		mov	r1, #4096
 304 0042 2046     		mov	r0, r4
 305 0044 FFF7FEFF 		bl	HAL_GPIO_WritePin
 306              	.LVL28:
 620:Core/Src/main.c ****     HAL_GPIO_WritePin(GPIOB, GPIO_PIN_13, GPIO_PIN_RESET);
 307              		.loc 1 620 5 view .LVU57
 308 0048 0022     		movs	r2, #0
 309 004a 4FF40051 		mov	r1, #8192
 310 004e 2046     		mov	r0, r4
 311 0050 FFF7FEFF 		bl	HAL_GPIO_WritePin
 312              	.LVL29:
 621:Core/Src/main.c ****     HAL_GPIO_WritePin(GPIOB, GPIO_PIN_14, GPIO_PIN_SET);
 313              		.loc 1 621 5 view .LVU58
 314 0054 0122     		movs	r2, #1
 315 0056 4FF48041 		mov	r1, #16384
 316 005a 2046     		mov	r0, r4
 317 005c FFF7FEFF 		bl	HAL_GPIO_WritePin
 318              	.LVL30:
 622:Core/Src/main.c ****     //give pwm output
 623:Core/Src/main.c ****     __HAL_TIM_SetCompare(&htim8, TIM_CHANNEL_1, pwm);
 319              		.loc 1 623 5 view .LVU59
 320 0060 044B     		ldr	r3, .L26+4
 321 0062 1B68     		ldr	r3, [r3]
 322 0064 5D63     		str	r5, [r3, #52]
 624:Core/Src/main.c ****     __HAL_TIM_SetCompare(&htim8, TIM_CHANNEL_2, pwm);
 323              		.loc 1 624 5 view .LVU60
 324 0066 9D63     		str	r5, [r3, #56]
 625:Core/Src/main.c ****     __HAL_TIM_SetCompare(&htim8, TIM_CHANNEL_3, pwm);
 325              		.loc 1 625 5 view .LVU61
 326 0068 DD63     		str	r5, [r3, #60]
 626:Core/Src/main.c ****     __HAL_TIM_SetCompare(&htim8, TIM_CHANNEL_4, pwm);
 327              		.loc 1 626 5 view .LVU62
 328 006a 1D64     		str	r5, [r3, #64]
 627:Core/Src/main.c **** }
 329              		.loc 1 627 1 is_stmt 0 view .LVU63
 330 006c 38BD     		pop	{r3, r4, r5, pc}
 331              	.LVL31:
 332              	.L27:
 333              		.loc 1 627 1 view .LVU64
 334 006e 00BF     		.align	2
 335              	.L26:
 336 0070 000C0140 		.word	1073810432
 337 0074 00000000 		.word	htim8
 338              		.cfi_endproc
ARM GAS  C:\Users\zhangjd\AppData\Local\Temp\ccXlXJUr.s 			page 18


 339              	.LFE71:
 341              		.section	.text.backward,"ax",%progbits
 342              		.align	1
 343              		.global	backward
 344              		.syntax unified
 345              		.thumb
 346              		.thumb_func
 347              		.fpu softvfp
 349              	backward:
 350              	.LVL32:
 351              	.LFB72:
 628:Core/Src/main.c **** 
 629:Core/Src/main.c **** void backward(int pwm)
 630:Core/Src/main.c **** {
 352              		.loc 1 630 1 is_stmt 1 view -0
 353              		.cfi_startproc
 354              		@ args = 0, pretend = 0, frame = 0
 355              		@ frame_needed = 0, uses_anonymous_args = 0
 356              		.loc 1 630 1 is_stmt 0 view .LVU66
 357 0000 38B5     		push	{r3, r4, r5, lr}
 358              	.LCFI3:
 359              		.cfi_def_cfa_offset 16
 360              		.cfi_offset 3, -16
 361              		.cfi_offset 4, -12
 362              		.cfi_offset 5, -8
 363              		.cfi_offset 14, -4
 364 0002 0546     		mov	r5, r0
 631:Core/Src/main.c ****     //change rotate direction of wheel
 632:Core/Src/main.c ****     HAL_GPIO_WritePin(GPIOB, GPIO_PIN_0, GPIO_PIN_RESET);
 365              		.loc 1 632 5 is_stmt 1 view .LVU67
 366 0004 1A4C     		ldr	r4, .L30
 367 0006 0022     		movs	r2, #0
 368 0008 0121     		movs	r1, #1
 369 000a 2046     		mov	r0, r4
 370              	.LVL33:
 371              		.loc 1 632 5 is_stmt 0 view .LVU68
 372 000c FFF7FEFF 		bl	HAL_GPIO_WritePin
 373              	.LVL34:
 633:Core/Src/main.c ****     HAL_GPIO_WritePin(GPIOB, GPIO_PIN_1, GPIO_PIN_SET);
 374              		.loc 1 633 5 is_stmt 1 view .LVU69
 375 0010 0122     		movs	r2, #1
 376 0012 0221     		movs	r1, #2
 377 0014 2046     		mov	r0, r4
 378 0016 FFF7FEFF 		bl	HAL_GPIO_WritePin
 379              	.LVL35:
 634:Core/Src/main.c ****     HAL_GPIO_WritePin(GPIOB, GPIO_PIN_2, GPIO_PIN_SET);
 380              		.loc 1 634 5 view .LVU70
 381 001a 0122     		movs	r2, #1
 382 001c 0421     		movs	r1, #4
 383 001e 2046     		mov	r0, r4
 384 0020 FFF7FEFF 		bl	HAL_GPIO_WritePin
 385              	.LVL36:
 635:Core/Src/main.c ****     HAL_GPIO_WritePin(GPIOB, GPIO_PIN_10, GPIO_PIN_RESET);
 386              		.loc 1 635 5 view .LVU71
 387 0024 0022     		movs	r2, #0
 388 0026 4FF48061 		mov	r1, #1024
 389 002a 2046     		mov	r0, r4
ARM GAS  C:\Users\zhangjd\AppData\Local\Temp\ccXlXJUr.s 			page 19


 390 002c FFF7FEFF 		bl	HAL_GPIO_WritePin
 391              	.LVL37:
 636:Core/Src/main.c ****     HAL_GPIO_WritePin(GPIOB, GPIO_PIN_11, GPIO_PIN_RESET);
 392              		.loc 1 636 5 view .LVU72
 393 0030 0022     		movs	r2, #0
 394 0032 4FF40061 		mov	r1, #2048
 395 0036 2046     		mov	r0, r4
 396 0038 FFF7FEFF 		bl	HAL_GPIO_WritePin
 397              	.LVL38:
 637:Core/Src/main.c ****     HAL_GPIO_WritePin(GPIOB, GPIO_PIN_12, GPIO_PIN_SET);
 398              		.loc 1 637 5 view .LVU73
 399 003c 0122     		movs	r2, #1
 400 003e 4FF48051 		mov	r1, #4096
 401 0042 2046     		mov	r0, r4
 402 0044 FFF7FEFF 		bl	HAL_GPIO_WritePin
 403              	.LVL39:
 638:Core/Src/main.c ****     HAL_GPIO_WritePin(GPIOB, GPIO_PIN_13, GPIO_PIN_SET);
 404              		.loc 1 638 5 view .LVU74
 405 0048 0122     		movs	r2, #1
 406 004a 4FF40051 		mov	r1, #8192
 407 004e 2046     		mov	r0, r4
 408 0050 FFF7FEFF 		bl	HAL_GPIO_WritePin
 409              	.LVL40:
 639:Core/Src/main.c ****     HAL_GPIO_WritePin(GPIOB, GPIO_PIN_14, GPIO_PIN_RESET);
 410              		.loc 1 639 5 view .LVU75
 411 0054 0022     		movs	r2, #0
 412 0056 4FF48041 		mov	r1, #16384
 413 005a 2046     		mov	r0, r4
 414 005c FFF7FEFF 		bl	HAL_GPIO_WritePin
 415              	.LVL41:
 640:Core/Src/main.c ****     //give pwm output
 641:Core/Src/main.c ****     __HAL_TIM_SetCompare(&htim8, TIM_CHANNEL_1, pwm);
 416              		.loc 1 641 5 view .LVU76
 417 0060 044B     		ldr	r3, .L30+4
 418 0062 1B68     		ldr	r3, [r3]
 419 0064 5D63     		str	r5, [r3, #52]
 642:Core/Src/main.c ****     __HAL_TIM_SetCompare(&htim8, TIM_CHANNEL_2, pwm);
 420              		.loc 1 642 5 view .LVU77
 421 0066 9D63     		str	r5, [r3, #56]
 643:Core/Src/main.c ****     __HAL_TIM_SetCompare(&htim8, TIM_CHANNEL_3, pwm);
 422              		.loc 1 643 5 view .LVU78
 423 0068 DD63     		str	r5, [r3, #60]
 644:Core/Src/main.c ****     __HAL_TIM_SetCompare(&htim8, TIM_CHANNEL_4, pwm);
 424              		.loc 1 644 5 view .LVU79
 425 006a 1D64     		str	r5, [r3, #64]
 645:Core/Src/main.c **** }
 426              		.loc 1 645 1 is_stmt 0 view .LVU80
 427 006c 38BD     		pop	{r3, r4, r5, pc}
 428              	.LVL42:
 429              	.L31:
 430              		.loc 1 645 1 view .LVU81
 431 006e 00BF     		.align	2
 432              	.L30:
 433 0070 000C0140 		.word	1073810432
 434 0074 00000000 		.word	htim8
 435              		.cfi_endproc
 436              	.LFE72:
ARM GAS  C:\Users\zhangjd\AppData\Local\Temp\ccXlXJUr.s 			page 20


 438              		.section	.text.rotate_counterclockwise,"ax",%progbits
 439              		.align	1
 440              		.global	rotate_counterclockwise
 441              		.syntax unified
 442              		.thumb
 443              		.thumb_func
 444              		.fpu softvfp
 446              	rotate_counterclockwise:
 447              	.LVL43:
 448              	.LFB73:
 646:Core/Src/main.c **** 
 647:Core/Src/main.c **** void rotate_counterclockwise(int pwm)
 648:Core/Src/main.c **** {
 449              		.loc 1 648 1 is_stmt 1 view -0
 450              		.cfi_startproc
 451              		@ args = 0, pretend = 0, frame = 0
 452              		@ frame_needed = 0, uses_anonymous_args = 0
 453              		.loc 1 648 1 is_stmt 0 view .LVU83
 454 0000 38B5     		push	{r3, r4, r5, lr}
 455              	.LCFI4:
 456              		.cfi_def_cfa_offset 16
 457              		.cfi_offset 3, -16
 458              		.cfi_offset 4, -12
 459              		.cfi_offset 5, -8
 460              		.cfi_offset 14, -4
 461 0002 0546     		mov	r5, r0
 649:Core/Src/main.c ****     //change rotate direction of wheel
 650:Core/Src/main.c ****     HAL_GPIO_WritePin(GPIOB, GPIO_PIN_0, GPIO_PIN_SET);
 462              		.loc 1 650 5 is_stmt 1 view .LVU84
 463 0004 1A4C     		ldr	r4, .L34
 464 0006 0122     		movs	r2, #1
 465 0008 1146     		mov	r1, r2
 466 000a 2046     		mov	r0, r4
 467              	.LVL44:
 468              		.loc 1 650 5 is_stmt 0 view .LVU85
 469 000c FFF7FEFF 		bl	HAL_GPIO_WritePin
 470              	.LVL45:
 651:Core/Src/main.c ****     HAL_GPIO_WritePin(GPIOB, GPIO_PIN_1, GPIO_PIN_RESET);
 471              		.loc 1 651 5 is_stmt 1 view .LVU86
 472 0010 0022     		movs	r2, #0
 473 0012 0221     		movs	r1, #2
 474 0014 2046     		mov	r0, r4
 475 0016 FFF7FEFF 		bl	HAL_GPIO_WritePin
 476              	.LVL46:
 652:Core/Src/main.c ****     HAL_GPIO_WritePin(GPIOB, GPIO_PIN_2, GPIO_PIN_RESET);
 477              		.loc 1 652 5 view .LVU87
 478 001a 0022     		movs	r2, #0
 479 001c 0421     		movs	r1, #4
 480 001e 2046     		mov	r0, r4
 481 0020 FFF7FEFF 		bl	HAL_GPIO_WritePin
 482              	.LVL47:
 653:Core/Src/main.c ****     HAL_GPIO_WritePin(GPIOB, GPIO_PIN_10, GPIO_PIN_SET);
 483              		.loc 1 653 5 view .LVU88
 484 0024 0122     		movs	r2, #1
 485 0026 4FF48061 		mov	r1, #1024
 486 002a 2046     		mov	r0, r4
 487 002c FFF7FEFF 		bl	HAL_GPIO_WritePin
ARM GAS  C:\Users\zhangjd\AppData\Local\Temp\ccXlXJUr.s 			page 21


 488              	.LVL48:
 654:Core/Src/main.c ****     HAL_GPIO_WritePin(GPIOB, GPIO_PIN_11, GPIO_PIN_RESET);
 489              		.loc 1 654 5 view .LVU89
 490 0030 0022     		movs	r2, #0
 491 0032 4FF40061 		mov	r1, #2048
 492 0036 2046     		mov	r0, r4
 493 0038 FFF7FEFF 		bl	HAL_GPIO_WritePin
 494              	.LVL49:
 655:Core/Src/main.c ****     HAL_GPIO_WritePin(GPIOB, GPIO_PIN_12, GPIO_PIN_SET);
 495              		.loc 1 655 5 view .LVU90
 496 003c 0122     		movs	r2, #1
 497 003e 4FF48051 		mov	r1, #4096
 498 0042 2046     		mov	r0, r4
 499 0044 FFF7FEFF 		bl	HAL_GPIO_WritePin
 500              	.LVL50:
 656:Core/Src/main.c ****     HAL_GPIO_WritePin(GPIOB, GPIO_PIN_13, GPIO_PIN_SET);
 501              		.loc 1 656 5 view .LVU91
 502 0048 0122     		movs	r2, #1
 503 004a 4FF40051 		mov	r1, #8192
 504 004e 2046     		mov	r0, r4
 505 0050 FFF7FEFF 		bl	HAL_GPIO_WritePin
 506              	.LVL51:
 657:Core/Src/main.c ****     HAL_GPIO_WritePin(GPIOB, GPIO_PIN_14, GPIO_PIN_RESET);
 507              		.loc 1 657 5 view .LVU92
 508 0054 0022     		movs	r2, #0
 509 0056 4FF48041 		mov	r1, #16384
 510 005a 2046     		mov	r0, r4
 511 005c FFF7FEFF 		bl	HAL_GPIO_WritePin
 512              	.LVL52:
 658:Core/Src/main.c ****     //give pwm output
 659:Core/Src/main.c ****     __HAL_TIM_SetCompare(&htim8, TIM_CHANNEL_1, pwm);
 513              		.loc 1 659 5 view .LVU93
 514 0060 044B     		ldr	r3, .L34+4
 515 0062 1B68     		ldr	r3, [r3]
 516 0064 5D63     		str	r5, [r3, #52]
 660:Core/Src/main.c ****     __HAL_TIM_SetCompare(&htim8, TIM_CHANNEL_2, pwm);
 517              		.loc 1 660 5 view .LVU94
 518 0066 9D63     		str	r5, [r3, #56]
 661:Core/Src/main.c ****     __HAL_TIM_SetCompare(&htim8, TIM_CHANNEL_3, pwm);
 519              		.loc 1 661 5 view .LVU95
 520 0068 DD63     		str	r5, [r3, #60]
 662:Core/Src/main.c ****     __HAL_TIM_SetCompare(&htim8, TIM_CHANNEL_4, pwm);
 521              		.loc 1 662 5 view .LVU96
 522 006a 1D64     		str	r5, [r3, #64]
 663:Core/Src/main.c **** }
 523              		.loc 1 663 1 is_stmt 0 view .LVU97
 524 006c 38BD     		pop	{r3, r4, r5, pc}
 525              	.LVL53:
 526              	.L35:
 527              		.loc 1 663 1 view .LVU98
 528 006e 00BF     		.align	2
 529              	.L34:
 530 0070 000C0140 		.word	1073810432
 531 0074 00000000 		.word	htim8
 532              		.cfi_endproc
 533              	.LFE73:
 535              		.section	.text.rotate_clockwise,"ax",%progbits
ARM GAS  C:\Users\zhangjd\AppData\Local\Temp\ccXlXJUr.s 			page 22


 536              		.align	1
 537              		.global	rotate_clockwise
 538              		.syntax unified
 539              		.thumb
 540              		.thumb_func
 541              		.fpu softvfp
 543              	rotate_clockwise:
 544              	.LVL54:
 545              	.LFB74:
 664:Core/Src/main.c **** 
 665:Core/Src/main.c **** void rotate_clockwise(int pwm)
 666:Core/Src/main.c **** {
 546              		.loc 1 666 1 is_stmt 1 view -0
 547              		.cfi_startproc
 548              		@ args = 0, pretend = 0, frame = 0
 549              		@ frame_needed = 0, uses_anonymous_args = 0
 550              		.loc 1 666 1 is_stmt 0 view .LVU100
 551 0000 38B5     		push	{r3, r4, r5, lr}
 552              	.LCFI5:
 553              		.cfi_def_cfa_offset 16
 554              		.cfi_offset 3, -16
 555              		.cfi_offset 4, -12
 556              		.cfi_offset 5, -8
 557              		.cfi_offset 14, -4
 558 0002 0546     		mov	r5, r0
 667:Core/Src/main.c ****     //change rotate direction of wheel
 668:Core/Src/main.c ****     HAL_GPIO_WritePin(GPIOB, GPIO_PIN_0, GPIO_PIN_RESET);
 559              		.loc 1 668 5 is_stmt 1 view .LVU101
 560 0004 1A4C     		ldr	r4, .L38
 561 0006 0022     		movs	r2, #0
 562 0008 0121     		movs	r1, #1
 563 000a 2046     		mov	r0, r4
 564              	.LVL55:
 565              		.loc 1 668 5 is_stmt 0 view .LVU102
 566 000c FFF7FEFF 		bl	HAL_GPIO_WritePin
 567              	.LVL56:
 669:Core/Src/main.c ****     HAL_GPIO_WritePin(GPIOB, GPIO_PIN_1, GPIO_PIN_SET);
 568              		.loc 1 669 5 is_stmt 1 view .LVU103
 569 0010 0122     		movs	r2, #1
 570 0012 0221     		movs	r1, #2
 571 0014 2046     		mov	r0, r4
 572 0016 FFF7FEFF 		bl	HAL_GPIO_WritePin
 573              	.LVL57:
 670:Core/Src/main.c ****     HAL_GPIO_WritePin(GPIOB, GPIO_PIN_2, GPIO_PIN_SET);
 574              		.loc 1 670 5 view .LVU104
 575 001a 0122     		movs	r2, #1
 576 001c 0421     		movs	r1, #4
 577 001e 2046     		mov	r0, r4
 578 0020 FFF7FEFF 		bl	HAL_GPIO_WritePin
 579              	.LVL58:
 671:Core/Src/main.c ****     HAL_GPIO_WritePin(GPIOB, GPIO_PIN_10, GPIO_PIN_RESET);
 580              		.loc 1 671 5 view .LVU105
 581 0024 0022     		movs	r2, #0
 582 0026 4FF48061 		mov	r1, #1024
 583 002a 2046     		mov	r0, r4
 584 002c FFF7FEFF 		bl	HAL_GPIO_WritePin
 585              	.LVL59:
ARM GAS  C:\Users\zhangjd\AppData\Local\Temp\ccXlXJUr.s 			page 23


 672:Core/Src/main.c ****     HAL_GPIO_WritePin(GPIOB, GPIO_PIN_11, GPIO_PIN_SET);
 586              		.loc 1 672 5 view .LVU106
 587 0030 0122     		movs	r2, #1
 588 0032 4FF40061 		mov	r1, #2048
 589 0036 2046     		mov	r0, r4
 590 0038 FFF7FEFF 		bl	HAL_GPIO_WritePin
 591              	.LVL60:
 673:Core/Src/main.c ****     HAL_GPIO_WritePin(GPIOB, GPIO_PIN_12, GPIO_PIN_RESET);
 592              		.loc 1 673 5 view .LVU107
 593 003c 0022     		movs	r2, #0
 594 003e 4FF48051 		mov	r1, #4096
 595 0042 2046     		mov	r0, r4
 596 0044 FFF7FEFF 		bl	HAL_GPIO_WritePin
 597              	.LVL61:
 674:Core/Src/main.c ****     HAL_GPIO_WritePin(GPIOB, GPIO_PIN_13, GPIO_PIN_RESET);
 598              		.loc 1 674 5 view .LVU108
 599 0048 0022     		movs	r2, #0
 600 004a 4FF40051 		mov	r1, #8192
 601 004e 2046     		mov	r0, r4
 602 0050 FFF7FEFF 		bl	HAL_GPIO_WritePin
 603              	.LVL62:
 675:Core/Src/main.c ****     HAL_GPIO_WritePin(GPIOB, GPIO_PIN_14, GPIO_PIN_SET);
 604              		.loc 1 675 5 view .LVU109
 605 0054 0122     		movs	r2, #1
 606 0056 4FF48041 		mov	r1, #16384
 607 005a 2046     		mov	r0, r4
 608 005c FFF7FEFF 		bl	HAL_GPIO_WritePin
 609              	.LVL63:
 676:Core/Src/main.c ****     //give pwm output
 677:Core/Src/main.c ****     __HAL_TIM_SetCompare(&htim8, TIM_CHANNEL_1, pwm);
 610              		.loc 1 677 5 view .LVU110
 611 0060 044B     		ldr	r3, .L38+4
 612 0062 1B68     		ldr	r3, [r3]
 613 0064 5D63     		str	r5, [r3, #52]
 678:Core/Src/main.c ****     __HAL_TIM_SetCompare(&htim8, TIM_CHANNEL_2, pwm);
 614              		.loc 1 678 5 view .LVU111
 615 0066 9D63     		str	r5, [r3, #56]
 679:Core/Src/main.c ****     __HAL_TIM_SetCompare(&htim8, TIM_CHANNEL_3, pwm);
 616              		.loc 1 679 5 view .LVU112
 617 0068 DD63     		str	r5, [r3, #60]
 680:Core/Src/main.c ****     __HAL_TIM_SetCompare(&htim8, TIM_CHANNEL_4, pwm);
 618              		.loc 1 680 5 view .LVU113
 619 006a 1D64     		str	r5, [r3, #64]
 681:Core/Src/main.c **** }
 620              		.loc 1 681 1 is_stmt 0 view .LVU114
 621 006c 38BD     		pop	{r3, r4, r5, pc}
 622              	.LVL64:
 623              	.L39:
 624              		.loc 1 681 1 view .LVU115
 625 006e 00BF     		.align	2
 626              	.L38:
 627 0070 000C0140 		.word	1073810432
 628 0074 00000000 		.word	htim8
 629              		.cfi_endproc
 630              	.LFE74:
 632              		.section	.text.rotate_clockwise_plus_forward,"ax",%progbits
 633              		.align	1
ARM GAS  C:\Users\zhangjd\AppData\Local\Temp\ccXlXJUr.s 			page 24


 634              		.global	rotate_clockwise_plus_forward
 635              		.syntax unified
 636              		.thumb
 637              		.thumb_func
 638              		.fpu softvfp
 640              	rotate_clockwise_plus_forward:
 641              	.LVL65:
 642              	.LFB75:
 682:Core/Src/main.c **** 
 683:Core/Src/main.c **** void rotate_clockwise_plus_forward(int pwm)
 684:Core/Src/main.c **** {
 643              		.loc 1 684 1 is_stmt 1 view -0
 644              		.cfi_startproc
 645              		@ args = 0, pretend = 0, frame = 0
 646              		@ frame_needed = 0, uses_anonymous_args = 0
 647              		.loc 1 684 1 is_stmt 0 view .LVU117
 648 0000 10B5     		push	{r4, lr}
 649              	.LCFI6:
 650              		.cfi_def_cfa_offset 8
 651              		.cfi_offset 4, -8
 652              		.cfi_offset 14, -4
 685:Core/Src/main.c ****     //change rotate direction of wheel
 686:Core/Src/main.c ****     HAL_GPIO_WritePin(GPIOB, GPIO_PIN_0, GPIO_PIN_SET); //Âè≥Ëæπ
 653              		.loc 1 686 5 is_stmt 1 view .LVU118
 654 0002 1C4C     		ldr	r4, .L42
 655 0004 0122     		movs	r2, #1
 656 0006 1146     		mov	r1, r2
 657 0008 2046     		mov	r0, r4
 658              	.LVL66:
 659              		.loc 1 686 5 is_stmt 0 view .LVU119
 660 000a FFF7FEFF 		bl	HAL_GPIO_WritePin
 661              	.LVL67:
 687:Core/Src/main.c ****     HAL_GPIO_WritePin(GPIOB, GPIO_PIN_1, GPIO_PIN_RESET);
 662              		.loc 1 687 5 is_stmt 1 view .LVU120
 663 000e 0022     		movs	r2, #0
 664 0010 0221     		movs	r1, #2
 665 0012 2046     		mov	r0, r4
 666 0014 FFF7FEFF 		bl	HAL_GPIO_WritePin
 667              	.LVL68:
 688:Core/Src/main.c ****     HAL_GPIO_WritePin(GPIOB, GPIO_PIN_2, GPIO_PIN_RESET);
 668              		.loc 1 688 5 view .LVU121
 669 0018 0022     		movs	r2, #0
 670 001a 0421     		movs	r1, #4
 671 001c 2046     		mov	r0, r4
 672 001e FFF7FEFF 		bl	HAL_GPIO_WritePin
 673              	.LVL69:
 689:Core/Src/main.c ****     HAL_GPIO_WritePin(GPIOB, GPIO_PIN_10, GPIO_PIN_SET);
 674              		.loc 1 689 5 view .LVU122
 675 0022 0122     		movs	r2, #1
 676 0024 4FF48061 		mov	r1, #1024
 677 0028 2046     		mov	r0, r4
 678 002a FFF7FEFF 		bl	HAL_GPIO_WritePin
 679              	.LVL70:
 690:Core/Src/main.c ****     HAL_GPIO_WritePin(GPIOB, GPIO_PIN_11, GPIO_PIN_SET); //Â∑¶Ëæπ
 680              		.loc 1 690 5 view .LVU123
 681 002e 0122     		movs	r2, #1
 682 0030 4FF40061 		mov	r1, #2048
ARM GAS  C:\Users\zhangjd\AppData\Local\Temp\ccXlXJUr.s 			page 25


 683 0034 2046     		mov	r0, r4
 684 0036 FFF7FEFF 		bl	HAL_GPIO_WritePin
 685              	.LVL71:
 691:Core/Src/main.c ****     HAL_GPIO_WritePin(GPIOB, GPIO_PIN_12, GPIO_PIN_RESET);
 686              		.loc 1 691 5 view .LVU124
 687 003a 0022     		movs	r2, #0
 688 003c 4FF48051 		mov	r1, #4096
 689 0040 2046     		mov	r0, r4
 690 0042 FFF7FEFF 		bl	HAL_GPIO_WritePin
 691              	.LVL72:
 692:Core/Src/main.c ****     HAL_GPIO_WritePin(GPIOB, GPIO_PIN_13, GPIO_PIN_RESET);
 692              		.loc 1 692 5 view .LVU125
 693 0046 0022     		movs	r2, #0
 694 0048 4FF40051 		mov	r1, #8192
 695 004c 2046     		mov	r0, r4
 696 004e FFF7FEFF 		bl	HAL_GPIO_WritePin
 697              	.LVL73:
 693:Core/Src/main.c ****     HAL_GPIO_WritePin(GPIOB, GPIO_PIN_14, GPIO_PIN_SET);
 698              		.loc 1 693 5 view .LVU126
 699 0052 0122     		movs	r2, #1
 700 0054 4FF48041 		mov	r1, #16384
 701 0058 2046     		mov	r0, r4
 702 005a FFF7FEFF 		bl	HAL_GPIO_WritePin
 703              	.LVL74:
 694:Core/Src/main.c ****     //give pwm output
 695:Core/Src/main.c ****     __HAL_TIM_SetCompare(&htim8, TIM_CHANNEL_1, 1500);
 704              		.loc 1 695 5 view .LVU127
 705 005e 064B     		ldr	r3, .L42+4
 706 0060 1B68     		ldr	r3, [r3]
 707 0062 40F2DC52 		movw	r2, #1500
 708 0066 5A63     		str	r2, [r3, #52]
 696:Core/Src/main.c ****     __HAL_TIM_SetCompare(&htim8, TIM_CHANNEL_2, 1500);
 709              		.loc 1 696 5 view .LVU128
 710 0068 9A63     		str	r2, [r3, #56]
 697:Core/Src/main.c ****     __HAL_TIM_SetCompare(&htim8, TIM_CHANNEL_3, 2500);
 711              		.loc 1 697 5 view .LVU129
 712 006a 40F6C412 		movw	r2, #2500
 713 006e DA63     		str	r2, [r3, #60]
 698:Core/Src/main.c ****     __HAL_TIM_SetCompare(&htim8, TIM_CHANNEL_4, 2500);
 714              		.loc 1 698 5 view .LVU130
 715 0070 1A64     		str	r2, [r3, #64]
 699:Core/Src/main.c **** }
 716              		.loc 1 699 1 is_stmt 0 view .LVU131
 717 0072 10BD     		pop	{r4, pc}
 718              	.L43:
 719              		.align	2
 720              	.L42:
 721 0074 000C0140 		.word	1073810432
 722 0078 00000000 		.word	htim8
 723              		.cfi_endproc
 724              	.LFE75:
 726              		.section	.text.brake,"ax",%progbits
 727              		.align	1
 728              		.global	brake
 729              		.syntax unified
 730              		.thumb
 731              		.thumb_func
ARM GAS  C:\Users\zhangjd\AppData\Local\Temp\ccXlXJUr.s 			page 26


 732              		.fpu softvfp
 734              	brake:
 735              	.LFB76:
 700:Core/Src/main.c **** void brake()
 701:Core/Src/main.c **** {
 736              		.loc 1 701 1 is_stmt 1 view -0
 737              		.cfi_startproc
 738              		@ args = 0, pretend = 0, frame = 0
 739              		@ frame_needed = 0, uses_anonymous_args = 0
 740 0000 10B5     		push	{r4, lr}
 741              	.LCFI7:
 742              		.cfi_def_cfa_offset 8
 743              		.cfi_offset 4, -8
 744              		.cfi_offset 14, -4
 702:Core/Src/main.c ****     //change rotate direction of wheel
 703:Core/Src/main.c ****     HAL_GPIO_WritePin(GPIOB, GPIO_PIN_0, GPIO_PIN_SET);
 745              		.loc 1 703 5 view .LVU133
 746 0002 1B4C     		ldr	r4, .L46
 747 0004 0122     		movs	r2, #1
 748 0006 1146     		mov	r1, r2
 749 0008 2046     		mov	r0, r4
 750 000a FFF7FEFF 		bl	HAL_GPIO_WritePin
 751              	.LVL75:
 704:Core/Src/main.c ****     HAL_GPIO_WritePin(GPIOB, GPIO_PIN_1, GPIO_PIN_SET);
 752              		.loc 1 704 5 view .LVU134
 753 000e 0122     		movs	r2, #1
 754 0010 0221     		movs	r1, #2
 755 0012 2046     		mov	r0, r4
 756 0014 FFF7FEFF 		bl	HAL_GPIO_WritePin
 757              	.LVL76:
 705:Core/Src/main.c ****     HAL_GPIO_WritePin(GPIOB, GPIO_PIN_2, GPIO_PIN_SET);
 758              		.loc 1 705 5 view .LVU135
 759 0018 0122     		movs	r2, #1
 760 001a 0421     		movs	r1, #4
 761 001c 2046     		mov	r0, r4
 762 001e FFF7FEFF 		bl	HAL_GPIO_WritePin
 763              	.LVL77:
 706:Core/Src/main.c ****     HAL_GPIO_WritePin(GPIOB, GPIO_PIN_10, GPIO_PIN_SET);
 764              		.loc 1 706 5 view .LVU136
 765 0022 0122     		movs	r2, #1
 766 0024 4FF48061 		mov	r1, #1024
 767 0028 2046     		mov	r0, r4
 768 002a FFF7FEFF 		bl	HAL_GPIO_WritePin
 769              	.LVL78:
 707:Core/Src/main.c ****     HAL_GPIO_WritePin(GPIOB, GPIO_PIN_11, GPIO_PIN_SET);
 770              		.loc 1 707 5 view .LVU137
 771 002e 0122     		movs	r2, #1
 772 0030 4FF40061 		mov	r1, #2048
 773 0034 2046     		mov	r0, r4
 774 0036 FFF7FEFF 		bl	HAL_GPIO_WritePin
 775              	.LVL79:
 708:Core/Src/main.c ****     HAL_GPIO_WritePin(GPIOB, GPIO_PIN_12, GPIO_PIN_SET);
 776              		.loc 1 708 5 view .LVU138
 777 003a 0122     		movs	r2, #1
 778 003c 4FF48051 		mov	r1, #4096
 779 0040 2046     		mov	r0, r4
 780 0042 FFF7FEFF 		bl	HAL_GPIO_WritePin
ARM GAS  C:\Users\zhangjd\AppData\Local\Temp\ccXlXJUr.s 			page 27


 781              	.LVL80:
 709:Core/Src/main.c ****     HAL_GPIO_WritePin(GPIOB, GPIO_PIN_13, GPIO_PIN_SET);
 782              		.loc 1 709 5 view .LVU139
 783 0046 0122     		movs	r2, #1
 784 0048 4FF40051 		mov	r1, #8192
 785 004c 2046     		mov	r0, r4
 786 004e FFF7FEFF 		bl	HAL_GPIO_WritePin
 787              	.LVL81:
 710:Core/Src/main.c ****     HAL_GPIO_WritePin(GPIOB, GPIO_PIN_14, GPIO_PIN_SET);
 788              		.loc 1 710 5 view .LVU140
 789 0052 0122     		movs	r2, #1
 790 0054 4FF48041 		mov	r1, #16384
 791 0058 2046     		mov	r0, r4
 792 005a FFF7FEFF 		bl	HAL_GPIO_WritePin
 793              	.LVL82:
 711:Core/Src/main.c ****     //give pwm output
 712:Core/Src/main.c ****     __HAL_TIM_SetCompare(&htim8, TIM_CHANNEL_1, 0);
 794              		.loc 1 712 5 view .LVU141
 795 005e 054B     		ldr	r3, .L46+4
 796 0060 1B68     		ldr	r3, [r3]
 797 0062 0022     		movs	r2, #0
 798 0064 5A63     		str	r2, [r3, #52]
 713:Core/Src/main.c ****     __HAL_TIM_SetCompare(&htim8, TIM_CHANNEL_2, 0);
 799              		.loc 1 713 5 view .LVU142
 800 0066 9A63     		str	r2, [r3, #56]
 714:Core/Src/main.c ****     __HAL_TIM_SetCompare(&htim8, TIM_CHANNEL_3, 0);
 801              		.loc 1 714 5 view .LVU143
 802 0068 DA63     		str	r2, [r3, #60]
 715:Core/Src/main.c ****     __HAL_TIM_SetCompare(&htim8, TIM_CHANNEL_4, 0);
 803              		.loc 1 715 5 view .LVU144
 804 006a 1A64     		str	r2, [r3, #64]
 716:Core/Src/main.c **** }
 805              		.loc 1 716 1 is_stmt 0 view .LVU145
 806 006c 10BD     		pop	{r4, pc}
 807              	.L47:
 808 006e 00BF     		.align	2
 809              	.L46:
 810 0070 000C0140 		.word	1073810432
 811 0074 00000000 		.word	htim8
 812              		.cfi_endproc
 813              	.LFE76:
 815              		.global	__aeabi_dcmpgt
 816              		.section	.text.fabs,"ax",%progbits
 817              		.align	1
 818              		.global	fabs
 819              		.syntax unified
 820              		.thumb
 821              		.thumb_func
 822              		.fpu softvfp
 824              	fabs:
 825              	.LVL83:
 826              	.LFB77:
 717:Core/Src/main.c **** double fabs(double x)
 718:Core/Src/main.c **** {
 827              		.loc 1 718 1 is_stmt 1 view -0
 828              		.cfi_startproc
 829              		@ args = 0, pretend = 0, frame = 0
ARM GAS  C:\Users\zhangjd\AppData\Local\Temp\ccXlXJUr.s 			page 28


 830              		@ frame_needed = 0, uses_anonymous_args = 0
 831              		.loc 1 718 1 is_stmt 0 view .LVU147
 832 0000 38B5     		push	{r3, r4, r5, lr}
 833              	.LCFI8:
 834              		.cfi_def_cfa_offset 16
 835              		.cfi_offset 3, -16
 836              		.cfi_offset 4, -12
 837              		.cfi_offset 5, -8
 838              		.cfi_offset 14, -4
 839 0002 0546     		mov	r5, r0
 840 0004 0C46     		mov	r4, r1
 719:Core/Src/main.c ****     //ÂèåÁ≤æÂ∫¶ÊµÆÁÇπÊï∞Ê±ÇÁªùÂØπÔøΩ?ÔøΩÂáΩÔøΩ??
 720:Core/Src/main.c ****     return (x > 0) ? x : (-x);
 841              		.loc 1 720 5 is_stmt 1 view .LVU148
 842              		.loc 1 720 24 is_stmt 0 view .LVU149
 843 0006 0022     		movs	r2, #0
 844 0008 0023     		movs	r3, #0
 845 000a 2846     		mov	r0, r5
 846              	.LVL84:
 847              		.loc 1 720 24 view .LVU150
 848 000c 2146     		mov	r1, r4
 849 000e FFF7FEFF 		bl	__aeabi_dcmpgt
 850              	.LVL85:
 851 0012 10B1     		cbz	r0, .L51
 852              	.L49:
 721:Core/Src/main.c **** }
 853              		.loc 1 721 1 discriminator 4 view .LVU151
 854 0014 2846     		mov	r0, r5
 855 0016 2146     		mov	r1, r4
 856 0018 38BD     		pop	{r3, r4, r5, pc}
 857              	.L51:
 720:Core/Src/main.c **** }
 858              		.loc 1 720 24 discriminator 2 view .LVU152
 859 001a 04F10044 		add	r4, r4, #-2147483648
 860 001e F9E7     		b	.L49
 861              		.cfi_endproc
 862              	.LFE77:
 864              		.global	__aeabi_dcmpeq
 865              		.global	__aeabi_dsub
 866              		.global	__aeabi_dcmplt
 867              		.global	__aeabi_dmul
 868              		.global	__aeabi_ddiv
 869              		.global	__aeabi_d2iz
 870              		.global	__aeabi_dadd
 871              		.section	.text.atan2LUTif,"ax",%progbits
 872              		.align	1
 873              		.global	atan2LUTif
 874              		.syntax unified
 875              		.thumb
 876              		.thumb_func
 877              		.fpu softvfp
 879              	atan2LUTif:
 880              	.LVL86:
 881              	.LFB78:
 722:Core/Src/main.c **** double atan2LUTif(double y, double x)
 723:Core/Src/main.c **** {
 882              		.loc 1 723 1 is_stmt 1 view -0
ARM GAS  C:\Users\zhangjd\AppData\Local\Temp\ccXlXJUr.s 			page 29


 883              		.cfi_startproc
 884              		@ args = 0, pretend = 0, frame = 0
 885              		@ frame_needed = 0, uses_anonymous_args = 0
 886              		.loc 1 723 1 is_stmt 0 view .LVU154
 887 0000 2DE9F843 		push	{r3, r4, r5, r6, r7, r8, r9, lr}
 888              	.LCFI9:
 889              		.cfi_def_cfa_offset 32
 890              		.cfi_offset 3, -32
 891              		.cfi_offset 4, -28
 892              		.cfi_offset 5, -24
 893              		.cfi_offset 6, -20
 894              		.cfi_offset 7, -16
 895              		.cfi_offset 8, -12
 896              		.cfi_offset 9, -8
 897              		.cfi_offset 14, -4
 898 0004 0446     		mov	r4, r0
 899 0006 0F46     		mov	r7, r1
 900 0008 1546     		mov	r5, r2
 901 000a 1E46     		mov	r6, r3
 724:Core/Src/main.c ****     //ÂèçÊ≠£ÂàáÂáΩÊï∞ÂÆûÔøΩ??.ËØØÂ∑Æ‰∏çÂ§ßÔøΩ??0.5¬∞.ÂÖ•Âè£ÂèÇÊï∞Ôºö‰∏§ÁÇπÈó¥y„ÄÅxÂùêÊ†áÁöÑÂ∑ÆÔøΩ??
 725:Core/Src/main.c ****     double absx, absy, val;
 902              		.loc 1 725 5 is_stmt 1 view .LVU155
 726:Core/Src/main.c ****     if (x == 0 && y == 0)
 903              		.loc 1 726 5 view .LVU156
 904              		.loc 1 726 8 is_stmt 0 view .LVU157
 905 000c 0022     		movs	r2, #0
 906              	.LVL87:
 907              		.loc 1 726 8 view .LVU158
 908 000e 0023     		movs	r3, #0
 909 0010 2846     		mov	r0, r5
 910              	.LVL88:
 911              		.loc 1 726 8 view .LVU159
 912 0012 3146     		mov	r1, r6
 913 0014 FFF7FEFF 		bl	__aeabi_dcmpeq
 914              	.LVL89:
 915 0018 40B1     		cbz	r0, .L53
 916              		.loc 1 726 16 discriminator 1 view .LVU160
 917 001a 0022     		movs	r2, #0
 918 001c 0023     		movs	r3, #0
 919 001e 2046     		mov	r0, r4
 920 0020 3946     		mov	r1, r7
 921 0022 FFF7FEFF 		bl	__aeabi_dcmpeq
 922              	.LVL90:
 923 0026 0028     		cmp	r0, #0
 924 0028 40F0E180 		bne	.L72
 925              	.L53:
 727:Core/Src/main.c ****     {
 728:Core/Src/main.c ****         return 0;
 729:Core/Src/main.c ****     }
 730:Core/Src/main.c ****     absy = fabs(y);
 926              		.loc 1 730 5 is_stmt 1 view .LVU161
 927              		.loc 1 730 10 is_stmt 0 view .LVU162
 928 002c 27F00048 		bic	r8, r7, #-2147483648
 929              	.LVL91:
 731:Core/Src/main.c ****     absx = fabs(x);
 930              		.loc 1 731 5 is_stmt 1 view .LVU163
 931              		.loc 1 731 10 is_stmt 0 view .LVU164
ARM GAS  C:\Users\zhangjd\AppData\Local\Temp\ccXlXJUr.s 			page 30


 932 0030 26F00049 		bic	r9, r6, #-2147483648
 933              	.LVL92:
 732:Core/Src/main.c ****     if (absy - absx == absy)
 934              		.loc 1 732 5 is_stmt 1 view .LVU165
 935              		.loc 1 732 14 is_stmt 0 view .LVU166
 936 0034 2A46     		mov	r2, r5
 937 0036 4B46     		mov	r3, r9
 938 0038 2046     		mov	r0, r4
 939 003a 4146     		mov	r1, r8
 940 003c FFF7FEFF 		bl	__aeabi_dsub
 941              	.LVL93:
 942              		.loc 1 732 8 view .LVU167
 943 0040 2246     		mov	r2, r4
 944 0042 4346     		mov	r3, r8
 945 0044 FFF7FEFF 		bl	__aeabi_dcmpeq
 946              	.LVL94:
 947 0048 0028     		cmp	r0, #0
 948 004a 40D1     		bne	.L90
 733:Core/Src/main.c ****     {
 734:Core/Src/main.c ****         return y < 0 ? -M_PI_2 : M_PI_2;
 735:Core/Src/main.c ****     }
 736:Core/Src/main.c ****     if (absx - absy == absx)
 949              		.loc 1 736 5 is_stmt 1 view .LVU168
 950              		.loc 1 736 14 is_stmt 0 view .LVU169
 951 004c 2246     		mov	r2, r4
 952 004e 4346     		mov	r3, r8
 953 0050 2846     		mov	r0, r5
 954 0052 4946     		mov	r1, r9
 955 0054 FFF7FEFF 		bl	__aeabi_dsub
 956              	.LVL95:
 957              		.loc 1 736 8 view .LVU170
 958 0058 2A46     		mov	r2, r5
 959 005a 4B46     		mov	r3, r9
 960 005c FFF7FEFF 		bl	__aeabi_dcmpeq
 961              	.LVL96:
 962 0060 0028     		cmp	r0, #0
 963 0062 40F0A380 		bne	.L74
 737:Core/Src/main.c ****     {
 738:Core/Src/main.c ****         val = 0.0;
 739:Core/Src/main.c ****     }
 740:Core/Src/main.c ****     else
 741:Core/Src/main.c ****     {
 742:Core/Src/main.c ****         if (y > 0)
 964              		.loc 1 742 9 is_stmt 1 view .LVU171
 965              		.loc 1 742 12 is_stmt 0 view .LVU172
 966 0066 0022     		movs	r2, #0
 967 0068 0023     		movs	r3, #0
 968 006a 2046     		mov	r0, r4
 969 006c 3946     		mov	r1, r7
 970 006e FFF7FEFF 		bl	__aeabi_dcmpgt
 971              	.LVL97:
 972 0072 0028     		cmp	r0, #0
 973 0074 54D0     		beq	.L86
 743:Core/Src/main.c ****         {
 744:Core/Src/main.c ****             if (absx > absy)
 974              		.loc 1 744 13 is_stmt 1 view .LVU173
 975              		.loc 1 744 16 is_stmt 0 view .LVU174
ARM GAS  C:\Users\zhangjd\AppData\Local\Temp\ccXlXJUr.s 			page 31


 976 0076 2A46     		mov	r2, r5
 977 0078 4B46     		mov	r3, r9
 978 007a 2046     		mov	r0, r4
 979 007c 4146     		mov	r1, r8
 980 007e FFF7FEFF 		bl	__aeabi_dcmplt
 981              	.LVL98:
 982 0082 98B3     		cbz	r0, .L87
 745:Core/Src/main.c ****                 val = ATAN_LUT[(int)(255 * absy / absx)]; //1st octant
 983              		.loc 1 745 17 is_stmt 1 view .LVU175
 984              		.loc 1 745 42 is_stmt 0 view .LVU176
 985 0084 5CA3     		adr	r3, .L93
 986 0086 D3E90023 		ldrd	r2, [r3]
 987 008a 2046     		mov	r0, r4
 988 008c 4146     		mov	r1, r8
 989 008e FFF7FEFF 		bl	__aeabi_dmul
 990              	.LVL99:
 991              		.loc 1 745 49 view .LVU177
 992 0092 2A46     		mov	r2, r5
 993 0094 4B46     		mov	r3, r9
 994 0096 FFF7FEFF 		bl	__aeabi_ddiv
 995              	.LVL100:
 996              		.loc 1 745 32 view .LVU178
 997 009a FFF7FEFF 		bl	__aeabi_d2iz
 998              	.LVL101:
 999              		.loc 1 745 21 view .LVU179
 1000 009e 604B     		ldr	r3, .L93+40
 1001 00a0 03EBC002 		add	r2, r3, r0, lsl #3
 1002 00a4 53F83040 		ldr	r4, [r3, r0, lsl #3]
 1003              	.LVL102:
 1004              		.loc 1 745 21 view .LVU180
 1005 00a8 5768     		ldr	r7, [r2, #4]
 1006              	.LVL103:
 1007              	.L65:
 746:Core/Src/main.c ****             else
 747:Core/Src/main.c ****                 val = M_PI_2 - ATAN_LUT[(int)(255 * absx / absy)]; //2nd octant
 748:Core/Src/main.c ****             val = x < 0 ? (M_PI - val) : val;                      //3-4th octants from 2-1
 1008              		.loc 1 748 13 is_stmt 1 view .LVU181
 1009              		.loc 1 748 40 is_stmt 0 view .LVU182
 1010 00aa 0022     		movs	r2, #0
 1011 00ac 0023     		movs	r3, #0
 1012 00ae 2846     		mov	r0, r5
 1013 00b0 3146     		mov	r1, r6
 1014 00b2 FFF7FEFF 		bl	__aeabi_dcmplt
 1015              	.LVL104:
 1016 00b6 0028     		cmp	r0, #0
 1017 00b8 7AD0     		beq	.L60
 1018              		.loc 1 748 40 discriminator 1 view .LVU183
 1019 00ba 2246     		mov	r2, r4
 1020 00bc 3B46     		mov	r3, r7
 1021 00be 50A1     		adr	r1, .L93+8
 1022 00c0 D1E90001 		ldrd	r0, [r1]
 1023 00c4 FFF7FEFF 		bl	__aeabi_dsub
 1024              	.LVL105:
 1025 00c8 0446     		mov	r4, r0
 1026              	.LVL106:
 1027              		.loc 1 748 40 discriminator 1 view .LVU184
 1028 00ca 0F46     		mov	r7, r1
ARM GAS  C:\Users\zhangjd\AppData\Local\Temp\ccXlXJUr.s 			page 32


 1029 00cc 70E0     		b	.L60
 1030              	.LVL107:
 1031              	.L90:
 734:Core/Src/main.c ****     }
 1032              		.loc 1 734 9 is_stmt 1 view .LVU185
 734:Core/Src/main.c ****     }
 1033              		.loc 1 734 32 is_stmt 0 view .LVU186
 1034 00ce 0022     		movs	r2, #0
 1035 00d0 0023     		movs	r3, #0
 1036 00d2 2046     		mov	r0, r4
 1037 00d4 3946     		mov	r1, r7
 1038 00d6 FFF7FEFF 		bl	__aeabi_dcmplt
 1039              	.LVL108:
 1040 00da 18B9     		cbnz	r0, .L91
 1041 00dc 4AA5     		adr	r5, .L93+16
 1042 00de D5E90045 		ldrd	r4, [r5]
 1043              	.LVL109:
 734:Core/Src/main.c ****     }
 1044              		.loc 1 734 32 view .LVU187
 1045 00e2 77E0     		b	.L52
 1046              	.LVL110:
 1047              	.L91:
 734:Core/Src/main.c ****     }
 1048              		.loc 1 734 32 view .LVU188
 1049 00e4 4AA5     		adr	r5, .L93+24
 1050 00e6 D5E90045 		ldrd	r4, [r5]
 1051              	.LVL111:
 734:Core/Src/main.c ****     }
 1052              		.loc 1 734 32 view .LVU189
 1053 00ea 73E0     		b	.L52
 1054              	.LVL112:
 1055              	.L87:
 747:Core/Src/main.c ****             val = x < 0 ? (M_PI - val) : val;                      //3-4th octants from 2-1
 1056              		.loc 1 747 17 is_stmt 1 view .LVU190
 747:Core/Src/main.c ****             val = x < 0 ? (M_PI - val) : val;                      //3-4th octants from 2-1
 1057              		.loc 1 747 51 is_stmt 0 view .LVU191
 1058 00ec 42A3     		adr	r3, .L93
 1059 00ee D3E90023 		ldrd	r2, [r3]
 1060 00f2 2846     		mov	r0, r5
 1061 00f4 4946     		mov	r1, r9
 1062 00f6 FFF7FEFF 		bl	__aeabi_dmul
 1063              	.LVL113:
 747:Core/Src/main.c ****             val = x < 0 ? (M_PI - val) : val;                      //3-4th octants from 2-1
 1064              		.loc 1 747 58 view .LVU192
 1065 00fa 2246     		mov	r2, r4
 1066 00fc 4346     		mov	r3, r8
 1067 00fe FFF7FEFF 		bl	__aeabi_ddiv
 1068              	.LVL114:
 747:Core/Src/main.c ****             val = x < 0 ? (M_PI - val) : val;                      //3-4th octants from 2-1
 1069              		.loc 1 747 41 view .LVU193
 1070 0102 FFF7FEFF 		bl	__aeabi_d2iz
 1071              	.LVL115:
 747:Core/Src/main.c ****             val = x < 0 ? (M_PI - val) : val;                      //3-4th octants from 2-1
 1072              		.loc 1 747 40 view .LVU194
 1073 0106 464B     		ldr	r3, .L93+40
 1074 0108 03EBC003 		add	r3, r3, r0, lsl #3
 747:Core/Src/main.c ****             val = x < 0 ? (M_PI - val) : val;                      //3-4th octants from 2-1
ARM GAS  C:\Users\zhangjd\AppData\Local\Temp\ccXlXJUr.s 			page 33


 1075              		.loc 1 747 21 view .LVU195
 1076 010c D3E90023 		ldrd	r2, [r3]
 1077 0110 3DA1     		adr	r1, .L93+16
 1078 0112 D1E90001 		ldrd	r0, [r1]
 1079 0116 FFF7FEFF 		bl	__aeabi_dsub
 1080              	.LVL116:
 1081 011a 0446     		mov	r4, r0
 1082              	.LVL117:
 747:Core/Src/main.c ****             val = x < 0 ? (M_PI - val) : val;                      //3-4th octants from 2-1
 1083              		.loc 1 747 21 view .LVU196
 1084 011c 0F46     		mov	r7, r1
 1085              	.LVL118:
 747:Core/Src/main.c ****             val = x < 0 ? (M_PI - val) : val;                      //3-4th octants from 2-1
 1086              		.loc 1 747 21 view .LVU197
 1087 011e C4E7     		b	.L65
 1088              	.LVL119:
 1089              	.L86:
 749:Core/Src/main.c ****         }
 750:Core/Src/main.c ****         else
 751:Core/Src/main.c ****         {
 752:Core/Src/main.c ****             if (absx > absy)
 1090              		.loc 1 752 13 is_stmt 1 view .LVU198
 1091              		.loc 1 752 16 is_stmt 0 view .LVU199
 1092 0120 2A46     		mov	r2, r5
 1093 0122 4B46     		mov	r3, r9
 1094 0124 2046     		mov	r0, r4
 1095 0126 4146     		mov	r1, r8
 1096 0128 FFF7FEFF 		bl	__aeabi_dcmplt
 1097              	.LVL120:
 1098 012c 28B3     		cbz	r0, .L88
 753:Core/Src/main.c ****                 val = -ATAN_LUT[(int)(255 * absy / absx)]; //8th octant
 1099              		.loc 1 753 17 is_stmt 1 view .LVU200
 1100              		.loc 1 753 43 is_stmt 0 view .LVU201
 1101 012e 32A3     		adr	r3, .L93
 1102 0130 D3E90023 		ldrd	r2, [r3]
 1103 0134 2046     		mov	r0, r4
 1104 0136 4146     		mov	r1, r8
 1105 0138 FFF7FEFF 		bl	__aeabi_dmul
 1106              	.LVL121:
 1107              		.loc 1 753 50 view .LVU202
 1108 013c 2A46     		mov	r2, r5
 1109 013e 4B46     		mov	r3, r9
 1110 0140 FFF7FEFF 		bl	__aeabi_ddiv
 1111              	.LVL122:
 1112              		.loc 1 753 33 view .LVU203
 1113 0144 FFF7FEFF 		bl	__aeabi_d2iz
 1114              	.LVL123:
 1115              		.loc 1 753 32 view .LVU204
 1116 0148 354B     		ldr	r3, .L93+40
 1117 014a 03EBC002 		add	r2, r3, r0, lsl #3
 1118 014e 5768     		ldr	r7, [r2, #4]
 1119              		.loc 1 753 21 view .LVU205
 1120 0150 53F83040 		ldr	r4, [r3, r0, lsl #3]
 1121              	.LVL124:
 1122              		.loc 1 753 21 view .LVU206
 1123 0154 07F10047 		add	r7, r7, #-2147483648
 1124              	.LVL125:
ARM GAS  C:\Users\zhangjd\AppData\Local\Temp\ccXlXJUr.s 			page 34


 1125              	.L69:
 754:Core/Src/main.c ****             else
 755:Core/Src/main.c ****                 val = -M_PI_2 + ATAN_LUT[(int)(255 * absx / absy)]; //7th octant
 756:Core/Src/main.c ****             val = x < 0 ? -M_PI - val : val;                        //5-6th octants from 8-7
 1126              		.loc 1 756 13 is_stmt 1 view .LVU207
 1127              		.loc 1 756 39 is_stmt 0 view .LVU208
 1128 0158 0022     		movs	r2, #0
 1129 015a 0023     		movs	r3, #0
 1130 015c 2846     		mov	r0, r5
 1131 015e 3146     		mov	r1, r6
 1132 0160 FFF7FEFF 		bl	__aeabi_dcmplt
 1133              	.LVL126:
 1134 0164 20B3     		cbz	r0, .L60
 1135              		.loc 1 756 39 discriminator 1 view .LVU209
 1136 0166 2246     		mov	r2, r4
 1137 0168 3B46     		mov	r3, r7
 1138 016a 2BA1     		adr	r1, .L93+32
 1139 016c D1E90001 		ldrd	r0, [r1]
 1140 0170 FFF7FEFF 		bl	__aeabi_dsub
 1141              	.LVL127:
 1142 0174 0446     		mov	r4, r0
 1143              	.LVL128:
 1144              		.loc 1 756 39 discriminator 1 view .LVU210
 1145 0176 0F46     		mov	r7, r1
 1146 0178 1AE0     		b	.L60
 1147              	.LVL129:
 1148              	.L88:
 755:Core/Src/main.c ****             val = x < 0 ? -M_PI - val : val;                        //5-6th octants from 8-7
 1149              		.loc 1 755 17 is_stmt 1 view .LVU211
 755:Core/Src/main.c ****             val = x < 0 ? -M_PI - val : val;                        //5-6th octants from 8-7
 1150              		.loc 1 755 52 is_stmt 0 view .LVU212
 1151 017a 1FA3     		adr	r3, .L93
 1152 017c D3E90023 		ldrd	r2, [r3]
 1153 0180 2846     		mov	r0, r5
 1154 0182 4946     		mov	r1, r9
 1155 0184 FFF7FEFF 		bl	__aeabi_dmul
 1156              	.LVL130:
 755:Core/Src/main.c ****             val = x < 0 ? -M_PI - val : val;                        //5-6th octants from 8-7
 1157              		.loc 1 755 59 view .LVU213
 1158 0188 2246     		mov	r2, r4
 1159 018a 4346     		mov	r3, r8
 1160 018c FFF7FEFF 		bl	__aeabi_ddiv
 1161              	.LVL131:
 755:Core/Src/main.c ****             val = x < 0 ? -M_PI - val : val;                        //5-6th octants from 8-7
 1162              		.loc 1 755 42 view .LVU214
 1163 0190 FFF7FEFF 		bl	__aeabi_d2iz
 1164              	.LVL132:
 755:Core/Src/main.c ****             val = x < 0 ? -M_PI - val : val;                        //5-6th octants from 8-7
 1165              		.loc 1 755 41 view .LVU215
 1166 0194 224B     		ldr	r3, .L93+40
 1167 0196 03EBC000 		add	r0, r3, r0, lsl #3
 755:Core/Src/main.c ****             val = x < 0 ? -M_PI - val : val;                        //5-6th octants from 8-7
 1168              		.loc 1 755 21 view .LVU216
 1169 019a 1BA3     		adr	r3, .L93+16
 1170 019c D3E90023 		ldrd	r2, [r3]
 1171 01a0 03C8     		ldmia	r0, {r0-r1}
 1172 01a2 FFF7FEFF 		bl	__aeabi_dsub
ARM GAS  C:\Users\zhangjd\AppData\Local\Temp\ccXlXJUr.s 			page 35


 1173              	.LVL133:
 1174 01a6 0446     		mov	r4, r0
 1175              	.LVL134:
 755:Core/Src/main.c ****             val = x < 0 ? -M_PI - val : val;                        //5-6th octants from 8-7
 1176              		.loc 1 755 21 view .LVU217
 1177 01a8 0F46     		mov	r7, r1
 1178              	.LVL135:
 755:Core/Src/main.c ****             val = x < 0 ? -M_PI - val : val;                        //5-6th octants from 8-7
 1179              		.loc 1 755 21 view .LVU218
 1180 01aa D5E7     		b	.L69
 1181              	.LVL136:
 1182              	.L74:
 738:Core/Src/main.c ****     }
 1183              		.loc 1 738 13 view .LVU219
 1184 01ac 0024     		movs	r4, #0
 1185              	.LVL137:
 738:Core/Src/main.c ****     }
 1186              		.loc 1 738 13 view .LVU220
 1187 01ae 2746     		mov	r7, r4
 1188              	.L60:
 1189              	.LVL138:
 757:Core/Src/main.c ****         }
 758:Core/Src/main.c ****     }
 759:Core/Src/main.c ****     val = val * 180 / M_PI;
 1190              		.loc 1 759 5 is_stmt 1 view .LVU221
 1191              		.loc 1 759 15 is_stmt 0 view .LVU222
 1192 01b0 0022     		movs	r2, #0
 1193 01b2 1C4B     		ldr	r3, .L93+44
 1194 01b4 2046     		mov	r0, r4
 1195 01b6 3946     		mov	r1, r7
 1196 01b8 FFF7FEFF 		bl	__aeabi_dmul
 1197              	.LVL139:
 1198              		.loc 1 759 9 view .LVU223
 1199 01bc 10A3     		adr	r3, .L93+8
 1200 01be D3E90023 		ldrd	r2, [r3]
 1201 01c2 FFF7FEFF 		bl	__aeabi_ddiv
 1202              	.LVL140:
 1203 01c6 0446     		mov	r4, r0
 1204              	.LVL141:
 1205              		.loc 1 759 9 view .LVU224
 1206 01c8 0D46     		mov	r5, r1
 1207              	.LVL142:
 760:Core/Src/main.c ****     return (val < 0) ? (val + 360) : val;
 1208              		.loc 1 760 5 is_stmt 1 view .LVU225
 1209              		.loc 1 760 36 is_stmt 0 view .LVU226
 1210 01ca 0022     		movs	r2, #0
 1211 01cc 0023     		movs	r3, #0
 1212 01ce FFF7FEFF 		bl	__aeabi_dcmplt
 1213              	.LVL143:
 1214 01d2 18B9     		cbnz	r0, .L92
 1215              	.LVL144:
 1216              	.L52:
 761:Core/Src/main.c **** }
 1217              		.loc 1 761 1 view .LVU227
 1218 01d4 2046     		mov	r0, r4
 1219 01d6 2946     		mov	r1, r5
 1220 01d8 BDE8F883 		pop	{r3, r4, r5, r6, r7, r8, r9, pc}
ARM GAS  C:\Users\zhangjd\AppData\Local\Temp\ccXlXJUr.s 			page 36


 1221              	.LVL145:
 1222              	.L92:
 760:Core/Src/main.c ****     return (val < 0) ? (val + 360) : val;
 1223              		.loc 1 760 36 discriminator 1 view .LVU228
 1224 01dc 0022     		movs	r2, #0
 1225 01de 124B     		ldr	r3, .L93+48
 1226 01e0 2046     		mov	r0, r4
 1227 01e2 2946     		mov	r1, r5
 1228 01e4 FFF7FEFF 		bl	__aeabi_dadd
 1229              	.LVL146:
 1230 01e8 0446     		mov	r4, r0
 1231              	.LVL147:
 760:Core/Src/main.c ****     return (val < 0) ? (val + 360) : val;
 1232              		.loc 1 760 36 discriminator 1 view .LVU229
 1233 01ea 0D46     		mov	r5, r1
 1234 01ec F2E7     		b	.L52
 1235              	.L72:
 728:Core/Src/main.c ****     }
 1236              		.loc 1 728 16 view .LVU230
 1237 01ee 0024     		movs	r4, #0
 1238 01f0 0025     		movs	r5, #0
 1239 01f2 EFE7     		b	.L52
 1240              	.L94:
 1241 01f4 AFF30080 		.align	3
 1242              	.L93:
 1243 01f8 00000000 		.word	0
 1244 01fc 00E06F40 		.word	1081073664
 1245 0200 50455254 		.word	1414677840
 1246 0204 FB210940 		.word	1074340347
 1247 0208 4AD8124D 		.word	1293080650
 1248 020c FB21F93F 		.word	1073291771
 1249 0210 4AD8124D 		.word	1293080650
 1250 0214 FB21F9BF 		.word	-1074191877
 1251 0218 50455254 		.word	1414677840
 1252 021c FB2109C0 		.word	-1073143301
 1253 0220 00000000 		.word	.LANCHOR1
 1254 0224 00806640 		.word	1080459264
 1255 0228 00807640 		.word	1081507840
 1256              		.cfi_endproc
 1257              	.LFE78:
 1259              		.global	__aeabi_i2d
 1260              		.global	__aeabi_ui2d
 1261              		.section	.text.Solve_Mine_Pos,"ax",%progbits
 1262              		.align	1
 1263              		.global	Solve_Mine_Pos
 1264              		.syntax unified
 1265              		.thumb
 1266              		.thumb_func
 1267              		.fpu softvfp
 1269              	Solve_Mine_Pos:
 1270              	.LVL148:
 1271              	.LFB79:
 762:Core/Src/main.c **** int Solve_Mine_Pos(uint16_t xx_1, uint16_t yy_1, uint32_t EE_1, uint16_t xx_2, uint16_t yy_2, uint3
 763:Core/Src/main.c **** {
 1272              		.loc 1 763 1 is_stmt 1 view -0
 1273              		.cfi_startproc
 1274              		@ args = 28, pretend = 0, frame = 56
ARM GAS  C:\Users\zhangjd\AppData\Local\Temp\ccXlXJUr.s 			page 37


 1275              		@ frame_needed = 0, uses_anonymous_args = 0
 1276              		.loc 1 763 1 is_stmt 0 view .LVU232
 1277 0000 2DE9F04F 		push	{r4, r5, r6, r7, r8, r9, r10, fp, lr}
 1278              	.LCFI10:
 1279              		.cfi_def_cfa_offset 36
 1280              		.cfi_offset 4, -36
 1281              		.cfi_offset 5, -32
 1282              		.cfi_offset 6, -28
 1283              		.cfi_offset 7, -24
 1284              		.cfi_offset 8, -20
 1285              		.cfi_offset 9, -16
 1286              		.cfi_offset 10, -12
 1287              		.cfi_offset 11, -8
 1288              		.cfi_offset 14, -4
 1289 0004 8FB0     		sub	sp, sp, #60
 1290              	.LCFI11:
 1291              		.cfi_def_cfa_offset 96
 1292 0006 8046     		mov	r8, r0
 1293 0008 8946     		mov	r9, r1
 1294 000a 1746     		mov	r7, r2
 1295 000c 1D46     		mov	r5, r3
 1296 000e BDF860A0 		ldrh	r10, [sp, #96]
 1297 0012 BDF86840 		ldrh	r4, [sp, #104]
 1298 0016 BDF86C30 		ldrh	r3, [sp, #108]
 1299              	.LVL149:
 764:Core/Src/main.c ****     /*
 765:Core/Src/main.c ****     ÂÖ•Âè£ÂèÇÊï∞Ôºöxx_i,yy_i,EE_i,(i=1,2,3)‰∏∫‰∏â‰∏™‰∏çÂêåÁÇπÁöÑÂùêÊ†á‰∏éÂú∫Âº∫„ÄÇdouble *coordinat
 766:Core/Src/main.c ****     Ê≠§ÂáΩÊï∞Ê†πÊçÆ‰∏âÁªÑÂùêÔøΩ??&Âú∫Âº∫Êï∞ÊçÆËøõË°åËß£ÁÆóÔºåÂ∞ÜÂæóÂà∞ÁöÑÁªìÊûúÂ≠òÂÇ®Âú®coordinateÊ
 767:Core/Src/main.c ****     ËøîÂõûÂÄº‰∏∫0or1„ÄÇcase 1ÔºöËÆ°ÁÆóÊó†ÊòéÊòæÂºÇÂ∏∏;case 0Ôºö‰∏â‰∏™ÁÇπÊï∞ÊçÆÈáè‰∏çÂ§üÔºåÊàñÊòØËÆ°
 768:Core/Src/main.c ****     */
 769:Core/Src/main.c ****     /*
 770:Core/Src/main.c ****     ËÆ°ÁÆóÂÖ¨Âºè‰∏∫Ôºö
 771:Core/Src/main.c ****     y=(A*((xx_2-xx_3)/EE_1+(xx_3-xx_1)/EE_2+(xx_1-xx_2)/EE_3)+(xx_1-xx_2)*(xx_2-xx_3)*(xx_3-xx_1)+y
 772:Core/Src/main.c ****     x=(xx_1+xx_2-((xx_2-xx_3)*(A/EE_1-A/EE_2)-(yy_1-yy_2)*(xx_2-xx_3)*(yy_1+yy_2-2*y))/(xx_1-xx_2)/
 773:Core/Src/main.c ****     Ê≠§ÂÖ¨ÂºèÂú®matlab‰∏äËøêÁÆóÊ≠£Â∏∏ÔºåÁ≤æÂ∫¶Êª°Ë∂≥Ë¶ÅÊ±Ç
 774:Core/Src/main.c ****     */
 775:Core/Src/main.c ****     double determinant = xx_1 * yy_2 - xx_2 * yy_1 + xx_3 * yy_1 - xx_1 * yy_3 + xx_2 * yy_3 - xx_3
 1300              		.loc 1 775 5 is_stmt 1 view .LVU233
 1301              		.loc 1 775 31 is_stmt 0 view .LVU234
 1302 001a 0AFB00F6 		mul	r6, r10, r0
 1303              		.loc 1 775 38 view .LVU235
 1304 001e 01FB1566 		mls	r6, r1, r5, r6
 1305              		.loc 1 775 52 view .LVU236
 1306 0022 04FB0166 		mla	r6, r4, r1, r6
 1307              		.loc 1 775 66 view .LVU237
 1308 0026 03FB1066 		mls	r6, r3, r0, r6
 1309              		.loc 1 775 80 view .LVU238
 1310 002a 0993     		str	r3, [sp, #36]
 1311 002c 03FB0566 		mla	r6, r3, r5, r6
 1312              		.loc 1 775 101 view .LVU239
 1313 0030 04FB0AFB 		mul	fp, r4, r10
 1314              		.loc 1 775 12 view .LVU240
 1315 0034 A6EB0B00 		sub	r0, r6, fp
 1316              	.LVL150:
 1317              		.loc 1 775 12 view .LVU241
 1318 0038 FFF7FEFF 		bl	__aeabi_i2d
 1319              	.LVL151:
ARM GAS  C:\Users\zhangjd\AppData\Local\Temp\ccXlXJUr.s 			page 38


 1320              		.loc 1 775 12 view .LVU242
 1321 003c CDE90001 		strd	r0, [sp]
 1322              	.LVL152:
 776:Core/Src/main.c ****     if (!determinant) //??????
 1323              		.loc 1 776 5 is_stmt 1 view .LVU243
 1324              		.loc 1 776 8 is_stmt 0 view .LVU244
 1325 0040 5E45     		cmp	r6, fp
 1326 0042 00F05381 		beq	.L97
 777:Core/Src/main.c ****         return 0;
 778:Core/Src/main.c ****     double y = (((double)(xx_2 - xx_3) * (A_COFFIENT / (double)EE_1) + (double)(xx_3 - xx_1) * (A_C
 1327              		.loc 1 778 5 is_stmt 1 view .LVU245
 1328              		.loc 1 778 32 is_stmt 0 view .LVU246
 1329 0046 A5EB040B 		sub	fp, r5, r4
 1330              		.loc 1 778 18 view .LVU247
 1331 004a 5846     		mov	r0, fp
 1332              	.LVL153:
 1333              		.loc 1 778 18 view .LVU248
 1334 004c FFF7FEFF 		bl	__aeabi_i2d
 1335              	.LVL154:
 1336 0050 CDE90201 		strd	r0, [sp, #8]
 1337              		.loc 1 778 56 view .LVU249
 1338 0054 3846     		mov	r0, r7
 1339 0056 FFF7FEFF 		bl	__aeabi_ui2d
 1340              	.LVL155:
 1341 005a 0246     		mov	r2, r0
 1342 005c 0B46     		mov	r3, r1
 1343              		.loc 1 778 54 view .LVU250
 1344 005e AAA1     		adr	r1, .L103
 1345 0060 D1E90001 		ldrd	r0, [r1]
 1346 0064 FFF7FEFF 		bl	__aeabi_ddiv
 1347              	.LVL156:
 1348 0068 0246     		mov	r2, r0
 1349 006a 0B46     		mov	r3, r1
 1350              		.loc 1 778 40 view .LVU251
 1351 006c CDE90A23 		strd	r2, [sp, #40]
 1352 0070 DDE90201 		ldrd	r0, [sp, #8]
 1353 0074 FFF7FEFF 		bl	__aeabi_dmul
 1354              	.LVL157:
 1355 0078 0646     		mov	r6, r0
 1356 007a 0F46     		mov	r7, r1
 1357              	.LVL158:
 1358              		.loc 1 778 72 view .LVU252
 1359 007c A4EB0800 		sub	r0, r4, r8
 1360 0080 FFF7FEFF 		bl	__aeabi_i2d
 1361              	.LVL159:
 1362 0084 CDE90601 		strd	r0, [sp, #24]
 1363              		.loc 1 778 110 view .LVU253
 1364 0088 1998     		ldr	r0, [sp, #100]
 1365 008a FFF7FEFF 		bl	__aeabi_ui2d
 1366              	.LVL160:
 1367 008e 0246     		mov	r2, r0
 1368 0090 0B46     		mov	r3, r1
 1369              		.loc 1 778 108 view .LVU254
 1370 0092 9DA1     		adr	r1, .L103
 1371 0094 D1E90001 		ldrd	r0, [r1]
 1372 0098 FFF7FEFF 		bl	__aeabi_ddiv
 1373              	.LVL161:
ARM GAS  C:\Users\zhangjd\AppData\Local\Temp\ccXlXJUr.s 			page 39


 1374 009c 0246     		mov	r2, r0
 1375 009e 0B46     		mov	r3, r1
 1376              		.loc 1 778 94 view .LVU255
 1377 00a0 CDE90C23 		strd	r2, [sp, #48]
 1378 00a4 DDE90601 		ldrd	r0, [sp, #24]
 1379 00a8 FFF7FEFF 		bl	__aeabi_dmul
 1380              	.LVL162:
 1381 00ac 0246     		mov	r2, r0
 1382 00ae 0B46     		mov	r3, r1
 1383              		.loc 1 778 70 view .LVU256
 1384 00b0 3046     		mov	r0, r6
 1385 00b2 3946     		mov	r1, r7
 1386 00b4 FFF7FEFF 		bl	__aeabi_dadd
 1387              	.LVL163:
 1388 00b8 0646     		mov	r6, r0
 1389 00ba 0F46     		mov	r7, r1
 1390              		.loc 1 778 126 view .LVU257
 1391 00bc A8EB0500 		sub	r0, r8, r5
 1392 00c0 FFF7FEFF 		bl	__aeabi_i2d
 1393              	.LVL164:
 1394 00c4 CDE90401 		strd	r0, [sp, #16]
 1395              		.loc 1 778 172 view .LVU258
 1396 00c8 1C98     		ldr	r0, [sp, #112]
 1397 00ca FFF7FEFF 		bl	__aeabi_ui2d
 1398              	.LVL165:
 1399 00ce 0246     		mov	r2, r0
 1400 00d0 0B46     		mov	r3, r1
 1401              		.loc 1 778 150 view .LVU259
 1402 00d2 8DA1     		adr	r1, .L103
 1403 00d4 D1E90001 		ldrd	r0, [r1]
 1404 00d8 FFF7FEFF 		bl	__aeabi_ddiv
 1405              	.LVL166:
 1406 00dc 0246     		mov	r2, r0
 1407 00de 0B46     		mov	r3, r1
 1408              		.loc 1 778 148 view .LVU260
 1409 00e0 DDE90401 		ldrd	r0, [sp, #16]
 1410 00e4 FFF7FEFF 		bl	__aeabi_dmul
 1411              	.LVL167:
 1412 00e8 0246     		mov	r2, r0
 1413 00ea 0B46     		mov	r3, r1
 1414              		.loc 1 778 124 view .LVU261
 1415 00ec 3046     		mov	r0, r6
 1416 00ee 3946     		mov	r1, r7
 1417 00f0 FFF7FEFF 		bl	__aeabi_dadd
 1418              	.LVL168:
 1419              		.loc 1 778 187 view .LVU262
 1420 00f4 DDE90023 		ldrd	r2, [sp]
 1421 00f8 FFF7FEFF 		bl	__aeabi_ddiv
 1422              	.LVL169:
 1423 00fc 0646     		mov	r6, r0
 1424 00fe 0F46     		mov	r7, r1
 1425              		.loc 1 778 217 view .LVU263
 1426 0100 DDE90423 		ldrd	r2, [sp, #16]
 1427 0104 DDE90201 		ldrd	r0, [sp, #8]
 1428 0108 FFF7FEFF 		bl	__aeabi_dmul
 1429              	.LVL170:
 1430              		.loc 1 778 241 view .LVU264
ARM GAS  C:\Users\zhangjd\AppData\Local\Temp\ccXlXJUr.s 			page 40


 1431 010c DDE90023 		ldrd	r2, [sp]
 1432 0110 FFF7FEFF 		bl	__aeabi_ddiv
 1433              	.LVL171:
 1434 0114 0246     		mov	r2, r0
 1435 0116 0B46     		mov	r3, r1
 1436              		.loc 1 778 255 view .LVU265
 1437 0118 DDE90601 		ldrd	r0, [sp, #24]
 1438 011c FFF7FEFF 		bl	__aeabi_dmul
 1439              	.LVL172:
 1440 0120 0246     		mov	r2, r0
 1441 0122 0B46     		mov	r3, r1
 1442              		.loc 1 778 201 view .LVU266
 1443 0124 3046     		mov	r0, r6
 1444 0126 3946     		mov	r1, r7
 1445 0128 FFF7FEFF 		bl	__aeabi_dadd
 1446              	.LVL173:
 1447 012c CDE90601 		strd	r0, [sp, #24]
 1448              		.loc 1 778 273 view .LVU267
 1449 0130 4846     		mov	r0, r9
 1450 0132 FFF7FEFF 		bl	__aeabi_ui2d
 1451              	.LVL174:
 1452              		.loc 1 778 286 view .LVU268
 1453 0136 DDE90023 		ldrd	r2, [sp]
 1454 013a FFF7FEFF 		bl	__aeabi_ddiv
 1455              	.LVL175:
 1456 013e 0646     		mov	r6, r0
 1457 0140 0F46     		mov	r7, r1
 1458              		.loc 1 778 300 view .LVU269
 1459 0142 4846     		mov	r0, r9
 1460 0144 FFF7FEFF 		bl	__aeabi_i2d
 1461              	.LVL176:
 1462 0148 3246     		mov	r2, r6
 1463 014a 3B46     		mov	r3, r7
 1464 014c FFF7FEFF 		bl	__aeabi_dmul
 1465              	.LVL177:
 1466 0150 0646     		mov	r6, r0
 1467 0152 0F46     		mov	r7, r1
 1468              		.loc 1 778 307 view .LVU270
 1469 0154 601B     		subs	r0, r4, r5
 1470 0156 FFF7FEFF 		bl	__aeabi_i2d
 1471              	.LVL178:
 1472 015a 3246     		mov	r2, r6
 1473 015c 3B46     		mov	r3, r7
 1474 015e FFF7FEFF 		bl	__aeabi_dmul
 1475              	.LVL179:
 1476 0162 0246     		mov	r2, r0
 1477 0164 0B46     		mov	r3, r1
 1478              		.loc 1 778 271 view .LVU271
 1479 0166 DDE90601 		ldrd	r0, [sp, #24]
 1480 016a FFF7FEFF 		bl	__aeabi_dadd
 1481              	.LVL180:
 1482 016e CDE90601 		strd	r0, [sp, #24]
 1483              		.loc 1 778 325 view .LVU272
 1484 0172 5046     		mov	r0, r10
 1485 0174 FFF7FEFF 		bl	__aeabi_ui2d
 1486              	.LVL181:
 1487 0178 0646     		mov	r6, r0
ARM GAS  C:\Users\zhangjd\AppData\Local\Temp\ccXlXJUr.s 			page 41


 1488 017a 0F46     		mov	r7, r1
 1489              		.loc 1 778 338 view .LVU273
 1490 017c 5046     		mov	r0, r10
 1491 017e FFF7FEFF 		bl	__aeabi_i2d
 1492              	.LVL182:
 1493 0182 3246     		mov	r2, r6
 1494 0184 3B46     		mov	r3, r7
 1495 0186 FFF7FEFF 		bl	__aeabi_dmul
 1496              	.LVL183:
 1497              		.loc 1 778 345 view .LVU274
 1498 018a DDE90023 		ldrd	r2, [sp]
 1499 018e FFF7FEFF 		bl	__aeabi_ddiv
 1500              	.LVL184:
 1501 0192 0646     		mov	r6, r0
 1502 0194 0F46     		mov	r7, r1
 1503              		.loc 1 778 359 view .LVU275
 1504 0196 A8EB0400 		sub	r0, r8, r4
 1505 019a FFF7FEFF 		bl	__aeabi_i2d
 1506              	.LVL185:
 1507 019e 3246     		mov	r2, r6
 1508 01a0 3B46     		mov	r3, r7
 1509 01a2 FFF7FEFF 		bl	__aeabi_dmul
 1510              	.LVL186:
 1511 01a6 0246     		mov	r2, r0
 1512 01a8 0B46     		mov	r3, r1
 1513              		.loc 1 778 323 view .LVU276
 1514 01aa DDE90601 		ldrd	r0, [sp, #24]
 1515 01ae FFF7FEFF 		bl	__aeabi_dadd
 1516              	.LVL187:
 1517 01b2 CDE90601 		strd	r0, [sp, #24]
 1518              		.loc 1 778 377 view .LVU277
 1519 01b6 099C     		ldr	r4, [sp, #36]
 1520 01b8 2046     		mov	r0, r4
 1521 01ba FFF7FEFF 		bl	__aeabi_ui2d
 1522              	.LVL188:
 1523 01be 0646     		mov	r6, r0
 1524 01c0 0F46     		mov	r7, r1
 1525              		.loc 1 778 390 view .LVU278
 1526 01c2 2046     		mov	r0, r4
 1527 01c4 FFF7FEFF 		bl	__aeabi_i2d
 1528              	.LVL189:
 1529 01c8 3246     		mov	r2, r6
 1530 01ca 3B46     		mov	r3, r7
 1531 01cc FFF7FEFF 		bl	__aeabi_dmul
 1532              	.LVL190:
 1533              		.loc 1 778 397 view .LVU279
 1534 01d0 DDE90023 		ldrd	r2, [sp]
 1535 01d4 FFF7FEFF 		bl	__aeabi_ddiv
 1536              	.LVL191:
 1537 01d8 0646     		mov	r6, r0
 1538 01da 0F46     		mov	r7, r1
 1539              		.loc 1 778 411 view .LVU280
 1540 01dc A5EB0800 		sub	r0, r5, r8
 1541 01e0 FFF7FEFF 		bl	__aeabi_i2d
 1542              	.LVL192:
 1543 01e4 3246     		mov	r2, r6
 1544 01e6 3B46     		mov	r3, r7
ARM GAS  C:\Users\zhangjd\AppData\Local\Temp\ccXlXJUr.s 			page 42


 1545 01e8 FFF7FEFF 		bl	__aeabi_dmul
 1546              	.LVL193:
 1547 01ec 0246     		mov	r2, r0
 1548 01ee 0B46     		mov	r3, r1
 1549              		.loc 1 778 375 view .LVU281
 1550 01f0 DDE90601 		ldrd	r0, [sp, #24]
 1551 01f4 FFF7FEFF 		bl	__aeabi_dadd
 1552              	.LVL194:
 1553              		.loc 1 778 12 view .LVU282
 1554 01f8 0022     		movs	r2, #0
 1555 01fa 474B     		ldr	r3, .L103+16
 1556 01fc FFF7FEFF 		bl	__aeabi_dmul
 1557              	.LVL195:
 1558 0200 0646     		mov	r6, r0
 1559 0202 0F46     		mov	r7, r1
 1560              	.LVL196:
 779:Core/Src/main.c ****     double x = (xx_1 + xx_2 - ((xx_2 - xx_3) * (A_COFFIENT / (double)EE_1 - A_COFFIENT / (double)EE
 1561              		.loc 1 779 5 is_stmt 1 view .LVU283
 1562              		.loc 1 779 22 is_stmt 0 view .LVU284
 1563 0204 08EB0504 		add	r4, r8, r5
 1564              		.loc 1 779 75 view .LVU285
 1565 0208 DDE90C23 		ldrd	r2, [sp, #48]
 1566 020c DDE90A01 		ldrd	r0, [sp, #40]
 1567 0210 FFF7FEFF 		bl	__aeabi_dsub
 1568              	.LVL197:
 1569 0214 0246     		mov	r2, r0
 1570 0216 0B46     		mov	r3, r1
 1571              		.loc 1 779 46 view .LVU286
 1572 0218 DDE90201 		ldrd	r0, [sp, #8]
 1573 021c FFF7FEFF 		bl	__aeabi_dmul
 1574              	.LVL198:
 1575 0220 CDE90001 		strd	r0, [sp]
 1576              	.LVL199:
 1577              		.loc 1 779 112 view .LVU287
 1578 0224 A9EB0A05 		sub	r5, r9, r10
 1579              		.loc 1 779 120 view .LVU288
 1580 0228 05FB0BF5 		mul	r5, r5, fp
 1581              		.loc 1 779 152 view .LVU289
 1582 022c CA44     		add	r10, r10, r9
 1583              		.loc 1 779 163 view .LVU290
 1584 022e 3246     		mov	r2, r6
 1585 0230 3B46     		mov	r3, r7
 1586 0232 3046     		mov	r0, r6
 1587 0234 3946     		mov	r1, r7
 1588 0236 FFF7FEFF 		bl	__aeabi_dadd
 1589              	.LVL200:
 1590 023a 8046     		mov	r8, r0
 1591 023c 8946     		mov	r9, r1
 1592              		.loc 1 779 138 view .LVU291
 1593 023e 5046     		mov	r0, r10
 1594 0240 FFF7FEFF 		bl	__aeabi_i2d
 1595              	.LVL201:
 1596 0244 4246     		mov	r2, r8
 1597 0246 4B46     		mov	r3, r9
 1598 0248 FFF7FEFF 		bl	__aeabi_dsub
 1599              	.LVL202:
 1600 024c 8046     		mov	r8, r0
ARM GAS  C:\Users\zhangjd\AppData\Local\Temp\ccXlXJUr.s 			page 43


 1601 024e 8946     		mov	r9, r1
 1602              		.loc 1 779 136 view .LVU292
 1603 0250 2846     		mov	r0, r5
 1604 0252 FFF7FEFF 		bl	__aeabi_i2d
 1605              	.LVL203:
 1606 0256 4246     		mov	r2, r8
 1607 0258 4B46     		mov	r3, r9
 1608 025a FFF7FEFF 		bl	__aeabi_dmul
 1609              	.LVL204:
 1610 025e 0246     		mov	r2, r0
 1611 0260 0B46     		mov	r3, r1
 1612              		.loc 1 779 104 view .LVU293
 1613 0262 DDE90001 		ldrd	r0, [sp]
 1614 0266 FFF7FEFF 		bl	__aeabi_dsub
 1615              	.LVL205:
 1616              		.loc 1 779 169 view .LVU294
 1617 026a DDE90423 		ldrd	r2, [sp, #16]
 1618 026e FFF7FEFF 		bl	__aeabi_ddiv
 1619              	.LVL206:
 1620              		.loc 1 779 185 view .LVU295
 1621 0272 DDE90223 		ldrd	r2, [sp, #8]
 1622 0276 FFF7FEFF 		bl	__aeabi_ddiv
 1623              	.LVL207:
 1624 027a 8046     		mov	r8, r0
 1625 027c 8946     		mov	r9, r1
 1626              		.loc 1 779 29 view .LVU296
 1627 027e 2046     		mov	r0, r4
 1628 0280 FFF7FEFF 		bl	__aeabi_i2d
 1629              	.LVL208:
 1630 0284 4246     		mov	r2, r8
 1631 0286 4B46     		mov	r3, r9
 1632 0288 FFF7FEFF 		bl	__aeabi_dsub
 1633              	.LVL209:
 1634              		.loc 1 779 12 view .LVU297
 1635 028c 0022     		movs	r2, #0
 1636 028e 224B     		ldr	r3, .L103+16
 1637 0290 FFF7FEFF 		bl	__aeabi_dmul
 1638              	.LVL210:
 1639 0294 0446     		mov	r4, r0
 1640 0296 0D46     		mov	r5, r1
 1641              	.LVL211:
 780:Core/Src/main.c **** 
 781:Core/Src/main.c ****     if (x < -POS_ERR_TOL || x > 254 + POS_ERR_TOL || y < -POS_ERR_TOL || y > 254 + POS_ERR_TOL) //?
 1642              		.loc 1 781 5 is_stmt 1 view .LVU298
 1643              		.loc 1 781 8 is_stmt 0 view .LVU299
 1644 0298 0022     		movs	r2, #0
 1645 029a 204B     		ldr	r3, .L103+20
 1646 029c FFF7FEFF 		bl	__aeabi_dcmplt
 1647              	.LVL212:
 1648 02a0 30BB     		cbnz	r0, .L98
 1649              		.loc 1 781 26 discriminator 1 view .LVU300
 1650 02a2 1BA3     		adr	r3, .L103+8
 1651 02a4 D3E90023 		ldrd	r2, [r3]
 1652 02a8 2046     		mov	r0, r4
 1653 02aa 2946     		mov	r1, r5
 1654 02ac FFF7FEFF 		bl	__aeabi_dcmpgt
 1655              	.LVL213:
ARM GAS  C:\Users\zhangjd\AppData\Local\Temp\ccXlXJUr.s 			page 44


 1656 02b0 10BB     		cbnz	r0, .L99
 1657              		.loc 1 781 51 discriminator 2 view .LVU301
 1658 02b2 0022     		movs	r2, #0
 1659 02b4 194B     		ldr	r3, .L103+20
 1660 02b6 3046     		mov	r0, r6
 1661 02b8 3946     		mov	r1, r7
 1662 02ba FFF7FEFF 		bl	__aeabi_dcmplt
 1663              	.LVL214:
 1664 02be E8B9     		cbnz	r0, .L100
 1665              		.loc 1 781 71 discriminator 3 view .LVU302
 1666 02c0 13A3     		adr	r3, .L103+8
 1667 02c2 D3E90023 		ldrd	r2, [r3]
 1668 02c6 3046     		mov	r0, r6
 1669 02c8 3946     		mov	r1, r7
 1670 02ca FFF7FEFF 		bl	__aeabi_dcmpgt
 1671              	.LVL215:
 1672 02ce B8B9     		cbnz	r0, .L101
 782:Core/Src/main.c ****         return 0;
 783:Core/Src/main.c **** 
 784:Core/Src/main.c ****     *coordinate_x = (int)x;
 1673              		.loc 1 784 5 is_stmt 1 view .LVU303
 1674              		.loc 1 784 21 is_stmt 0 view .LVU304
 1675 02d0 2046     		mov	r0, r4
 1676 02d2 2946     		mov	r1, r5
 1677 02d4 FFF7FEFF 		bl	__aeabi_d2iz
 1678              	.LVL216:
 1679              		.loc 1 784 19 view .LVU305
 1680 02d8 1D9B     		ldr	r3, [sp, #116]
 1681 02da 1860     		str	r0, [r3]
 785:Core/Src/main.c ****     *coordinate_y = (int)y;
 1682              		.loc 1 785 5 is_stmt 1 view .LVU306
 1683              		.loc 1 785 21 is_stmt 0 view .LVU307
 1684 02dc 3046     		mov	r0, r6
 1685 02de 3946     		mov	r1, r7
 1686 02e0 FFF7FEFF 		bl	__aeabi_d2iz
 1687              	.LVL217:
 1688              		.loc 1 785 19 view .LVU308
 1689 02e4 1E9B     		ldr	r3, [sp, #120]
 1690 02e6 1860     		str	r0, [r3]
 786:Core/Src/main.c ****     return 1;
 1691              		.loc 1 786 5 is_stmt 1 view .LVU309
 1692              		.loc 1 786 12 is_stmt 0 view .LVU310
 1693 02e8 0120     		movs	r0, #1
 1694 02ea 02E0     		b	.L95
 1695              	.LVL218:
 1696              	.L97:
 777:Core/Src/main.c ****     double y = (((double)(xx_2 - xx_3) * (A_COFFIENT / (double)EE_1) + (double)(xx_3 - xx_1) * (A_C
 1697              		.loc 1 777 16 view .LVU311
 1698 02ec 0020     		movs	r0, #0
 1699              	.LVL219:
 777:Core/Src/main.c ****     double y = (((double)(xx_2 - xx_3) * (A_COFFIENT / (double)EE_1) + (double)(xx_3 - xx_1) * (A_C
 1700              		.loc 1 777 16 view .LVU312
 1701 02ee 00E0     		b	.L95
 1702              	.LVL220:
 1703              	.L98:
 782:Core/Src/main.c **** 
 1704              		.loc 1 782 16 view .LVU313
ARM GAS  C:\Users\zhangjd\AppData\Local\Temp\ccXlXJUr.s 			page 45


 1705 02f0 0020     		movs	r0, #0
 1706              	.LVL221:
 1707              	.L95:
 787:Core/Src/main.c **** }
 1708              		.loc 1 787 1 view .LVU314
 1709 02f2 0FB0     		add	sp, sp, #60
 1710              	.LCFI12:
 1711              		.cfi_remember_state
 1712              		.cfi_def_cfa_offset 36
 1713              		@ sp needed
 1714 02f4 BDE8F08F 		pop	{r4, r5, r6, r7, r8, r9, r10, fp, pc}
 1715              	.LVL222:
 1716              	.L99:
 1717              	.LCFI13:
 1718              		.cfi_restore_state
 782:Core/Src/main.c **** 
 1719              		.loc 1 782 16 view .LVU315
 1720 02f8 0020     		movs	r0, #0
 1721 02fa FAE7     		b	.L95
 1722              	.L100:
 1723 02fc 0020     		movs	r0, #0
 1724 02fe F8E7     		b	.L95
 1725              	.L101:
 1726 0300 0020     		movs	r0, #0
 1727 0302 F6E7     		b	.L95
 1728              	.L104:
 1729 0304 AFF30080 		.align	3
 1730              	.L103:
 1731 0308 00000000 		.word	0
 1732 030c 65CDCD41 		.word	1104006501
 1733 0310 00000000 		.word	0
 1734 0314 00207040 		.word	1081090048
 1735 0318 0000E03F 		.word	1071644672
 1736 031c 000010C0 		.word	-1072693248
 1737              		.cfi_endproc
 1738              	.LFE79:
 1740              		.section	.text.Sol_Car_Pos_INIT,"ax",%progbits
 1741              		.align	1
 1742              		.global	Sol_Car_Pos_INIT
 1743              		.syntax unified
 1744              		.thumb
 1745              		.thumb_func
 1746              		.fpu softvfp
 1748              	Sol_Car_Pos_INIT:
 1749              	.LFB80:
 788:Core/Src/main.c **** void Sol_Car_Pos_INIT()
 789:Core/Src/main.c **** {
 1750              		.loc 1 789 1 is_stmt 1 view -0
 1751              		.cfi_startproc
 1752              		@ args = 0, pretend = 0, frame = 0
 1753              		@ frame_needed = 0, uses_anonymous_args = 0
 1754 0000 70B5     		push	{r4, r5, r6, lr}
 1755              	.LCFI14:
 1756              		.cfi_def_cfa_offset 16
 1757              		.cfi_offset 4, -16
 1758              		.cfi_offset 5, -12
 1759              		.cfi_offset 6, -8
ARM GAS  C:\Users\zhangjd\AppData\Local\Temp\ccXlXJUr.s 			page 46


 1760              		.cfi_offset 14, -4
 790:Core/Src/main.c ****     ///Sol_Car_Pos()ÂàùÂßãÂåñÔºåËµãÔøΩ?ÔøΩ‰∏≠Èó¥ÂèòÈáèbeacon_determinant
 791:Core/Src/main.c ****     ///ËøõÂÖ•Á¨¨‰∫åÂõûÂêàÊó∂Ë∞ÉÁî®Ê≠§ÂáΩÊï∞ËøõË°åËµãÔøΩ?ÔøΩÔºåÊàñÔøΩ?ÔøΩÊää‰∏ãÈù¢ÔøΩ??Ë°åÁ≤òËøáÂéª
 792:Core/Src/main.c ****     beacon_determinant = -beacon_Pos[0] * beacon_Pos[3] + beacon_Pos[2] * beacon_Pos[1] - beacon_Po
 1761              		.loc 1 792 5 view .LVU317
 1762              		.loc 1 792 37 is_stmt 0 view .LVU318
 1763 0002 0C4A     		ldr	r2, .L107
 1764 0004 1568     		ldr	r5, [r2]
 1765              		.loc 1 792 53 view .LVU319
 1766 0006 D168     		ldr	r1, [r2, #12]
 1767              		.loc 1 792 69 view .LVU320
 1768 0008 9468     		ldr	r4, [r2, #8]
 1769              		.loc 1 792 85 view .LVU321
 1770 000a 5668     		ldr	r6, [r2, #4]
 1771              		.loc 1 792 73 view .LVU322
 1772 000c 06FB04F3 		mul	r3, r6, r4
 1773              		.loc 1 792 57 view .LVU323
 1774 0010 05FB1133 		mls	r3, r5, r1, r3
 1775              		.loc 1 792 101 view .LVU324
 1776 0014 1069     		ldr	r0, [r2, #16]
 1777              		.loc 1 792 89 view .LVU325
 1778 0016 00FB1633 		mls	r3, r0, r6, r3
 1779              		.loc 1 792 149 view .LVU326
 1780 001a 5269     		ldr	r2, [r2, #20]
 1781              		.loc 1 792 121 view .LVU327
 1782 001c 02FB0533 		mla	r3, r2, r5, r3
 1783              		.loc 1 792 153 view .LVU328
 1784 0020 02FB1433 		mls	r3, r2, r4, r3
 1785              		.loc 1 792 24 view .LVU329
 1786 0024 00FB0130 		mla	r0, r0, r1, r3
 1787 0028 FFF7FEFF 		bl	__aeabi_i2d
 1788              	.LVL223:
 1789 002c 024B     		ldr	r3, .L107+4
 1790 002e C3E90001 		strd	r0, [r3]
 793:Core/Src/main.c **** }
 1791              		.loc 1 793 1 view .LVU330
 1792 0032 70BD     		pop	{r4, r5, r6, pc}
 1793              	.L108:
 1794              		.align	2
 1795              	.L107:
 1796 0034 00000000 		.word	.LANCHOR2
 1797 0038 00000000 		.word	.LANCHOR3
 1798              		.cfi_endproc
 1799              	.LFE80:
 1801              		.section	.text.Sol_Car_Pos,"ax",%progbits
 1802              		.align	1
 1803              		.global	Sol_Car_Pos
 1804              		.syntax unified
 1805              		.thumb
 1806              		.thumb_func
 1807              		.fpu softvfp
 1809              	Sol_Car_Pos:
 1810              	.LVL224:
 1811              	.LFB81:
 794:Core/Src/main.c **** void Sol_Car_Pos(double r_1, double r_2, double r_3)
 795:Core/Src/main.c **** {
 1812              		.loc 1 795 1 is_stmt 1 view -0
ARM GAS  C:\Users\zhangjd\AppData\Local\Temp\ccXlXJUr.s 			page 47


 1813              		.cfi_startproc
 1814              		@ args = 8, pretend = 0, frame = 32
 1815              		@ frame_needed = 0, uses_anonymous_args = 0
 1816              		.loc 1 795 1 is_stmt 0 view .LVU332
 1817 0000 2DE9F04F 		push	{r4, r5, r6, r7, r8, r9, r10, fp, lr}
 1818              	.LCFI15:
 1819              		.cfi_def_cfa_offset 36
 1820              		.cfi_offset 4, -36
 1821              		.cfi_offset 5, -32
 1822              		.cfi_offset 6, -28
 1823              		.cfi_offset 7, -24
 1824              		.cfi_offset 8, -20
 1825              		.cfi_offset 9, -16
 1826              		.cfi_offset 10, -12
 1827              		.cfi_offset 11, -8
 1828              		.cfi_offset 14, -4
 1829 0004 89B0     		sub	sp, sp, #36
 1830              	.LCFI16:
 1831              		.cfi_def_cfa_offset 72
 1832 0006 1646     		mov	r6, r2
 1833 0008 1F46     		mov	r7, r3
 1834 000a DDE91289 		ldrd	r8, [sp, #72]
 796:Core/Src/main.c ****     ///Á¨¨‰∫åÂõûÂêàËÆ°ÁÆóÂ∞èËΩ¶‰ΩçÁΩÆÂáΩÊï∞„ÄÇËÆ°ÁÆóÂá∫Â∞èËΩ¶ÂΩìÂâçÂùêÊ†áÔºåÂ≠òÂÇ®Âú®car_Pos[2]Êï∞Á
 797:Core/Src/main.c ****     ///ËøîÂõûÂÄºÔºöÔøΩ??
 798:Core/Src/main.c ****     car_Pos[1] = (r_1 * r_1 * (beacon_Pos[4] - beacon_Pos[2]) + r_3 * r_3 * (beacon_Pos[2] - beacon
 1835              		.loc 1 798 5 is_stmt 1 view .LVU333
 1836              		.loc 1 798 23 is_stmt 0 view .LVU334
 1837 000e 0246     		mov	r2, r0
 1838              	.LVL225:
 1839              		.loc 1 798 23 view .LVU335
 1840 0010 0B46     		mov	r3, r1
 1841 0012 FFF7FEFF 		bl	__aeabi_dmul
 1842              	.LVL226:
 1843              		.loc 1 798 23 view .LVU336
 1844 0016 CDE90201 		strd	r0, [sp, #8]
 1845              		.loc 1 798 42 view .LVU337
 1846 001a DFF8B0A1 		ldr	r10, .L111
 1847 001e DAF81040 		ldr	r4, [r10, #16]
 1848              		.loc 1 798 58 view .LVU338
 1849 0022 DAF80850 		ldr	r5, [r10, #8]
 1850              		.loc 1 798 29 view .LVU339
 1851 0026 601B     		subs	r0, r4, r5
 1852 0028 FFF7FEFF 		bl	__aeabi_i2d
 1853              	.LVL227:
 1854 002c DDE90223 		ldrd	r2, [sp, #8]
 1855 0030 FFF7FEFF 		bl	__aeabi_dmul
 1856              	.LVL228:
 1857 0034 CDE90001 		strd	r0, [sp]
 1858              		.loc 1 798 69 view .LVU340
 1859 0038 4246     		mov	r2, r8
 1860 003a 4B46     		mov	r3, r9
 1861 003c 4046     		mov	r0, r8
 1862 003e 4946     		mov	r1, r9
 1863 0040 FFF7FEFF 		bl	__aeabi_dmul
 1864              	.LVL229:
 1865 0044 CDE90401 		strd	r0, [sp, #16]
 1866              		.loc 1 798 104 view .LVU341
ARM GAS  C:\Users\zhangjd\AppData\Local\Temp\ccXlXJUr.s 			page 48


 1867 0048 DAF80080 		ldr	r8, [r10]
 1868              		.loc 1 798 75 view .LVU342
 1869 004c A5EB0800 		sub	r0, r5, r8
 1870 0050 FFF7FEFF 		bl	__aeabi_i2d
 1871              	.LVL230:
 1872 0054 DDE90423 		ldrd	r2, [sp, #16]
 1873 0058 FFF7FEFF 		bl	__aeabi_dmul
 1874              	.LVL231:
 1875 005c 0246     		mov	r2, r0
 1876 005e 0B46     		mov	r3, r1
 1877              		.loc 1 798 63 view .LVU343
 1878 0060 DDE90001 		ldrd	r0, [sp]
 1879 0064 FFF7FEFF 		bl	__aeabi_dadd
 1880              	.LVL232:
 1881 0068 CDE90001 		strd	r0, [sp]
 1882              		.loc 1 798 115 view .LVU344
 1883 006c 3246     		mov	r2, r6
 1884 006e 3B46     		mov	r3, r7
 1885 0070 3046     		mov	r0, r6
 1886 0072 3946     		mov	r1, r7
 1887 0074 FFF7FEFF 		bl	__aeabi_dmul
 1888              	.LVL233:
 1889 0078 0646     		mov	r6, r0
 1890 007a 0F46     		mov	r7, r1
 1891              		.loc 1 798 121 view .LVU345
 1892 007c A8EB0400 		sub	r0, r8, r4
 1893 0080 FFF7FEFF 		bl	__aeabi_i2d
 1894              	.LVL234:
 1895 0084 CDE90667 		strd	r6, [sp, #24]
 1896 0088 3246     		mov	r2, r6
 1897 008a 3B46     		mov	r3, r7
 1898 008c FFF7FEFF 		bl	__aeabi_dmul
 1899              	.LVL235:
 1900 0090 0246     		mov	r2, r0
 1901 0092 0B46     		mov	r3, r1
 1902              		.loc 1 798 109 view .LVU346
 1903 0094 DDE90001 		ldrd	r0, [sp]
 1904 0098 FFF7FEFF 		bl	__aeabi_dadd
 1905              	.LVL236:
 1906              		.loc 1 798 156 view .LVU347
 1907 009c 0022     		movs	r2, #0
 1908 009e 4C4B     		ldr	r3, .L111+4
 1909 00a0 FFF7FEFF 		bl	__aeabi_dmul
 1910              	.LVL237:
 1911              		.loc 1 798 160 view .LVU348
 1912 00a4 4B4B     		ldr	r3, .L111+8
 1913 00a6 D3E90067 		ldrd	r6, [r3]
 1914 00aa CDE90067 		strd	r6, [sp]
 1915 00ae 3246     		mov	r2, r6
 1916 00b0 3B46     		mov	r3, r7
 1917 00b2 FFF7FEFF 		bl	__aeabi_ddiv
 1918              	.LVL238:
 1919 00b6 0646     		mov	r6, r0
 1920 00b8 0F46     		mov	r7, r1
 1921              		.loc 1 798 199 view .LVU349
 1922 00ba 281B     		subs	r0, r5, r4
 1923              		.loc 1 798 228 view .LVU350
ARM GAS  C:\Users\zhangjd\AppData\Local\Temp\ccXlXJUr.s 			page 49


 1924 00bc DAF804B0 		ldr	fp, [r10, #4]
 1925              		.loc 1 798 216 view .LVU351
 1926 00c0 0BFB00F3 		mul	r3, fp, r0
 1927              		.loc 1 798 265 view .LVU352
 1928 00c4 A8EB0500 		sub	r0, r8, r5
 1929              		.loc 1 798 294 view .LVU353
 1930 00c8 DAF81490 		ldr	r9, [r10, #20]
 1931              		.loc 1 798 282 view .LVU354
 1932 00cc 09FB00F0 		mul	r0, r9, r0
 1933              		.loc 1 798 298 view .LVU355
 1934 00d0 00FB09F0 		mul	r0, r0, r9
 1935              		.loc 1 798 248 view .LVU356
 1936 00d4 03FB0B00 		mla	r0, r3, fp, r0
 1937              		.loc 1 798 331 view .LVU357
 1938 00d8 A4EB0803 		sub	r3, r4, r8
 1939              		.loc 1 798 360 view .LVU358
 1940 00dc DAF80CA0 		ldr	r10, [r10, #12]
 1941              		.loc 1 798 348 view .LVU359
 1942 00e0 0AFB03F3 		mul	r3, r10, r3
 1943              		.loc 1 798 314 view .LVU360
 1944 00e4 03FB0A00 		mla	r0, r3, r10, r0
 1945              		.loc 1 798 381 view .LVU361
 1946 00e8 00EBD070 		add	r0, r0, r0, lsr #31
 1947              		.loc 1 798 385 view .LVU362
 1948 00ec 4010     		asrs	r0, r0, #1
 1949 00ee FFF7FEFF 		bl	__aeabi_i2d
 1950              	.LVL239:
 1951 00f2 DDE90023 		ldrd	r2, [sp]
 1952 00f6 FFF7FEFF 		bl	__aeabi_ddiv
 1953              	.LVL240:
 1954 00fa 0246     		mov	r2, r0
 1955 00fc 0B46     		mov	r3, r1
 1956              		.loc 1 798 181 view .LVU363
 1957 00fe 3046     		mov	r0, r6
 1958 0100 3946     		mov	r1, r7
 1959 0102 FFF7FEFF 		bl	__aeabi_dadd
 1960              	.LVL241:
 1961              		.loc 1 798 16 view .LVU364
 1962 0106 FFF7FEFF 		bl	__aeabi_d2iz
 1963              	.LVL242:
 1964 010a 334B     		ldr	r3, .L111+12
 1965 010c 5860     		str	r0, [r3, #4]
 799:Core/Src/main.c ****     car_Pos[0] = -(r_1 * r_1 * (beacon_Pos[5] - beacon_Pos[3]) + r_3 * r_3 * (beacon_Pos[3] - beaco
 1966              		.loc 1 799 5 is_stmt 1 view .LVU365
 1967              		.loc 1 799 30 is_stmt 0 view .LVU366
 1968 010e A9EB0A00 		sub	r0, r9, r10
 1969 0112 FFF7FEFF 		bl	__aeabi_i2d
 1970              	.LVL243:
 1971 0116 DDE90223 		ldrd	r2, [sp, #8]
 1972 011a FFF7FEFF 		bl	__aeabi_dmul
 1973              	.LVL244:
 1974 011e 0646     		mov	r6, r0
 1975 0120 0F46     		mov	r7, r1
 1976              		.loc 1 799 76 view .LVU367
 1977 0122 AAEB0B00 		sub	r0, r10, fp
 1978 0126 FFF7FEFF 		bl	__aeabi_i2d
 1979              	.LVL245:
ARM GAS  C:\Users\zhangjd\AppData\Local\Temp\ccXlXJUr.s 			page 50


 1980 012a DDE90423 		ldrd	r2, [sp, #16]
 1981 012e FFF7FEFF 		bl	__aeabi_dmul
 1982              	.LVL246:
 1983 0132 0246     		mov	r2, r0
 1984 0134 0B46     		mov	r3, r1
 1985              		.loc 1 799 64 view .LVU368
 1986 0136 3046     		mov	r0, r6
 1987 0138 3946     		mov	r1, r7
 1988 013a FFF7FEFF 		bl	__aeabi_dadd
 1989              	.LVL247:
 1990 013e 0646     		mov	r6, r0
 1991 0140 0F46     		mov	r7, r1
 1992              		.loc 1 799 122 view .LVU369
 1993 0142 ABEB0900 		sub	r0, fp, r9
 1994 0146 FFF7FEFF 		bl	__aeabi_i2d
 1995              	.LVL248:
 1996 014a DDE90623 		ldrd	r2, [sp, #24]
 1997 014e FFF7FEFF 		bl	__aeabi_dmul
 1998              	.LVL249:
 1999 0152 0246     		mov	r2, r0
 2000 0154 0B46     		mov	r3, r1
 2001              		.loc 1 799 110 view .LVU370
 2002 0156 3046     		mov	r0, r6
 2003 0158 3946     		mov	r1, r7
 2004 015a FFF7FEFF 		bl	__aeabi_dadd
 2005              	.LVL250:
 2006 015e 0746     		mov	r7, r0
 2007 0160 0E46     		mov	r6, r1
 2008              		.loc 1 799 157 view .LVU371
 2009 0162 0022     		movs	r2, #0
 2010 0164 1A4B     		ldr	r3, .L111+4
 2011 0166 3846     		mov	r0, r7
 2012 0168 06F10041 		add	r1, r6, #-2147483648
 2013 016c FFF7FEFF 		bl	__aeabi_dmul
 2014              	.LVL251:
 2015              		.loc 1 799 161 view .LVU372
 2016 0170 DDE90023 		ldrd	r2, [sp]
 2017 0174 FFF7FEFF 		bl	__aeabi_ddiv
 2018              	.LVL252:
 2019 0178 0646     		mov	r6, r0
 2020 017a 0F46     		mov	r7, r1
 2021              		.loc 1 799 200 view .LVU373
 2022 017c AAEB0900 		sub	r0, r10, r9
 2023              		.loc 1 799 217 view .LVU374
 2024 0180 00FB08F0 		mul	r0, r0, r8
 2025              		.loc 1 799 266 view .LVU375
 2026 0184 ABEB0A0A 		sub	r10, fp, r10
 2027              		.loc 1 799 283 view .LVU376
 2028 0188 0AFB04FA 		mul	r10, r10, r4
 2029              		.loc 1 799 299 view .LVU377
 2030 018c 0AFB04F4 		mul	r4, r10, r4
 2031              		.loc 1 799 249 view .LVU378
 2032 0190 00FB0848 		mla	r8, r0, r8, r4
 2033              		.loc 1 799 332 view .LVU379
 2034 0194 A9EB0B09 		sub	r9, r9, fp
 2035              		.loc 1 799 349 view .LVU380
 2036 0198 09FB05F9 		mul	r9, r9, r5
ARM GAS  C:\Users\zhangjd\AppData\Local\Temp\ccXlXJUr.s 			page 51


 2037              		.loc 1 799 315 view .LVU381
 2038 019c 09FB0585 		mla	r5, r9, r5, r8
 2039              		.loc 1 799 382 view .LVU382
 2040 01a0 05EBD575 		add	r5, r5, r5, lsr #31
 2041              		.loc 1 799 386 view .LVU383
 2042 01a4 6810     		asrs	r0, r5, #1
 2043 01a6 FFF7FEFF 		bl	__aeabi_i2d
 2044              	.LVL253:
 2045 01aa DDE90023 		ldrd	r2, [sp]
 2046 01ae FFF7FEFF 		bl	__aeabi_ddiv
 2047              	.LVL254:
 2048 01b2 0246     		mov	r2, r0
 2049 01b4 0B46     		mov	r3, r1
 2050              		.loc 1 799 182 view .LVU384
 2051 01b6 3046     		mov	r0, r6
 2052 01b8 3946     		mov	r1, r7
 2053 01ba FFF7FEFF 		bl	__aeabi_dsub
 2054              	.LVL255:
 2055              		.loc 1 799 16 view .LVU385
 2056 01be FFF7FEFF 		bl	__aeabi_d2iz
 2057              	.LVL256:
 2058 01c2 054B     		ldr	r3, .L111+12
 2059 01c4 1860     		str	r0, [r3]
 800:Core/Src/main.c **** }
 2060              		.loc 1 800 1 view .LVU386
 2061 01c6 09B0     		add	sp, sp, #36
 2062              	.LCFI17:
 2063              		.cfi_def_cfa_offset 36
 2064              		@ sp needed
 2065 01c8 BDE8F08F 		pop	{r4, r5, r6, r7, r8, r9, r10, fp, pc}
 2066              	.LVL257:
 2067              	.L112:
 2068              		.loc 1 800 1 view .LVU387
 2069              		.align	2
 2070              	.L111:
 2071 01cc 00000000 		.word	.LANCHOR2
 2072 01d0 0000E03F 		.word	1071644672
 2073 01d4 00000000 		.word	.LANCHOR3
 2074 01d8 00000000 		.word	.LANCHOR4
 2075              		.cfi_endproc
 2076              	.LFE81:
 2078              		.global	__aeabi_d2f
 2079              		.global	__aeabi_f2d
 2080              		.global	__aeabi_dcmpge
 2081              		.global	__aeabi_dcmple
 2082              		.section	.text.Goto,"ax",%progbits
 2083              		.align	1
 2084              		.global	Goto
 2085              		.syntax unified
 2086              		.thumb
 2087              		.thumb_func
 2088              		.fpu softvfp
 2090              	Goto:
 2091              	.LVL258:
 2092              	.LFB82:
 801:Core/Src/main.c **** void Goto(int x, int y)
 802:Core/Src/main.c **** {
ARM GAS  C:\Users\zhangjd\AppData\Local\Temp\ccXlXJUr.s 			page 52


 2093              		.loc 1 802 1 is_stmt 1 view -0
 2094              		.cfi_startproc
 2095              		@ args = 0, pretend = 0, frame = 0
 2096              		@ frame_needed = 0, uses_anonymous_args = 0
 2097              		.loc 1 802 1 is_stmt 0 view .LVU389
 2098 0000 F8B5     		push	{r3, r4, r5, r6, r7, lr}
 2099              	.LCFI18:
 2100              		.cfi_def_cfa_offset 24
 2101              		.cfi_offset 3, -24
 2102              		.cfi_offset 4, -20
 2103              		.cfi_offset 5, -16
 2104              		.cfi_offset 6, -12
 2105              		.cfi_offset 7, -8
 2106              		.cfi_offset 14, -4
 803:Core/Src/main.c ****     float angle_obj;
 2107              		.loc 1 803 5 is_stmt 1 view .LVU390
 804:Core/Src/main.c ****     angle_obj = 360 - atan2LUTif(y - car_Pos[1], x - car_Pos[0]); ///ËÆ°ÁÆóÂà∞ÁõÆÊ†áÁÇπËøûÁ∫øÁöÑÂ§π
 2108              		.loc 1 804 5 view .LVU391
 2109              		.loc 1 804 45 is_stmt 0 view .LVU392
 2110 0002 7C4B     		ldr	r3, .L169
 2111 0004 5E68     		ldr	r6, [r3, #4]
 2112              		.loc 1 804 36 view .LVU393
 2113 0006 8E1B     		subs	r6, r1, r6
 2114              		.loc 1 804 61 view .LVU394
 2115 0008 1B68     		ldr	r3, [r3]
 2116              		.loc 1 804 23 view .LVU395
 2117 000a C01A     		subs	r0, r0, r3
 2118              	.LVL259:
 2119              		.loc 1 804 23 view .LVU396
 2120 000c FFF7FEFF 		bl	__aeabi_i2d
 2121              	.LVL260:
 2122              		.loc 1 804 23 view .LVU397
 2123 0010 0446     		mov	r4, r0
 2124 0012 0D46     		mov	r5, r1
 2125 0014 3046     		mov	r0, r6
 2126 0016 FFF7FEFF 		bl	__aeabi_i2d
 2127              	.LVL261:
 2128 001a 2246     		mov	r2, r4
 2129 001c 2B46     		mov	r3, r5
 2130 001e FFF7FEFF 		bl	atan2LUTif
 2131              	.LVL262:
 2132 0022 0246     		mov	r2, r0
 2133 0024 0B46     		mov	r3, r1
 2134              		.loc 1 804 21 view .LVU398
 2135 0026 0020     		movs	r0, #0
 2136 0028 7349     		ldr	r1, .L169+4
 2137 002a FFF7FEFF 		bl	__aeabi_dsub
 2138              	.LVL263:
 2139              		.loc 1 804 15 view .LVU399
 2140 002e FFF7FEFF 		bl	__aeabi_d2f
 2141              	.LVL264:
 2142 0032 0446     		mov	r4, r0
 2143              	.LVL265:
 805:Core/Src/main.c **** 
 806:Core/Src/main.c ****     float angle_car = GetYaw();
 2144              		.loc 1 806 5 is_stmt 1 view .LVU400
 2145              		.loc 1 806 23 is_stmt 0 view .LVU401
ARM GAS  C:\Users\zhangjd\AppData\Local\Temp\ccXlXJUr.s 			page 53


 2146 0034 FFF7FEFF 		bl	GetYaw
 2147              	.LVL266:
 2148              		.loc 1 806 23 view .LVU402
 2149 0038 0546     		mov	r5, r0
 2150              	.LVL267:
 807:Core/Src/main.c ****     if (angle_obj >= angle_err && angle_obj <= 360.0 - angle_err)
 2151              		.loc 1 807 5 is_stmt 1 view .LVU403
 2152              		.loc 1 807 8 is_stmt 0 view .LVU404
 2153 003a 7049     		ldr	r1, .L169+8
 2154 003c 2046     		mov	r0, r4
 2155              	.LVL268:
 2156              		.loc 1 807 8 view .LVU405
 2157 003e FFF7FEFF 		bl	__aeabi_fcmpge
 2158              	.LVL269:
 2159 0042 0028     		cmp	r0, #0
 2160 0044 50D0     		beq	.L114
 2161              		.loc 1 807 32 discriminator 1 view .LVU406
 2162 0046 6E49     		ldr	r1, .L169+12
 2163 0048 2046     		mov	r0, r4
 2164 004a FFF7FEFF 		bl	__aeabi_fcmple
 2165              	.LVL270:
 2166 004e 0028     		cmp	r0, #0
 2167 0050 4AD0     		beq	.L114
 808:Core/Src/main.c ****     {
 809:Core/Src/main.c ****         if (angle_car >= angle_obj - angle_err && angle_car <= angle_obj + angle_err)
 2168              		.loc 1 809 9 is_stmt 1 view .LVU407
 2169              		.loc 1 809 36 is_stmt 0 view .LVU408
 2170 0052 6A49     		ldr	r1, .L169+8
 2171 0054 2046     		mov	r0, r4
 2172 0056 FFF7FEFF 		bl	__aeabi_fsub
 2173              	.LVL271:
 2174              		.loc 1 809 12 view .LVU409
 2175 005a 2946     		mov	r1, r5
 2176 005c FFF7FEFF 		bl	__aeabi_fcmple
 2177              	.LVL272:
 2178 0060 38B1     		cbz	r0, .L117
 2179              		.loc 1 809 74 discriminator 1 view .LVU410
 2180 0062 6649     		ldr	r1, .L169+8
 2181 0064 2046     		mov	r0, r4
 2182 0066 FFF7FEFF 		bl	__aeabi_fadd
 2183              	.LVL273:
 2184              		.loc 1 809 48 discriminator 1 view .LVU411
 2185 006a 2946     		mov	r1, r5
 2186 006c FFF7FEFF 		bl	__aeabi_fcmpge
 2187              	.LVL274:
 2188 0070 B0B9     		cbnz	r0, .L164
 2189              	.L117:
 810:Core/Src/main.c ****         {
 811:Core/Src/main.c ****             forward(forward_speed);
 812:Core/Src/main.c ****             goto_state = 1;
 813:Core/Src/main.c ****             return;
 814:Core/Src/main.c ****         }
 815:Core/Src/main.c ****         else
 816:Core/Src/main.c ****         {
 817:Core/Src/main.c ****             if (angle_obj <= 180)
 2190              		.loc 1 817 13 is_stmt 1 view .LVU412
 2191              		.loc 1 817 16 is_stmt 0 view .LVU413
ARM GAS  C:\Users\zhangjd\AppData\Local\Temp\ccXlXJUr.s 			page 54


 2192 0072 6449     		ldr	r1, .L169+16
 2193 0074 2046     		mov	r0, r4
 2194 0076 FFF7FEFF 		bl	__aeabi_fcmple
 2195              	.LVL275:
 2196 007a F0B1     		cbz	r0, .L159
 818:Core/Src/main.c ****             {
 819:Core/Src/main.c ****                 if (angle_car >= angle_obj && angle_car <= angle_obj + 180)
 2197              		.loc 1 819 17 is_stmt 1 view .LVU414
 2198              		.loc 1 819 20 is_stmt 0 view .LVU415
 2199 007c 2946     		mov	r1, r5
 2200 007e 2046     		mov	r0, r4
 2201 0080 FFF7FEFF 		bl	__aeabi_fcmple
 2202              	.LVL276:
 2203 0084 38B1     		cbz	r0, .L123
 2204              		.loc 1 819 70 discriminator 1 view .LVU416
 2205 0086 5F49     		ldr	r1, .L169+16
 2206 0088 2046     		mov	r0, r4
 2207 008a FFF7FEFF 		bl	__aeabi_fadd
 2208              	.LVL277:
 2209              		.loc 1 819 44 discriminator 1 view .LVU417
 2210 008e 2946     		mov	r1, r5
 2211 0090 FFF7FEFF 		bl	__aeabi_fcmpge
 2212              	.LVL278:
 2213 0094 60B9     		cbnz	r0, .L165
 2214              	.L123:
 820:Core/Src/main.c ****                 {
 821:Core/Src/main.c ****                     rotate_clockwise(rotate_speed);
 822:Core/Src/main.c ****                 }
 823:Core/Src/main.c ****                 else
 824:Core/Src/main.c ****                     rotate_counterclockwise(rotate_speed);
 2215              		.loc 1 824 21 is_stmt 1 view .LVU418
 2216 0096 40F6D860 		movw	r0, #3800
 2217 009a FFF7FEFF 		bl	rotate_counterclockwise
 2218              	.LVL279:
 2219 009e 60E0     		b	.L113
 2220              	.L164:
 811:Core/Src/main.c ****             goto_state = 1;
 2221              		.loc 1 811 13 view .LVU419
 2222 00a0 40F6B830 		movw	r0, #3000
 2223 00a4 FFF7FEFF 		bl	forward
 2224              	.LVL280:
 812:Core/Src/main.c ****             return;
 2225              		.loc 1 812 13 view .LVU420
 812:Core/Src/main.c ****             return;
 2226              		.loc 1 812 24 is_stmt 0 view .LVU421
 2227 00a8 574B     		ldr	r3, .L169+20
 2228 00aa 0122     		movs	r2, #1
 2229 00ac 1A60     		str	r2, [r3]
 813:Core/Src/main.c ****         }
 2230              		.loc 1 813 13 is_stmt 1 view .LVU422
 2231 00ae 58E0     		b	.L113
 2232              	.L165:
 821:Core/Src/main.c ****                 }
 2233              		.loc 1 821 21 view .LVU423
 2234 00b0 40F6D860 		movw	r0, #3800
 2235 00b4 FFF7FEFF 		bl	rotate_clockwise
 2236              	.LVL281:
ARM GAS  C:\Users\zhangjd\AppData\Local\Temp\ccXlXJUr.s 			page 55


 2237 00b8 53E0     		b	.L113
 2238              	.L159:
 825:Core/Src/main.c ****             }
 826:Core/Src/main.c ****             else
 827:Core/Src/main.c ****             {
 828:Core/Src/main.c ****                 if (angle_car <= angle_obj && angle_car >= angle_obj - 180)
 2239              		.loc 1 828 17 view .LVU424
 2240              		.loc 1 828 20 is_stmt 0 view .LVU425
 2241 00ba 2946     		mov	r1, r5
 2242 00bc 2046     		mov	r0, r4
 2243 00be FFF7FEFF 		bl	__aeabi_fcmpge
 2244              	.LVL282:
 2245 00c2 38B1     		cbz	r0, .L126
 2246              		.loc 1 828 70 discriminator 1 view .LVU426
 2247 00c4 4F49     		ldr	r1, .L169+16
 2248 00c6 2046     		mov	r0, r4
 2249 00c8 FFF7FEFF 		bl	__aeabi_fsub
 2250              	.LVL283:
 2251              		.loc 1 828 44 discriminator 1 view .LVU427
 2252 00cc 2946     		mov	r1, r5
 2253 00ce FFF7FEFF 		bl	__aeabi_fcmple
 2254              	.LVL284:
 2255 00d2 20B9     		cbnz	r0, .L166
 2256              	.L126:
 829:Core/Src/main.c ****                 {
 830:Core/Src/main.c ****                     rotate_counterclockwise(rotate_speed);
 831:Core/Src/main.c ****                 }
 832:Core/Src/main.c ****                 else
 833:Core/Src/main.c ****                     rotate_clockwise(rotate_speed);
 2257              		.loc 1 833 21 is_stmt 1 view .LVU428
 2258 00d4 40F6D860 		movw	r0, #3800
 2259 00d8 FFF7FEFF 		bl	rotate_clockwise
 2260              	.LVL285:
 2261 00dc 41E0     		b	.L113
 2262              	.L166:
 830:Core/Src/main.c ****                 }
 2263              		.loc 1 830 21 view .LVU429
 2264 00de 40F6D860 		movw	r0, #3800
 2265 00e2 FFF7FEFF 		bl	rotate_counterclockwise
 2266              	.LVL286:
 2267 00e6 3CE0     		b	.L113
 2268              	.L114:
 834:Core/Src/main.c ****             }
 835:Core/Src/main.c ****         }
 836:Core/Src/main.c ****     }
 837:Core/Src/main.c ****     else
 838:Core/Src/main.c ****     {
 839:Core/Src/main.c ****         if (angle_obj < angle_err)
 2269              		.loc 1 839 9 view .LVU430
 2270              		.loc 1 839 12 is_stmt 0 view .LVU431
 2271 00e8 4449     		ldr	r1, .L169+8
 2272 00ea 2046     		mov	r0, r4
 2273 00ec FFF7FEFF 		bl	__aeabi_fcmplt
 2274              	.LVL287:
 2275 00f0 0028     		cmp	r0, #0
 2276 00f2 3CD0     		beq	.L160
 840:Core/Src/main.c ****         {
ARM GAS  C:\Users\zhangjd\AppData\Local\Temp\ccXlXJUr.s 			page 56


 841:Core/Src/main.c ****             if ((angle_car >= angle_obj - angle_err + 360.0 || angle_car <= angle_obj + angle_err))
 2277              		.loc 1 841 13 is_stmt 1 view .LVU432
 2278              		.loc 1 841 28 is_stmt 0 view .LVU433
 2279 00f4 2846     		mov	r0, r5
 2280 00f6 FFF7FEFF 		bl	__aeabi_f2d
 2281              	.LVL288:
 2282 00fa 0646     		mov	r6, r0
 2283 00fc 0F46     		mov	r7, r1
 2284              		.loc 1 841 41 view .LVU434
 2285 00fe 3F49     		ldr	r1, .L169+8
 2286 0100 2046     		mov	r0, r4
 2287 0102 FFF7FEFF 		bl	__aeabi_fsub
 2288              	.LVL289:
 2289 0106 FFF7FEFF 		bl	__aeabi_f2d
 2290              	.LVL290:
 2291              		.loc 1 841 53 view .LVU435
 2292 010a 0022     		movs	r2, #0
 2293 010c 3A4B     		ldr	r3, .L169+4
 2294 010e FFF7FEFF 		bl	__aeabi_dadd
 2295              	.LVL291:
 2296 0112 0246     		mov	r2, r0
 2297 0114 0B46     		mov	r3, r1
 2298              		.loc 1 841 16 view .LVU436
 2299 0116 3046     		mov	r0, r6
 2300 0118 3946     		mov	r1, r7
 2301 011a FFF7FEFF 		bl	__aeabi_dcmpge
 2302              	.LVL292:
 2303 011e C8B9     		cbnz	r0, .L131
 2304              		.loc 1 841 87 discriminator 1 view .LVU437
 2305 0120 3649     		ldr	r1, .L169+8
 2306 0122 2046     		mov	r0, r4
 2307 0124 FFF7FEFF 		bl	__aeabi_fadd
 2308              	.LVL293:
 2309              		.loc 1 841 61 discriminator 1 view .LVU438
 2310 0128 2946     		mov	r1, r5
 2311 012a FFF7FEFF 		bl	__aeabi_fcmpge
 2312              	.LVL294:
 2313 012e 88B9     		cbnz	r0, .L131
 842:Core/Src/main.c ****             {
 843:Core/Src/main.c ****                 forward(forward_speed);
 844:Core/Src/main.c ****                 goto_state = 1;
 845:Core/Src/main.c ****                 return;
 846:Core/Src/main.c ****             }
 847:Core/Src/main.c ****             else
 848:Core/Src/main.c ****             {
 849:Core/Src/main.c ****                 if (angle_car >= angle_obj && angle_car <= angle_obj + 180)
 2314              		.loc 1 849 17 is_stmt 1 view .LVU439
 2315              		.loc 1 849 20 is_stmt 0 view .LVU440
 2316 0130 2946     		mov	r1, r5
 2317 0132 2046     		mov	r0, r4
 2318 0134 FFF7FEFF 		bl	__aeabi_fcmple
 2319              	.LVL295:
 2320 0138 38B1     		cbz	r0, .L134
 2321              		.loc 1 849 70 discriminator 1 view .LVU441
 2322 013a 3249     		ldr	r1, .L169+16
 2323 013c 2046     		mov	r0, r4
 2324 013e FFF7FEFF 		bl	__aeabi_fadd
ARM GAS  C:\Users\zhangjd\AppData\Local\Temp\ccXlXJUr.s 			page 57


 2325              	.LVL296:
 2326              		.loc 1 849 44 discriminator 1 view .LVU442
 2327 0142 2946     		mov	r1, r5
 2328 0144 FFF7FEFF 		bl	__aeabi_fcmpge
 2329              	.LVL297:
 2330 0148 60B9     		cbnz	r0, .L167
 2331              	.L134:
 850:Core/Src/main.c ****                 {
 851:Core/Src/main.c ****                     rotate_clockwise(rotate_speed);
 852:Core/Src/main.c ****                 }
 853:Core/Src/main.c ****                 else
 854:Core/Src/main.c ****                     rotate_counterclockwise(rotate_speed);
 2332              		.loc 1 854 21 is_stmt 1 view .LVU443
 2333 014a 40F6D860 		movw	r0, #3800
 2334 014e FFF7FEFF 		bl	rotate_counterclockwise
 2335              	.LVL298:
 2336 0152 06E0     		b	.L113
 2337              	.L131:
 843:Core/Src/main.c ****                 goto_state = 1;
 2338              		.loc 1 843 17 view .LVU444
 2339 0154 40F6B830 		movw	r0, #3000
 2340 0158 FFF7FEFF 		bl	forward
 2341              	.LVL299:
 844:Core/Src/main.c ****                 return;
 2342              		.loc 1 844 17 view .LVU445
 844:Core/Src/main.c ****                 return;
 2343              		.loc 1 844 28 is_stmt 0 view .LVU446
 2344 015c 2A4B     		ldr	r3, .L169+20
 2345 015e 0122     		movs	r2, #1
 2346 0160 1A60     		str	r2, [r3]
 845:Core/Src/main.c ****             }
 2347              		.loc 1 845 17 is_stmt 1 view .LVU447
 2348              	.L113:
 855:Core/Src/main.c ****             }
 856:Core/Src/main.c ****         }
 857:Core/Src/main.c ****         else if (angle_obj > 360 - angle_err)
 858:Core/Src/main.c ****         {
 859:Core/Src/main.c ****             if ((angle_car <= angle_obj + angle_err - 360.0 || angle_car >= angle_obj - angle_err))
 860:Core/Src/main.c ****             {
 861:Core/Src/main.c ****                 forward(forward_speed);
 862:Core/Src/main.c ****                 goto_state = 1;
 863:Core/Src/main.c ****                 return;
 864:Core/Src/main.c ****             }
 865:Core/Src/main.c ****             else
 866:Core/Src/main.c ****             {
 867:Core/Src/main.c ****                 if (angle_car <= angle_obj && angle_car >= angle_obj - 180)
 868:Core/Src/main.c ****                 {
 869:Core/Src/main.c ****                     rotate_counterclockwise(rotate_speed);
 870:Core/Src/main.c ****                 }
 871:Core/Src/main.c ****                 else
 872:Core/Src/main.c ****                     rotate_clockwise(rotate_speed);
 873:Core/Src/main.c ****             }
 874:Core/Src/main.c ****         }
 875:Core/Src/main.c ****     }
 876:Core/Src/main.c **** }
 2349              		.loc 1 876 1 is_stmt 0 view .LVU448
 2350 0162 F8BD     		pop	{r3, r4, r5, r6, r7, pc}
ARM GAS  C:\Users\zhangjd\AppData\Local\Temp\ccXlXJUr.s 			page 58


 2351              	.LVL300:
 2352              	.L167:
 851:Core/Src/main.c ****                 }
 2353              		.loc 1 851 21 is_stmt 1 view .LVU449
 2354 0164 40F6D860 		movw	r0, #3800
 2355 0168 FFF7FEFF 		bl	rotate_clockwise
 2356              	.LVL301:
 2357 016c F9E7     		b	.L113
 2358              	.L160:
 857:Core/Src/main.c ****         {
 2359              		.loc 1 857 14 view .LVU450
 857:Core/Src/main.c ****         {
 2360              		.loc 1 857 17 is_stmt 0 view .LVU451
 2361 016e 2449     		ldr	r1, .L169+12
 2362 0170 2046     		mov	r0, r4
 2363 0172 FFF7FEFF 		bl	__aeabi_fcmpgt
 2364              	.LVL302:
 2365 0176 0028     		cmp	r0, #0
 2366 0178 F3D0     		beq	.L113
 859:Core/Src/main.c ****             {
 2367              		.loc 1 859 13 is_stmt 1 view .LVU452
 859:Core/Src/main.c ****             {
 2368              		.loc 1 859 28 is_stmt 0 view .LVU453
 2369 017a 2846     		mov	r0, r5
 2370 017c FFF7FEFF 		bl	__aeabi_f2d
 2371              	.LVL303:
 2372 0180 0646     		mov	r6, r0
 2373 0182 0F46     		mov	r7, r1
 859:Core/Src/main.c ****             {
 2374              		.loc 1 859 41 view .LVU454
 2375 0184 1D49     		ldr	r1, .L169+8
 2376 0186 2046     		mov	r0, r4
 2377 0188 FFF7FEFF 		bl	__aeabi_fadd
 2378              	.LVL304:
 2379 018c FFF7FEFF 		bl	__aeabi_f2d
 2380              	.LVL305:
 859:Core/Src/main.c ****             {
 2381              		.loc 1 859 53 view .LVU455
 2382 0190 0022     		movs	r2, #0
 2383 0192 194B     		ldr	r3, .L169+4
 2384 0194 FFF7FEFF 		bl	__aeabi_dsub
 2385              	.LVL306:
 2386 0198 0246     		mov	r2, r0
 2387 019a 0B46     		mov	r3, r1
 859:Core/Src/main.c ****             {
 2388              		.loc 1 859 16 view .LVU456
 2389 019c 3046     		mov	r0, r6
 2390 019e 3946     		mov	r1, r7
 2391 01a0 FFF7FEFF 		bl	__aeabi_dcmple
 2392              	.LVL307:
 2393 01a4 C8B9     		cbnz	r0, .L138
 859:Core/Src/main.c ****             {
 2394              		.loc 1 859 87 discriminator 1 view .LVU457
 2395 01a6 1549     		ldr	r1, .L169+8
 2396 01a8 2046     		mov	r0, r4
 2397 01aa FFF7FEFF 		bl	__aeabi_fsub
 2398              	.LVL308:
ARM GAS  C:\Users\zhangjd\AppData\Local\Temp\ccXlXJUr.s 			page 59


 859:Core/Src/main.c ****             {
 2399              		.loc 1 859 61 discriminator 1 view .LVU458
 2400 01ae 2946     		mov	r1, r5
 2401 01b0 FFF7FEFF 		bl	__aeabi_fcmple
 2402              	.LVL309:
 2403 01b4 88B9     		cbnz	r0, .L138
 867:Core/Src/main.c ****                 {
 2404              		.loc 1 867 17 is_stmt 1 view .LVU459
 867:Core/Src/main.c ****                 {
 2405              		.loc 1 867 20 is_stmt 0 view .LVU460
 2406 01b6 2946     		mov	r1, r5
 2407 01b8 2046     		mov	r0, r4
 2408 01ba FFF7FEFF 		bl	__aeabi_fcmpge
 2409              	.LVL310:
 2410 01be 38B1     		cbz	r0, .L141
 867:Core/Src/main.c ****                 {
 2411              		.loc 1 867 70 discriminator 1 view .LVU461
 2412 01c0 1049     		ldr	r1, .L169+16
 2413 01c2 2046     		mov	r0, r4
 2414 01c4 FFF7FEFF 		bl	__aeabi_fsub
 2415              	.LVL311:
 867:Core/Src/main.c ****                 {
 2416              		.loc 1 867 44 discriminator 1 view .LVU462
 2417 01c8 2946     		mov	r1, r5
 2418 01ca FFF7FEFF 		bl	__aeabi_fcmple
 2419              	.LVL312:
 2420 01ce 60B9     		cbnz	r0, .L168
 2421              	.L141:
 872:Core/Src/main.c ****             }
 2422              		.loc 1 872 21 is_stmt 1 view .LVU463
 2423 01d0 40F6D860 		movw	r0, #3800
 2424 01d4 FFF7FEFF 		bl	rotate_clockwise
 2425              	.LVL313:
 2426 01d8 C3E7     		b	.L113
 2427              	.L138:
 861:Core/Src/main.c ****                 goto_state = 1;
 2428              		.loc 1 861 17 view .LVU464
 2429 01da 40F6B830 		movw	r0, #3000
 2430 01de FFF7FEFF 		bl	forward
 2431              	.LVL314:
 862:Core/Src/main.c ****                 return;
 2432              		.loc 1 862 17 view .LVU465
 862:Core/Src/main.c ****                 return;
 2433              		.loc 1 862 28 is_stmt 0 view .LVU466
 2434 01e2 094B     		ldr	r3, .L169+20
 2435 01e4 0122     		movs	r2, #1
 2436 01e6 1A60     		str	r2, [r3]
 863:Core/Src/main.c ****             }
 2437              		.loc 1 863 17 is_stmt 1 view .LVU467
 2438 01e8 BBE7     		b	.L113
 2439              	.L168:
 869:Core/Src/main.c ****                 }
 2440              		.loc 1 869 21 view .LVU468
 2441 01ea 40F6D860 		movw	r0, #3800
 2442 01ee FFF7FEFF 		bl	rotate_counterclockwise
 2443              	.LVL315:
 2444 01f2 B6E7     		b	.L113
ARM GAS  C:\Users\zhangjd\AppData\Local\Temp\ccXlXJUr.s 			page 60


 2445              	.L170:
 2446              		.align	2
 2447              	.L169:
 2448 01f4 00000000 		.word	.LANCHOR4
 2449 01f8 00807640 		.word	1081507840
 2450 01fc 0000A040 		.word	1084227584
 2451 0200 0080B143 		.word	1135706112
 2452 0204 00003443 		.word	1127481344
 2453 0208 00000000 		.word	.LANCHOR5
 2454              		.cfi_endproc
 2455              	.LFE82:
 2457              		.section	.text.Get_Rep_opt,"ax",%progbits
 2458              		.align	1
 2459              		.global	Get_Rep_opt
 2460              		.syntax unified
 2461              		.thumb
 2462              		.thumb_func
 2463              		.fpu softvfp
 2465              	Get_Rep_opt:
 2466              	.LVL316:
 2467              	.LFB83:
 877:Core/Src/main.c **** 
 878:Core/Src/main.c **** //ÂØªÊâæÔøΩ??ËøëÁöÑ‰ªìÂ∫ìÂùêÊ†á
 879:Core/Src/main.c **** // Parameters: Â∞èËΩ¶ÂùêÊ†á
 880:Core/Src/main.c **** // Return: ÔøΩ??ËøëÁöÑ‰ªìÂ∫ìÂùêÊ†áÁöÑÊï∞ÁªÑÊåáÔøΩ??
 881:Core/Src/main.c **** void Get_Rep_opt(int x, int y)
 882:Core/Src/main.c **** {
 2468              		.loc 1 882 1 view -0
 2469              		.cfi_startproc
 2470              		@ args = 0, pretend = 0, frame = 0
 2471              		@ frame_needed = 0, uses_anonymous_args = 0
 2472              		.loc 1 882 1 is_stmt 0 view .LVU470
 2473 0000 2DE9F041 		push	{r4, r5, r6, r7, r8, lr}
 2474              	.LCFI19:
 2475              		.cfi_def_cfa_offset 24
 2476              		.cfi_offset 4, -24
 2477              		.cfi_offset 5, -20
 2478              		.cfi_offset 6, -16
 2479              		.cfi_offset 7, -12
 2480              		.cfi_offset 8, -8
 2481              		.cfi_offset 14, -4
 2482 0004 0646     		mov	r6, r0
 2483 0006 0F46     		mov	r7, r1
 883:Core/Src/main.c ****     int min;
 2484              		.loc 1 883 5 is_stmt 1 view .LVU471
 884:Core/Src/main.c ****     int min_rep;
 2485              		.loc 1 884 5 view .LVU472
 885:Core/Src/main.c ****     int i = 0;
 2486              		.loc 1 885 5 view .LVU473
 2487              	.LVL317:
 886:Core/Src/main.c ****     min = (x - 15) * (x - 15) + (y - 15) * (y - 15);
 2488              		.loc 1 886 5 view .LVU474
 2489              		.loc 1 886 14 is_stmt 0 view .LVU475
 2490 0008 A0F10F05 		sub	r5, r0, #15
 2491              		.loc 1 886 36 view .LVU476
 2492 000c A1F10F03 		sub	r3, r1, #15
 2493              		.loc 1 886 42 view .LVU477
ARM GAS  C:\Users\zhangjd\AppData\Local\Temp\ccXlXJUr.s 			page 61


 2494 0010 03FB03F3 		mul	r3, r3, r3
 2495              		.loc 1 886 9 view .LVU478
 2496 0014 05FB0535 		mla	r5, r5, r5, r3
 2497              	.LVL318:
 887:Core/Src/main.c ****     min_rep = 0;
 2498              		.loc 1 887 5 is_stmt 1 view .LVU479
 888:Core/Src/main.c ****     for (i = 0; i < 8; ++i)
 2499              		.loc 1 888 5 view .LVU480
 2500              		.loc 1 888 12 is_stmt 0 view .LVU481
 2501 0018 0024     		movs	r4, #0
 887:Core/Src/main.c ****     min_rep = 0;
 2502              		.loc 1 887 13 view .LVU482
 2503 001a A046     		mov	r8, r4
 2504              		.loc 1 888 5 view .LVU483
 2505 001c 00E0     		b	.L172
 2506              	.LVL319:
 2507              	.L173:
 2508              		.loc 1 888 24 is_stmt 1 discriminator 2 view .LVU484
 2509 001e 0134     		adds	r4, r4, #1
 2510              	.LVL320:
 2511              	.L172:
 2512              		.loc 1 888 17 discriminator 1 view .LVU485
 2513              		.loc 1 888 5 is_stmt 0 discriminator 1 view .LVU486
 2514 0020 072C     		cmp	r4, #7
 2515 0022 17DC     		bgt	.L182
 889:Core/Src/main.c ****     {
 890:Core/Src/main.c ****         if (getParkDotMineType(i) == prev_type) //ÂêåÁ±ªÂûãÂ∑≤ÁªèÂéªËøá‰∫Ü
 2516              		.loc 1 890 9 is_stmt 1 view .LVU487
 2517              		.loc 1 890 13 is_stmt 0 view .LVU488
 2518 0024 2046     		mov	r0, r4
 2519 0026 FFF7FEFF 		bl	getParkDotMineType
 2520              	.LVL321:
 2521              		.loc 1 890 35 view .LVU489
 2522 002a 284B     		ldr	r3, .L184
 2523 002c 1B68     		ldr	r3, [r3]
 2524              		.loc 1 890 12 view .LVU490
 2525 002e 9842     		cmp	r0, r3
 2526 0030 F5D0     		beq	.L173
 891:Core/Src/main.c ****             continue;
 892:Core/Src/main.c ****         if (((rep[i][0] - x) * (rep[i][0] - x) + (rep[i][1] - y) * (rep[i][1] - y)) < min)
 2527              		.loc 1 892 9 is_stmt 1 view .LVU491
 2528              		.loc 1 892 21 is_stmt 0 view .LVU492
 2529 0032 274A     		ldr	r2, .L184+4
 2530 0034 52F83430 		ldr	r3, [r2, r4, lsl #3]
 2531              		.loc 1 892 25 view .LVU493
 2532 0038 9B1B     		subs	r3, r3, r6
 2533              		.loc 1 892 57 view .LVU494
 2534 003a 02EBC402 		add	r2, r2, r4, lsl #3
 2535 003e 5268     		ldr	r2, [r2, #4]
 2536              		.loc 1 892 61 view .LVU495
 2537 0040 D21B     		subs	r2, r2, r7
 2538              		.loc 1 892 66 view .LVU496
 2539 0042 02FB02F2 		mul	r2, r2, r2
 2540              		.loc 1 892 48 view .LVU497
 2541 0046 03FB0323 		mla	r3, r3, r3, r2
 2542              		.loc 1 892 12 view .LVU498
 2543 004a AB42     		cmp	r3, r5
ARM GAS  C:\Users\zhangjd\AppData\Local\Temp\ccXlXJUr.s 			page 62


 2544 004c E7DA     		bge	.L173
 893:Core/Src/main.c ****         {
 894:Core/Src/main.c ****             min_rep = i;
 2545              		.loc 1 894 21 view .LVU499
 2546 004e A046     		mov	r8, r4
 2547              	.LVL322:
 895:Core/Src/main.c ****             min = (rep[i][0] - x) * (rep[i][0] - x) + (rep[i][1] - y) * (rep[i][1] - y);
 2548              		.loc 1 895 17 view .LVU500
 2549 0050 1D46     		mov	r5, r3
 2550              	.LVL323:
 2551              		.loc 1 895 17 view .LVU501
 2552 0052 E4E7     		b	.L173
 2553              	.LVL324:
 2554              	.L182:
 896:Core/Src/main.c ****         }
 897:Core/Src/main.c ****     }
 898:Core/Src/main.c ****     for (i = 0; i < 3; ++i)
 2555              		.loc 1 898 12 view .LVU502
 2556 0054 0024     		movs	r4, #0
 2557              	.LVL325:
 2558              		.loc 1 898 12 view .LVU503
 2559 0056 00E0     		b	.L175
 2560              	.LVL326:
 2561              	.L176:
 2562              		.loc 1 898 24 is_stmt 1 discriminator 2 view .LVU504
 2563 0058 0134     		adds	r4, r4, #1
 2564              	.LVL327:
 2565              	.L175:
 2566              		.loc 1 898 17 discriminator 1 view .LVU505
 2567              		.loc 1 898 5 is_stmt 0 discriminator 1 view .LVU506
 2568 005a 022C     		cmp	r4, #2
 2569 005c 19DC     		bgt	.L183
 899:Core/Src/main.c ****     {
 900:Core/Src/main.c ****         if (getMyBeaconMineType(i) == prev_type) //ÂêåÁ±ªÂûãÂ∑≤ÁªèÂéªËøá‰∫Ü
 2570              		.loc 1 900 9 is_stmt 1 view .LVU507
 2571              		.loc 1 900 13 is_stmt 0 view .LVU508
 2572 005e 2046     		mov	r0, r4
 2573 0060 FFF7FEFF 		bl	getMyBeaconMineType
 2574              	.LVL328:
 2575              		.loc 1 900 36 view .LVU509
 2576 0064 194B     		ldr	r3, .L184
 2577 0066 1B68     		ldr	r3, [r3]
 2578              		.loc 1 900 12 view .LVU510
 2579 0068 9842     		cmp	r0, r3
 2580 006a F5D0     		beq	.L176
 901:Core/Src/main.c ****             continue;
 902:Core/Src/main.c ****         if (((beacon_Pos[2 * i] - x) * (beacon_Pos[2 * i] - x) + (beacon_Pos[2 * i + 1] - y) * (bea
 2581              		.loc 1 902 9 is_stmt 1 view .LVU511
 2582              		.loc 1 902 28 is_stmt 0 view .LVU512
 2583 006c 6200     		lsls	r2, r4, #1
 2584              		.loc 1 902 25 view .LVU513
 2585 006e 1949     		ldr	r1, .L184+8
 2586 0070 51F82230 		ldr	r3, [r1, r2, lsl #2]
 2587              		.loc 1 902 33 view .LVU514
 2588 0074 9B1B     		subs	r3, r3, r6
 2589              		.loc 1 902 84 view .LVU515
 2590 0076 0132     		adds	r2, r2, #1
ARM GAS  C:\Users\zhangjd\AppData\Local\Temp\ccXlXJUr.s 			page 63


 2591              		.loc 1 902 77 view .LVU516
 2592 0078 51F82220 		ldr	r2, [r1, r2, lsl #2]
 2593              		.loc 1 902 89 view .LVU517
 2594 007c D21B     		subs	r2, r2, r7
 2595              		.loc 1 902 94 view .LVU518
 2596 007e 02FB02F2 		mul	r2, r2, r2
 2597              		.loc 1 902 64 view .LVU519
 2598 0082 03FB0323 		mla	r3, r3, r3, r2
 2599              		.loc 1 902 12 view .LVU520
 2600 0086 AB42     		cmp	r3, r5
 2601 0088 E6DA     		bge	.L176
 903:Core/Src/main.c ****         {
 904:Core/Src/main.c ****             min_rep = 8 + i; //8Âà∞10
 2602              		.loc 1 904 13 is_stmt 1 view .LVU521
 2603              		.loc 1 904 21 is_stmt 0 view .LVU522
 2604 008a 04F10808 		add	r8, r4, #8
 2605              	.LVL329:
 905:Core/Src/main.c ****             min = (beacon_Pos[2 * i] - x) * (beacon_Pos[2 * i] - x) + (beacon_Pos[2 * i + 1] - y) *
 2606              		.loc 1 905 13 is_stmt 1 view .LVU523
 2607              		.loc 1 905 17 is_stmt 0 view .LVU524
 2608 008e 1D46     		mov	r5, r3
 2609 0090 E2E7     		b	.L176
 2610              	.LVL330:
 2611              	.L183:
 906:Core/Src/main.c ****         }
 907:Core/Src/main.c ****     }
 908:Core/Src/main.c ****     if (min_rep < 8)
 2612              		.loc 1 908 5 is_stmt 1 view .LVU525
 2613              		.loc 1 908 8 is_stmt 0 view .LVU526
 2614 0092 B8F1070F 		cmp	r8, #7
 2615 0096 0ADC     		bgt	.L178
 909:Core/Src/main.c ****     {
 910:Core/Src/main.c ****         destination[0] = rep[min_rep][0];
 2616              		.loc 1 910 9 is_stmt 1 view .LVU527
 2617              		.loc 1 910 38 is_stmt 0 view .LVU528
 2618 0098 0D4B     		ldr	r3, .L184+4
 2619 009a 53F83810 		ldr	r1, [r3, r8, lsl #3]
 2620              		.loc 1 910 24 view .LVU529
 2621 009e 0E4A     		ldr	r2, .L184+12
 2622 00a0 1160     		str	r1, [r2]
 911:Core/Src/main.c ****         destination[1] = rep[min_rep][1];
 2623              		.loc 1 911 9 is_stmt 1 view .LVU530
 2624              		.loc 1 911 38 is_stmt 0 view .LVU531
 2625 00a2 03EBC803 		add	r3, r3, r8, lsl #3
 2626 00a6 5B68     		ldr	r3, [r3, #4]
 2627              		.loc 1 911 24 view .LVU532
 2628 00a8 5360     		str	r3, [r2, #4]
 2629              	.LVL331:
 2630              	.L171:
 912:Core/Src/main.c ****         //return rep[min_rep];
 913:Core/Src/main.c ****     }
 914:Core/Src/main.c ****     else
 915:Core/Src/main.c ****     {
 916:Core/Src/main.c ****         destination[0] = beacon_Pos[2 * (min_rep - 8)];
 917:Core/Src/main.c ****         destination[1] = beacon_Pos[2 * (min_rep - 8) + 1];
 918:Core/Src/main.c ****         //return {beacon_Pos[2 * (min_rep - 8)], beacon_Pos[2 * (min_rep - 8) + 1]};}
 919:Core/Src/main.c ****     }
ARM GAS  C:\Users\zhangjd\AppData\Local\Temp\ccXlXJUr.s 			page 64


 920:Core/Src/main.c **** }
 2631              		.loc 1 920 1 view .LVU533
 2632 00aa BDE8F081 		pop	{r4, r5, r6, r7, r8, pc}
 2633              	.LVL332:
 2634              	.L178:
 916:Core/Src/main.c ****         destination[1] = beacon_Pos[2 * (min_rep - 8) + 1];
 2635              		.loc 1 916 9 is_stmt 1 view .LVU534
 916:Core/Src/main.c ****         destination[1] = beacon_Pos[2 * (min_rep - 8) + 1];
 2636              		.loc 1 916 50 is_stmt 0 view .LVU535
 2637 00ae A8F10808 		sub	r8, r8, #8
 2638              	.LVL333:
 916:Core/Src/main.c ****         destination[1] = beacon_Pos[2 * (min_rep - 8) + 1];
 2639              		.loc 1 916 39 view .LVU536
 2640 00b2 4FEA4808 		lsl	r8, r8, #1
 2641              	.LVL334:
 916:Core/Src/main.c ****         destination[1] = beacon_Pos[2 * (min_rep - 8) + 1];
 2642              		.loc 1 916 36 view .LVU537
 2643 00b6 074A     		ldr	r2, .L184+8
 2644 00b8 52F82810 		ldr	r1, [r2, r8, lsl #2]
 916:Core/Src/main.c ****         destination[1] = beacon_Pos[2 * (min_rep - 8) + 1];
 2645              		.loc 1 916 24 view .LVU538
 2646 00bc 064B     		ldr	r3, .L184+12
 2647 00be 1960     		str	r1, [r3]
 917:Core/Src/main.c ****         //return {beacon_Pos[2 * (min_rep - 8)], beacon_Pos[2 * (min_rep - 8) + 1]};}
 2648              		.loc 1 917 9 is_stmt 1 view .LVU539
 917:Core/Src/main.c ****         //return {beacon_Pos[2 * (min_rep - 8)], beacon_Pos[2 * (min_rep - 8) + 1]};}
 2649              		.loc 1 917 55 is_stmt 0 view .LVU540
 2650 00c0 08F10108 		add	r8, r8, #1
 917:Core/Src/main.c ****         //return {beacon_Pos[2 * (min_rep - 8)], beacon_Pos[2 * (min_rep - 8) + 1]};}
 2651              		.loc 1 917 36 view .LVU541
 2652 00c4 52F82820 		ldr	r2, [r2, r8, lsl #2]
 917:Core/Src/main.c ****         //return {beacon_Pos[2 * (min_rep - 8)], beacon_Pos[2 * (min_rep - 8) + 1]};}
 2653              		.loc 1 917 24 view .LVU542
 2654 00c8 5A60     		str	r2, [r3, #4]
 2655              		.loc 1 920 1 view .LVU543
 2656 00ca EEE7     		b	.L171
 2657              	.L185:
 2658              		.align	2
 2659              	.L184:
 2660 00cc 00000000 		.word	.LANCHOR6
 2661 00d0 00000000 		.word	.LANCHOR7
 2662 00d4 00000000 		.word	.LANCHOR2
 2663 00d8 00000000 		.word	.LANCHOR8
 2664              		.cfi_endproc
 2665              	.LFE83:
 2667              		.global	__aeabi_i2f
 2668              		.section	.text.HAL_TIM_PeriodElapsedCallback,"ax",%progbits
 2669              		.align	1
 2670              		.global	HAL_TIM_PeriodElapsedCallback
 2671              		.syntax unified
 2672              		.thumb
 2673              		.thumb_func
 2674              		.fpu softvfp
 2676              	HAL_TIM_PeriodElapsedCallback:
 2677              	.LVL335:
 2678              	.LFB65:
 187:Core/Src/main.c ****     HAL_UART_Receive_DMA(&huart2, jy62Receive, JY62_MESSAGE_LENGTH);
ARM GAS  C:\Users\zhangjd\AppData\Local\Temp\ccXlXJUr.s 			page 65


 2679              		.loc 1 187 1 is_stmt 1 view -0
 2680              		.cfi_startproc
 2681              		@ args = 0, pretend = 0, frame = 0
 2682              		@ frame_needed = 0, uses_anonymous_args = 0
 187:Core/Src/main.c ****     HAL_UART_Receive_DMA(&huart2, jy62Receive, JY62_MESSAGE_LENGTH);
 2683              		.loc 1 187 1 is_stmt 0 view .LVU545
 2684 0000 2DE9F041 		push	{r4, r5, r6, r7, r8, lr}
 2685              	.LCFI20:
 2686              		.cfi_def_cfa_offset 24
 2687              		.cfi_offset 4, -24
 2688              		.cfi_offset 5, -20
 2689              		.cfi_offset 6, -16
 2690              		.cfi_offset 7, -12
 2691              		.cfi_offset 8, -8
 2692              		.cfi_offset 14, -4
 2693 0004 88B0     		sub	sp, sp, #32
 2694              	.LCFI21:
 2695              		.cfi_def_cfa_offset 56
 2696 0006 0446     		mov	r4, r0
 188:Core/Src/main.c ****     if (htim->Instance == TIM1)
 2697              		.loc 1 188 5 is_stmt 1 view .LVU546
 2698 0008 0B22     		movs	r2, #11
 2699 000a 9349     		ldr	r1, .L231
 2700 000c 9348     		ldr	r0, .L231+4
 2701              	.LVL336:
 188:Core/Src/main.c ****     if (htim->Instance == TIM1)
 2702              		.loc 1 188 5 is_stmt 0 view .LVU547
 2703 000e FFF7FEFF 		bl	HAL_UART_Receive_DMA
 2704              	.LVL337:
 189:Core/Src/main.c ****     {
 2705              		.loc 1 189 5 is_stmt 1 view .LVU548
 189:Core/Src/main.c ****     {
 2706              		.loc 1 189 13 is_stmt 0 view .LVU549
 2707 0012 2268     		ldr	r2, [r4]
 189:Core/Src/main.c ****     {
 2708              		.loc 1 189 8 view .LVU550
 2709 0014 924B     		ldr	r3, .L231+8
 2710 0016 9A42     		cmp	r2, r3
 2711 0018 02D0     		beq	.L222
 2712              	.LVL338:
 2713              	.L186:
 436:Core/Src/main.c **** /* USER CODE END 0 */
 2714              		.loc 1 436 1 view .LVU551
 2715 001a 08B0     		add	sp, sp, #32
 2716              	.LCFI22:
 2717              		.cfi_remember_state
 2718              		.cfi_def_cfa_offset 24
 2719              		@ sp needed
 2720 001c BDE8F081 		pop	{r4, r5, r6, r7, r8, pc}
 2721              	.LVL339:
 2722              	.L222:
 2723              	.LCFI23:
 2724              		.cfi_restore_state
 191:Core/Src/main.c ****         {
 2725              		.loc 1 191 9 is_stmt 1 view .LVU552
 191:Core/Src/main.c ****         {
 2726              		.loc 1 191 19 is_stmt 0 view .LVU553
ARM GAS  C:\Users\zhangjd\AppData\Local\Temp\ccXlXJUr.s 			page 66


 2727 0020 904B     		ldr	r3, .L231+12
 2728 0022 1B68     		ldr	r3, [r3]
 191:Core/Src/main.c ****         {
 2729              		.loc 1 191 12 view .LVU554
 2730 0024 092B     		cmp	r3, #9
 2731 0026 34DC     		bgt	.L188
 193:Core/Src/main.c ****             if (count_pos == 2)
 2732              		.loc 1 193 13 is_stmt 1 view .LVU555
 193:Core/Src/main.c ****             if (count_pos == 2)
 2733              		.loc 1 193 22 is_stmt 0 view .LVU556
 2734 0028 8F4A     		ldr	r2, .L231+16
 2735 002a 1368     		ldr	r3, [r2]
 2736 002c 0133     		adds	r3, r3, #1
 2737 002e 1360     		str	r3, [r2]
 194:Core/Src/main.c ****             {
 2738              		.loc 1 194 13 is_stmt 1 view .LVU557
 194:Core/Src/main.c ****             {
 2739              		.loc 1 194 16 is_stmt 0 view .LVU558
 2740 0030 022B     		cmp	r3, #2
 2741 0032 23D0     		beq	.L223
 2742              	.LVL340:
 2743              	.L189:
 210:Core/Src/main.c ****         {
 2744              		.loc 1 210 9 is_stmt 1 view .LVU559
 2745 0034 8B4B     		ldr	r3, .L231+12
 2746 0036 1B68     		ldr	r3, [r3]
 2747 0038 0D2B     		cmp	r3, #13
 2748 003a EED8     		bhi	.L186
 2749 003c 01A2     		adr	r2, .L191
 2750 003e 52F823F0 		ldr	pc, [r2, r3, lsl #2]
 2751 0042 00BF     		.p2align 2
 2752              	.L191:
 2753 0044 D7000000 		.word	.L201+1
 2754 0048 D3010000 		.word	.L200+1
 2755 004c 91020000 		.word	.L199+1
 2756 0050 21030000 		.word	.L198+1
 2757 0054 91030000 		.word	.L197+1
 2758 0058 01040000 		.word	.L196+1
 2759 005c 71040000 		.word	.L195+1
 2760 0060 1B000000 		.word	.L186+1
 2761 0064 1B000000 		.word	.L186+1
 2762 0068 1B000000 		.word	.L186+1
 2763 006c C9040000 		.word	.L194+1
 2764 0070 C5050000 		.word	.L193+1
 2765 0074 03060000 		.word	.L192+1
 2766 0078 13060000 		.word	.L190+1
 2767              	.LVL341:
 2768              		.p2align 1
 2769              	.L223:
 196:Core/Src/main.c ****                 car_Pos[1] = getCarPosY(); ///Êõ¥Êñ∞Â∞èËΩ¶xyÂùêÊ†á
 2770              		.loc 1 196 17 view .LVU560
 196:Core/Src/main.c ****                 car_Pos[1] = getCarPosY(); ///Êõ¥Êñ∞Â∞èËΩ¶xyÂùêÊ†á
 2771              		.loc 1 196 30 is_stmt 0 view .LVU561
 2772 007c FFF7FEFF 		bl	getCarPosX
 2773              	.LVL342:
 196:Core/Src/main.c ****                 car_Pos[1] = getCarPosY(); ///Êõ¥Êñ∞Â∞èËΩ¶xyÂùêÊ†á
 2774              		.loc 1 196 28 view .LVU562
ARM GAS  C:\Users\zhangjd\AppData\Local\Temp\ccXlXJUr.s 			page 67


 2775 0080 7A4C     		ldr	r4, .L231+20
 2776              	.LVL343:
 196:Core/Src/main.c ****                 car_Pos[1] = getCarPosY(); ///Êõ¥Êñ∞Â∞èËΩ¶xyÂùêÊ†á
 2777              		.loc 1 196 28 view .LVU563
 2778 0082 2060     		str	r0, [r4]
 197:Core/Src/main.c ****                 count_pos = 0;
 2779              		.loc 1 197 17 is_stmt 1 view .LVU564
 197:Core/Src/main.c ****                 count_pos = 0;
 2780              		.loc 1 197 30 is_stmt 0 view .LVU565
 2781 0084 FFF7FEFF 		bl	getCarPosY
 2782              	.LVL344:
 197:Core/Src/main.c ****                 count_pos = 0;
 2783              		.loc 1 197 28 view .LVU566
 2784 0088 6060     		str	r0, [r4, #4]
 198:Core/Src/main.c ****             }
 2785              		.loc 1 198 17 is_stmt 1 view .LVU567
 198:Core/Src/main.c ****             }
 2786              		.loc 1 198 27 is_stmt 0 view .LVU568
 2787 008a 774B     		ldr	r3, .L231+16
 2788 008c 0022     		movs	r2, #0
 2789 008e 1A60     		str	r2, [r3]
 2790 0090 D0E7     		b	.L189
 2791              	.LVL345:
 2792              	.L188:
 2793              	.LBB4:
 203:Core/Src/main.c ****             r_0 = getDistanceOfMyBeacon(0);
 2794              		.loc 1 203 13 is_stmt 1 view .LVU569
 204:Core/Src/main.c ****             r_1 = getDistanceOfMyBeacon(1);
 2795              		.loc 1 204 13 view .LVU570
 204:Core/Src/main.c ****             r_1 = getDistanceOfMyBeacon(1);
 2796              		.loc 1 204 19 is_stmt 0 view .LVU571
 2797 0092 0020     		movs	r0, #0
 2798 0094 FFF7FEFF 		bl	getDistanceOfMyBeacon
 2799              	.LVL346:
 2800 0098 0446     		mov	r4, r0
 2801              	.LVL347:
 205:Core/Src/main.c ****             r_2 = getDistanceOfMyBeacon(2);
 2802              		.loc 1 205 13 is_stmt 1 view .LVU572
 205:Core/Src/main.c ****             r_2 = getDistanceOfMyBeacon(2);
 2803              		.loc 1 205 19 is_stmt 0 view .LVU573
 2804 009a 0120     		movs	r0, #1
 2805 009c FFF7FEFF 		bl	getDistanceOfMyBeacon
 2806              	.LVL348:
 2807 00a0 0546     		mov	r5, r0
 2808              	.LVL349:
 206:Core/Src/main.c ****             Sol_Car_Pos(r_0, r_1, r_2); ///Êõ¥Êñ∞Â∞èËΩ¶xyÂùêÊ†á
 2809              		.loc 1 206 13 is_stmt 1 view .LVU574
 206:Core/Src/main.c ****             Sol_Car_Pos(r_0, r_1, r_2); ///Êõ¥Êñ∞Â∞èËΩ¶xyÂùêÊ†á
 2810              		.loc 1 206 19 is_stmt 0 view .LVU575
 2811 00a2 0220     		movs	r0, #2
 2812 00a4 FFF7FEFF 		bl	getDistanceOfMyBeacon
 2813              	.LVL350:
 2814 00a8 8046     		mov	r8, r0
 2815              	.LVL351:
 207:Core/Src/main.c ****         }
 2816              		.loc 1 207 13 is_stmt 1 view .LVU576
 2817 00aa 2846     		mov	r0, r5
ARM GAS  C:\Users\zhangjd\AppData\Local\Temp\ccXlXJUr.s 			page 68


 2818 00ac FFF7FEFF 		bl	__aeabi_ui2d
 2819              	.LVL352:
 2820 00b0 0646     		mov	r6, r0
 2821 00b2 0F46     		mov	r7, r1
 2822 00b4 2046     		mov	r0, r4
 2823 00b6 FFF7FEFF 		bl	__aeabi_ui2d
 2824              	.LVL353:
 2825 00ba 0446     		mov	r4, r0
 2826              	.LVL354:
 207:Core/Src/main.c ****         }
 2827              		.loc 1 207 13 is_stmt 0 view .LVU577
 2828 00bc 0D46     		mov	r5, r1
 2829              	.LVL355:
 207:Core/Src/main.c ****         }
 2830              		.loc 1 207 13 view .LVU578
 2831 00be 4046     		mov	r0, r8
 2832 00c0 FFF7FEFF 		bl	__aeabi_ui2d
 2833              	.LVL356:
 2834 00c4 CDE90001 		strd	r0, [sp]
 2835 00c8 3246     		mov	r2, r6
 2836 00ca 3B46     		mov	r3, r7
 2837 00cc 2046     		mov	r0, r4
 2838 00ce 2946     		mov	r1, r5
 2839 00d0 FFF7FEFF 		bl	Sol_Car_Pos
 2840              	.LVL357:
 2841 00d4 AEE7     		b	.L189
 2842              	.LVL358:
 2843              	.L201:
 207:Core/Src/main.c ****         }
 2844              		.loc 1 207 13 view .LVU579
 2845              	.LBE4:
 218:Core/Src/main.c ****             //Ê≠•È™§2ÔºöËß£ÁÆó‰∏§‰∏™ËµÑÊ∫êÂùêÔøΩ?? =====ÂæÖÂÆûÔøΩ??=====
 2846              		.loc 1 218 13 is_stmt 1 view .LVU580
 2847 00d6 40F6D860 		movw	r0, #3800
 2848 00da FFF7FEFF 		bl	rotate_clockwise_plus_forward
 2849              	.LVL359:
 227:Core/Src/main.c ****             {
 2850              		.loc 1 227 13 view .LVU581
 227:Core/Src/main.c ****             {
 2851              		.loc 1 227 17 is_stmt 0 view .LVU582
 2852 00de 6448     		ldr	r0, .L231+24
 2853 00e0 644B     		ldr	r3, .L231+28
 2854 00e2 03F10802 		add	r2, r3, #8
 2855 00e6 0692     		str	r2, [sp, #24]
 2856 00e8 0593     		str	r3, [sp, #20]
 2857 00ea C369     		ldr	r3, [r0, #28]
 2858 00ec 0493     		str	r3, [sp, #16]
 2859 00ee 438B     		ldrh	r3, [r0, #26]
 2860 00f0 0393     		str	r3, [sp, #12]
 2861 00f2 038B     		ldrh	r3, [r0, #24]
 2862 00f4 0293     		str	r3, [sp, #8]
 2863 00f6 0369     		ldr	r3, [r0, #16]
 2864 00f8 0193     		str	r3, [sp, #4]
 2865 00fa C389     		ldrh	r3, [r0, #14]
 2866 00fc 0093     		str	r3, [sp]
 2867 00fe 8389     		ldrh	r3, [r0, #12]
 2868 0100 4268     		ldr	r2, [r0, #4]
ARM GAS  C:\Users\zhangjd\AppData\Local\Temp\ccXlXJUr.s 			page 69


 2869 0102 4188     		ldrh	r1, [r0, #2]
 2870 0104 0088     		ldrh	r0, [r0]
 2871 0106 FFF7FEFF 		bl	Solve_Mine_Pos
 2872              	.LVL360:
 227:Core/Src/main.c ****             {
 2873              		.loc 1 227 16 view .LVU583
 2874 010a 0028     		cmp	r0, #0
 2875 010c 2DD0     		beq	.L202
 227:Core/Src/main.c ****             {
 2876              		.loc 1 227 218 discriminator 1 view .LVU584
 2877 010e 5848     		ldr	r0, .L231+24
 2878 0110 584B     		ldr	r3, .L231+28
 2879 0112 03F10C02 		add	r2, r3, #12
 2880 0116 0692     		str	r2, [sp, #24]
 2881 0118 0433     		adds	r3, r3, #4
 2882 011a 0593     		str	r3, [sp, #20]
 2883 011c 036A     		ldr	r3, [r0, #32]
 2884 011e 0493     		str	r3, [sp, #16]
 2885 0120 438B     		ldrh	r3, [r0, #26]
 2886 0122 0393     		str	r3, [sp, #12]
 2887 0124 038B     		ldrh	r3, [r0, #24]
 2888 0126 0293     		str	r3, [sp, #8]
 2889 0128 4369     		ldr	r3, [r0, #20]
 2890 012a 0193     		str	r3, [sp, #4]
 2891 012c C389     		ldrh	r3, [r0, #14]
 2892 012e 0093     		str	r3, [sp]
 2893 0130 8389     		ldrh	r3, [r0, #12]
 2894 0132 8268     		ldr	r2, [r0, #8]
 2895 0134 4188     		ldrh	r1, [r0, #2]
 2896 0136 0088     		ldrh	r0, [r0]
 2897 0138 FFF7FEFF 		bl	Solve_Mine_Pos
 2898              	.LVL361:
 227:Core/Src/main.c ****             {
 2899              		.loc 1 227 215 discriminator 1 view .LVU585
 2900 013c A8B1     		cbz	r0, .L202
 230:Core/Src/main.c ****                 //Ê≠•È™§3ÔºöÁ°ÆÂÆöÁ¶ªËΩ¶ÊúÄËøëÁöÑÔøΩ??ÔøΩ??
 2901              		.loc 1 230 17 is_stmt 1 view .LVU586
 230:Core/Src/main.c ****                 //Ê≠•È™§3ÔºöÁ°ÆÂÆöÁ¶ªËΩ¶ÊúÄËøëÁöÑÔøΩ??ÔøΩ??
 2902              		.loc 1 230 23 is_stmt 0 view .LVU587
 2903 013e 494B     		ldr	r3, .L231+12
 2904 0140 0122     		movs	r2, #1
 2905 0142 1A60     		str	r2, [r3]
 232:Core/Src/main.c ****                 break;
 2906              		.loc 1 232 17 is_stmt 1 view .LVU588
 232:Core/Src/main.c ****                 break;
 2907              		.loc 1 232 66 is_stmt 0 view .LVU589
 2908 0144 4B4A     		ldr	r2, .L231+28
 2909 0146 1368     		ldr	r3, [r2]
 232:Core/Src/main.c ****                 break;
 2910              		.loc 1 232 116 view .LVU590
 2911 0148 9168     		ldr	r1, [r2, #8]
 232:Core/Src/main.c ****                 break;
 2912              		.loc 1 232 120 view .LVU591
 2913 014a 01FB01F1 		mul	r1, r1, r1
 232:Core/Src/main.c ****                 break;
 2914              		.loc 1 232 95 view .LVU592
 2915 014e 03FB0313 		mla	r3, r3, r3, r1
ARM GAS  C:\Users\zhangjd\AppData\Local\Temp\ccXlXJUr.s 			page 70


 232:Core/Src/main.c ****                 break;
 2916              		.loc 1 232 168 view .LVU593
 2917 0152 5168     		ldr	r1, [r2, #4]
 232:Core/Src/main.c ****                 break;
 2918              		.loc 1 232 218 view .LVU594
 2919 0154 D068     		ldr	r0, [r2, #12]
 232:Core/Src/main.c ****                 break;
 2920              		.loc 1 232 222 view .LVU595
 2921 0156 00FB00F0 		mul	r0, r0, r0
 232:Core/Src/main.c ****                 break;
 2922              		.loc 1 232 197 view .LVU596
 2923 015a 01FB0101 		mla	r1, r1, r1, r0
 232:Core/Src/main.c ****                 break;
 2924              		.loc 1 232 252 view .LVU597
 2925 015e 8B42     		cmp	r3, r1
 2926 0160 B4BF     		ite	lt
 2927 0162 0023     		movlt	r3, #0
 2928 0164 0123     		movge	r3, #1
 232:Core/Src/main.c ****                 break;
 2929              		.loc 1 232 44 view .LVU598
 2930 0166 5361     		str	r3, [r2, #20]
 233:Core/Src/main.c ****             }
 2931              		.loc 1 233 17 is_stmt 1 view .LVU599
 2932 0168 57E7     		b	.L186
 2933              	.L202:
 238:Core/Src/main.c ****                 Prev_Pos[Prev_Pos_head].y = getCarPosY();          //Âêå‰∏ä
 2934              		.loc 1 238 17 view .LVU600
 238:Core/Src/main.c ****                 Prev_Pos[Prev_Pos_head].y = getCarPosY();          //Âêå‰∏ä
 2935              		.loc 1 238 40 is_stmt 0 view .LVU601
 2936 016a 434C     		ldr	r4, .L231+32
 2937 016c B4F90060 		ldrsh	r6, [r4]
 238:Core/Src/main.c ****                 Prev_Pos[Prev_Pos_head].y = getCarPosY();          //Âêå‰∏ä
 2938              		.loc 1 238 45 view .LVU602
 2939 0170 FFF7FEFF 		bl	getCarPosX
 2940              	.LVL362:
 238:Core/Src/main.c ****                 Prev_Pos[Prev_Pos_head].y = getCarPosY();          //Âêå‰∏ä
 2941              		.loc 1 238 43 view .LVU603
 2942 0174 3E4D     		ldr	r5, .L231+24
 2943 0176 06EB4606 		add	r6, r6, r6, lsl #1
 2944 017a 25F82600 		strh	r0, [r5, r6, lsl #2]	@ movhi
 239:Core/Src/main.c ****                 Prev_Pos[Prev_Pos_head].E_1 = getMineIntensity(0); //Âà©Áî®getMineIntensityÂáΩÊï∞Êõ
 2945              		.loc 1 239 17 is_stmt 1 view .LVU604
 239:Core/Src/main.c ****                 Prev_Pos[Prev_Pos_head].E_1 = getMineIntensity(0); //Âà©Áî®getMineIntensityÂáΩÊï∞Êõ
 2946              		.loc 1 239 40 is_stmt 0 view .LVU605
 2947 017e B4F90060 		ldrsh	r6, [r4]
 239:Core/Src/main.c ****                 Prev_Pos[Prev_Pos_head].E_1 = getMineIntensity(0); //Âà©Áî®getMineIntensityÂáΩÊï∞Êõ
 2948              		.loc 1 239 45 view .LVU606
 2949 0182 FFF7FEFF 		bl	getCarPosY
 2950              	.LVL363:
 239:Core/Src/main.c ****                 Prev_Pos[Prev_Pos_head].E_1 = getMineIntensity(0); //Âà©Áî®getMineIntensityÂáΩÊï∞Êõ
 2951              		.loc 1 239 43 view .LVU607
 2952 0186 06EB4606 		add	r6, r6, r6, lsl #1
 2953 018a 05EB8606 		add	r6, r5, r6, lsl #2
 2954 018e 7080     		strh	r0, [r6, #2]	@ movhi
 240:Core/Src/main.c ****                 Prev_Pos[Prev_Pos_head].E_2 = getMineIntensity(1); //Âêå‰∏ä
 2955              		.loc 1 240 17 is_stmt 1 view .LVU608
 240:Core/Src/main.c ****                 Prev_Pos[Prev_Pos_head].E_2 = getMineIntensity(1); //Âêå‰∏ä
ARM GAS  C:\Users\zhangjd\AppData\Local\Temp\ccXlXJUr.s 			page 71


 2956              		.loc 1 240 40 is_stmt 0 view .LVU609
 2957 0190 B4F90060 		ldrsh	r6, [r4]
 240:Core/Src/main.c ****                 Prev_Pos[Prev_Pos_head].E_2 = getMineIntensity(1); //Âêå‰∏ä
 2958              		.loc 1 240 47 view .LVU610
 2959 0194 0020     		movs	r0, #0
 2960 0196 FFF7FEFF 		bl	getMineIntensity
 2961              	.LVL364:
 240:Core/Src/main.c ****                 Prev_Pos[Prev_Pos_head].E_2 = getMineIntensity(1); //Âêå‰∏ä
 2962              		.loc 1 240 45 view .LVU611
 2963 019a 06EB4606 		add	r6, r6, r6, lsl #1
 2964 019e 05EB8606 		add	r6, r5, r6, lsl #2
 2965 01a2 7060     		str	r0, [r6, #4]
 241:Core/Src/main.c ****                 Prev_Pos_head = (Prev_Pos_head + 1) % 3;           //Â§¥ÊåáÈíàÂæ™ÁéØÂú∞ÂêéÁßª
 2966              		.loc 1 241 17 is_stmt 1 view .LVU612
 241:Core/Src/main.c ****                 Prev_Pos_head = (Prev_Pos_head + 1) % 3;           //Â§¥ÊåáÈíàÂæ™ÁéØÂú∞ÂêéÁßª
 2967              		.loc 1 241 40 is_stmt 0 view .LVU613
 2968 01a4 B4F90060 		ldrsh	r6, [r4]
 241:Core/Src/main.c ****                 Prev_Pos_head = (Prev_Pos_head + 1) % 3;           //Â§¥ÊåáÈíàÂæ™ÁéØÂú∞ÂêéÁßª
 2969              		.loc 1 241 47 view .LVU614
 2970 01a8 0120     		movs	r0, #1
 2971 01aa FFF7FEFF 		bl	getMineIntensity
 2972              	.LVL365:
 241:Core/Src/main.c ****                 Prev_Pos_head = (Prev_Pos_head + 1) % 3;           //Â§¥ÊåáÈíàÂæ™ÁéØÂú∞ÂêéÁßª
 2973              		.loc 1 241 45 view .LVU615
 2974 01ae 06EB4606 		add	r6, r6, r6, lsl #1
 2975 01b2 05EB8605 		add	r5, r5, r6, lsl #2
 2976 01b6 A860     		str	r0, [r5, #8]
 242:Core/Src/main.c ****                 break;
 2977              		.loc 1 242 17 is_stmt 1 view .LVU616
 242:Core/Src/main.c ****                 break;
 2978              		.loc 1 242 48 is_stmt 0 view .LVU617
 2979 01b8 B4F90020 		ldrsh	r2, [r4]
 2980 01bc 0132     		adds	r2, r2, #1
 242:Core/Src/main.c ****                 break;
 2981              		.loc 1 242 53 view .LVU618
 2982 01be 2F4B     		ldr	r3, .L231+36
 2983 01c0 83FB0213 		smull	r1, r3, r3, r2
 2984 01c4 A3EBE273 		sub	r3, r3, r2, asr #31
 2985 01c8 03EB4303 		add	r3, r3, r3, lsl #1
 2986 01cc D31A     		subs	r3, r2, r3
 242:Core/Src/main.c ****                 break;
 2987              		.loc 1 242 31 view .LVU619
 2988 01ce 2380     		strh	r3, [r4]	@ movhi
 243:Core/Src/main.c ****             }
 2989              		.loc 1 243 17 is_stmt 1 view .LVU620
 2990 01d0 23E7     		b	.L186
 2991              	.L200:
 249:Core/Src/main.c ****                 Goto(resource_location.x[resource_location.priority], resource_location.y[resource_
 2992              		.loc 1 249 13 view .LVU621
 249:Core/Src/main.c ****                 Goto(resource_location.x[resource_location.priority], resource_location.y[resource_
 2993              		.loc 1 249 28 is_stmt 0 view .LVU622
 2994 01d2 2B4B     		ldr	r3, .L231+40
 2995 01d4 1B68     		ldr	r3, [r3]
 249:Core/Src/main.c ****                 Goto(resource_location.x[resource_location.priority], resource_location.y[resource_
 2996              		.loc 1 249 16 view .LVU623
 2997 01d6 002B     		cmp	r3, #0
 2998 01d8 2CD0     		beq	.L224
ARM GAS  C:\Users\zhangjd\AppData\Local\Temp\ccXlXJUr.s 			page 72


 2999              	.L203:
 251:Core/Src/main.c ****             if (getCarMineSumNum() == 1)
 3000              		.loc 1 251 13 is_stmt 1 view .LVU624
 251:Core/Src/main.c ****             if (getCarMineSumNum() == 1)
 3001              		.loc 1 251 61 is_stmt 0 view .LVU625
 3002 01da 264A     		ldr	r2, .L231+28
 3003 01dc 5369     		ldr	r3, [r2, #20]
 251:Core/Src/main.c ****             if (getCarMineSumNum() == 1)
 3004              		.loc 1 251 43 view .LVU626
 3005 01de 52F82300 		ldr	r0, [r2, r3, lsl #2]
 251:Core/Src/main.c ****             if (getCarMineSumNum() == 1)
 3006              		.loc 1 251 81 view .LVU627
 3007 01e2 2249     		ldr	r1, .L231+20
 3008 01e4 0C68     		ldr	r4, [r1]
 251:Core/Src/main.c ****             if (getCarMineSumNum() == 1)
 3009              		.loc 1 251 72 view .LVU628
 3010 01e6 001B     		subs	r0, r0, r4
 251:Core/Src/main.c ****             if (getCarMineSumNum() == 1)
 3011              		.loc 1 251 173 view .LVU629
 3012 01e8 0233     		adds	r3, r3, #2
 3013 01ea 52F82330 		ldr	r3, [r2, r3, lsl #2]
 251:Core/Src/main.c ****             if (getCarMineSumNum() == 1)
 3014              		.loc 1 251 211 view .LVU630
 3015 01ee 4A68     		ldr	r2, [r1, #4]
 251:Core/Src/main.c ****             if (getCarMineSumNum() == 1)
 3016              		.loc 1 251 202 view .LVU631
 3017 01f0 9B1A     		subs	r3, r3, r2
 251:Core/Src/main.c ****             if (getCarMineSumNum() == 1)
 3018              		.loc 1 251 216 view .LVU632
 3019 01f2 03FB03F3 		mul	r3, r3, r3
 251:Core/Src/main.c ****             if (getCarMineSumNum() == 1)
 3020              		.loc 1 251 21 view .LVU633
 3021 01f6 00FB0030 		mla	r0, r0, r0, r3
 3022 01fa FFF7FEFF 		bl	__aeabi_i2f
 3023              	.LVL366:
 3024 01fe 214B     		ldr	r3, .L231+44
 3025 0200 1860     		str	r0, [r3]	@ float
 252:Core/Src/main.c ****             {
 3026              		.loc 1 252 13 is_stmt 1 view .LVU634
 252:Core/Src/main.c ****             {
 3027              		.loc 1 252 17 is_stmt 0 view .LVU635
 3028 0202 FFF7FEFF 		bl	getCarMineSumNum
 3029              	.LVL367:
 252:Core/Src/main.c ****             {
 3030              		.loc 1 252 16 view .LVU636
 3031 0206 0128     		cmp	r0, #1
 3032 0208 1ED0     		beq	.L225
 3033              	.L204:
 258:Core/Src/main.c ****             {
 3034              		.loc 1 258 13 is_stmt 1 view .LVU637
 258:Core/Src/main.c ****             {
 3035              		.loc 1 258 17 is_stmt 0 view .LVU638
 3036 020a 1D4B     		ldr	r3, .L231+40
 3037 020c 1B68     		ldr	r3, [r3]
 258:Core/Src/main.c ****             {
 3038              		.loc 1 258 16 view .LVU639
 3039 020e 63B1     		cbz	r3, .L205
ARM GAS  C:\Users\zhangjd\AppData\Local\Temp\ccXlXJUr.s 			page 73


 260:Core/Src/main.c ****                     goto_state = 0;
 3040              		.loc 1 260 17 is_stmt 1 view .LVU640
 260:Core/Src/main.c ****                     goto_state = 0;
 3041              		.loc 1 260 39 is_stmt 0 view .LVU641
 3042 0210 1D49     		ldr	r1, .L231+48
 3043 0212 1E4B     		ldr	r3, .L231+52
 3044 0214 1868     		ldr	r0, [r3]	@ float
 3045 0216 FFF7FEFF 		bl	__aeabi_fadd
 3046              	.LVL368:
 260:Core/Src/main.c ****                     goto_state = 0;
 3047              		.loc 1 260 20 view .LVU642
 3048 021a 1A4B     		ldr	r3, .L231+44
 3049 021c 1968     		ldr	r1, [r3]	@ float
 3050 021e FFF7FEFF 		bl	__aeabi_fcmplt
 3051              	.LVL369:
 3052 0222 10B1     		cbz	r0, .L205
 261:Core/Src/main.c ****             }
 3053              		.loc 1 261 21 is_stmt 1 view .LVU643
 261:Core/Src/main.c ****             }
 3054              		.loc 1 261 32 is_stmt 0 view .LVU644
 3055 0224 164B     		ldr	r3, .L231+40
 3056 0226 0022     		movs	r2, #0
 3057 0228 1A60     		str	r2, [r3]
 3058              	.L205:
 263:Core/Src/main.c ****             break;
 3059              		.loc 1 263 13 is_stmt 1 view .LVU645
 263:Core/Src/main.c ****             break;
 3060              		.loc 1 263 21 is_stmt 0 view .LVU646
 3061 022a 164B     		ldr	r3, .L231+44
 3062 022c 1A68     		ldr	r2, [r3]	@ float
 3063 022e 174B     		ldr	r3, .L231+52
 3064 0230 1A60     		str	r2, [r3]	@ float
 264:Core/Src/main.c ****         }
 3065              		.loc 1 264 13 is_stmt 1 view .LVU647
 3066 0232 F2E6     		b	.L186
 3067              	.L224:
 250:Core/Src/main.c ****             dis_cur = (resource_location.x[resource_location.priority] - car_Pos[0]) * (resource_lo
 3068              		.loc 1 250 17 view .LVU648
 250:Core/Src/main.c ****             dis_cur = (resource_location.x[resource_location.priority] - car_Pos[0]) * (resource_lo
 3069              		.loc 1 250 59 is_stmt 0 view .LVU649
 3070 0234 0F4B     		ldr	r3, .L231+28
 3071 0236 5A69     		ldr	r2, [r3, #20]
 250:Core/Src/main.c ****             dis_cur = (resource_location.x[resource_location.priority] - car_Pos[0]) * (resource_lo
 3072              		.loc 1 250 17 view .LVU650
 3073 0238 911C     		adds	r1, r2, #2
 3074 023a 53F82110 		ldr	r1, [r3, r1, lsl #2]
 3075 023e 53F82200 		ldr	r0, [r3, r2, lsl #2]
 3076 0242 FFF7FEFF 		bl	Goto
 3077              	.LVL370:
 3078 0246 C8E7     		b	.L203
 3079              	.L225:
 254:Core/Src/main.c ****                 goto_state = 0;
 3080              		.loc 1 254 17 is_stmt 1 view .LVU651
 254:Core/Src/main.c ****                 goto_state = 0;
 3081              		.loc 1 254 23 is_stmt 0 view .LVU652
 3082 0248 064B     		ldr	r3, .L231+12
 3083 024a 0222     		movs	r2, #2
ARM GAS  C:\Users\zhangjd\AppData\Local\Temp\ccXlXJUr.s 			page 74


 3084 024c 1A60     		str	r2, [r3]
 255:Core/Src/main.c ****                 // score = getCarScore(); //Êõ¥Êñ∞ÂΩìÂâçÂàÜÊï∞
 3085              		.loc 1 255 17 is_stmt 1 view .LVU653
 255:Core/Src/main.c ****                 // score = getCarScore(); //Êõ¥Êñ∞ÂΩìÂâçÂàÜÊï∞
 3086              		.loc 1 255 28 is_stmt 0 view .LVU654
 3087 024e 0C4B     		ldr	r3, .L231+40
 3088 0250 0022     		movs	r2, #0
 3089 0252 1A60     		str	r2, [r3]
 3090 0254 D9E7     		b	.L204
 3091              	.L232:
 3092 0256 00BF     		.align	2
 3093              	.L231:
 3094 0258 00000000 		.word	jy62Receive
 3095 025c 00000000 		.word	huart2
 3096 0260 002C0140 		.word	1073818624
 3097 0264 00000000 		.word	.LANCHOR9
 3098 0268 00000000 		.word	.LANCHOR10
 3099 026c 00000000 		.word	.LANCHOR4
 3100 0270 00000000 		.word	.LANCHOR11
 3101 0274 00000000 		.word	.LANCHOR12
 3102 0278 00000000 		.word	.LANCHOR13
 3103 027c 56555555 		.word	1431655766
 3104 0280 00000000 		.word	.LANCHOR5
 3105 0284 00000000 		.word	.LANCHOR14
 3106 0288 00009643 		.word	1133903872
 3107 028c 00000000 		.word	.LANCHOR15
 3108              	.L199:
 269:Core/Src/main.c ****                 Goto(resource_location.x[!resource_location.priority], resource_location.y[!resourc
 3109              		.loc 1 269 13 is_stmt 1 view .LVU655
 269:Core/Src/main.c ****                 Goto(resource_location.x[!resource_location.priority], resource_location.y[!resourc
 3110              		.loc 1 269 28 is_stmt 0 view .LVU656
 3111 0290 834B     		ldr	r3, .L233
 3112 0292 1B68     		ldr	r3, [r3]
 269:Core/Src/main.c ****                 Goto(resource_location.x[!resource_location.priority], resource_location.y[!resourc
 3113              		.loc 1 269 16 view .LVU657
 3114 0294 002B     		cmp	r3, #0
 3115 0296 2FD0     		beq	.L226
 3116              	.L207:
 271:Core/Src/main.c ****             if (getCarMineSumNum() == 1)
 3117              		.loc 1 271 13 is_stmt 1 view .LVU658
 271:Core/Src/main.c ****             if (getCarMineSumNum() == 1)
 3118              		.loc 1 271 62 is_stmt 0 view .LVU659
 3119 0298 824A     		ldr	r2, .L233+4
 3120 029a 5369     		ldr	r3, [r2, #20]
 271:Core/Src/main.c ****             if (getCarMineSumNum() == 1)
 3121              		.loc 1 271 44 view .LVU660
 3122 029c B3FA83F3 		clz	r3, r3
 3123 02a0 5B09     		lsrs	r3, r3, #5
 271:Core/Src/main.c ****             if (getCarMineSumNum() == 1)
 3124              		.loc 1 271 43 view .LVU661
 3125 02a2 52F82300 		ldr	r0, [r2, r3, lsl #2]
 271:Core/Src/main.c ****             if (getCarMineSumNum() == 1)
 3126              		.loc 1 271 82 view .LVU662
 3127 02a6 8049     		ldr	r1, .L233+8
 3128 02a8 0C68     		ldr	r4, [r1]
 271:Core/Src/main.c ****             if (getCarMineSumNum() == 1)
 3129              		.loc 1 271 73 view .LVU663
ARM GAS  C:\Users\zhangjd\AppData\Local\Temp\ccXlXJUr.s 			page 75


 3130 02aa 001B     		subs	r0, r0, r4
 271:Core/Src/main.c ****             if (getCarMineSumNum() == 1)
 3131              		.loc 1 271 175 view .LVU664
 3132 02ac 0233     		adds	r3, r3, #2
 3133 02ae 52F82330 		ldr	r3, [r2, r3, lsl #2]
 271:Core/Src/main.c ****             if (getCarMineSumNum() == 1)
 3134              		.loc 1 271 214 view .LVU665
 3135 02b2 4A68     		ldr	r2, [r1, #4]
 271:Core/Src/main.c ****             if (getCarMineSumNum() == 1)
 3136              		.loc 1 271 205 view .LVU666
 3137 02b4 9B1A     		subs	r3, r3, r2
 271:Core/Src/main.c ****             if (getCarMineSumNum() == 1)
 3138              		.loc 1 271 219 view .LVU667
 3139 02b6 03FB03F3 		mul	r3, r3, r3
 271:Core/Src/main.c ****             if (getCarMineSumNum() == 1)
 3140              		.loc 1 271 21 view .LVU668
 3141 02ba 00FB0030 		mla	r0, r0, r0, r3
 3142 02be FFF7FEFF 		bl	__aeabi_i2f
 3143              	.LVL371:
 3144 02c2 7A4B     		ldr	r3, .L233+12
 3145 02c4 1860     		str	r0, [r3]	@ float
 272:Core/Src/main.c ****             {
 3146              		.loc 1 272 13 is_stmt 1 view .LVU669
 272:Core/Src/main.c ****             {
 3147              		.loc 1 272 17 is_stmt 0 view .LVU670
 3148 02c6 FFF7FEFF 		bl	getCarMineSumNum
 3149              	.LVL372:
 272:Core/Src/main.c ****             {
 3150              		.loc 1 272 16 view .LVU671
 3151 02ca 0128     		cmp	r0, #1
 3152 02cc 21D0     		beq	.L227
 3153              	.L208:
 278:Core/Src/main.c ****             {
 3154              		.loc 1 278 13 is_stmt 1 view .LVU672
 278:Core/Src/main.c ****             {
 3155              		.loc 1 278 17 is_stmt 0 view .LVU673
 3156 02ce 744B     		ldr	r3, .L233
 3157 02d0 1B68     		ldr	r3, [r3]
 278:Core/Src/main.c ****             {
 3158              		.loc 1 278 16 view .LVU674
 3159 02d2 63B1     		cbz	r3, .L209
 280:Core/Src/main.c ****                     goto_state = 0;
 3160              		.loc 1 280 17 is_stmt 1 view .LVU675
 280:Core/Src/main.c ****                     goto_state = 0;
 3161              		.loc 1 280 39 is_stmt 0 view .LVU676
 3162 02d4 7649     		ldr	r1, .L233+16
 3163 02d6 774B     		ldr	r3, .L233+20
 3164 02d8 1868     		ldr	r0, [r3]	@ float
 3165 02da FFF7FEFF 		bl	__aeabi_fadd
 3166              	.LVL373:
 280:Core/Src/main.c ****                     goto_state = 0;
 3167              		.loc 1 280 20 view .LVU677
 3168 02de 734B     		ldr	r3, .L233+12
 3169 02e0 1968     		ldr	r1, [r3]	@ float
 3170 02e2 FFF7FEFF 		bl	__aeabi_fcmplt
 3171              	.LVL374:
 3172 02e6 10B1     		cbz	r0, .L209
ARM GAS  C:\Users\zhangjd\AppData\Local\Temp\ccXlXJUr.s 			page 76


 281:Core/Src/main.c ****             }
 3173              		.loc 1 281 21 is_stmt 1 view .LVU678
 281:Core/Src/main.c ****             }
 3174              		.loc 1 281 32 is_stmt 0 view .LVU679
 3175 02e8 6D4B     		ldr	r3, .L233
 3176 02ea 0022     		movs	r2, #0
 3177 02ec 1A60     		str	r2, [r3]
 3178              	.L209:
 283:Core/Src/main.c ****             break;
 3179              		.loc 1 283 13 is_stmt 1 view .LVU680
 283:Core/Src/main.c ****             break;
 3180              		.loc 1 283 21 is_stmt 0 view .LVU681
 3181 02ee 6F4B     		ldr	r3, .L233+12
 3182 02f0 1A68     		ldr	r2, [r3]	@ float
 3183 02f2 704B     		ldr	r3, .L233+20
 3184 02f4 1A60     		str	r2, [r3]	@ float
 284:Core/Src/main.c ****         }
 3185              		.loc 1 284 13 is_stmt 1 view .LVU682
 3186 02f6 90E6     		b	.L186
 3187              	.L226:
 270:Core/Src/main.c ****             dis_cur = (resource_location.x[!resource_location.priority] - car_Pos[0]) * (resource_l
 3188              		.loc 1 270 17 view .LVU683
 270:Core/Src/main.c ****             dis_cur = (resource_location.x[!resource_location.priority] - car_Pos[0]) * (resource_l
 3189              		.loc 1 270 60 is_stmt 0 view .LVU684
 3190 02f8 6A4A     		ldr	r2, .L233+4
 3191 02fa 5369     		ldr	r3, [r2, #20]
 270:Core/Src/main.c ****             dis_cur = (resource_location.x[!resource_location.priority] - car_Pos[0]) * (resource_l
 3192              		.loc 1 270 42 view .LVU685
 3193 02fc B3FA83F3 		clz	r3, r3
 3194 0300 5B09     		lsrs	r3, r3, #5
 270:Core/Src/main.c ****             dis_cur = (resource_location.x[!resource_location.priority] - car_Pos[0]) * (resource_l
 3195              		.loc 1 270 17 view .LVU686
 3196 0302 991C     		adds	r1, r3, #2
 3197 0304 52F82110 		ldr	r1, [r2, r1, lsl #2]
 3198 0308 52F82300 		ldr	r0, [r2, r3, lsl #2]
 3199 030c FFF7FEFF 		bl	Goto
 3200              	.LVL375:
 3201 0310 C2E7     		b	.L207
 3202              	.L227:
 274:Core/Src/main.c ****                 goto_state = 0;
 3203              		.loc 1 274 17 is_stmt 1 view .LVU687
 274:Core/Src/main.c ****                 goto_state = 0;
 3204              		.loc 1 274 23 is_stmt 0 view .LVU688
 3205 0312 694B     		ldr	r3, .L233+24
 3206 0314 0322     		movs	r2, #3
 3207 0316 1A60     		str	r2, [r3]
 275:Core/Src/main.c ****                 // score = getCarScore(); //Êõ¥Êñ∞ÂΩìÂâçÂàÜÊï∞
 3208              		.loc 1 275 17 is_stmt 1 view .LVU689
 275:Core/Src/main.c ****                 // score = getCarScore(); //Êõ¥Êñ∞ÂΩìÂâçÂàÜÊï∞
 3209              		.loc 1 275 28 is_stmt 0 view .LVU690
 3210 0318 614B     		ldr	r3, .L233
 3211 031a 0022     		movs	r2, #0
 3212 031c 1A60     		str	r2, [r3]
 3213 031e D6E7     		b	.L208
 3214              	.L198:
 289:Core/Src/main.c ****             {
 3215              		.loc 1 289 13 is_stmt 1 view .LVU691
ARM GAS  C:\Users\zhangjd\AppData\Local\Temp\ccXlXJUr.s 			page 77


 289:Core/Src/main.c ****             {
 3216              		.loc 1 289 25 is_stmt 0 view .LVU692
 3217 0320 614A     		ldr	r2, .L233+8
 3218 0322 1368     		ldr	r3, [r2]
 289:Core/Src/main.c ****             {
 3219              		.loc 1 289 29 view .LVU693
 3220 0324 7F3B     		subs	r3, r3, #127
 289:Core/Src/main.c ****             {
 3221              		.loc 1 289 67 view .LVU694
 3222 0326 5268     		ldr	r2, [r2, #4]
 289:Core/Src/main.c ****             {
 3223              		.loc 1 289 71 view .LVU695
 3224 0328 1E3A     		subs	r2, r2, #30
 289:Core/Src/main.c ****             {
 3225              		.loc 1 289 77 view .LVU696
 3226 032a 02FB02F2 		mul	r2, r2, r2
 289:Core/Src/main.c ****             {
 3227              		.loc 1 289 57 view .LVU697
 3228 032e 03FB0323 		mla	r3, r3, r3, r2
 289:Core/Src/main.c ****             {
 3229              		.loc 1 289 16 view .LVU698
 3230 0332 092B     		cmp	r3, #9
 3231 0334 09DD     		ble	.L228
 309:Core/Src/main.c ****                     Goto(127, 30);
 3232              		.loc 1 309 17 is_stmt 1 view .LVU699
 309:Core/Src/main.c ****                     Goto(127, 30);
 3233              		.loc 1 309 32 is_stmt 0 view .LVU700
 3234 0336 5A4B     		ldr	r3, .L233
 3235 0338 1B68     		ldr	r3, [r3]
 309:Core/Src/main.c ****                     Goto(127, 30);
 3236              		.loc 1 309 20 view .LVU701
 3237 033a 002B     		cmp	r3, #0
 3238 033c 7FF46DAE 		bne	.L186
 310:Core/Src/main.c ****             }
 3239              		.loc 1 310 21 is_stmt 1 view .LVU702
 3240 0340 1E21     		movs	r1, #30
 3241 0342 7F20     		movs	r0, #127
 3242 0344 FFF7FEFF 		bl	Goto
 3243              	.LVL376:
 3244 0348 67E6     		b	.L186
 3245              	.L228:
 291:Core/Src/main.c ****                 count_beacon++;
 3246              		.loc 1 291 17 view .LVU703
 3247 034a FFF7FEFF 		bl	brake
 3248              	.LVL377:
 292:Core/Src/main.c ****                 if (count_beacon <= 20)
 3249              		.loc 1 292 17 view .LVU704
 292:Core/Src/main.c ****                 if (count_beacon <= 20)
 3250              		.loc 1 292 29 is_stmt 0 view .LVU705
 3251 034e 5B4A     		ldr	r2, .L233+28
 3252 0350 1368     		ldr	r3, [r2]
 3253 0352 0133     		adds	r3, r3, #1
 3254 0354 1360     		str	r3, [r2]
 293:Core/Src/main.c ****                 {
 3255              		.loc 1 293 17 is_stmt 1 view .LVU706
 293:Core/Src/main.c ****                 {
 3256              		.loc 1 293 20 is_stmt 0 view .LVU707
ARM GAS  C:\Users\zhangjd\AppData\Local\Temp\ccXlXJUr.s 			page 78


 3257 0356 142B     		cmp	r3, #20
 3258 0358 05DC     		bgt	.L212
 295:Core/Src/main.c ****                 }
 3259              		.loc 1 295 21 is_stmt 1 view .LVU708
 3260 035a 0122     		movs	r2, #1
 3261 035c 1146     		mov	r1, r2
 3262 035e 5848     		ldr	r0, .L233+32
 3263 0360 FFF7FEFF 		bl	HAL_GPIO_WritePin
 3264              	.LVL378:
 3265 0364 59E6     		b	.L186
 3266              	.L212:
 299:Core/Src/main.c ****                     count_beacon = 0;
 3267              		.loc 1 299 21 view .LVU709
 299:Core/Src/main.c ****                     count_beacon = 0;
 3268              		.loc 1 299 27 is_stmt 0 view .LVU710
 3269 0366 544B     		ldr	r3, .L233+24
 3270 0368 0422     		movs	r2, #4
 3271 036a 1A60     		str	r2, [r3]
 300:Core/Src/main.c ****                     beacon_Pos[0] = getCarPosX();
 3272              		.loc 1 300 21 is_stmt 1 view .LVU711
 300:Core/Src/main.c ****                     beacon_Pos[0] = getCarPosX();
 3273              		.loc 1 300 34 is_stmt 0 view .LVU712
 3274 036c 0024     		movs	r4, #0
 3275 036e 534B     		ldr	r3, .L233+28
 3276 0370 1C60     		str	r4, [r3]
 301:Core/Src/main.c ****                     beacon_Pos[1] = getCarPosY(); //Áªôbeacon_PosËµãÔøΩ?ÔøΩÔºåÁî®‰∫éÁ¨¨‰∫åÂõûÂêàÁ≤æ
 3277              		.loc 1 301 21 is_stmt 1 view .LVU713
 301:Core/Src/main.c ****                     beacon_Pos[1] = getCarPosY(); //Áªôbeacon_PosËµãÔøΩ?ÔøΩÔºåÁî®‰∫éÁ¨¨‰∫åÂõûÂêàÁ≤æ
 3278              		.loc 1 301 37 is_stmt 0 view .LVU714
 3279 0372 FFF7FEFF 		bl	getCarPosX
 3280              	.LVL379:
 301:Core/Src/main.c ****                     beacon_Pos[1] = getCarPosY(); //Áªôbeacon_PosËµãÔøΩ?ÔøΩÔºåÁî®‰∫éÁ¨¨‰∫åÂõûÂêàÁ≤æ
 3281              		.loc 1 301 35 view .LVU715
 3282 0376 534D     		ldr	r5, .L233+36
 3283 0378 2860     		str	r0, [r5]
 302:Core/Src/main.c ****                     HAL_GPIO_WritePin(GPIOC, GPIO_PIN_0, GPIO_PIN_RESET);
 3284              		.loc 1 302 21 is_stmt 1 view .LVU716
 302:Core/Src/main.c ****                     HAL_GPIO_WritePin(GPIOC, GPIO_PIN_0, GPIO_PIN_RESET);
 3285              		.loc 1 302 37 is_stmt 0 view .LVU717
 3286 037a FFF7FEFF 		bl	getCarPosY
 3287              	.LVL380:
 302:Core/Src/main.c ****                     HAL_GPIO_WritePin(GPIOC, GPIO_PIN_0, GPIO_PIN_RESET);
 3288              		.loc 1 302 35 view .LVU718
 3289 037e 6860     		str	r0, [r5, #4]
 303:Core/Src/main.c ****                     goto_state = 0;
 3290              		.loc 1 303 21 is_stmt 1 view .LVU719
 3291 0380 2246     		mov	r2, r4
 3292 0382 0121     		movs	r1, #1
 3293 0384 4E48     		ldr	r0, .L233+32
 3294 0386 FFF7FEFF 		bl	HAL_GPIO_WritePin
 3295              	.LVL381:
 304:Core/Src/main.c ****                 }
 3296              		.loc 1 304 21 view .LVU720
 304:Core/Src/main.c ****                 }
 3297              		.loc 1 304 32 is_stmt 0 view .LVU721
 3298 038a 454B     		ldr	r3, .L233
 3299 038c 1C60     		str	r4, [r3]
ARM GAS  C:\Users\zhangjd\AppData\Local\Temp\ccXlXJUr.s 			page 79


 3300 038e 44E6     		b	.L186
 3301              	.L197:
 318:Core/Src/main.c ****             {
 3302              		.loc 1 318 13 is_stmt 1 view .LVU722
 318:Core/Src/main.c ****             {
 3303              		.loc 1 318 25 is_stmt 0 view .LVU723
 3304 0390 454A     		ldr	r2, .L233+8
 3305 0392 1368     		ldr	r3, [r2]
 318:Core/Src/main.c ****             {
 3306              		.loc 1 318 29 view .LVU724
 3307 0394 7F3B     		subs	r3, r3, #127
 318:Core/Src/main.c ****             {
 3308              		.loc 1 318 67 view .LVU725
 3309 0396 5268     		ldr	r2, [r2, #4]
 318:Core/Src/main.c ****             {
 3310              		.loc 1 318 71 view .LVU726
 3311 0398 7F3A     		subs	r2, r2, #127
 318:Core/Src/main.c ****             {
 3312              		.loc 1 318 78 view .LVU727
 3313 039a 02FB02F2 		mul	r2, r2, r2
 318:Core/Src/main.c ****             {
 3314              		.loc 1 318 57 view .LVU728
 3315 039e 03FB0323 		mla	r3, r3, r3, r2
 318:Core/Src/main.c ****             {
 3316              		.loc 1 318 16 view .LVU729
 3317 03a2 0E2B     		cmp	r3, #14
 3318 03a4 09DD     		ble	.L229
 338:Core/Src/main.c ****                     Goto(127, 60);
 3319              		.loc 1 338 17 is_stmt 1 view .LVU730
 338:Core/Src/main.c ****                     Goto(127, 60);
 3320              		.loc 1 338 32 is_stmt 0 view .LVU731
 3321 03a6 3E4B     		ldr	r3, .L233
 3322 03a8 1B68     		ldr	r3, [r3]
 338:Core/Src/main.c ****                     Goto(127, 60);
 3323              		.loc 1 338 20 view .LVU732
 3324 03aa 002B     		cmp	r3, #0
 3325 03ac 7FF435AE 		bne	.L186
 339:Core/Src/main.c ****             }
 3326              		.loc 1 339 21 is_stmt 1 view .LVU733
 3327 03b0 3C21     		movs	r1, #60
 3328 03b2 7F20     		movs	r0, #127
 3329 03b4 FFF7FEFF 		bl	Goto
 3330              	.LVL382:
 3331 03b8 2FE6     		b	.L186
 3332              	.L229:
 320:Core/Src/main.c ****                 count_beacon++;
 3333              		.loc 1 320 17 view .LVU734
 3334 03ba FFF7FEFF 		bl	brake
 3335              	.LVL383:
 321:Core/Src/main.c ****                 if (count_beacon <= 20)
 3336              		.loc 1 321 17 view .LVU735
 321:Core/Src/main.c ****                 if (count_beacon <= 20)
 3337              		.loc 1 321 29 is_stmt 0 view .LVU736
 3338 03be 3F4A     		ldr	r2, .L233+28
 3339 03c0 1368     		ldr	r3, [r2]
 3340 03c2 0133     		adds	r3, r3, #1
 3341 03c4 1360     		str	r3, [r2]
ARM GAS  C:\Users\zhangjd\AppData\Local\Temp\ccXlXJUr.s 			page 80


 322:Core/Src/main.c ****                 {
 3342              		.loc 1 322 17 is_stmt 1 view .LVU737
 322:Core/Src/main.c ****                 {
 3343              		.loc 1 322 20 is_stmt 0 view .LVU738
 3344 03c6 142B     		cmp	r3, #20
 3345 03c8 05DC     		bgt	.L214
 324:Core/Src/main.c ****                 }
 3346              		.loc 1 324 21 is_stmt 1 view .LVU739
 3347 03ca 0122     		movs	r2, #1
 3348 03cc 1146     		mov	r1, r2
 3349 03ce 3C48     		ldr	r0, .L233+32
 3350 03d0 FFF7FEFF 		bl	HAL_GPIO_WritePin
 3351              	.LVL384:
 3352 03d4 21E6     		b	.L186
 3353              	.L214:
 328:Core/Src/main.c ****                     count_beacon = 0;
 3354              		.loc 1 328 21 view .LVU740
 328:Core/Src/main.c ****                     count_beacon = 0;
 3355              		.loc 1 328 27 is_stmt 0 view .LVU741
 3356 03d6 384B     		ldr	r3, .L233+24
 3357 03d8 0522     		movs	r2, #5
 3358 03da 1A60     		str	r2, [r3]
 329:Core/Src/main.c ****                     beacon_Pos[2] = getCarPosX();
 3359              		.loc 1 329 21 is_stmt 1 view .LVU742
 329:Core/Src/main.c ****                     beacon_Pos[2] = getCarPosX();
 3360              		.loc 1 329 34 is_stmt 0 view .LVU743
 3361 03dc 0024     		movs	r4, #0
 3362 03de 374B     		ldr	r3, .L233+28
 3363 03e0 1C60     		str	r4, [r3]
 330:Core/Src/main.c ****                     beacon_Pos[3] = getCarPosY(); //Áªôbeacon_PosËµãÔøΩ?ÔøΩÔºåÁî®‰∫éÁ¨¨‰∫åÂõûÂêàÁ≤æ
 3364              		.loc 1 330 21 is_stmt 1 view .LVU744
 330:Core/Src/main.c ****                     beacon_Pos[3] = getCarPosY(); //Áªôbeacon_PosËµãÔøΩ?ÔøΩÔºåÁî®‰∫éÁ¨¨‰∫åÂõûÂêàÁ≤æ
 3365              		.loc 1 330 37 is_stmt 0 view .LVU745
 3366 03e2 FFF7FEFF 		bl	getCarPosX
 3367              	.LVL385:
 330:Core/Src/main.c ****                     beacon_Pos[3] = getCarPosY(); //Áªôbeacon_PosËµãÔøΩ?ÔøΩÔºåÁî®‰∫éÁ¨¨‰∫åÂõûÂêàÁ≤æ
 3368              		.loc 1 330 35 view .LVU746
 3369 03e6 374D     		ldr	r5, .L233+36
 3370 03e8 A860     		str	r0, [r5, #8]
 331:Core/Src/main.c ****                     HAL_GPIO_WritePin(GPIOC, GPIO_PIN_0, GPIO_PIN_RESET);
 3371              		.loc 1 331 21 is_stmt 1 view .LVU747
 331:Core/Src/main.c ****                     HAL_GPIO_WritePin(GPIOC, GPIO_PIN_0, GPIO_PIN_RESET);
 3372              		.loc 1 331 37 is_stmt 0 view .LVU748
 3373 03ea FFF7FEFF 		bl	getCarPosY
 3374              	.LVL386:
 331:Core/Src/main.c ****                     HAL_GPIO_WritePin(GPIOC, GPIO_PIN_0, GPIO_PIN_RESET);
 3375              		.loc 1 331 35 view .LVU749
 3376 03ee E860     		str	r0, [r5, #12]
 332:Core/Src/main.c ****                     goto_state = 0;
 3377              		.loc 1 332 21 is_stmt 1 view .LVU750
 3378 03f0 2246     		mov	r2, r4
 3379 03f2 0121     		movs	r1, #1
 3380 03f4 3248     		ldr	r0, .L233+32
 3381 03f6 FFF7FEFF 		bl	HAL_GPIO_WritePin
 3382              	.LVL387:
 333:Core/Src/main.c ****                 }
 3383              		.loc 1 333 21 view .LVU751
ARM GAS  C:\Users\zhangjd\AppData\Local\Temp\ccXlXJUr.s 			page 81


 333:Core/Src/main.c ****                 }
 3384              		.loc 1 333 32 is_stmt 0 view .LVU752
 3385 03fa 294B     		ldr	r3, .L233
 3386 03fc 1C60     		str	r4, [r3]
 3387 03fe 0CE6     		b	.L186
 3388              	.L196:
 346:Core/Src/main.c ****             {
 3389              		.loc 1 346 13 is_stmt 1 view .LVU753
 346:Core/Src/main.c ****             {
 3390              		.loc 1 346 25 is_stmt 0 view .LVU754
 3391 0400 294A     		ldr	r2, .L233+8
 3392 0402 1368     		ldr	r3, [r2]
 346:Core/Src/main.c ****             {
 3393              		.loc 1 346 29 view .LVU755
 3394 0404 3C3B     		subs	r3, r3, #60
 346:Core/Src/main.c ****             {
 3395              		.loc 1 346 65 view .LVU756
 3396 0406 5268     		ldr	r2, [r2, #4]
 346:Core/Src/main.c ****             {
 3397              		.loc 1 346 69 view .LVU757
 3398 0408 7F3A     		subs	r2, r2, #127
 346:Core/Src/main.c ****             {
 3399              		.loc 1 346 76 view .LVU758
 3400 040a 02FB02F2 		mul	r2, r2, r2
 346:Core/Src/main.c ****             {
 3401              		.loc 1 346 55 view .LVU759
 3402 040e 03FB0323 		mla	r3, r3, r3, r2
 346:Core/Src/main.c ****             {
 3403              		.loc 1 346 16 view .LVU760
 3404 0412 0E2B     		cmp	r3, #14
 3405 0414 09DD     		ble	.L230
 366:Core/Src/main.c ****                     Goto(127, 30);
 3406              		.loc 1 366 17 is_stmt 1 view .LVU761
 366:Core/Src/main.c ****                     Goto(127, 30);
 3407              		.loc 1 366 32 is_stmt 0 view .LVU762
 3408 0416 224B     		ldr	r3, .L233
 3409 0418 1B68     		ldr	r3, [r3]
 366:Core/Src/main.c ****                     Goto(127, 30);
 3410              		.loc 1 366 20 view .LVU763
 3411 041a 002B     		cmp	r3, #0
 3412 041c 7FF4FDAD 		bne	.L186
 367:Core/Src/main.c ****             }
 3413              		.loc 1 367 21 is_stmt 1 view .LVU764
 3414 0420 1E21     		movs	r1, #30
 3415 0422 7F20     		movs	r0, #127
 3416 0424 FFF7FEFF 		bl	Goto
 3417              	.LVL388:
 3418 0428 F7E5     		b	.L186
 3419              	.L230:
 348:Core/Src/main.c ****                 count_beacon++;
 3420              		.loc 1 348 17 view .LVU765
 3421 042a FFF7FEFF 		bl	brake
 3422              	.LVL389:
 349:Core/Src/main.c ****                 if (count_beacon <= 20)
 3423              		.loc 1 349 17 view .LVU766
 349:Core/Src/main.c ****                 if (count_beacon <= 20)
 3424              		.loc 1 349 29 is_stmt 0 view .LVU767
ARM GAS  C:\Users\zhangjd\AppData\Local\Temp\ccXlXJUr.s 			page 82


 3425 042e 234A     		ldr	r2, .L233+28
 3426 0430 1368     		ldr	r3, [r2]
 3427 0432 0133     		adds	r3, r3, #1
 3428 0434 1360     		str	r3, [r2]
 350:Core/Src/main.c ****                 {
 3429              		.loc 1 350 17 is_stmt 1 view .LVU768
 350:Core/Src/main.c ****                 {
 3430              		.loc 1 350 20 is_stmt 0 view .LVU769
 3431 0436 142B     		cmp	r3, #20
 3432 0438 05DC     		bgt	.L216
 352:Core/Src/main.c ****                 }
 3433              		.loc 1 352 21 is_stmt 1 view .LVU770
 3434 043a 0122     		movs	r2, #1
 3435 043c 1146     		mov	r1, r2
 3436 043e 2048     		ldr	r0, .L233+32
 3437 0440 FFF7FEFF 		bl	HAL_GPIO_WritePin
 3438              	.LVL390:
 3439 0444 E9E5     		b	.L186
 3440              	.L216:
 356:Core/Src/main.c ****                     count_beacon = 0;
 3441              		.loc 1 356 21 view .LVU771
 356:Core/Src/main.c ****                     count_beacon = 0;
 3442              		.loc 1 356 27 is_stmt 0 view .LVU772
 3443 0446 1C4B     		ldr	r3, .L233+24
 3444 0448 0622     		movs	r2, #6
 3445 044a 1A60     		str	r2, [r3]
 357:Core/Src/main.c ****                     beacon_Pos[4] = getCarPosX();
 3446              		.loc 1 357 21 is_stmt 1 view .LVU773
 357:Core/Src/main.c ****                     beacon_Pos[4] = getCarPosX();
 3447              		.loc 1 357 34 is_stmt 0 view .LVU774
 3448 044c 0024     		movs	r4, #0
 3449 044e 1B4B     		ldr	r3, .L233+28
 3450 0450 1C60     		str	r4, [r3]
 358:Core/Src/main.c ****                     beacon_Pos[5] = getCarPosY(); //Áªôbeacon_PosËµãÔøΩ?ÔøΩÔºåÁî®‰∫éÁ¨¨‰∫åÂõûÂêàÁ≤æ
 3451              		.loc 1 358 21 is_stmt 1 view .LVU775
 358:Core/Src/main.c ****                     beacon_Pos[5] = getCarPosY(); //Áªôbeacon_PosËµãÔøΩ?ÔøΩÔºåÁî®‰∫éÁ¨¨‰∫åÂõûÂêàÁ≤æ
 3452              		.loc 1 358 37 is_stmt 0 view .LVU776
 3453 0452 FFF7FEFF 		bl	getCarPosX
 3454              	.LVL391:
 358:Core/Src/main.c ****                     beacon_Pos[5] = getCarPosY(); //Áªôbeacon_PosËµãÔøΩ?ÔøΩÔºåÁî®‰∫éÁ¨¨‰∫åÂõûÂêàÁ≤æ
 3455              		.loc 1 358 35 view .LVU777
 3456 0456 1B4D     		ldr	r5, .L233+36
 3457 0458 2861     		str	r0, [r5, #16]
 359:Core/Src/main.c ****                     HAL_GPIO_WritePin(GPIOC, GPIO_PIN_0, GPIO_PIN_RESET);
 3458              		.loc 1 359 21 is_stmt 1 view .LVU778
 359:Core/Src/main.c ****                     HAL_GPIO_WritePin(GPIOC, GPIO_PIN_0, GPIO_PIN_RESET);
 3459              		.loc 1 359 37 is_stmt 0 view .LVU779
 3460 045a FFF7FEFF 		bl	getCarPosY
 3461              	.LVL392:
 359:Core/Src/main.c ****                     HAL_GPIO_WritePin(GPIOC, GPIO_PIN_0, GPIO_PIN_RESET);
 3462              		.loc 1 359 35 view .LVU780
 3463 045e 6861     		str	r0, [r5, #20]
 360:Core/Src/main.c ****                     goto_state = 0;
 3464              		.loc 1 360 21 is_stmt 1 view .LVU781
 3465 0460 2246     		mov	r2, r4
 3466 0462 0121     		movs	r1, #1
 3467 0464 1648     		ldr	r0, .L233+32
ARM GAS  C:\Users\zhangjd\AppData\Local\Temp\ccXlXJUr.s 			page 83


 3468 0466 FFF7FEFF 		bl	HAL_GPIO_WritePin
 3469              	.LVL393:
 361:Core/Src/main.c ****                 }
 3470              		.loc 1 361 21 view .LVU782
 361:Core/Src/main.c ****                 }
 3471              		.loc 1 361 32 is_stmt 0 view .LVU783
 3472 046a 0D4B     		ldr	r3, .L233
 3473 046c 1C60     		str	r4, [r3]
 3474 046e D4E5     		b	.L186
 3475              	.L195:
 375:Core/Src/main.c ****             {
 3476              		.loc 1 375 13 is_stmt 1 view .LVU784
 375:Core/Src/main.c ****             {
 3477              		.loc 1 375 25 is_stmt 0 view .LVU785
 3478 0470 0D4A     		ldr	r2, .L233+8
 3479 0472 1368     		ldr	r3, [r2]
 375:Core/Src/main.c ****             {
 3480              		.loc 1 375 29 view .LVU786
 3481 0474 0F3B     		subs	r3, r3, #15
 375:Core/Src/main.c ****             {
 3482              		.loc 1 375 65 view .LVU787
 3483 0476 5268     		ldr	r2, [r2, #4]
 375:Core/Src/main.c ****             {
 3484              		.loc 1 375 69 view .LVU788
 3485 0478 7F3A     		subs	r2, r2, #127
 375:Core/Src/main.c ****             {
 3486              		.loc 1 375 76 view .LVU789
 3487 047a 02FB02F2 		mul	r2, r2, r2
 375:Core/Src/main.c ****             {
 3488              		.loc 1 375 55 view .LVU790
 3489 047e 03FB0323 		mla	r3, r3, r3, r2
 375:Core/Src/main.c ****             {
 3490              		.loc 1 375 16 view .LVU791
 3491 0482 0E2B     		cmp	r3, #14
 3492 0484 06DC     		bgt	.L217
 377:Core/Src/main.c ****                 State = -1; //Á¨¨‰∏ÄÂõûÂêàÁªìÊùü
 3493              		.loc 1 377 17 is_stmt 1 view .LVU792
 3494 0486 FFF7FEFF 		bl	brake
 3495              	.LVL394:
 378:Core/Src/main.c ****             }
 3496              		.loc 1 378 17 view .LVU793
 378:Core/Src/main.c ****             }
 3497              		.loc 1 378 23 is_stmt 0 view .LVU794
 3498 048a 0B4B     		ldr	r3, .L233+24
 3499 048c 4FF0FF32 		mov	r2, #-1
 3500 0490 1A60     		str	r2, [r3]
 3501 0492 C2E5     		b	.L186
 3502              	.L217:
 381:Core/Src/main.c ****             break;
 3503              		.loc 1 381 17 is_stmt 1 view .LVU795
 3504 0494 7F21     		movs	r1, #127
 3505 0496 0F20     		movs	r0, #15
 3506 0498 FFF7FEFF 		bl	Goto
 3507              	.LVL395:
 3508 049c BDE5     		b	.L186
 3509              	.L234:
 3510 049e 00BF     		.align	2
ARM GAS  C:\Users\zhangjd\AppData\Local\Temp\ccXlXJUr.s 			page 84


 3511              	.L233:
 3512 04a0 00000000 		.word	.LANCHOR5
 3513 04a4 00000000 		.word	.LANCHOR12
 3514 04a8 00000000 		.word	.LANCHOR4
 3515 04ac 00000000 		.word	.LANCHOR14
 3516 04b0 00009643 		.word	1133903872
 3517 04b4 00000000 		.word	.LANCHOR15
 3518 04b8 00000000 		.word	.LANCHOR9
 3519 04bc 00000000 		.word	.LANCHOR16
 3520 04c0 00100140 		.word	1073811456
 3521 04c4 00000000 		.word	.LANCHOR2
 3522              	.L194:
 386:Core/Src/main.c ****             //Ê±ÇËß£ËµÑÊ∫êÂùêÊ†á
 3523              		.loc 1 386 13 view .LVU796
 386:Core/Src/main.c ****             //Ê±ÇËß£ËµÑÊ∫êÂùêÊ†á
 3524              		.loc 1 386 21 is_stmt 0 view .LVU797
 3525 04c8 FFF7FEFF 		bl	getCarScore
 3526              	.LVL396:
 386:Core/Src/main.c ****             //Ê±ÇËß£ËµÑÊ∫êÂùêÊ†á
 3527              		.loc 1 386 19 view .LVU798
 3528 04cc 5D4B     		ldr	r3, .L235
 3529 04ce 1860     		str	r0, [r3]
 388:Core/Src/main.c ****             {
 3530              		.loc 1 388 13 is_stmt 1 view .LVU799
 388:Core/Src/main.c ****             {
 3531              		.loc 1 388 17 is_stmt 0 view .LVU800
 3532 04d0 5D48     		ldr	r0, .L235+4
 3533 04d2 5E4B     		ldr	r3, .L235+8
 3534 04d4 03F10802 		add	r2, r3, #8
 3535 04d8 0692     		str	r2, [sp, #24]
 3536 04da 0593     		str	r3, [sp, #20]
 3537 04dc C369     		ldr	r3, [r0, #28]
 3538 04de 0493     		str	r3, [sp, #16]
 3539 04e0 438B     		ldrh	r3, [r0, #26]
 3540 04e2 0393     		str	r3, [sp, #12]
 3541 04e4 038B     		ldrh	r3, [r0, #24]
 3542 04e6 0293     		str	r3, [sp, #8]
 3543 04e8 0369     		ldr	r3, [r0, #16]
 3544 04ea 0193     		str	r3, [sp, #4]
 3545 04ec C389     		ldrh	r3, [r0, #14]
 3546 04ee 0093     		str	r3, [sp]
 3547 04f0 8389     		ldrh	r3, [r0, #12]
 3548 04f2 4268     		ldr	r2, [r0, #4]
 3549 04f4 4188     		ldrh	r1, [r0, #2]
 3550 04f6 0088     		ldrh	r0, [r0]
 3551 04f8 FFF7FEFF 		bl	Solve_Mine_Pos
 3552              	.LVL397:
 388:Core/Src/main.c ****             {
 3553              		.loc 1 388 16 view .LVU801
 3554 04fc 0028     		cmp	r0, #0
 3555 04fe 2DD0     		beq	.L218
 388:Core/Src/main.c ****             {
 3556              		.loc 1 388 218 discriminator 1 view .LVU802
 3557 0500 5148     		ldr	r0, .L235+4
 3558 0502 524B     		ldr	r3, .L235+8
 3559 0504 03F10C02 		add	r2, r3, #12
 3560 0508 0692     		str	r2, [sp, #24]
ARM GAS  C:\Users\zhangjd\AppData\Local\Temp\ccXlXJUr.s 			page 85


 3561 050a 0433     		adds	r3, r3, #4
 3562 050c 0593     		str	r3, [sp, #20]
 3563 050e 036A     		ldr	r3, [r0, #32]
 3564 0510 0493     		str	r3, [sp, #16]
 3565 0512 438B     		ldrh	r3, [r0, #26]
 3566 0514 0393     		str	r3, [sp, #12]
 3567 0516 038B     		ldrh	r3, [r0, #24]
 3568 0518 0293     		str	r3, [sp, #8]
 3569 051a 4369     		ldr	r3, [r0, #20]
 3570 051c 0193     		str	r3, [sp, #4]
 3571 051e C389     		ldrh	r3, [r0, #14]
 3572 0520 0093     		str	r3, [sp]
 3573 0522 8389     		ldrh	r3, [r0, #12]
 3574 0524 8268     		ldr	r2, [r0, #8]
 3575 0526 4188     		ldrh	r1, [r0, #2]
 3576 0528 0088     		ldrh	r0, [r0]
 3577 052a FFF7FEFF 		bl	Solve_Mine_Pos
 3578              	.LVL398:
 388:Core/Src/main.c ****             {
 3579              		.loc 1 388 215 discriminator 1 view .LVU803
 3580 052e A8B1     		cbz	r0, .L218
 391:Core/Src/main.c ****                 //Á°ÆÂÆöÁ¶ªËΩ¶ÊúÄËøëÁöÑËµÑÊ∫ê
 3581              		.loc 1 391 17 is_stmt 1 view .LVU804
 391:Core/Src/main.c ****                 //Á°ÆÂÆöÁ¶ªËΩ¶ÊúÄËøëÁöÑËµÑÊ∫ê
 3582              		.loc 1 391 23 is_stmt 0 view .LVU805
 3583 0530 474B     		ldr	r3, .L235+12
 3584 0532 0B22     		movs	r2, #11
 3585 0534 1A60     		str	r2, [r3]
 393:Core/Src/main.c ****             }
 3586              		.loc 1 393 17 is_stmt 1 view .LVU806
 393:Core/Src/main.c ****             }
 3587              		.loc 1 393 66 is_stmt 0 view .LVU807
 3588 0536 454A     		ldr	r2, .L235+8
 3589 0538 1368     		ldr	r3, [r2]
 393:Core/Src/main.c ****             }
 3590              		.loc 1 393 116 view .LVU808
 3591 053a 9168     		ldr	r1, [r2, #8]
 393:Core/Src/main.c ****             }
 3592              		.loc 1 393 120 view .LVU809
 3593 053c 01FB01F1 		mul	r1, r1, r1
 393:Core/Src/main.c ****             }
 3594              		.loc 1 393 95 view .LVU810
 3595 0540 03FB0313 		mla	r3, r3, r3, r1
 393:Core/Src/main.c ****             }
 3596              		.loc 1 393 168 view .LVU811
 3597 0544 5168     		ldr	r1, [r2, #4]
 393:Core/Src/main.c ****             }
 3598              		.loc 1 393 218 view .LVU812
 3599 0546 D068     		ldr	r0, [r2, #12]
 393:Core/Src/main.c ****             }
 3600              		.loc 1 393 222 view .LVU813
 3601 0548 00FB00F0 		mul	r0, r0, r0
 393:Core/Src/main.c ****             }
 3602              		.loc 1 393 197 view .LVU814
 3603 054c 01FB0101 		mla	r1, r1, r1, r0
 393:Core/Src/main.c ****             }
 3604              		.loc 1 393 252 view .LVU815
ARM GAS  C:\Users\zhangjd\AppData\Local\Temp\ccXlXJUr.s 			page 86


 3605 0550 8B42     		cmp	r3, r1
 3606 0552 B4BF     		ite	lt
 3607 0554 0023     		movlt	r3, #0
 3608 0556 0123     		movge	r3, #1
 393:Core/Src/main.c ****             }
 3609              		.loc 1 393 44 view .LVU816
 3610 0558 5361     		str	r3, [r2, #20]
 3611 055a 5EE5     		b	.L186
 3612              	.L218:
 398:Core/Src/main.c ****                 Prev_Pos[Prev_Pos_head].y = getCarPosY();          //Âêå‰∏ä
 3613              		.loc 1 398 17 is_stmt 1 view .LVU817
 398:Core/Src/main.c ****                 Prev_Pos[Prev_Pos_head].y = getCarPosY();          //Âêå‰∏ä
 3614              		.loc 1 398 40 is_stmt 0 view .LVU818
 3615 055c 3D4C     		ldr	r4, .L235+16
 3616 055e B4F90060 		ldrsh	r6, [r4]
 398:Core/Src/main.c ****                 Prev_Pos[Prev_Pos_head].y = getCarPosY();          //Âêå‰∏ä
 3617              		.loc 1 398 45 view .LVU819
 3618 0562 FFF7FEFF 		bl	getCarPosX
 3619              	.LVL399:
 398:Core/Src/main.c ****                 Prev_Pos[Prev_Pos_head].y = getCarPosY();          //Âêå‰∏ä
 3620              		.loc 1 398 43 view .LVU820
 3621 0566 384D     		ldr	r5, .L235+4
 3622 0568 06EB4606 		add	r6, r6, r6, lsl #1
 3623 056c 25F82600 		strh	r0, [r5, r6, lsl #2]	@ movhi
 399:Core/Src/main.c ****                 Prev_Pos[Prev_Pos_head].E_1 = getMineIntensity(0); //Âà©Áî®getMineIntensityÂáΩÊï∞Êõ
 3624              		.loc 1 399 17 is_stmt 1 view .LVU821
 399:Core/Src/main.c ****                 Prev_Pos[Prev_Pos_head].E_1 = getMineIntensity(0); //Âà©Áî®getMineIntensityÂáΩÊï∞Êõ
 3625              		.loc 1 399 40 is_stmt 0 view .LVU822
 3626 0570 B4F90060 		ldrsh	r6, [r4]
 399:Core/Src/main.c ****                 Prev_Pos[Prev_Pos_head].E_1 = getMineIntensity(0); //Âà©Áî®getMineIntensityÂáΩÊï∞Êõ
 3627              		.loc 1 399 45 view .LVU823
 3628 0574 FFF7FEFF 		bl	getCarPosY
 3629              	.LVL400:
 399:Core/Src/main.c ****                 Prev_Pos[Prev_Pos_head].E_1 = getMineIntensity(0); //Âà©Áî®getMineIntensityÂáΩÊï∞Êõ
 3630              		.loc 1 399 43 view .LVU824
 3631 0578 06EB4606 		add	r6, r6, r6, lsl #1
 3632 057c 05EB8606 		add	r6, r5, r6, lsl #2
 3633 0580 7080     		strh	r0, [r6, #2]	@ movhi
 400:Core/Src/main.c ****                 Prev_Pos[Prev_Pos_head].E_1 = getMineIntensity(1); //Âêå‰∏ä
 3634              		.loc 1 400 17 is_stmt 1 view .LVU825
 400:Core/Src/main.c ****                 Prev_Pos[Prev_Pos_head].E_1 = getMineIntensity(1); //Âêå‰∏ä
 3635              		.loc 1 400 40 is_stmt 0 view .LVU826
 3636 0582 B4F90060 		ldrsh	r6, [r4]
 400:Core/Src/main.c ****                 Prev_Pos[Prev_Pos_head].E_1 = getMineIntensity(1); //Âêå‰∏ä
 3637              		.loc 1 400 47 view .LVU827
 3638 0586 0020     		movs	r0, #0
 3639 0588 FFF7FEFF 		bl	getMineIntensity
 3640              	.LVL401:
 400:Core/Src/main.c ****                 Prev_Pos[Prev_Pos_head].E_1 = getMineIntensity(1); //Âêå‰∏ä
 3641              		.loc 1 400 45 view .LVU828
 3642 058c 06EB4606 		add	r6, r6, r6, lsl #1
 3643 0590 05EB8606 		add	r6, r5, r6, lsl #2
 3644 0594 7060     		str	r0, [r6, #4]
 401:Core/Src/main.c ****                 Prev_Pos_head = (Prev_Pos_head + 1) % 3;           //Â§¥ÊåáÈíàÂæ™ÁéØÂú∞ÂêéÁßª
 3645              		.loc 1 401 17 is_stmt 1 view .LVU829
 401:Core/Src/main.c ****                 Prev_Pos_head = (Prev_Pos_head + 1) % 3;           //Â§¥ÊåáÈíàÂæ™ÁéØÂú∞ÂêéÁßª
 3646              		.loc 1 401 40 is_stmt 0 view .LVU830
ARM GAS  C:\Users\zhangjd\AppData\Local\Temp\ccXlXJUr.s 			page 87


 3647 0596 B4F90060 		ldrsh	r6, [r4]
 401:Core/Src/main.c ****                 Prev_Pos_head = (Prev_Pos_head + 1) % 3;           //Â§¥ÊåáÈíàÂæ™ÁéØÂú∞ÂêéÁßª
 3648              		.loc 1 401 47 view .LVU831
 3649 059a 0120     		movs	r0, #1
 3650 059c FFF7FEFF 		bl	getMineIntensity
 3651              	.LVL402:
 401:Core/Src/main.c ****                 Prev_Pos_head = (Prev_Pos_head + 1) % 3;           //Â§¥ÊåáÈíàÂæ™ÁéØÂú∞ÂêéÁßª
 3652              		.loc 1 401 45 view .LVU832
 3653 05a0 06EB4606 		add	r6, r6, r6, lsl #1
 3654 05a4 05EB8605 		add	r5, r5, r6, lsl #2
 3655 05a8 6860     		str	r0, [r5, #4]
 402:Core/Src/main.c ****             }
 3656              		.loc 1 402 17 is_stmt 1 view .LVU833
 402:Core/Src/main.c ****             }
 3657              		.loc 1 402 48 is_stmt 0 view .LVU834
 3658 05aa B4F90020 		ldrsh	r2, [r4]
 3659 05ae 0132     		adds	r2, r2, #1
 402:Core/Src/main.c ****             }
 3660              		.loc 1 402 53 view .LVU835
 3661 05b0 294B     		ldr	r3, .L235+20
 3662 05b2 83FB0213 		smull	r1, r3, r3, r2
 3663 05b6 A3EBE273 		sub	r3, r3, r2, asr #31
 3664 05ba 03EB4303 		add	r3, r3, r3, lsl #1
 3665 05be D31A     		subs	r3, r2, r3
 402:Core/Src/main.c ****             }
 3666              		.loc 1 402 31 view .LVU836
 3667 05c0 2380     		strh	r3, [r4]	@ movhi
 3668 05c2 2AE5     		b	.L186
 3669              	.L193:
 408:Core/Src/main.c ****             if (getCarScore() > score)
 3670              		.loc 1 408 13 is_stmt 1 view .LVU837
 408:Core/Src/main.c ****             if (getCarScore() > score)
 3671              		.loc 1 408 56 is_stmt 0 view .LVU838
 3672 05c4 214A     		ldr	r2, .L235+8
 3673 05c6 5369     		ldr	r3, [r2, #20]
 408:Core/Src/main.c ****             if (getCarScore() > score)
 3674              		.loc 1 408 38 view .LVU839
 3675 05c8 B3FA83F3 		clz	r3, r3
 3676 05cc 5B09     		lsrs	r3, r3, #5
 408:Core/Src/main.c ****             if (getCarScore() > score)
 3677              		.loc 1 408 13 view .LVU840
 3678 05ce 991C     		adds	r1, r3, #2
 3679 05d0 52F82110 		ldr	r1, [r2, r1, lsl #2]
 3680 05d4 52F82300 		ldr	r0, [r2, r3, lsl #2]
 3681 05d8 FFF7FEFF 		bl	Goto
 3682              	.LVL403:
 409:Core/Src/main.c ****             {
 3683              		.loc 1 409 13 is_stmt 1 view .LVU841
 409:Core/Src/main.c ****             {
 3684              		.loc 1 409 17 is_stmt 0 view .LVU842
 3685 05dc FFF7FEFF 		bl	getCarScore
 3686              	.LVL404:
 409:Core/Src/main.c ****             {
 3687              		.loc 1 409 31 view .LVU843
 3688 05e0 184B     		ldr	r3, .L235
 3689 05e2 1B68     		ldr	r3, [r3]
 409:Core/Src/main.c ****             {
ARM GAS  C:\Users\zhangjd\AppData\Local\Temp\ccXlXJUr.s 			page 88


 3690              		.loc 1 409 16 view .LVU844
 3691 05e4 9842     		cmp	r0, r3
 3692 05e6 7FF718AD 		ble	.L186
 411:Core/Src/main.c ****                 if (getCarMineSumNum() == 10) //Êª°ËΩΩ
 3693              		.loc 1 411 17 is_stmt 1 view .LVU845
 411:Core/Src/main.c ****                 if (getCarMineSumNum() == 10) //Êª°ËΩΩ
 3694              		.loc 1 411 23 is_stmt 0 view .LVU846
 3695 05ea 194B     		ldr	r3, .L235+12
 3696 05ec 0A22     		movs	r2, #10
 3697 05ee 1A60     		str	r2, [r3]
 412:Core/Src/main.c ****                     State = 12;               //ËÄåÂΩí
 3698              		.loc 1 412 17 is_stmt 1 view .LVU847
 412:Core/Src/main.c ****                     State = 12;               //ËÄåÂΩí
 3699              		.loc 1 412 21 is_stmt 0 view .LVU848
 3700 05f0 FFF7FEFF 		bl	getCarMineSumNum
 3701              	.LVL405:
 412:Core/Src/main.c ****                     State = 12;               //ËÄåÂΩí
 3702              		.loc 1 412 20 view .LVU849
 3703 05f4 0A28     		cmp	r0, #10
 3704 05f6 7FF410AD 		bne	.L186
 413:Core/Src/main.c ****             }
 3705              		.loc 1 413 21 is_stmt 1 view .LVU850
 413:Core/Src/main.c ****             }
 3706              		.loc 1 413 27 is_stmt 0 view .LVU851
 3707 05fa 154B     		ldr	r3, .L235+12
 3708 05fc 0C22     		movs	r2, #12
 3709 05fe 1A60     		str	r2, [r3]
 3710 0600 0BE5     		b	.L186
 3711              	.L192:
 420:Core/Src/main.c ****             State = 13;
 3712              		.loc 1 420 13 is_stmt 1 view .LVU852
 3713 0602 164B     		ldr	r3, .L235+24
 3714 0604 5968     		ldr	r1, [r3, #4]
 3715 0606 1868     		ldr	r0, [r3]
 3716 0608 FFF7FEFF 		bl	Get_Rep_opt
 3717              	.LVL406:
 421:Core/Src/main.c ****         }
 3718              		.loc 1 421 13 view .LVU853
 421:Core/Src/main.c ****         }
 3719              		.loc 1 421 19 is_stmt 0 view .LVU854
 3720 060c 104B     		ldr	r3, .L235+12
 3721 060e 0D22     		movs	r2, #13
 3722 0610 1A60     		str	r2, [r3]
 3723              	.L190:
 425:Core/Src/main.c ****             if (getCarScore() > score)            //ËøêÈÄÅÊàêÂäü
 3724              		.loc 1 425 13 is_stmt 1 view .LVU855
 3725 0612 134B     		ldr	r3, .L235+28
 3726 0614 5968     		ldr	r1, [r3, #4]
 3727 0616 1868     		ldr	r0, [r3]
 3728 0618 FFF7FEFF 		bl	Goto
 3729              	.LVL407:
 426:Core/Src/main.c ****             {
 3730              		.loc 1 426 13 view .LVU856
 426:Core/Src/main.c ****             {
 3731              		.loc 1 426 17 is_stmt 0 view .LVU857
 3732 061c FFF7FEFF 		bl	getCarScore
 3733              	.LVL408:
ARM GAS  C:\Users\zhangjd\AppData\Local\Temp\ccXlXJUr.s 			page 89


 426:Core/Src/main.c ****             {
 3734              		.loc 1 426 31 view .LVU858
 3735 0620 084B     		ldr	r3, .L235
 3736 0622 1B68     		ldr	r3, [r3]
 426:Core/Src/main.c ****             {
 3737              		.loc 1 426 16 view .LVU859
 3738 0624 9842     		cmp	r0, r3
 3739 0626 7FF7F8AC 		ble	.L186
 428:Core/Src/main.c ****                 if (getCarMineSumNum() == 0) //ÂÖ®ÈÉ®Âç∏ËΩΩ
 3740              		.loc 1 428 17 is_stmt 1 view .LVU860
 428:Core/Src/main.c ****                 if (getCarMineSumNum() == 0) //ÂÖ®ÈÉ®Âç∏ËΩΩ
 3741              		.loc 1 428 23 is_stmt 0 view .LVU861
 3742 062a 094B     		ldr	r3, .L235+12
 3743 062c 0C22     		movs	r2, #12
 3744 062e 1A60     		str	r2, [r3]
 429:Core/Src/main.c ****                     State = 10;
 3745              		.loc 1 429 17 is_stmt 1 view .LVU862
 429:Core/Src/main.c ****                     State = 10;
 3746              		.loc 1 429 21 is_stmt 0 view .LVU863
 3747 0630 FFF7FEFF 		bl	getCarMineSumNum
 3748              	.LVL409:
 429:Core/Src/main.c ****                     State = 10;
 3749              		.loc 1 429 20 view .LVU864
 3750 0634 0028     		cmp	r0, #0
 3751 0636 7FF4F0AC 		bne	.L186
 430:Core/Src/main.c ****             }
 3752              		.loc 1 430 21 is_stmt 1 view .LVU865
 430:Core/Src/main.c ****             }
 3753              		.loc 1 430 27 is_stmt 0 view .LVU866
 3754 063a 054B     		ldr	r3, .L235+12
 3755 063c 0A22     		movs	r2, #10
 3756 063e 1A60     		str	r2, [r3]
 436:Core/Src/main.c **** /* USER CODE END 0 */
 3757              		.loc 1 436 1 view .LVU867
 3758 0640 EBE4     		b	.L186
 3759              	.L236:
 3760 0642 00BF     		.align	2
 3761              	.L235:
 3762 0644 00000000 		.word	.LANCHOR17
 3763 0648 00000000 		.word	.LANCHOR11
 3764 064c 00000000 		.word	.LANCHOR12
 3765 0650 00000000 		.word	.LANCHOR9
 3766 0654 00000000 		.word	.LANCHOR13
 3767 0658 56555555 		.word	1431655766
 3768 065c 00000000 		.word	.LANCHOR4
 3769 0660 00000000 		.word	.LANCHOR8
 3770              		.cfi_endproc
 3771              	.LFE65:
 3773              		.section	.text.Error_Handler,"ax",%progbits
 3774              		.align	1
 3775              		.global	Error_Handler
 3776              		.syntax unified
 3777              		.thumb
 3778              		.thumb_func
 3779              		.fpu softvfp
 3781              	Error_Handler:
 3782              	.LFB84:
ARM GAS  C:\Users\zhangjd\AppData\Local\Temp\ccXlXJUr.s 			page 90


 921:Core/Src/main.c **** /* USER CODE END 4 */
 922:Core/Src/main.c **** 
 923:Core/Src/main.c **** /**
 924:Core/Src/main.c ****   * @brief  This function is executed in case of error occurrence.
 925:Core/Src/main.c ****   * @retval None
 926:Core/Src/main.c ****   */
 927:Core/Src/main.c **** void Error_Handler(void)
 928:Core/Src/main.c **** {
 3783              		.loc 1 928 1 is_stmt 1 view -0
 3784              		.cfi_startproc
 3785              		@ Volatile: function does not return.
 3786              		@ args = 0, pretend = 0, frame = 0
 3787              		@ frame_needed = 0, uses_anonymous_args = 0
 3788              		@ link register save eliminated.
 929:Core/Src/main.c ****     /* USER CODE BEGIN Error_Handler_Debug */
 930:Core/Src/main.c ****     /* User can add his own implementation to report the HAL error return state */
 931:Core/Src/main.c ****     __disable_irq();
 3789              		.loc 1 931 5 view .LVU869
 3790              	.LBB5:
 3791              	.LBI5:
 3792              		.file 2 "Drivers/CMSIS/Include/cmsis_gcc.h"
   1:Drivers/CMSIS/Include/cmsis_gcc.h **** /**************************************************************************//**
   2:Drivers/CMSIS/Include/cmsis_gcc.h ****  * @file     cmsis_gcc.h
   3:Drivers/CMSIS/Include/cmsis_gcc.h ****  * @brief    CMSIS compiler GCC header file
   4:Drivers/CMSIS/Include/cmsis_gcc.h ****  * @version  V5.0.4
   5:Drivers/CMSIS/Include/cmsis_gcc.h ****  * @date     09. April 2018
   6:Drivers/CMSIS/Include/cmsis_gcc.h ****  ******************************************************************************/
   7:Drivers/CMSIS/Include/cmsis_gcc.h **** /*
   8:Drivers/CMSIS/Include/cmsis_gcc.h ****  * Copyright (c) 2009-2018 Arm Limited. All rights reserved.
   9:Drivers/CMSIS/Include/cmsis_gcc.h ****  *
  10:Drivers/CMSIS/Include/cmsis_gcc.h ****  * SPDX-License-Identifier: Apache-2.0
  11:Drivers/CMSIS/Include/cmsis_gcc.h ****  *
  12:Drivers/CMSIS/Include/cmsis_gcc.h ****  * Licensed under the Apache License, Version 2.0 (the License); you may
  13:Drivers/CMSIS/Include/cmsis_gcc.h ****  * not use this file except in compliance with the License.
  14:Drivers/CMSIS/Include/cmsis_gcc.h ****  * You may obtain a copy of the License at
  15:Drivers/CMSIS/Include/cmsis_gcc.h ****  *
  16:Drivers/CMSIS/Include/cmsis_gcc.h ****  * www.apache.org/licenses/LICENSE-2.0
  17:Drivers/CMSIS/Include/cmsis_gcc.h ****  *
  18:Drivers/CMSIS/Include/cmsis_gcc.h ****  * Unless required by applicable law or agreed to in writing, software
  19:Drivers/CMSIS/Include/cmsis_gcc.h ****  * distributed under the License is distributed on an AS IS BASIS, WITHOUT
  20:Drivers/CMSIS/Include/cmsis_gcc.h ****  * WARRANTIES OR CONDITIONS OF ANY KIND, either express or implied.
  21:Drivers/CMSIS/Include/cmsis_gcc.h ****  * See the License for the specific language governing permissions and
  22:Drivers/CMSIS/Include/cmsis_gcc.h ****  * limitations under the License.
  23:Drivers/CMSIS/Include/cmsis_gcc.h ****  */
  24:Drivers/CMSIS/Include/cmsis_gcc.h **** 
  25:Drivers/CMSIS/Include/cmsis_gcc.h **** #ifndef __CMSIS_GCC_H
  26:Drivers/CMSIS/Include/cmsis_gcc.h **** #define __CMSIS_GCC_H
  27:Drivers/CMSIS/Include/cmsis_gcc.h **** 
  28:Drivers/CMSIS/Include/cmsis_gcc.h **** /* ignore some GCC warnings */
  29:Drivers/CMSIS/Include/cmsis_gcc.h **** #pragma GCC diagnostic push
  30:Drivers/CMSIS/Include/cmsis_gcc.h **** #pragma GCC diagnostic ignored "-Wsign-conversion"
  31:Drivers/CMSIS/Include/cmsis_gcc.h **** #pragma GCC diagnostic ignored "-Wconversion"
  32:Drivers/CMSIS/Include/cmsis_gcc.h **** #pragma GCC diagnostic ignored "-Wunused-parameter"
  33:Drivers/CMSIS/Include/cmsis_gcc.h **** 
  34:Drivers/CMSIS/Include/cmsis_gcc.h **** /* Fallback for __has_builtin */
  35:Drivers/CMSIS/Include/cmsis_gcc.h **** #ifndef __has_builtin
  36:Drivers/CMSIS/Include/cmsis_gcc.h ****   #define __has_builtin(x) (0)
ARM GAS  C:\Users\zhangjd\AppData\Local\Temp\ccXlXJUr.s 			page 91


  37:Drivers/CMSIS/Include/cmsis_gcc.h **** #endif
  38:Drivers/CMSIS/Include/cmsis_gcc.h **** 
  39:Drivers/CMSIS/Include/cmsis_gcc.h **** /* CMSIS compiler specific defines */
  40:Drivers/CMSIS/Include/cmsis_gcc.h **** #ifndef   __ASM
  41:Drivers/CMSIS/Include/cmsis_gcc.h ****   #define __ASM                                  __asm
  42:Drivers/CMSIS/Include/cmsis_gcc.h **** #endif
  43:Drivers/CMSIS/Include/cmsis_gcc.h **** #ifndef   __INLINE
  44:Drivers/CMSIS/Include/cmsis_gcc.h ****   #define __INLINE                               inline
  45:Drivers/CMSIS/Include/cmsis_gcc.h **** #endif
  46:Drivers/CMSIS/Include/cmsis_gcc.h **** #ifndef   __STATIC_INLINE
  47:Drivers/CMSIS/Include/cmsis_gcc.h ****   #define __STATIC_INLINE                        static inline
  48:Drivers/CMSIS/Include/cmsis_gcc.h **** #endif
  49:Drivers/CMSIS/Include/cmsis_gcc.h **** #ifndef   __STATIC_FORCEINLINE                 
  50:Drivers/CMSIS/Include/cmsis_gcc.h ****   #define __STATIC_FORCEINLINE                   __attribute__((always_inline)) static inline
  51:Drivers/CMSIS/Include/cmsis_gcc.h **** #endif                                           
  52:Drivers/CMSIS/Include/cmsis_gcc.h **** #ifndef   __NO_RETURN
  53:Drivers/CMSIS/Include/cmsis_gcc.h ****   #define __NO_RETURN                            __attribute__((__noreturn__))
  54:Drivers/CMSIS/Include/cmsis_gcc.h **** #endif
  55:Drivers/CMSIS/Include/cmsis_gcc.h **** #ifndef   __USED
  56:Drivers/CMSIS/Include/cmsis_gcc.h ****   #define __USED                                 __attribute__((used))
  57:Drivers/CMSIS/Include/cmsis_gcc.h **** #endif
  58:Drivers/CMSIS/Include/cmsis_gcc.h **** #ifndef   __WEAK
  59:Drivers/CMSIS/Include/cmsis_gcc.h ****   #define __WEAK                                 __attribute__((weak))
  60:Drivers/CMSIS/Include/cmsis_gcc.h **** #endif
  61:Drivers/CMSIS/Include/cmsis_gcc.h **** #ifndef   __PACKED
  62:Drivers/CMSIS/Include/cmsis_gcc.h ****   #define __PACKED                               __attribute__((packed, aligned(1)))
  63:Drivers/CMSIS/Include/cmsis_gcc.h **** #endif
  64:Drivers/CMSIS/Include/cmsis_gcc.h **** #ifndef   __PACKED_STRUCT
  65:Drivers/CMSIS/Include/cmsis_gcc.h ****   #define __PACKED_STRUCT                        struct __attribute__((packed, aligned(1)))
  66:Drivers/CMSIS/Include/cmsis_gcc.h **** #endif
  67:Drivers/CMSIS/Include/cmsis_gcc.h **** #ifndef   __PACKED_UNION
  68:Drivers/CMSIS/Include/cmsis_gcc.h ****   #define __PACKED_UNION                         union __attribute__((packed, aligned(1)))
  69:Drivers/CMSIS/Include/cmsis_gcc.h **** #endif
  70:Drivers/CMSIS/Include/cmsis_gcc.h **** #ifndef   __UNALIGNED_UINT32        /* deprecated */
  71:Drivers/CMSIS/Include/cmsis_gcc.h ****   #pragma GCC diagnostic push
  72:Drivers/CMSIS/Include/cmsis_gcc.h ****   #pragma GCC diagnostic ignored "-Wpacked"
  73:Drivers/CMSIS/Include/cmsis_gcc.h ****   #pragma GCC diagnostic ignored "-Wattributes"
  74:Drivers/CMSIS/Include/cmsis_gcc.h ****   struct __attribute__((packed)) T_UINT32 { uint32_t v; };
  75:Drivers/CMSIS/Include/cmsis_gcc.h ****   #pragma GCC diagnostic pop
  76:Drivers/CMSIS/Include/cmsis_gcc.h ****   #define __UNALIGNED_UINT32(x)                  (((struct T_UINT32 *)(x))->v)
  77:Drivers/CMSIS/Include/cmsis_gcc.h **** #endif
  78:Drivers/CMSIS/Include/cmsis_gcc.h **** #ifndef   __UNALIGNED_UINT16_WRITE
  79:Drivers/CMSIS/Include/cmsis_gcc.h ****   #pragma GCC diagnostic push
  80:Drivers/CMSIS/Include/cmsis_gcc.h ****   #pragma GCC diagnostic ignored "-Wpacked"
  81:Drivers/CMSIS/Include/cmsis_gcc.h ****   #pragma GCC diagnostic ignored "-Wattributes"
  82:Drivers/CMSIS/Include/cmsis_gcc.h ****   __PACKED_STRUCT T_UINT16_WRITE { uint16_t v; };
  83:Drivers/CMSIS/Include/cmsis_gcc.h ****   #pragma GCC diagnostic pop
  84:Drivers/CMSIS/Include/cmsis_gcc.h ****   #define __UNALIGNED_UINT16_WRITE(addr, val)    (void)((((struct T_UINT16_WRITE *)(void *)(addr))-
  85:Drivers/CMSIS/Include/cmsis_gcc.h **** #endif
  86:Drivers/CMSIS/Include/cmsis_gcc.h **** #ifndef   __UNALIGNED_UINT16_READ
  87:Drivers/CMSIS/Include/cmsis_gcc.h ****   #pragma GCC diagnostic push
  88:Drivers/CMSIS/Include/cmsis_gcc.h ****   #pragma GCC diagnostic ignored "-Wpacked"
  89:Drivers/CMSIS/Include/cmsis_gcc.h ****   #pragma GCC diagnostic ignored "-Wattributes"
  90:Drivers/CMSIS/Include/cmsis_gcc.h ****   __PACKED_STRUCT T_UINT16_READ { uint16_t v; };
  91:Drivers/CMSIS/Include/cmsis_gcc.h ****   #pragma GCC diagnostic pop
  92:Drivers/CMSIS/Include/cmsis_gcc.h ****   #define __UNALIGNED_UINT16_READ(addr)          (((const struct T_UINT16_READ *)(const void *)(add
  93:Drivers/CMSIS/Include/cmsis_gcc.h **** #endif
ARM GAS  C:\Users\zhangjd\AppData\Local\Temp\ccXlXJUr.s 			page 92


  94:Drivers/CMSIS/Include/cmsis_gcc.h **** #ifndef   __UNALIGNED_UINT32_WRITE
  95:Drivers/CMSIS/Include/cmsis_gcc.h ****   #pragma GCC diagnostic push
  96:Drivers/CMSIS/Include/cmsis_gcc.h ****   #pragma GCC diagnostic ignored "-Wpacked"
  97:Drivers/CMSIS/Include/cmsis_gcc.h ****   #pragma GCC diagnostic ignored "-Wattributes"
  98:Drivers/CMSIS/Include/cmsis_gcc.h ****   __PACKED_STRUCT T_UINT32_WRITE { uint32_t v; };
  99:Drivers/CMSIS/Include/cmsis_gcc.h ****   #pragma GCC diagnostic pop
 100:Drivers/CMSIS/Include/cmsis_gcc.h ****   #define __UNALIGNED_UINT32_WRITE(addr, val)    (void)((((struct T_UINT32_WRITE *)(void *)(addr))-
 101:Drivers/CMSIS/Include/cmsis_gcc.h **** #endif
 102:Drivers/CMSIS/Include/cmsis_gcc.h **** #ifndef   __UNALIGNED_UINT32_READ
 103:Drivers/CMSIS/Include/cmsis_gcc.h ****   #pragma GCC diagnostic push
 104:Drivers/CMSIS/Include/cmsis_gcc.h ****   #pragma GCC diagnostic ignored "-Wpacked"
 105:Drivers/CMSIS/Include/cmsis_gcc.h ****   #pragma GCC diagnostic ignored "-Wattributes"
 106:Drivers/CMSIS/Include/cmsis_gcc.h ****   __PACKED_STRUCT T_UINT32_READ { uint32_t v; };
 107:Drivers/CMSIS/Include/cmsis_gcc.h ****   #pragma GCC diagnostic pop
 108:Drivers/CMSIS/Include/cmsis_gcc.h ****   #define __UNALIGNED_UINT32_READ(addr)          (((const struct T_UINT32_READ *)(const void *)(add
 109:Drivers/CMSIS/Include/cmsis_gcc.h **** #endif
 110:Drivers/CMSIS/Include/cmsis_gcc.h **** #ifndef   __ALIGNED
 111:Drivers/CMSIS/Include/cmsis_gcc.h ****   #define __ALIGNED(x)                           __attribute__((aligned(x)))
 112:Drivers/CMSIS/Include/cmsis_gcc.h **** #endif
 113:Drivers/CMSIS/Include/cmsis_gcc.h **** #ifndef   __RESTRICT
 114:Drivers/CMSIS/Include/cmsis_gcc.h ****   #define __RESTRICT                             __restrict
 115:Drivers/CMSIS/Include/cmsis_gcc.h **** #endif
 116:Drivers/CMSIS/Include/cmsis_gcc.h **** 
 117:Drivers/CMSIS/Include/cmsis_gcc.h **** 
 118:Drivers/CMSIS/Include/cmsis_gcc.h **** /* ###########################  Core Function Access  ########################### */
 119:Drivers/CMSIS/Include/cmsis_gcc.h **** /** \ingroup  CMSIS_Core_FunctionInterface
 120:Drivers/CMSIS/Include/cmsis_gcc.h ****     \defgroup CMSIS_Core_RegAccFunctions CMSIS Core Register Access Functions
 121:Drivers/CMSIS/Include/cmsis_gcc.h ****   @{
 122:Drivers/CMSIS/Include/cmsis_gcc.h ****  */
 123:Drivers/CMSIS/Include/cmsis_gcc.h **** 
 124:Drivers/CMSIS/Include/cmsis_gcc.h **** /**
 125:Drivers/CMSIS/Include/cmsis_gcc.h ****   \brief   Enable IRQ Interrupts
 126:Drivers/CMSIS/Include/cmsis_gcc.h ****   \details Enables IRQ interrupts by clearing the I-bit in the CPSR.
 127:Drivers/CMSIS/Include/cmsis_gcc.h ****            Can only be executed in Privileged modes.
 128:Drivers/CMSIS/Include/cmsis_gcc.h ****  */
 129:Drivers/CMSIS/Include/cmsis_gcc.h **** __STATIC_FORCEINLINE void __enable_irq(void)
 130:Drivers/CMSIS/Include/cmsis_gcc.h **** {
 131:Drivers/CMSIS/Include/cmsis_gcc.h ****   __ASM volatile ("cpsie i" : : : "memory");
 132:Drivers/CMSIS/Include/cmsis_gcc.h **** }
 133:Drivers/CMSIS/Include/cmsis_gcc.h **** 
 134:Drivers/CMSIS/Include/cmsis_gcc.h **** 
 135:Drivers/CMSIS/Include/cmsis_gcc.h **** /**
 136:Drivers/CMSIS/Include/cmsis_gcc.h ****   \brief   Disable IRQ Interrupts
 137:Drivers/CMSIS/Include/cmsis_gcc.h ****   \details Disables IRQ interrupts by setting the I-bit in the CPSR.
 138:Drivers/CMSIS/Include/cmsis_gcc.h ****            Can only be executed in Privileged modes.
 139:Drivers/CMSIS/Include/cmsis_gcc.h ****  */
 140:Drivers/CMSIS/Include/cmsis_gcc.h **** __STATIC_FORCEINLINE void __disable_irq(void)
 3793              		.loc 2 140 27 view .LVU870
 3794              	.LBB6:
 141:Drivers/CMSIS/Include/cmsis_gcc.h **** {
 142:Drivers/CMSIS/Include/cmsis_gcc.h ****   __ASM volatile ("cpsid i" : : : "memory");
 3795              		.loc 2 142 3 view .LVU871
 3796              		.syntax unified
 3797              	@ 142 "Drivers/CMSIS/Include/cmsis_gcc.h" 1
 3798 0000 72B6     		cpsid i
 3799              	@ 0 "" 2
 3800              		.thumb
ARM GAS  C:\Users\zhangjd\AppData\Local\Temp\ccXlXJUr.s 			page 93


 3801              		.syntax unified
 3802              	.L238:
 3803              	.LBE6:
 3804              	.LBE5:
 932:Core/Src/main.c ****     while (1)
 3805              		.loc 1 932 5 discriminator 1 view .LVU872
 933:Core/Src/main.c ****     {
 934:Core/Src/main.c ****     }
 3806              		.loc 1 934 5 discriminator 1 view .LVU873
 932:Core/Src/main.c ****     while (1)
 3807              		.loc 1 932 11 discriminator 1 view .LVU874
 3808 0002 FEE7     		b	.L238
 3809              		.cfi_endproc
 3810              	.LFE84:
 3812              		.section	.text.SystemClock_Config,"ax",%progbits
 3813              		.align	1
 3814              		.global	SystemClock_Config
 3815              		.syntax unified
 3816              		.thumb
 3817              		.thumb_func
 3818              		.fpu softvfp
 3820              	SystemClock_Config:
 3821              	.LFB67:
 548:Core/Src/main.c ****     RCC_OscInitTypeDef RCC_OscInitStruct = {0};
 3822              		.loc 1 548 1 view -0
 3823              		.cfi_startproc
 3824              		@ args = 0, pretend = 0, frame = 64
 3825              		@ frame_needed = 0, uses_anonymous_args = 0
 3826 0000 00B5     		push	{lr}
 3827              	.LCFI24:
 3828              		.cfi_def_cfa_offset 4
 3829              		.cfi_offset 14, -4
 3830 0002 91B0     		sub	sp, sp, #68
 3831              	.LCFI25:
 3832              		.cfi_def_cfa_offset 72
 549:Core/Src/main.c ****     RCC_ClkInitTypeDef RCC_ClkInitStruct = {0};
 3833              		.loc 1 549 5 view .LVU876
 549:Core/Src/main.c ****     RCC_ClkInitTypeDef RCC_ClkInitStruct = {0};
 3834              		.loc 1 549 24 is_stmt 0 view .LVU877
 3835 0004 2822     		movs	r2, #40
 3836 0006 0021     		movs	r1, #0
 3837 0008 06A8     		add	r0, sp, #24
 3838 000a FFF7FEFF 		bl	memset
 3839              	.LVL410:
 550:Core/Src/main.c **** 
 3840              		.loc 1 550 5 is_stmt 1 view .LVU878
 550:Core/Src/main.c **** 
 3841              		.loc 1 550 24 is_stmt 0 view .LVU879
 3842 000e 0023     		movs	r3, #0
 3843 0010 0193     		str	r3, [sp, #4]
 3844 0012 0293     		str	r3, [sp, #8]
 3845 0014 0393     		str	r3, [sp, #12]
 3846 0016 0493     		str	r3, [sp, #16]
 3847 0018 0593     		str	r3, [sp, #20]
 555:Core/Src/main.c ****     RCC_OscInitStruct.HSEState = RCC_HSE_ON;
 3848              		.loc 1 555 5 is_stmt 1 view .LVU880
 555:Core/Src/main.c ****     RCC_OscInitStruct.HSEState = RCC_HSE_ON;
ARM GAS  C:\Users\zhangjd\AppData\Local\Temp\ccXlXJUr.s 			page 94


 3849              		.loc 1 555 38 is_stmt 0 view .LVU881
 3850 001a 0122     		movs	r2, #1
 3851 001c 0692     		str	r2, [sp, #24]
 556:Core/Src/main.c ****     RCC_OscInitStruct.HSEPredivValue = RCC_HSE_PREDIV_DIV1;
 3852              		.loc 1 556 5 is_stmt 1 view .LVU882
 556:Core/Src/main.c ****     RCC_OscInitStruct.HSEPredivValue = RCC_HSE_PREDIV_DIV1;
 3853              		.loc 1 556 32 is_stmt 0 view .LVU883
 3854 001e 4FF48033 		mov	r3, #65536
 3855 0022 0793     		str	r3, [sp, #28]
 557:Core/Src/main.c ****     RCC_OscInitStruct.HSIState = RCC_HSI_ON;
 3856              		.loc 1 557 5 is_stmt 1 view .LVU884
 558:Core/Src/main.c ****     RCC_OscInitStruct.PLL.PLLState = RCC_PLL_ON;
 3857              		.loc 1 558 5 view .LVU885
 558:Core/Src/main.c ****     RCC_OscInitStruct.PLL.PLLState = RCC_PLL_ON;
 3858              		.loc 1 558 32 is_stmt 0 view .LVU886
 3859 0024 0A92     		str	r2, [sp, #40]
 559:Core/Src/main.c ****     RCC_OscInitStruct.PLL.PLLSource = RCC_PLLSOURCE_HSE;
 3860              		.loc 1 559 5 is_stmt 1 view .LVU887
 559:Core/Src/main.c ****     RCC_OscInitStruct.PLL.PLLSource = RCC_PLLSOURCE_HSE;
 3861              		.loc 1 559 36 is_stmt 0 view .LVU888
 3862 0026 0222     		movs	r2, #2
 3863 0028 0D92     		str	r2, [sp, #52]
 560:Core/Src/main.c ****     RCC_OscInitStruct.PLL.PLLMUL = RCC_PLL_MUL9;
 3864              		.loc 1 560 5 is_stmt 1 view .LVU889
 560:Core/Src/main.c ****     RCC_OscInitStruct.PLL.PLLMUL = RCC_PLL_MUL9;
 3865              		.loc 1 560 37 is_stmt 0 view .LVU890
 3866 002a 0E93     		str	r3, [sp, #56]
 561:Core/Src/main.c ****     if (HAL_RCC_OscConfig(&RCC_OscInitStruct) != HAL_OK)
 3867              		.loc 1 561 5 is_stmt 1 view .LVU891
 561:Core/Src/main.c ****     if (HAL_RCC_OscConfig(&RCC_OscInitStruct) != HAL_OK)
 3868              		.loc 1 561 34 is_stmt 0 view .LVU892
 3869 002c 4FF4E013 		mov	r3, #1835008
 3870 0030 0F93     		str	r3, [sp, #60]
 562:Core/Src/main.c ****     {
 3871              		.loc 1 562 5 is_stmt 1 view .LVU893
 562:Core/Src/main.c ****     {
 3872              		.loc 1 562 9 is_stmt 0 view .LVU894
 3873 0032 06A8     		add	r0, sp, #24
 3874 0034 FFF7FEFF 		bl	HAL_RCC_OscConfig
 3875              	.LVL411:
 562:Core/Src/main.c ****     {
 3876              		.loc 1 562 8 view .LVU895
 3877 0038 80B9     		cbnz	r0, .L243
 568:Core/Src/main.c ****     RCC_ClkInitStruct.SYSCLKSource = RCC_SYSCLKSOURCE_PLLCLK;
 3878              		.loc 1 568 5 is_stmt 1 view .LVU896
 568:Core/Src/main.c ****     RCC_ClkInitStruct.SYSCLKSource = RCC_SYSCLKSOURCE_PLLCLK;
 3879              		.loc 1 568 33 is_stmt 0 view .LVU897
 3880 003a 0F23     		movs	r3, #15
 3881 003c 0193     		str	r3, [sp, #4]
 569:Core/Src/main.c ****     RCC_ClkInitStruct.AHBCLKDivider = RCC_SYSCLK_DIV1;
 3882              		.loc 1 569 5 is_stmt 1 view .LVU898
 569:Core/Src/main.c ****     RCC_ClkInitStruct.AHBCLKDivider = RCC_SYSCLK_DIV1;
 3883              		.loc 1 569 36 is_stmt 0 view .LVU899
 3884 003e 0221     		movs	r1, #2
 3885 0040 0291     		str	r1, [sp, #8]
 570:Core/Src/main.c ****     RCC_ClkInitStruct.APB1CLKDivider = RCC_HCLK_DIV2;
 3886              		.loc 1 570 5 is_stmt 1 view .LVU900
ARM GAS  C:\Users\zhangjd\AppData\Local\Temp\ccXlXJUr.s 			page 95


 570:Core/Src/main.c ****     RCC_ClkInitStruct.APB1CLKDivider = RCC_HCLK_DIV2;
 3887              		.loc 1 570 37 is_stmt 0 view .LVU901
 3888 0042 0023     		movs	r3, #0
 3889 0044 0393     		str	r3, [sp, #12]
 571:Core/Src/main.c ****     RCC_ClkInitStruct.APB2CLKDivider = RCC_HCLK_DIV1;
 3890              		.loc 1 571 5 is_stmt 1 view .LVU902
 571:Core/Src/main.c ****     RCC_ClkInitStruct.APB2CLKDivider = RCC_HCLK_DIV1;
 3891              		.loc 1 571 38 is_stmt 0 view .LVU903
 3892 0046 4FF48062 		mov	r2, #1024
 3893 004a 0492     		str	r2, [sp, #16]
 572:Core/Src/main.c **** 
 3894              		.loc 1 572 5 is_stmt 1 view .LVU904
 572:Core/Src/main.c **** 
 3895              		.loc 1 572 38 is_stmt 0 view .LVU905
 3896 004c 0593     		str	r3, [sp, #20]
 574:Core/Src/main.c ****     {
 3897              		.loc 1 574 5 is_stmt 1 view .LVU906
 574:Core/Src/main.c ****     {
 3898              		.loc 1 574 9 is_stmt 0 view .LVU907
 3899 004e 01A8     		add	r0, sp, #4
 3900 0050 FFF7FEFF 		bl	HAL_RCC_ClockConfig
 3901              	.LVL412:
 574:Core/Src/main.c ****     {
 3902              		.loc 1 574 8 view .LVU908
 3903 0054 20B9     		cbnz	r0, .L244
 578:Core/Src/main.c **** 
 3904              		.loc 1 578 1 view .LVU909
 3905 0056 11B0     		add	sp, sp, #68
 3906              	.LCFI26:
 3907              		.cfi_remember_state
 3908              		.cfi_def_cfa_offset 4
 3909              		@ sp needed
 3910 0058 5DF804FB 		ldr	pc, [sp], #4
 3911              	.L243:
 3912              	.LCFI27:
 3913              		.cfi_restore_state
 564:Core/Src/main.c ****     }
 3914              		.loc 1 564 9 is_stmt 1 view .LVU910
 3915 005c FFF7FEFF 		bl	Error_Handler
 3916              	.LVL413:
 3917              	.L244:
 576:Core/Src/main.c ****     }
 3918              		.loc 1 576 9 view .LVU911
 3919 0060 FFF7FEFF 		bl	Error_Handler
 3920              	.LVL414:
 3921              		.cfi_endproc
 3922              	.LFE67:
 3924              		.section	.text.main,"ax",%progbits
 3925              		.align	1
 3926              		.global	main
 3927              		.syntax unified
 3928              		.thumb
 3929              		.thumb_func
 3930              		.fpu softvfp
 3932              	main:
 3933              	.LFB66:
 444:Core/Src/main.c ****     /* USER CODE BEGIN 1 */
ARM GAS  C:\Users\zhangjd\AppData\Local\Temp\ccXlXJUr.s 			page 96


 3934              		.loc 1 444 1 view -0
 3935              		.cfi_startproc
 3936              		@ Volatile: function does not return.
 3937              		@ args = 0, pretend = 0, frame = 0
 3938              		@ frame_needed = 0, uses_anonymous_args = 0
 3939 0000 08B5     		push	{r3, lr}
 3940              	.LCFI28:
 3941              		.cfi_def_cfa_offset 8
 3942              		.cfi_offset 3, -8
 3943              		.cfi_offset 14, -4
 451:Core/Src/main.c **** 
 3944              		.loc 1 451 5 view .LVU913
 3945 0002 FFF7FEFF 		bl	HAL_Init
 3946              	.LVL415:
 454:Core/Src/main.c ****     SetBaud(115200);
 3947              		.loc 1 454 5 view .LVU914
 3948 0006 654D     		ldr	r5, .L257
 3949 0008 2846     		mov	r0, r5
 3950 000a FFF7FEFF 		bl	jy62_Init
 3951              	.LVL416:
 455:Core/Src/main.c ****     SetHorizontal();
 3952              		.loc 1 455 5 view .LVU915
 3953 000e 4FF4E130 		mov	r0, #115200
 3954 0012 FFF7FEFF 		bl	SetBaud
 3955              	.LVL417:
 456:Core/Src/main.c ****     InitAngle();
 3956              		.loc 1 456 5 view .LVU916
 3957 0016 FFF7FEFF 		bl	SetHorizontal
 3958              	.LVL418:
 457:Core/Src/main.c ****     Calibrate();
 3959              		.loc 1 457 5 view .LVU917
 3960 001a FFF7FEFF 		bl	InitAngle
 3961              	.LVL419:
 458:Core/Src/main.c ****     SleepOrAwake();
 3962              		.loc 1 458 5 view .LVU918
 3963 001e FFF7FEFF 		bl	Calibrate
 3964              	.LVL420:
 459:Core/Src/main.c ****     /* USER CODE END Init */
 3965              		.loc 1 459 5 view .LVU919
 3966 0022 FFF7FEFF 		bl	SleepOrAwake
 3967              	.LVL421:
 463:Core/Src/main.c **** 
 3968              		.loc 1 463 5 view .LVU920
 3969 0026 FFF7FEFF 		bl	SystemClock_Config
 3970              	.LVL422:
 470:Core/Src/main.c ****     MX_TIM1_Init();
 3971              		.loc 1 470 5 view .LVU921
 3972 002a FFF7FEFF 		bl	MX_GPIO_Init
 3973              	.LVL423:
 471:Core/Src/main.c ****     MX_TIM2_Init();
 3974              		.loc 1 471 5 view .LVU922
 3975 002e FFF7FEFF 		bl	MX_TIM1_Init
 3976              	.LVL424:
 472:Core/Src/main.c ****     MX_TIM8_Init();
 3977              		.loc 1 472 5 view .LVU923
 3978 0032 FFF7FEFF 		bl	MX_TIM2_Init
 3979              	.LVL425:
ARM GAS  C:\Users\zhangjd\AppData\Local\Temp\ccXlXJUr.s 			page 97


 473:Core/Src/main.c ****     MX_TIM3_Init();
 3980              		.loc 1 473 5 view .LVU924
 3981 0036 FFF7FEFF 		bl	MX_TIM8_Init
 3982              	.LVL426:
 474:Core/Src/main.c ****     MX_TIM4_Init();
 3983              		.loc 1 474 5 view .LVU925
 3984 003a FFF7FEFF 		bl	MX_TIM3_Init
 3985              	.LVL427:
 475:Core/Src/main.c ****     MX_DMA_Init();
 3986              		.loc 1 475 5 view .LVU926
 3987 003e FFF7FEFF 		bl	MX_TIM4_Init
 3988              	.LVL428:
 476:Core/Src/main.c ****     MX_USART2_UART_Init();
 3989              		.loc 1 476 5 view .LVU927
 3990 0042 FFF7FEFF 		bl	MX_DMA_Init
 3991              	.LVL429:
 477:Core/Src/main.c ****     MX_USART1_UART_Init();
 3992              		.loc 1 477 5 view .LVU928
 3993 0046 FFF7FEFF 		bl	MX_USART2_UART_Init
 3994              	.LVL430:
 478:Core/Src/main.c ****     MX_TIM5_Init();
 3995              		.loc 1 478 5 view .LVU929
 3996 004a FFF7FEFF 		bl	MX_USART1_UART_Init
 3997              	.LVL431:
 479:Core/Src/main.c ****     /* USER CODE BEGIN 2 */
 3998              		.loc 1 479 5 view .LVU930
 3999 004e FFF7FEFF 		bl	MX_TIM5_Init
 4000              	.LVL432:
 481:Core/Src/main.c ****     HAL_TIM_Base_Start_IT(&htim1);
 4001              		.loc 1 481 5 view .LVU931
 4002 0052 5348     		ldr	r0, .L257+4
 4003 0054 FFF7FEFF 		bl	zigbee_Init
 4004              	.LVL433:
 482:Core/Src/main.c ****     HAL_TIM_PWM_Start(&htim8, TIM_CHANNEL_1);
 4005              		.loc 1 482 5 view .LVU932
 4006 0058 5248     		ldr	r0, .L257+8
 4007 005a FFF7FEFF 		bl	HAL_TIM_Base_Start_IT
 4008              	.LVL434:
 483:Core/Src/main.c ****     HAL_TIM_PWM_Start(&htim8, TIM_CHANNEL_2);
 4009              		.loc 1 483 5 view .LVU933
 4010 005e 524C     		ldr	r4, .L257+12
 4011 0060 0021     		movs	r1, #0
 4012 0062 2046     		mov	r0, r4
 4013 0064 FFF7FEFF 		bl	HAL_TIM_PWM_Start
 4014              	.LVL435:
 484:Core/Src/main.c ****     HAL_TIM_PWM_Start(&htim8, TIM_CHANNEL_3);
 4015              		.loc 1 484 5 view .LVU934
 4016 0068 0421     		movs	r1, #4
 4017 006a 2046     		mov	r0, r4
 4018 006c FFF7FEFF 		bl	HAL_TIM_PWM_Start
 4019              	.LVL436:
 485:Core/Src/main.c ****     HAL_TIM_PWM_Start(&htim8, TIM_CHANNEL_4);
 4020              		.loc 1 485 5 view .LVU935
 4021 0070 0821     		movs	r1, #8
 4022 0072 2046     		mov	r0, r4
 4023 0074 FFF7FEFF 		bl	HAL_TIM_PWM_Start
 4024              	.LVL437:
ARM GAS  C:\Users\zhangjd\AppData\Local\Temp\ccXlXJUr.s 			page 98


 486:Core/Src/main.c ****     HAL_TIM_Encoder_Start(&htim2, TIM_CHANNEL_1);
 4025              		.loc 1 486 5 view .LVU936
 4026 0078 0C21     		movs	r1, #12
 4027 007a 2046     		mov	r0, r4
 4028 007c FFF7FEFF 		bl	HAL_TIM_PWM_Start
 4029              	.LVL438:
 487:Core/Src/main.c ****     HAL_TIM_Encoder_Start(&htim2, TIM_CHANNEL_2);
 4030              		.loc 1 487 5 view .LVU937
 4031 0080 4A4C     		ldr	r4, .L257+16
 4032 0082 0021     		movs	r1, #0
 4033 0084 2046     		mov	r0, r4
 4034 0086 FFF7FEFF 		bl	HAL_TIM_Encoder_Start
 4035              	.LVL439:
 488:Core/Src/main.c ****     HAL_TIM_Encoder_Start(&htim3, TIM_CHANNEL_1);
 4036              		.loc 1 488 5 view .LVU938
 4037 008a 0421     		movs	r1, #4
 4038 008c 2046     		mov	r0, r4
 4039 008e FFF7FEFF 		bl	HAL_TIM_Encoder_Start
 4040              	.LVL440:
 489:Core/Src/main.c ****     HAL_TIM_Encoder_Start(&htim3, TIM_CHANNEL_2);
 4041              		.loc 1 489 5 view .LVU939
 4042 0092 474C     		ldr	r4, .L257+20
 4043 0094 0021     		movs	r1, #0
 4044 0096 2046     		mov	r0, r4
 4045 0098 FFF7FEFF 		bl	HAL_TIM_Encoder_Start
 4046              	.LVL441:
 490:Core/Src/main.c ****     HAL_TIM_Encoder_Start(&htim4, TIM_CHANNEL_1);
 4047              		.loc 1 490 5 view .LVU940
 4048 009c 0421     		movs	r1, #4
 4049 009e 2046     		mov	r0, r4
 4050 00a0 FFF7FEFF 		bl	HAL_TIM_Encoder_Start
 4051              	.LVL442:
 491:Core/Src/main.c ****     HAL_TIM_Encoder_Start(&htim4, TIM_CHANNEL_2);
 4052              		.loc 1 491 5 view .LVU941
 4053 00a4 434C     		ldr	r4, .L257+24
 4054 00a6 0021     		movs	r1, #0
 4055 00a8 2046     		mov	r0, r4
 4056 00aa FFF7FEFF 		bl	HAL_TIM_Encoder_Start
 4057              	.LVL443:
 492:Core/Src/main.c ****     HAL_TIM_Encoder_Start(&htim5, TIM_CHANNEL_1);
 4058              		.loc 1 492 5 view .LVU942
 4059 00ae 0421     		movs	r1, #4
 4060 00b0 2046     		mov	r0, r4
 4061 00b2 FFF7FEFF 		bl	HAL_TIM_Encoder_Start
 4062              	.LVL444:
 493:Core/Src/main.c ****     HAL_TIM_Encoder_Start(&htim5, TIM_CHANNEL_2);
 4063              		.loc 1 493 5 view .LVU943
 4064 00b6 404C     		ldr	r4, .L257+28
 4065 00b8 0021     		movs	r1, #0
 4066 00ba 2046     		mov	r0, r4
 4067 00bc FFF7FEFF 		bl	HAL_TIM_Encoder_Start
 4068              	.LVL445:
 494:Core/Src/main.c ****     jy62_Init(&huart2);
 4069              		.loc 1 494 5 view .LVU944
 4070 00c0 0421     		movs	r1, #4
 4071 00c2 2046     		mov	r0, r4
 4072 00c4 FFF7FEFF 		bl	HAL_TIM_Encoder_Start
ARM GAS  C:\Users\zhangjd\AppData\Local\Temp\ccXlXJUr.s 			page 99


 4073              	.LVL446:
 495:Core/Src/main.c ****     void jy62_Init(UART_HandleTypeDef * huart);
 4074              		.loc 1 495 5 view .LVU945
 4075 00c8 2846     		mov	r0, r5
 4076 00ca FFF7FEFF 		bl	jy62_Init
 4077              	.LVL447:
 496:Core/Src/main.c **** 
 4078              		.loc 1 496 5 view .LVU946
 498:Core/Src/main.c ****     HAL_GPIO_WritePin(GPIOB, GPIO_PIN_1, GPIO_PIN_RESET);
 4079              		.loc 1 498 5 view .LVU947
 4080 00ce 3B4C     		ldr	r4, .L257+32
 4081 00d0 0122     		movs	r2, #1
 4082 00d2 1146     		mov	r1, r2
 4083 00d4 2046     		mov	r0, r4
 4084 00d6 FFF7FEFF 		bl	HAL_GPIO_WritePin
 4085              	.LVL448:
 499:Core/Src/main.c ****     HAL_GPIO_WritePin(GPIOB, GPIO_PIN_2, GPIO_PIN_RESET);
 4086              		.loc 1 499 5 view .LVU948
 4087 00da 0022     		movs	r2, #0
 4088 00dc 0221     		movs	r1, #2
 4089 00de 2046     		mov	r0, r4
 4090 00e0 FFF7FEFF 		bl	HAL_GPIO_WritePin
 4091              	.LVL449:
 500:Core/Src/main.c ****     HAL_GPIO_WritePin(GPIOB, GPIO_PIN_10, GPIO_PIN_SET);
 4092              		.loc 1 500 5 view .LVU949
 4093 00e4 0022     		movs	r2, #0
 4094 00e6 0421     		movs	r1, #4
 4095 00e8 2046     		mov	r0, r4
 4096 00ea FFF7FEFF 		bl	HAL_GPIO_WritePin
 4097              	.LVL450:
 501:Core/Src/main.c ****     HAL_GPIO_WritePin(GPIOB, GPIO_PIN_11, GPIO_PIN_SET);
 4098              		.loc 1 501 5 view .LVU950
 4099 00ee 0122     		movs	r2, #1
 4100 00f0 4FF48061 		mov	r1, #1024
 4101 00f4 2046     		mov	r0, r4
 4102 00f6 FFF7FEFF 		bl	HAL_GPIO_WritePin
 4103              	.LVL451:
 502:Core/Src/main.c ****     HAL_GPIO_WritePin(GPIOB, GPIO_PIN_12, GPIO_PIN_RESET);
 4104              		.loc 1 502 5 view .LVU951
 4105 00fa 0122     		movs	r2, #1
 4106 00fc 4FF40061 		mov	r1, #2048
 4107 0100 2046     		mov	r0, r4
 4108 0102 FFF7FEFF 		bl	HAL_GPIO_WritePin
 4109              	.LVL452:
 503:Core/Src/main.c ****     HAL_GPIO_WritePin(GPIOB, GPIO_PIN_13, GPIO_PIN_RESET);
 4110              		.loc 1 503 5 view .LVU952
 4111 0106 0022     		movs	r2, #0
 4112 0108 4FF48051 		mov	r1, #4096
 4113 010c 2046     		mov	r0, r4
 4114 010e FFF7FEFF 		bl	HAL_GPIO_WritePin
 4115              	.LVL453:
 504:Core/Src/main.c ****     HAL_GPIO_WritePin(GPIOB, GPIO_PIN_14, GPIO_PIN_SET);
 4116              		.loc 1 504 5 view .LVU953
 4117 0112 0022     		movs	r2, #0
 4118 0114 4FF40051 		mov	r1, #8192
 4119 0118 2046     		mov	r0, r4
 4120 011a FFF7FEFF 		bl	HAL_GPIO_WritePin
ARM GAS  C:\Users\zhangjd\AppData\Local\Temp\ccXlXJUr.s 			page 100


 4121              	.LVL454:
 505:Core/Src/main.c ****     /* USER CODE END 2 */
 4122              		.loc 1 505 5 view .LVU954
 4123 011e 0122     		movs	r2, #1
 4124 0120 4FF48041 		mov	r1, #16384
 4125 0124 2046     		mov	r0, r4
 4126 0126 FFF7FEFF 		bl	HAL_GPIO_WritePin
 4127              	.LVL455:
 4128 012a 07E0     		b	.L249
 4129              	.L247:
 525:Core/Src/main.c ****         {
 4130              		.loc 1 525 9 view .LVU955
 525:Core/Src/main.c ****         {
 4131              		.loc 1 525 14 is_stmt 0 view .LVU956
 4132 012c FFF7FEFF 		bl	getGameState
 4133              	.LVL456:
 525:Core/Src/main.c ****         {
 4134              		.loc 1 525 12 view .LVU957
 4135 0130 0128     		cmp	r0, #1
 4136 0132 0CD0     		beq	.L254
 4137              	.L248:
 529:Core/Src/main.c ****         {
 4138              		.loc 1 529 9 is_stmt 1 view .LVU958
 529:Core/Src/main.c ****         {
 4139              		.loc 1 529 14 is_stmt 0 view .LVU959
 4140 0134 FFF7FEFF 		bl	getGameState
 4141              	.LVL457:
 529:Core/Src/main.c ****         {
 4142              		.loc 1 529 12 view .LVU960
 4143 0138 0128     		cmp	r0, #1
 4144 013a 14D0     		beq	.L255
 4145              	.L249:
 510:Core/Src/main.c ****     {
 4146              		.loc 1 510 5 is_stmt 1 view .LVU961
 521:Core/Src/main.c ****         {
 4147              		.loc 1 521 9 view .LVU962
 521:Core/Src/main.c ****         {
 4148              		.loc 1 521 13 is_stmt 0 view .LVU963
 4149 013c FFF7FEFF 		bl	getGameState
 4150              	.LVL458:
 521:Core/Src/main.c ****         {
 4151              		.loc 1 521 12 view .LVU964
 4152 0140 0328     		cmp	r0, #3
 4153 0142 F3D1     		bne	.L247
 523:Core/Src/main.c ****         }
 4154              		.loc 1 523 13 is_stmt 1 view .LVU965
 523:Core/Src/main.c ****         }
 4155              		.loc 1 523 19 is_stmt 0 view .LVU966
 4156 0144 1E4B     		ldr	r3, .L257+36
 4157 0146 4FF0FF32 		mov	r2, #-1
 4158 014a 1A60     		str	r2, [r3]
 4159 014c EEE7     		b	.L247
 4160              	.L254:
 525:Core/Src/main.c ****         {
 4161              		.loc 1 525 39 discriminator 1 view .LVU967
 4162 014e FFF7FEFF 		bl	getCarTask
 4163              	.LVL459:
ARM GAS  C:\Users\zhangjd\AppData\Local\Temp\ccXlXJUr.s 			page 101


 525:Core/Src/main.c ****         {
 4164              		.loc 1 525 35 discriminator 1 view .LVU968
 4165 0152 0028     		cmp	r0, #0
 4166 0154 EED1     		bne	.L248
 525:Core/Src/main.c ****         {
 4167              		.loc 1 525 68 discriminator 2 view .LVU969
 4168 0156 1A4B     		ldr	r3, .L257+36
 4169 0158 1B68     		ldr	r3, [r3]
 525:Core/Src/main.c ****         {
 4170              		.loc 1 525 58 discriminator 2 view .LVU970
 4171 015a 002B     		cmp	r3, #0
 4172 015c EADA     		bge	.L248
 527:Core/Src/main.c ****         }
 4173              		.loc 1 527 13 is_stmt 1 view .LVU971
 527:Core/Src/main.c ****         }
 4174              		.loc 1 527 19 is_stmt 0 view .LVU972
 4175 015e 184B     		ldr	r3, .L257+36
 4176 0160 0022     		movs	r2, #0
 4177 0162 1A60     		str	r2, [r3]
 4178 0164 E6E7     		b	.L248
 4179              	.L255:
 529:Core/Src/main.c ****         {
 4180              		.loc 1 529 39 discriminator 1 view .LVU973
 4181 0166 FFF7FEFF 		bl	getCarTask
 4182              	.LVL460:
 529:Core/Src/main.c ****         {
 4183              		.loc 1 529 35 discriminator 1 view .LVU974
 4184 016a 0128     		cmp	r0, #1
 4185 016c E6D1     		bne	.L249
 531:Core/Src/main.c ****             {
 4186              		.loc 1 531 13 is_stmt 1 view .LVU975
 531:Core/Src/main.c ****             {
 4187              		.loc 1 531 23 is_stmt 0 view .LVU976
 4188 016e 144B     		ldr	r3, .L257+36
 4189 0170 1B68     		ldr	r3, [r3]
 531:Core/Src/main.c ****             {
 4190              		.loc 1 531 16 view .LVU977
 4191 0172 092B     		cmp	r3, #9
 4192 0174 0CDD     		ble	.L256
 4193              	.L251:
 536:Core/Src/main.c ****                 State = 12;
 4194              		.loc 1 536 13 is_stmt 1 view .LVU978
 536:Core/Src/main.c ****                 State = 12;
 4195              		.loc 1 536 18 is_stmt 0 view .LVU979
 4196 0176 FFF7FEFF 		bl	getGameTime
 4197              	.LVL461:
 536:Core/Src/main.c ****                 State = 12;
 4198              		.loc 1 536 16 view .LVU980
 4199 017a B0F57A7F 		cmp	r0, #1000
 4200 017e DDD9     		bls	.L249
 536:Core/Src/main.c ****                 State = 12;
 4201              		.loc 1 536 50 discriminator 1 view .LVU981
 4202 0180 0F4B     		ldr	r3, .L257+36
 4203 0182 1B68     		ldr	r3, [r3]
 536:Core/Src/main.c ****                 State = 12;
 4204              		.loc 1 536 40 discriminator 1 view .LVU982
 4205 0184 0B2B     		cmp	r3, #11
ARM GAS  C:\Users\zhangjd\AppData\Local\Temp\ccXlXJUr.s 			page 102


 4206 0186 D9DC     		bgt	.L249
 537:Core/Src/main.c ****         }
 4207              		.loc 1 537 17 is_stmt 1 view .LVU983
 537:Core/Src/main.c ****         }
 4208              		.loc 1 537 23 is_stmt 0 view .LVU984
 4209 0188 0D4B     		ldr	r3, .L257+36
 4210 018a 0C22     		movs	r2, #12
 4211 018c 1A60     		str	r2, [r3]
 4212 018e D5E7     		b	.L249
 4213              	.L256:
 533:Core/Src/main.c ****                 Sol_Car_Pos_INIT();
 4214              		.loc 1 533 17 is_stmt 1 view .LVU985
 533:Core/Src/main.c ****                 Sol_Car_Pos_INIT();
 4215              		.loc 1 533 23 is_stmt 0 view .LVU986
 4216 0190 0B4B     		ldr	r3, .L257+36
 4217 0192 0A22     		movs	r2, #10
 4218 0194 1A60     		str	r2, [r3]
 534:Core/Src/main.c ****             }
 4219              		.loc 1 534 17 is_stmt 1 view .LVU987
 4220 0196 FFF7FEFF 		bl	Sol_Car_Pos_INIT
 4221              	.LVL462:
 4222 019a ECE7     		b	.L251
 4223              	.L258:
 4224              		.align	2
 4225              	.L257:
 4226 019c 00000000 		.word	huart2
 4227 01a0 00000000 		.word	huart1
 4228 01a4 00000000 		.word	htim1
 4229 01a8 00000000 		.word	htim8
 4230 01ac 00000000 		.word	htim2
 4231 01b0 00000000 		.word	htim3
 4232 01b4 00000000 		.word	htim4
 4233 01b8 00000000 		.word	htim5
 4234 01bc 000C0140 		.word	1073810432
 4235 01c0 00000000 		.word	.LANCHOR9
 4236              		.cfi_endproc
 4237              	.LFE66:
 4239              		.global	state
 4240              		.global	Kd
 4241              		.global	Ki
 4242              		.global	Kp
 4243              		.global	ATAN_LUT
 4244              		.global	prev_type
 4245              		.global	destination
 4246              		.global	State
 4247              		.global	rep
 4248              		.global	dis_pre
 4249              		.global	dis_cur
 4250              		.global	goto_state
 4251              		.global	now
 4252              		.global	count_storehouse
 4253              		.global	count_beacon
 4254              		.global	count_pos
 4255              		.global	score
 4256              		.global	resource_location
 4257              		.global	Prev_Pos_head
 4258              		.global	Prev_Pos
ARM GAS  C:\Users\zhangjd\AppData\Local\Temp\ccXlXJUr.s 			page 103


 4259              		.global	beacon_determinant
 4260              		.global	car_Pos
 4261              		.global	beacon_Pos
 4262              		.global	car_y
 4263              		.global	car_x
 4264              		.global	obj_y
 4265              		.global	obj_x
 4266              		.global	dis_obj
 4267              		.global	angle_obj
 4268              		.global	distance4
 4269              		.global	distance3
 4270              		.global	distance2
 4271              		.global	distance1
 4272              		.section	.bss.Prev_Pos,"aw",%nobits
 4273              		.align	2
 4274              		.set	.LANCHOR11,. + 0
 4277              	Prev_Pos:
 4278 0000 00000000 		.space	36
 4278      00000000 
 4278      00000000 
 4278      00000000 
 4278      00000000 
 4279              		.section	.bss.Prev_Pos_head,"aw",%nobits
 4280              		.align	1
 4281              		.set	.LANCHOR13,. + 0
 4284              	Prev_Pos_head:
 4285 0000 0000     		.space	2
 4286              		.section	.bss.angle_obj,"aw",%nobits
 4287              		.align	2
 4290              	angle_obj:
 4291 0000 00000000 		.space	4
 4292              		.section	.bss.beacon_Pos,"aw",%nobits
 4293              		.align	2
 4294              		.set	.LANCHOR2,. + 0
 4297              	beacon_Pos:
 4298 0000 00000000 		.space	24
 4298      00000000 
 4298      00000000 
 4298      00000000 
 4298      00000000 
 4299              		.section	.bss.beacon_determinant,"aw",%nobits
 4300              		.align	3
 4301              		.set	.LANCHOR3,. + 0
 4304              	beacon_determinant:
 4305 0000 00000000 		.space	8
 4305      00000000 
 4306              		.section	.bss.car_Pos,"aw",%nobits
 4307              		.align	2
 4308              		.set	.LANCHOR4,. + 0
 4311              	car_Pos:
 4312 0000 00000000 		.space	8
 4312      00000000 
 4313              		.section	.bss.car_x,"aw",%nobits
 4314              		.align	2
 4317              	car_x:
 4318 0000 00000000 		.space	4
 4319              		.section	.bss.car_y,"aw",%nobits
ARM GAS  C:\Users\zhangjd\AppData\Local\Temp\ccXlXJUr.s 			page 104


 4320              		.align	2
 4323              	car_y:
 4324 0000 00000000 		.space	4
 4325              		.section	.bss.count_beacon,"aw",%nobits
 4326              		.align	2
 4327              		.set	.LANCHOR16,. + 0
 4330              	count_beacon:
 4331 0000 00000000 		.space	4
 4332              		.section	.bss.count_pos,"aw",%nobits
 4333              		.align	2
 4334              		.set	.LANCHOR10,. + 0
 4337              	count_pos:
 4338 0000 00000000 		.space	4
 4339              		.section	.bss.count_storehouse,"aw",%nobits
 4340              		.align	2
 4343              	count_storehouse:
 4344 0000 00000000 		.space	4
 4345              		.section	.bss.destination,"aw",%nobits
 4346              		.align	2
 4347              		.set	.LANCHOR8,. + 0
 4350              	destination:
 4351 0000 00000000 		.space	8
 4351      00000000 
 4352              		.section	.bss.dis_cur,"aw",%nobits
 4353              		.align	2
 4354              		.set	.LANCHOR14,. + 0
 4357              	dis_cur:
 4358 0000 00000000 		.space	4
 4359              		.section	.bss.dis_obj,"aw",%nobits
 4360              		.align	2
 4363              	dis_obj:
 4364 0000 00000000 		.space	4
 4365              		.section	.bss.dis_pre,"aw",%nobits
 4366              		.align	2
 4367              		.set	.LANCHOR15,. + 0
 4370              	dis_pre:
 4371 0000 00000000 		.space	4
 4372              		.section	.bss.distance1,"aw",%nobits
 4373              		.align	2
 4376              	distance1:
 4377 0000 00000000 		.space	4
 4378              		.section	.bss.distance2,"aw",%nobits
 4379              		.align	2
 4382              	distance2:
 4383 0000 00000000 		.space	4
 4384              		.section	.bss.distance3,"aw",%nobits
 4385              		.align	2
 4388              	distance3:
 4389 0000 00000000 		.space	4
 4390              		.section	.bss.distance4,"aw",%nobits
 4391              		.align	2
 4394              	distance4:
 4395 0000 00000000 		.space	4
 4396              		.section	.bss.goto_state,"aw",%nobits
 4397              		.align	2
 4398              		.set	.LANCHOR5,. + 0
 4401              	goto_state:
ARM GAS  C:\Users\zhangjd\AppData\Local\Temp\ccXlXJUr.s 			page 105


 4402 0000 00000000 		.space	4
 4403              		.section	.bss.now,"aw",%nobits
 4404              		.align	1
 4407              	now:
 4408 0000 0000     		.space	2
 4409              		.section	.bss.obj_x,"aw",%nobits
 4410              		.align	2
 4413              	obj_x:
 4414 0000 00000000 		.space	4
 4415              		.section	.bss.obj_y,"aw",%nobits
 4416              		.align	2
 4419              	obj_y:
 4420 0000 00000000 		.space	4
 4421              		.section	.bss.prev_type,"aw",%nobits
 4422              		.align	2
 4423              		.set	.LANCHOR6,. + 0
 4426              	prev_type:
 4427 0000 00000000 		.space	4
 4428              		.section	.bss.score,"aw",%nobits
 4429              		.align	2
 4430              		.set	.LANCHOR17,. + 0
 4433              	score:
 4434 0000 00000000 		.space	4
 4435              		.section	.bss.state,"aw",%nobits
 4436              		.align	2
 4437              		.set	.LANCHOR0,. + 0
 4440              	state:
 4441 0000 00000000 		.space	12
 4441      00000000 
 4441      00000000 
 4442              		.section	.data.State,"aw"
 4443              		.align	2
 4444              		.set	.LANCHOR9,. + 0
 4447              	State:
 4448 0000 FFFFFFFF 		.word	-1
 4449              		.section	.data.rep,"aw"
 4450              		.align	2
 4451              		.set	.LANCHOR7,. + 0
 4454              	rep:
 4455 0000 0F000000 		.word	15
 4456 0004 0F000000 		.word	15
 4457 0008 7F000000 		.word	127
 4458 000c 0F000000 		.word	15
 4459 0010 EF000000 		.word	239
 4460 0014 7F000000 		.word	127
 4461 0018 EF000000 		.word	239
 4462 001c EF000000 		.word	239
 4463 0020 7F000000 		.word	127
 4464 0024 EF000000 		.word	239
 4465 0028 0F000000 		.word	15
 4466 002c EF000000 		.word	239
 4467 0030 0F000000 		.word	15
 4468 0034 7F000000 		.word	127
 4469 0038 00000000 		.space	8
 4469      00000000 
 4470              		.section	.data.resource_location,"aw"
 4471              		.align	2
ARM GAS  C:\Users\zhangjd\AppData\Local\Temp\ccXlXJUr.s 			page 106


 4472              		.set	.LANCHOR12,. + 0
 4475              	resource_location:
 4476 0000 FFFFFFFF 		.word	-1
 4477 0004 FFFFFFFF 		.word	-1
 4478 0008 FFFFFFFF 		.word	-1
 4479 000c FFFFFFFF 		.word	-1
 4480 0010 00000000 		.word	0
 4481 0014 FFFFFFFF 		.word	-1
 4482              		.section	.rodata.ATAN_LUT,"a"
 4483              		.align	3
 4484              		.set	.LANCHOR1,. + 0
 4487              	ATAN_LUT:
 4488 0000 00000000 		.word	0
 4489 0004 00000000 		.word	0
 4490 0008 5433EAA8 		.word	-1461046444
 4491 000c 0A10703F 		.word	1064308746
 4492 0010 CC612179 		.word	2032230860
 4493 0014 FA0F803F 		.word	1065357306
 4494 0018 DF063C3E 		.word	1044121311
 4495 001c CF17883F 		.word	1065883599
 4496 0020 AAE9B5BB 		.word	-1145706070
 4497 0024 B90F903F 		.word	1066405817
 4498 0028 D1C82B7C 		.word	2083244241
 4499 002c 6B13943F 		.word	1066668907
 4500 0030 1E0653CA 		.word	-900528610
 4501 0034 F416983F 		.word	1066931956
 4502 0038 C2702695 		.word	-1792642878
 4503 003c 4D1A9C3F 		.word	1067194957
 4504 0040 F752ACE6 		.word	-424914185
 4505 0044 B60EA03F 		.word	1067454134
 4506 0048 6808AAB2 		.word	-1297479576
 4507 004c 2610A23F 		.word	1067585574
 4508 0050 4A759D28 		.word	681407818
 4509 0054 7211A43F 		.word	1067716978
 4510 0058 2D520746 		.word	1174884909
 4511 005c 9512A63F 		.word	1067848341
 4512 0060 A3576808 		.word	141055907
 4513 0064 8C13A83F 		.word	1067979660
 4514 0068 36C18C71 		.word	1905049910
 4515 006c 5214AA3F 		.word	1068110930
 4516 0070 73E36482 		.word	-2107317389
 4517 0074 E414AC3F 		.word	1068242148
 4518 0078 DE63E441 		.word	1105486814
 4519 007c 3E15AE3F 		.word	1068373310
 4520 0080 FD737FDB 		.word	-612404227
 4521 0084 AD0AB03F 		.word	1068501677
 4522 0088 22CC7976 		.word	1987693602
 4523 008c 9C0AB13F 		.word	1068567196
 4524 0090 9DB55CF8 		.word	-128141923
 4525 0094 680AB23F 		.word	1068632680
 4526 0098 286DC969 		.word	1774808360
 4527 009c 110AB33F 		.word	1068698129
 4528 00a0 FC09ABD4 		.word	-726988292
 4529 00a4 9309B43F 		.word	1068763539
 4530 00a8 4E588045 		.word	1166039118
 4531 00ac EE08B53F 		.word	1068828910
 4532 00b0 D41736C9 		.word	-919201836
ARM GAS  C:\Users\zhangjd\AppData\Local\Temp\ccXlXJUr.s 			page 107


 4533 00b4 1E08B63F 		.word	1068894238
 4534 00b8 BDB0BA6F 		.word	1874505917
 4535 00bc 2307B73F 		.word	1068959523
 4536 00c0 B84C224B 		.word	1260539064
 4537 00c4 FA05B83F 		.word	1069024762
 4538 00c8 6FE3386F 		.word	1865999215
 4539 00cc A104B93F 		.word	1069089953
 4540 00d0 0D4714F1 		.word	-250329331
 4541 00d4 1603BA3F 		.word	1069155094
 4542 00d8 B5CC15EA 		.word	-367670091
 4543 00dc 5801BB3F 		.word	1069220184
 4544 00e0 88B07A74 		.word	1954197640
 4545 00e4 65FFBB3F 		.word	1069285221
 4546 00e8 A6E313AD 		.word	-1391205466
 4547 00ec 3AFDBC3F 		.word	1069350202
 4548 00f0 29F321B4 		.word	-1272843479
 4549 00f4 D6FABD3F 		.word	1069415126
 4550 00f8 A9462FAB 		.word	-1422965079
 4551 00fc 37F8BE3F 		.word	1069479991
 4552 0100 1832D5CE 		.word	-824888808
 4553 0104 5BF5BF3F 		.word	1069544795
 4554 0108 34B81880 		.word	-2145863628
 4555 010c 2079C03F 		.word	1069578528
 4556 0110 22B021D8 		.word	-668880862
 4557 0114 72F7C03F 		.word	1069610866
 4558 0118 695D7EFA 		.word	-92381847
 4559 011c A375C13F 		.word	1069643171
 4560 0120 4C1F41FF 		.word	-12509364
 4561 0124 B2F3C13F 		.word	1069675442
 4562 0128 CA1C6B00 		.word	7019722
 4563 012c 9F71C23F 		.word	1069707679
 4564 0130 216AA218 		.word	413297185
 4565 0134 67EFC23F 		.word	1069739879
 4566 0138 4CCA5765 		.word	1700252236
 4567 013c 0A6DC33F 		.word	1069772042
 4568 0140 43E7D704 		.word	81258307
 4569 0144 88EAC33F 		.word	1069804168
 4570 0148 3F3FF016 		.word	384843583
 4571 014c DF67C43F 		.word	1069836255
 4572 0150 730502BE 		.word	-1107163789
 4573 0154 0EE5C43F 		.word	1069868302
 4574 0158 525A131D 		.word	487807570
 4575 015c 1662C53F 		.word	1069900310
 4576 0160 4A13BE59 		.word	1505629002
 4577 0164 F4DEC53F 		.word	1069932276
 4578 0168 09DA1C9B 		.word	-1692607991
 4579 016c A85BC63F 		.word	1069964200
 4580 0170 3A26020A 		.word	167913018
 4581 0174 32D8C63F 		.word	1069996082
 4582 0178 843DF8D0 		.word	-789037692
 4583 017c 8F54C73F 		.word	1070027919
 4584 0180 CE20E61C 		.word	484843726
 4585 0184 C1D0C73F 		.word	1070059713
 4586 0188 F99E6A1C 		.word	476749561
 4587 018c C54CC83F 		.word	1070091461
 4588 0190 275BA5FF 		.word	-5940441
 4589 0194 9AC8C83F 		.word	1070123162
ARM GAS  C:\Users\zhangjd\AppData\Local\Temp\ccXlXJUr.s 			page 108


 4590 0198 F4B9DBF8 		.word	-119817740
 4591 019c 4144C93F 		.word	1070154817
 4592 01a0 FBD4E63C 		.word	1021760763
 4593 01a4 B9BFC93F 		.word	1070186425
 4594 01a8 53A0E901 		.word	32088147
 4595 01ac 003BCA3F 		.word	1070217984
 4596 01b0 93D12C80 		.word	-2144546413
 4597 01b4 15B6CA3F 		.word	1070249493
 4598 01b8 8DD955F2 		.word	-229254771
 4599 01bc F830CB3F 		.word	1070280952
 4600 01c0 0EF7C194 		.word	-1799227634
 4601 01c4 A9ABCB3F 		.word	1070312361
 4602 01c8 662AF4A5 		.word	-1510725018
 4603 01cc 2626CC3F 		.word	1070343718
 4604 01d0 DB280367 		.word	1728260315
 4605 01d4 6FA0CC3F 		.word	1070375023
 4606 01d8 36824F1A 		.word	441418294
 4607 01dc 831ACD3F 		.word	1070406275
 4608 01e0 FA740405 		.word	84178170
 4609 01e4 6194CD3F 		.word	1070437473
 4610 01e8 68073C6E 		.word	1849427816
 4611 01ec 080ECE3F 		.word	1070468616
 4612 01f0 BCF4A39F 		.word	-1616644932
 4613 01f4 7887CE3F 		.word	1070499704
 4614 01f8 B3D233E4 		.word	-466365773
 4615 01fc B000CF3F 		.word	1070530736
 4616 0200 42D91B8A 		.word	-1977886398
 4617 0204 B079CF3F 		.word	1070561712
 4618 0208 9E140DE1 		.word	-519236450
 4619 020c 76F2CF3F 		.word	1070592630
 4620 0210 DD9FC19D 		.word	-1648255011
 4621 0214 8135D03F 		.word	1070609793
 4622 0218 A06EF476 		.word	1995730592
 4623 021c AA71D03F 		.word	1070625194
 4624 0220 B01867A7 		.word	-1486415696
 4625 0224 B5ADD03F 		.word	1070640565
 4626 0228 7F17C7DB 		.word	-607709313
 4627 022c A2E9D03F 		.word	1070655906
 4628 0230 81CB9DC1 		.word	-1046623359
 4629 0234 7125D13F 		.word	1070671217
 4630 0238 85ECD907 		.word	131722373
 4631 023c 2261D13F 		.word	1070686498
 4632 0240 5A19465E 		.word	1581652314
 4633 0244 B39CD13F 		.word	1070701747
 4634 0248 0FC52D76 		.word	1982711055
 4635 024c 25D8D13F 		.word	1070716965
 4636 0250 6F43EF01 		.word	32457583
 4637 0254 7813D23F 		.word	1070732152
 4638 0258 45CFC4B4 		.word	-1262170299
 4639 025c AA4ED23F 		.word	1070747306
 4640 0260 78F48443 		.word	1132786808
 4641 0264 BD89D23F 		.word	1070762429
 4642 0268 D0A2FD63 		.word	1677566672
 4643 026c AFC4D23F 		.word	1070777519
 4644 0270 D2AA0FCD 		.word	-854611246
 4645 0274 80FFD23F 		.word	1070792576
 4646 0278 63340137 		.word	922825827
ARM GAS  C:\Users\zhangjd\AppData\Local\Temp\ccXlXJUr.s 			page 109


 4647 027c 313AD33F 		.word	1070807601
 4648 0280 43CB0F5B 		.word	1527761731
 4649 0284 C074D33F 		.word	1070822592
 4650 0288 74CFF9F3 		.word	-201732236
 4651 028c 2DAFD33F 		.word	1070837549
 4652 0290 F48759BD 		.word	-1118205964
 4653 0294 79E9D33F 		.word	1070852473
 4654 0298 2E5F21AF 		.word	-1356767442
 4655 029c A323D43F 		.word	1070867363
 4656 02a0 74F938D6 		.word	-700909196
 4657 02a4 AA5DD43F 		.word	1070882218
 4658 02a8 2A8B27A3 		.word	-1557689558
 4659 02ac 8F97D43F 		.word	1070897039
 4660 02b0 BA054E9B 		.word	-1689385542
 4661 02b4 51D1D43F 		.word	1070911825
 4662 02b8 1A014A80 		.word	-2142633702
 4663 02bc F00AD53F 		.word	1070926576
 4664 02c0 BFEF0215 		.word	352513983
 4665 02c4 6C44D53F 		.word	1070941292
 4666 02c8 DD24731D 		.word	494085341
 4667 02cc C47DD53F 		.word	1070955972
 4668 02d0 4551C35E 		.word	1589858629
 4669 02d4 F8B6D53F 		.word	1070970616
 4670 02d8 68834A9F 		.word	-1622506648
 4671 02dc 08F0D53F 		.word	1070985224
 4672 02e0 1321C5A6 		.word	-1497030381
 4673 02e4 F428D63F 		.word	1070999796
 4674 02e8 1377CB3D 		.word	1036744467
 4675 02ec BC61D63F 		.word	1071014332
 4676 02f0 B4AC3F2E 		.word	775924916
 4677 02f4 5F9AD63F 		.word	1071028831
 4678 02f8 BEC34D43 		.word	1129169854
 4679 02fc DDD2D63F 		.word	1071043293
 4680 0300 DB211949 		.word	1226383835
 4681 0304 360BD73F 		.word	1071057718
 4682 0308 2F070F0D 		.word	219088687
 4683 030c 6A43D73F 		.word	1071072106
 4684 0310 A094AF5D 		.word	1571787936
 4685 0314 787BD73F 		.word	1071086456
 4686 0318 7042E00A 		.word	182469232
 4687 031c 61B3D73F 		.word	1071100769
 4688 0320 FA434AEB 		.word	-347454470
 4689 0324 23EBD73F 		.word	1071115043
 4690 0328 D4D925BF 		.word	-1088038444
 4691 032c C022D83F 		.word	1071129280
 4692 0330 A617646B 		.word	1801721766
 4693 0334 375AD83F 		.word	1071143479
 4694 0338 73A169BE 		.word	-1100373645
 4695 033c 8791D83F 		.word	1071157639
 4696 0340 17D0958D 		.word	-1919561705
 4697 0344 B1C8D83F 		.word	1071171761
 4698 0348 ECD691AF 		.word	-1349396756
 4699 034c B4FFD83F 		.word	1071185844
 4700 0350 49D0E2FB 		.word	-69021623
 4701 0354 9036D93F 		.word	1071199888
 4702 0358 06B1574B 		.word	1264038150
 4703 035c 466DD93F 		.word	1071213894
ARM GAS  C:\Users\zhangjd\AppData\Local\Temp\ccXlXJUr.s 			page 110


 4704 0360 96CBED77 		.word	2012072854
 4705 0364 D4A3D93F 		.word	1071227860
 4706 0368 6D597E5C 		.word	1551784301
 4707 036c 3BDAD93F 		.word	1071241787
 4708 0370 7D6E2CD5 		.word	-718508419
 4709 0374 7A10DA3F 		.word	1071255674
 4710 0378 978212BF 		.word	-1089305961
 4711 037c 9246DA3F 		.word	1071269522
 4712 0380 09E894F8 		.word	-124458999
 4713 0384 827CDA3F 		.word	1071283330
 4714 0388 21D8F360 		.word	1626593313
 4715 038c 4BB2DA3F 		.word	1071297099
 4716 0390 CAE99DD8 		.word	-660739638
 4717 0394 EBE7DA3F 		.word	1071310827
 4718 0398 CF17F940 		.word	1090066383
 4719 039c 641DDB3F 		.word	1071324516
 4720 03a0 B93D7E7C 		.word	2088648121
 4721 03a4 B452DB3F 		.word	1071338164
 4722 03a8 AF94D46E 		.word	1859425455
 4723 03ac DC87DB3F 		.word	1071351772
 4724 03b0 F8BF63FC 		.word	-60571656
 4725 03b4 DBBCDB3F 		.word	1071365339
 4726 03b8 38BAF80A 		.word	184072760
 4727 03bc B3F1DB3F 		.word	1071378867
 4728 03c0 32E82081 		.word	-2128549838
 4729 03c4 6126DC3F 		.word	1071392353
 4730 03c8 688F7C46 		.word	1182568296
 4731 03cc E75ADC3F 		.word	1071405799
 4732 03d0 1BD6BE43 		.word	1136580123
 4733 03d4 448FDC3F 		.word	1071419204
 4734 03d8 69469262 		.word	1653753449
 4735 03dc 78C3DC3F 		.word	1071432568
 4736 03e0 70517D8D 		.word	-1921166992
 4737 03e4 83F7DC3F 		.word	1071445891
 4738 03e8 0D4919B0 		.word	-1340520179
 4739 03ec 652BDD3F 		.word	1071459173
 4740 03f0 DB5F12B7 		.word	-1223532581
 4741 03f4 1E5FDD3F 		.word	1071472414
 4742 03f8 9232D58F 		.word	-1881853294
 4743 03fc AE92DD3F 		.word	1071485614
 4744 0400 AD3EE128 		.word	685850285
 4745 0404 15C6DD3F 		.word	1071498773
 4746 0408 60E2C871 		.word	1908990560
 4747 040c 52F9DD3F 		.word	1071511890
 4748 0410 2369C35A 		.word	1522755875
 4749 0414 662CDE3F 		.word	1071524966
 4750 0418 4982FFD4 		.word	-721452471
 4751 041c 505FDE3F 		.word	1071538000
 4752 0420 A6B7F5D2 		.word	-755648602
 4753 0424 1192DE3F 		.word	1071550993
 4754 0428 AC097147 		.word	1198590380
 4755 042c A9C4DE3F 		.word	1071563945
 4756 0430 2BD0A126 		.word	648138795
 4757 0434 17F7DE3F 		.word	1071576855
 4758 0438 53D34165 		.word	1698812755
 4759 043c 5B29DF3F 		.word	1071589723
 4760 0440 F23839F9 		.word	-113690382
ARM GAS  C:\Users\zhangjd\AppData\Local\Temp\ccXlXJUr.s 			page 111


 4761 0444 755BDF3F 		.word	1071602549
 4762 0448 3597F9D8 		.word	-654731467
 4763 044c 668DDF3F 		.word	1071615334
 4764 0450 096507FC 		.word	-66624247
 4765 0454 2DBFDF3F 		.word	1071628077
 4766 0458 7783A75A 		.word	1520927607
 4767 045c CBF0DF3F 		.word	1071640779
 4768 0460 B41B0B77 		.word	1997216692
 4769 0464 1F11E03F 		.word	1071649055
 4770 0468 F4172858 		.word	1479022580
 4771 046c C429E03F 		.word	1071655364
 4772 0470 9D84FB4D 		.word	1308329117
 4773 0474 5442E03F 		.word	1071661652
 4774 0478 C3E15156 		.word	1448206787
 4775 047c CF5AE03F 		.word	1071667919
 4776 0480 6961736F 		.word	1869832553
 4777 0484 3573E03F 		.word	1071674165
 4778 0488 502FDF97 		.word	-1746981040
 4779 048c 868BE03F 		.word	1071680390
 4780 0490 2A2990CE 		.word	-829413078
 4781 0494 C2A3E03F 		.word	1071686594
 4782 0498 2820EF12 		.word	317661224
 4783 049c EABBE03F 		.word	1071692778
 4784 04a0 3ADF9B64 		.word	1687936826
 4785 04a4 FCD3E03F 		.word	1071698940
 4786 04a8 2060CDC3 		.word	-1009950688
 4787 04ac F9EBE03F 		.word	1071705081
 4788 04b0 5996F130 		.word	821139033
 4789 04b4 E203E13F 		.word	1071711202
 4790 04b8 05ECC8AC 		.word	-1396118523
 4791 04bc B51BE13F 		.word	1071717301
 4792 04c0 A13B9D38 		.word	949828513
 4793 04c4 7433E13F 		.word	1071723380
 4794 04c8 DB17FDD5 		.word	-704833573
 4795 04cc 1D4BE13F 		.word	1071729437
 4796 04d0 220DAE86 		.word	-2035413726
 4797 04d4 B262E13F 		.word	1071735474
 4798 04d8 4118FF4C 		.word	1291786305
 4799 04dc 327AE13F 		.word	1071741490
 4800 04e0 35EE832B 		.word	730066485
 4801 04e4 9D91E13F 		.word	1071747485
 4802 04e8 2AFC1425 		.word	622132266
 4803 04ec F3A8E13F 		.word	1071753459
 4804 04f0 CCA2F83C 		.word	1022927564
 4805 04f4 34C0E13F 		.word	1071759412
 4806 04f8 F6FAB976 		.word	1991899894
 4807 04fc 60D7E13F 		.word	1071765344
 4808 0500 B2D528D6 		.word	-701966926
 4809 0504 77EEE13F 		.word	1071771255
 4810 0508 8BF7825F 		.word	1602418571
 4811 050c 7A05E23F 		.word	1071777146
 4812 0510 5A602F17 		.word	388980826
 4813 0514 681CE23F 		.word	1071783016
 4814 0518 E8C11002 		.word	34652648
 4815 051c 4133E23F 		.word	1071788865
 4816 0520 50093325 		.word	624101712
 4817 0524 054AE23F 		.word	1071794693
ARM GAS  C:\Users\zhangjd\AppData\Local\Temp\ccXlXJUr.s 			page 112


 4818 0528 489AF485 		.word	-2047567288
 4819 052c B460E23F 		.word	1071800500
 4820 0530 BA90F829 		.word	704155834
 4821 0534 4F77E23F 		.word	1071806287
 4822 0538 2D7F3417 		.word	389316397
 4823 053c D58DE23F 		.word	1071812053
 4824 0540 C86EF053 		.word	1408265928
 4825 0544 46A4E23F 		.word	1071817798
 4826 0548 02A49DE6 		.word	-425876478
 4827 054c A2BAE23F 		.word	1071823522
 4828 0550 F3D9FFD5 		.word	-704652813
 4829 0554 EAD0E23F 		.word	1071829226
 4830 0558 50422D29 		.word	690831952
 4831 055c 1EE7E23F 		.word	1071834910
 4832 0560 1F4A65E7 		.word	-412792289
 4833 0564 3CFDE23F 		.word	1071840572
 4834 0568 95162C18 		.word	405542549
 4835 056c 4713E33F 		.word	1071846215
 4836 0570 F90166C3 		.word	-1016724999
 4837 0574 3C29E33F 		.word	1071851836
 4838 0578 FE2405F1 		.word	-251321090
 4839 057c 1D3FE33F 		.word	1071857437
 4840 0580 F90E4EA9 		.word	-1454502151
 4841 0584 EA54E33F 		.word	1071863018
 4842 0588 4F84E5F4 		.word	-186284977
 4843 058c A26AE33F 		.word	1071868578
 4844 0590 624970DC 		.word	-596620958
 4845 0594 4680E33F 		.word	1071874118
 4846 0598 3899E568 		.word	1759877432
 4847 059c D695E33F 		.word	1071879638
 4848 05a0 72258FA3 		.word	-1550899854
 4849 05a4 51ABE33F 		.word	1071885137
 4850 05a8 941CD295 		.word	-1781392236
 4851 05ac B8C0E33F 		.word	1071890616
 4852 05b0 71E83C49 		.word	1228728433
 4853 05b4 0BD6E33F 		.word	1071896075
 4854 05b8 7B69B0C7 		.word	-944739973
 4855 05bc 49EBE33F 		.word	1071901513
 4856 05c0 5338521B 		.word	458373203
 4857 05c4 7400E43F 		.word	1071906932
 4858 05c8 2D2F3A4E 		.word	1312436013
 4859 05cc 8A15E43F 		.word	1071912330
 4860 05d0 B81BEE6A 		.word	1793989560
 4861 05d4 8C2AE43F 		.word	1071917708
 4862 05d8 F7061D7C 		.word	2082277111
 4863 05dc 7A3FE43F 		.word	1071923066
 4864 05e0 5AB8838C 		.word	-1937524646
 4865 05e4 5454E43F 		.word	1071928404
 4866 05e8 622C3FA7 		.word	-1489032094
 4867 05ec 1A69E43F 		.word	1071933722
 4868 05f0 905F6CD7 		.word	-680763504
 4869 05f4 CC7DE43F 		.word	1071939020
 4870 05f8 94066D28 		.word	678233748
 4871 05fc 6B92E43F 		.word	1071944299
 4872 0600 6D11CCA5 		.word	-1513352851
 4873 0604 F5A6E43F 		.word	1071949557
 4874 0608 DC694B5B 		.word	1531668956
ARM GAS  C:\Users\zhangjd\AppData\Local\Temp\ccXlXJUr.s 			page 113


 4875 060c 6CBBE43F 		.word	1071954796
 4876 0610 7F76C854 		.word	1422423679
 4877 0614 CFCFE43F 		.word	1071960015
 4878 0618 D71A3C9E 		.word	-1640228137
 4879 061c 1EE4E43F 		.word	1071965214
 4880 0620 93F2E343 		.word	1139012243
 4881 0624 5AF8E43F 		.word	1071970394
 4882 0628 B0D42652 		.word	1378276528
 4883 062c 820CE53F 		.word	1071975554
 4884 0630 2F986BD5 		.word	-714368977
 4885 0634 9620E53F 		.word	1071980694
 4886 0638 AC8A6BDA 		.word	-630486356
 4887 063c 9734E53F 		.word	1071985815
 4888 0640 C8F9DF6D 		.word	1843395016
 4889 0644 8548E53F 		.word	1071990917
 4890 0648 DF2CB99C 		.word	-1665585953
 4891 064c 5F5CE53F 		.word	1071995999
 4892 0650 9FA61074 		.word	1947248287
 4893 0654 2670E53F 		.word	1072001062
 4894 0658 26A80D01 		.word	17672230
 4895 065c DA83E53F 		.word	1072006106
 4896 0660 E3AD0051 		.word	1358999011
 4897 0664 7A97E53F 		.word	1072011130
 4898 0668 916F6371 		.word	1902342033
 4899 066c 07ABE53F 		.word	1072016135
 4900 0670 CE21CB6F 		.word	1875583438
 4901 0674 81BEE53F 		.word	1072021121
 4902 0678 A8B7DA59 		.word	1507506088
 4903 067c E8D1E53F 		.word	1072026088
 4904 0680 7B5F5E3D 		.word	1029595003
 4905 0684 3CE5E53F 		.word	1072031036
 4906 0688 F3824B28 		.word	676037363
 4907 068c 7DF8E53F 		.word	1072035965
 4908 0690 BE8B9728 		.word	681020350
 4909 0694 AB0BE63F 		.word	1072040875
 4910 0698 47DD6E4C 		.word	1282334023
 4911 069c C61EE63F 		.word	1072045766
 4912 06a0 6B990BA2 		.word	-1576298133
 4913 06a4 CE31E63F 		.word	1072050638
 4914 06a8 07E2A737 		.word	933749255
 4915 06ac C444E63F 		.word	1072055492
 4916 06b0 954FD01B 		.word	466636693
 4917 06b4 A757E63F 		.word	1072060327
 4918 06b8 B2FDF55C 		.word	1559625138
 4919 06bc 776AE63F 		.word	1072065143
 4920 06c0 BA01C109 		.word	163643834
 4921 06c4 357DE63F 		.word	1072069941
 4922 06c8 98B2CB30 		.word	818655896
 4923 06cc E08FE63F 		.word	1072074720
 4924 06d0 F860E7E0 		.word	-521707272
 4925 06d4 78A2E63F 		.word	1072079480
 4926 06d8 F51BF328 		.word	687021045
 4927 06dc FFB4E63F 		.word	1072084223
 4928 06e0 1AB1DB17 		.word	400273690
 4929 06e4 73C7E63F 		.word	1072088947
 4930 06e8 62AC9BBC 		.word	-1130648478
 4931 06ec D4D9E63F 		.word	1072093652
ARM GAS  C:\Users\zhangjd\AppData\Local\Temp\ccXlXJUr.s 			page 114


 4932 06f0 AA164926 		.word	642324138
 4933 06f4 24ECE63F 		.word	1072098340
 4934 06f8 AA751564 		.word	1679127978
 4935 06fc 61FEE63F 		.word	1072103009
 4936 0700 B0902485 		.word	-2061201232
 4937 0704 8C10E73F 		.word	1072107660
 4938 0708 C428D198 		.word	-1731123004
 4939 070c A522E73F 		.word	1072112293
 4940 0710 834068AE 		.word	-1368899453
 4941 0714 AC34E73F 		.word	1072116908
 4942 0718 665752D5 		.word	-716023962
 4943 071c A146E73F 		.word	1072121505
 4944 0720 58AB051D 		.word	486910808
 4945 0724 8558E73F 		.word	1072126085
 4946 0728 B4380695 		.word	-1794754380
 4947 072c 566AE73F 		.word	1072130646
 4948 0730 43BAE54C 		.word	1290123843
 4949 0734 167CE73F 		.word	1072135190
 4950 0738 41A94354 		.word	1413720385
 4951 073c C48DE73F 		.word	1072139716
 4952 0740 573DCDBA 		.word	-1160954537
 4953 0744 609FE73F 		.word	1072144224
 4954 0748 31AE2F90 		.word	-1875923407
 4955 074c EBB0E73F 		.word	1072148715
 4956 0750 E7F125E4 		.word	-467275289
 4957 0754 64C2E73F 		.word	1072153188
 4958 0758 747B86C6 		.word	-964265100
 4959 075c CCD3E73F 		.word	1072157644
 4960 0760 D1BD2747 		.word	1193786833
 4961 0764 23E5E73F 		.word	1072162083
 4962 0768 FA2BE075 		.word	1977625594
 4963 076c 68F6E73F 		.word	1072166504
 4964 0770 58F79362 		.word	1653864280
 4965 0774 9C07E83F 		.word	1072170908
 4966 0778 C40F351D 		.word	490016708
 4967 077c BF18E83F 		.word	1072175295
 4968 0780 8923C3B5 		.word	-1245502583
 4969 0784 D029E83F 		.word	1072179664
 4970 0788 8122303C 		.word	1009787521
 4971 078c D13AE83F 		.word	1072184017
 4972 0790 F4BA7BC0 		.word	-1065633036
 4973 0794 C04BE83F 		.word	1072188352
 4974 0798 0E18C152 		.word	1388386318
 4975 079c 9F5CE83F 		.word	1072192671
 4976 07a0 17E8FF02 		.word	50325527
 4977 07a4 6D6DE83F 		.word	1072196973
 4978 07a8 395653E1 		.word	-514632135
 4979 07ac 297EE83F 		.word	1072201257
 4980 07b0 9E8DD6FD 		.word	-36270690
 4981 07b4 D58EE83F 		.word	1072205525
 4982 07b8 E077B268 		.word	1756526560
 4983 07bc 719FE83F 		.word	1072209777
 4984 07c0 B881F431 		.word	838107576
 4985 07c4 FCAFE83F 		.word	1072214012
 4986 07c8 C094C569 		.word	1774556352
 4987 07cc 76C0E83F 		.word	1072218230
 4988 07d0 01595C20 		.word	542923009
ARM GAS  C:\Users\zhangjd\AppData\Local\Temp\ccXlXJUr.s 			page 115


 4989 07d4 E0D0E83F 		.word	1072222432
 4990 07d8 A5F9D365 		.word	1708390821
 4991 07dc 39E1E83F 		.word	1072226617
 4992 07e0 B51E634A 		.word	1248009909
 4993 07e4 82F1E83F 		.word	1072230786
 4994 07e8 CBB132DE 		.word	-567103029
 4995 07ec BA01E93F 		.word	1072234938
 4996 07f0 819C6B31 		.word	829136001
 4997 07f4 E311E93F 		.word	1072239075
 4998 07f8 E0864454 		.word	1413777120
 4999 07fc FB21E93F 		.word	1072243195
 5000              		.section	.rodata.Kd,"a"
 5001              		.align	2
 5004              	Kd:
 5005 0000 00004842 		.word	1112014848
 5006              		.section	.rodata.Ki,"a"
 5007              		.align	2
 5010              	Ki:
 5011 0000 0000ECC2 		.word	-1024720896
 5012              		.section	.rodata.Kp,"a"
 5013              		.align	2
 5016              	Kp:
 5017 0000 00009643 		.word	1133903872
 5018              		.text
 5019              	.Letext0:
 5020              		.file 3 "d:\\program files (x86)\\gnu arm embedded toolchain\\10 2021.07\\arm-none-eabi\\include\\
 5021              		.file 4 "d:\\program files (x86)\\gnu arm embedded toolchain\\10 2021.07\\arm-none-eabi\\include\\
 5022              		.file 5 "Drivers/CMSIS/Device/ST/STM32F1xx/Include/stm32f103xe.h"
 5023              		.file 6 "Drivers/STM32F1xx_HAL_Driver/Inc/stm32f1xx_hal_def.h"
 5024              		.file 7 "Drivers/STM32F1xx_HAL_Driver/Inc/stm32f1xx_hal_rcc.h"
 5025              		.file 8 "Drivers/STM32F1xx_HAL_Driver/Inc/stm32f1xx_hal_rcc_ex.h"
 5026              		.file 9 "Drivers/STM32F1xx_HAL_Driver/Inc/stm32f1xx_hal_gpio.h"
 5027              		.file 10 "Drivers/STM32F1xx_HAL_Driver/Inc/stm32f1xx_hal_dma.h"
 5028              		.file 11 "Drivers/STM32F1xx_HAL_Driver/Inc/stm32f1xx_hal_tim.h"
 5029              		.file 12 "Drivers/STM32F1xx_HAL_Driver/Inc/stm32f1xx_hal_uart.h"
 5030              		.file 13 "Core/Inc/tim.h"
 5031              		.file 14 "Core/Inc/usart.h"
 5032              		.file 15 "Core/Inc/zigbee.h"
 5033              		.file 16 "Core/Inc/jy62.h"
 5034              		.file 17 "Drivers/STM32F1xx_HAL_Driver/Inc/stm32f1xx_hal.h"
 5035              		.file 18 "Core/Inc/gpio.h"
 5036              		.file 19 "Core/Inc/dma.h"
 5037              		.file 20 "<built-in>"
ARM GAS  C:\Users\zhangjd\AppData\Local\Temp\ccXlXJUr.s 			page 116


DEFINED SYMBOLS
                            *ABS*:00000000 main.c
C:\Users\zhangjd\AppData\Local\Temp\ccXlXJUr.s:20     .text.pid:00000000 $t
C:\Users\zhangjd\AppData\Local\Temp\ccXlXJUr.s:28     .text.pid:00000000 pid
C:\Users\zhangjd\AppData\Local\Temp\ccXlXJUr.s:128    .text.pid:00000064 $d
C:\Users\zhangjd\AppData\Local\Temp\ccXlXJUr.s:137    .text.Abs:00000000 $t
C:\Users\zhangjd\AppData\Local\Temp\ccXlXJUr.s:144    .text.Abs:00000000 Abs
C:\Users\zhangjd\AppData\Local\Temp\ccXlXJUr.s:168    .text.qiuyu360:00000000 $t
C:\Users\zhangjd\AppData\Local\Temp\ccXlXJUr.s:175    .text.qiuyu360:00000000 qiuyu360
C:\Users\zhangjd\AppData\Local\Temp\ccXlXJUr.s:240    .text.qiuyu360:00000038 $d
C:\Users\zhangjd\AppData\Local\Temp\ccXlXJUr.s:245    .text.forward:00000000 $t
C:\Users\zhangjd\AppData\Local\Temp\ccXlXJUr.s:252    .text.forward:00000000 forward
C:\Users\zhangjd\AppData\Local\Temp\ccXlXJUr.s:336    .text.forward:00000070 $d
C:\Users\zhangjd\AppData\Local\Temp\ccXlXJUr.s:342    .text.backward:00000000 $t
C:\Users\zhangjd\AppData\Local\Temp\ccXlXJUr.s:349    .text.backward:00000000 backward
C:\Users\zhangjd\AppData\Local\Temp\ccXlXJUr.s:433    .text.backward:00000070 $d
C:\Users\zhangjd\AppData\Local\Temp\ccXlXJUr.s:439    .text.rotate_counterclockwise:00000000 $t
C:\Users\zhangjd\AppData\Local\Temp\ccXlXJUr.s:446    .text.rotate_counterclockwise:00000000 rotate_counterclockwise
C:\Users\zhangjd\AppData\Local\Temp\ccXlXJUr.s:530    .text.rotate_counterclockwise:00000070 $d
C:\Users\zhangjd\AppData\Local\Temp\ccXlXJUr.s:536    .text.rotate_clockwise:00000000 $t
C:\Users\zhangjd\AppData\Local\Temp\ccXlXJUr.s:543    .text.rotate_clockwise:00000000 rotate_clockwise
C:\Users\zhangjd\AppData\Local\Temp\ccXlXJUr.s:627    .text.rotate_clockwise:00000070 $d
C:\Users\zhangjd\AppData\Local\Temp\ccXlXJUr.s:633    .text.rotate_clockwise_plus_forward:00000000 $t
C:\Users\zhangjd\AppData\Local\Temp\ccXlXJUr.s:640    .text.rotate_clockwise_plus_forward:00000000 rotate_clockwise_plus_forward
C:\Users\zhangjd\AppData\Local\Temp\ccXlXJUr.s:721    .text.rotate_clockwise_plus_forward:00000074 $d
C:\Users\zhangjd\AppData\Local\Temp\ccXlXJUr.s:727    .text.brake:00000000 $t
C:\Users\zhangjd\AppData\Local\Temp\ccXlXJUr.s:734    .text.brake:00000000 brake
C:\Users\zhangjd\AppData\Local\Temp\ccXlXJUr.s:810    .text.brake:00000070 $d
C:\Users\zhangjd\AppData\Local\Temp\ccXlXJUr.s:817    .text.fabs:00000000 $t
C:\Users\zhangjd\AppData\Local\Temp\ccXlXJUr.s:824    .text.fabs:00000000 fabs
C:\Users\zhangjd\AppData\Local\Temp\ccXlXJUr.s:872    .text.atan2LUTif:00000000 $t
C:\Users\zhangjd\AppData\Local\Temp\ccXlXJUr.s:879    .text.atan2LUTif:00000000 atan2LUTif
C:\Users\zhangjd\AppData\Local\Temp\ccXlXJUr.s:1243   .text.atan2LUTif:000001f8 $d
C:\Users\zhangjd\AppData\Local\Temp\ccXlXJUr.s:1262   .text.Solve_Mine_Pos:00000000 $t
C:\Users\zhangjd\AppData\Local\Temp\ccXlXJUr.s:1269   .text.Solve_Mine_Pos:00000000 Solve_Mine_Pos
C:\Users\zhangjd\AppData\Local\Temp\ccXlXJUr.s:1731   .text.Solve_Mine_Pos:00000308 $d
C:\Users\zhangjd\AppData\Local\Temp\ccXlXJUr.s:1741   .text.Sol_Car_Pos_INIT:00000000 $t
C:\Users\zhangjd\AppData\Local\Temp\ccXlXJUr.s:1748   .text.Sol_Car_Pos_INIT:00000000 Sol_Car_Pos_INIT
C:\Users\zhangjd\AppData\Local\Temp\ccXlXJUr.s:1796   .text.Sol_Car_Pos_INIT:00000034 $d
C:\Users\zhangjd\AppData\Local\Temp\ccXlXJUr.s:1802   .text.Sol_Car_Pos:00000000 $t
C:\Users\zhangjd\AppData\Local\Temp\ccXlXJUr.s:1809   .text.Sol_Car_Pos:00000000 Sol_Car_Pos
C:\Users\zhangjd\AppData\Local\Temp\ccXlXJUr.s:2071   .text.Sol_Car_Pos:000001cc $d
C:\Users\zhangjd\AppData\Local\Temp\ccXlXJUr.s:2083   .text.Goto:00000000 $t
C:\Users\zhangjd\AppData\Local\Temp\ccXlXJUr.s:2090   .text.Goto:00000000 Goto
C:\Users\zhangjd\AppData\Local\Temp\ccXlXJUr.s:2448   .text.Goto:000001f4 $d
C:\Users\zhangjd\AppData\Local\Temp\ccXlXJUr.s:2458   .text.Get_Rep_opt:00000000 $t
C:\Users\zhangjd\AppData\Local\Temp\ccXlXJUr.s:2465   .text.Get_Rep_opt:00000000 Get_Rep_opt
C:\Users\zhangjd\AppData\Local\Temp\ccXlXJUr.s:2660   .text.Get_Rep_opt:000000cc $d
C:\Users\zhangjd\AppData\Local\Temp\ccXlXJUr.s:2669   .text.HAL_TIM_PeriodElapsedCallback:00000000 $t
C:\Users\zhangjd\AppData\Local\Temp\ccXlXJUr.s:2676   .text.HAL_TIM_PeriodElapsedCallback:00000000 HAL_TIM_PeriodElapsedCallback
C:\Users\zhangjd\AppData\Local\Temp\ccXlXJUr.s:2753   .text.HAL_TIM_PeriodElapsedCallback:00000044 $d
C:\Users\zhangjd\AppData\Local\Temp\ccXlXJUr.s:2768   .text.HAL_TIM_PeriodElapsedCallback:0000007c $t
C:\Users\zhangjd\AppData\Local\Temp\ccXlXJUr.s:3094   .text.HAL_TIM_PeriodElapsedCallback:00000258 $d
C:\Users\zhangjd\AppData\Local\Temp\ccXlXJUr.s:3111   .text.HAL_TIM_PeriodElapsedCallback:00000290 $t
C:\Users\zhangjd\AppData\Local\Temp\ccXlXJUr.s:3512   .text.HAL_TIM_PeriodElapsedCallback:000004a0 $d
C:\Users\zhangjd\AppData\Local\Temp\ccXlXJUr.s:3525   .text.HAL_TIM_PeriodElapsedCallback:000004c8 $t
C:\Users\zhangjd\AppData\Local\Temp\ccXlXJUr.s:3762   .text.HAL_TIM_PeriodElapsedCallback:00000644 $d
ARM GAS  C:\Users\zhangjd\AppData\Local\Temp\ccXlXJUr.s 			page 117


C:\Users\zhangjd\AppData\Local\Temp\ccXlXJUr.s:3774   .text.Error_Handler:00000000 $t
C:\Users\zhangjd\AppData\Local\Temp\ccXlXJUr.s:3781   .text.Error_Handler:00000000 Error_Handler
C:\Users\zhangjd\AppData\Local\Temp\ccXlXJUr.s:3813   .text.SystemClock_Config:00000000 $t
C:\Users\zhangjd\AppData\Local\Temp\ccXlXJUr.s:3820   .text.SystemClock_Config:00000000 SystemClock_Config
C:\Users\zhangjd\AppData\Local\Temp\ccXlXJUr.s:3925   .text.main:00000000 $t
C:\Users\zhangjd\AppData\Local\Temp\ccXlXJUr.s:3932   .text.main:00000000 main
C:\Users\zhangjd\AppData\Local\Temp\ccXlXJUr.s:4226   .text.main:0000019c $d
C:\Users\zhangjd\AppData\Local\Temp\ccXlXJUr.s:4440   .bss.state:00000000 state
C:\Users\zhangjd\AppData\Local\Temp\ccXlXJUr.s:5004   .rodata.Kd:00000000 Kd
C:\Users\zhangjd\AppData\Local\Temp\ccXlXJUr.s:5010   .rodata.Ki:00000000 Ki
C:\Users\zhangjd\AppData\Local\Temp\ccXlXJUr.s:5016   .rodata.Kp:00000000 Kp
C:\Users\zhangjd\AppData\Local\Temp\ccXlXJUr.s:4487   .rodata.ATAN_LUT:00000000 ATAN_LUT
C:\Users\zhangjd\AppData\Local\Temp\ccXlXJUr.s:4426   .bss.prev_type:00000000 prev_type
C:\Users\zhangjd\AppData\Local\Temp\ccXlXJUr.s:4350   .bss.destination:00000000 destination
C:\Users\zhangjd\AppData\Local\Temp\ccXlXJUr.s:4447   .data.State:00000000 State
C:\Users\zhangjd\AppData\Local\Temp\ccXlXJUr.s:4454   .data.rep:00000000 rep
C:\Users\zhangjd\AppData\Local\Temp\ccXlXJUr.s:4370   .bss.dis_pre:00000000 dis_pre
C:\Users\zhangjd\AppData\Local\Temp\ccXlXJUr.s:4357   .bss.dis_cur:00000000 dis_cur
C:\Users\zhangjd\AppData\Local\Temp\ccXlXJUr.s:4401   .bss.goto_state:00000000 goto_state
C:\Users\zhangjd\AppData\Local\Temp\ccXlXJUr.s:4407   .bss.now:00000000 now
C:\Users\zhangjd\AppData\Local\Temp\ccXlXJUr.s:4343   .bss.count_storehouse:00000000 count_storehouse
C:\Users\zhangjd\AppData\Local\Temp\ccXlXJUr.s:4330   .bss.count_beacon:00000000 count_beacon
C:\Users\zhangjd\AppData\Local\Temp\ccXlXJUr.s:4337   .bss.count_pos:00000000 count_pos
C:\Users\zhangjd\AppData\Local\Temp\ccXlXJUr.s:4433   .bss.score:00000000 score
C:\Users\zhangjd\AppData\Local\Temp\ccXlXJUr.s:4475   .data.resource_location:00000000 resource_location
C:\Users\zhangjd\AppData\Local\Temp\ccXlXJUr.s:4284   .bss.Prev_Pos_head:00000000 Prev_Pos_head
C:\Users\zhangjd\AppData\Local\Temp\ccXlXJUr.s:4277   .bss.Prev_Pos:00000000 Prev_Pos
C:\Users\zhangjd\AppData\Local\Temp\ccXlXJUr.s:4304   .bss.beacon_determinant:00000000 beacon_determinant
C:\Users\zhangjd\AppData\Local\Temp\ccXlXJUr.s:4311   .bss.car_Pos:00000000 car_Pos
C:\Users\zhangjd\AppData\Local\Temp\ccXlXJUr.s:4297   .bss.beacon_Pos:00000000 beacon_Pos
C:\Users\zhangjd\AppData\Local\Temp\ccXlXJUr.s:4323   .bss.car_y:00000000 car_y
C:\Users\zhangjd\AppData\Local\Temp\ccXlXJUr.s:4317   .bss.car_x:00000000 car_x
C:\Users\zhangjd\AppData\Local\Temp\ccXlXJUr.s:4419   .bss.obj_y:00000000 obj_y
C:\Users\zhangjd\AppData\Local\Temp\ccXlXJUr.s:4413   .bss.obj_x:00000000 obj_x
C:\Users\zhangjd\AppData\Local\Temp\ccXlXJUr.s:4363   .bss.dis_obj:00000000 dis_obj
C:\Users\zhangjd\AppData\Local\Temp\ccXlXJUr.s:4290   .bss.angle_obj:00000000 angle_obj
C:\Users\zhangjd\AppData\Local\Temp\ccXlXJUr.s:4394   .bss.distance4:00000000 distance4
C:\Users\zhangjd\AppData\Local\Temp\ccXlXJUr.s:4388   .bss.distance3:00000000 distance3
C:\Users\zhangjd\AppData\Local\Temp\ccXlXJUr.s:4382   .bss.distance2:00000000 distance2
C:\Users\zhangjd\AppData\Local\Temp\ccXlXJUr.s:4376   .bss.distance1:00000000 distance1
C:\Users\zhangjd\AppData\Local\Temp\ccXlXJUr.s:4273   .bss.Prev_Pos:00000000 $d
C:\Users\zhangjd\AppData\Local\Temp\ccXlXJUr.s:4280   .bss.Prev_Pos_head:00000000 $d
C:\Users\zhangjd\AppData\Local\Temp\ccXlXJUr.s:4287   .bss.angle_obj:00000000 $d
C:\Users\zhangjd\AppData\Local\Temp\ccXlXJUr.s:4293   .bss.beacon_Pos:00000000 $d
C:\Users\zhangjd\AppData\Local\Temp\ccXlXJUr.s:4300   .bss.beacon_determinant:00000000 $d
C:\Users\zhangjd\AppData\Local\Temp\ccXlXJUr.s:4307   .bss.car_Pos:00000000 $d
C:\Users\zhangjd\AppData\Local\Temp\ccXlXJUr.s:4314   .bss.car_x:00000000 $d
C:\Users\zhangjd\AppData\Local\Temp\ccXlXJUr.s:4320   .bss.car_y:00000000 $d
C:\Users\zhangjd\AppData\Local\Temp\ccXlXJUr.s:4326   .bss.count_beacon:00000000 $d
C:\Users\zhangjd\AppData\Local\Temp\ccXlXJUr.s:4333   .bss.count_pos:00000000 $d
C:\Users\zhangjd\AppData\Local\Temp\ccXlXJUr.s:4340   .bss.count_storehouse:00000000 $d
C:\Users\zhangjd\AppData\Local\Temp\ccXlXJUr.s:4346   .bss.destination:00000000 $d
C:\Users\zhangjd\AppData\Local\Temp\ccXlXJUr.s:4353   .bss.dis_cur:00000000 $d
C:\Users\zhangjd\AppData\Local\Temp\ccXlXJUr.s:4360   .bss.dis_obj:00000000 $d
C:\Users\zhangjd\AppData\Local\Temp\ccXlXJUr.s:4366   .bss.dis_pre:00000000 $d
C:\Users\zhangjd\AppData\Local\Temp\ccXlXJUr.s:4373   .bss.distance1:00000000 $d
C:\Users\zhangjd\AppData\Local\Temp\ccXlXJUr.s:4379   .bss.distance2:00000000 $d
ARM GAS  C:\Users\zhangjd\AppData\Local\Temp\ccXlXJUr.s 			page 118


C:\Users\zhangjd\AppData\Local\Temp\ccXlXJUr.s:4385   .bss.distance3:00000000 $d
C:\Users\zhangjd\AppData\Local\Temp\ccXlXJUr.s:4391   .bss.distance4:00000000 $d
C:\Users\zhangjd\AppData\Local\Temp\ccXlXJUr.s:4397   .bss.goto_state:00000000 $d
C:\Users\zhangjd\AppData\Local\Temp\ccXlXJUr.s:4404   .bss.now:00000000 $d
C:\Users\zhangjd\AppData\Local\Temp\ccXlXJUr.s:4410   .bss.obj_x:00000000 $d
C:\Users\zhangjd\AppData\Local\Temp\ccXlXJUr.s:4416   .bss.obj_y:00000000 $d
C:\Users\zhangjd\AppData\Local\Temp\ccXlXJUr.s:4422   .bss.prev_type:00000000 $d
C:\Users\zhangjd\AppData\Local\Temp\ccXlXJUr.s:4429   .bss.score:00000000 $d
C:\Users\zhangjd\AppData\Local\Temp\ccXlXJUr.s:4436   .bss.state:00000000 $d
C:\Users\zhangjd\AppData\Local\Temp\ccXlXJUr.s:4443   .data.State:00000000 $d
C:\Users\zhangjd\AppData\Local\Temp\ccXlXJUr.s:4450   .data.rep:00000000 $d
C:\Users\zhangjd\AppData\Local\Temp\ccXlXJUr.s:4471   .data.resource_location:00000000 $d
C:\Users\zhangjd\AppData\Local\Temp\ccXlXJUr.s:4483   .rodata.ATAN_LUT:00000000 $d
C:\Users\zhangjd\AppData\Local\Temp\ccXlXJUr.s:5001   .rodata.Kd:00000000 $d
C:\Users\zhangjd\AppData\Local\Temp\ccXlXJUr.s:5007   .rodata.Ki:00000000 $d
C:\Users\zhangjd\AppData\Local\Temp\ccXlXJUr.s:5013   .rodata.Kp:00000000 $d

UNDEFINED SYMBOLS
__aeabi_fmul
__aeabi_fadd
__aeabi_fcmpge
__aeabi_fcmple
__aeabi_fsub
__aeabi_fcmpgt
__aeabi_fcmplt
HAL_GPIO_WritePin
htim8
__aeabi_dcmpgt
__aeabi_dcmpeq
__aeabi_dsub
__aeabi_dcmplt
__aeabi_dmul
__aeabi_ddiv
__aeabi_d2iz
__aeabi_dadd
__aeabi_i2d
__aeabi_ui2d
__aeabi_d2f
__aeabi_f2d
__aeabi_dcmpge
__aeabi_dcmple
GetYaw
getParkDotMineType
getMyBeaconMineType
__aeabi_i2f
HAL_UART_Receive_DMA
getCarPosX
getCarPosY
getDistanceOfMyBeacon
getMineIntensity
getCarMineSumNum
jy62Receive
huart2
getCarScore
memset
HAL_RCC_OscConfig
HAL_RCC_ClockConfig
ARM GAS  C:\Users\zhangjd\AppData\Local\Temp\ccXlXJUr.s 			page 119


HAL_Init
jy62_Init
SetBaud
SetHorizontal
InitAngle
Calibrate
SleepOrAwake
MX_GPIO_Init
MX_TIM1_Init
MX_TIM2_Init
MX_TIM8_Init
MX_TIM3_Init
MX_TIM4_Init
MX_DMA_Init
MX_USART2_UART_Init
MX_USART1_UART_Init
MX_TIM5_Init
zigbee_Init
HAL_TIM_Base_Start_IT
HAL_TIM_PWM_Start
HAL_TIM_Encoder_Start
getGameState
getCarTask
getGameTime
huart1
htim1
htim2
htim3
htim4
htim5
