ARM GAS  C:\Users\wangw\AppData\Local\Temp\ccLETVy1.s 			page 1


   1              		.cpu cortex-m3
   2              		.eabi_attribute 20, 1
   3              		.eabi_attribute 21, 1
   4              		.eabi_attribute 23, 3
   5              		.eabi_attribute 24, 1
   6              		.eabi_attribute 25, 1
   7              		.eabi_attribute 26, 1
   8              		.eabi_attribute 30, 1
   9              		.eabi_attribute 34, 1
  10              		.eabi_attribute 18, 4
  11              		.file	"main.c"
  12              		.text
  13              	.Ltext0:
  14              		.cfi_sections	.debug_frame
  15              		.global	__aeabi_fmul
  16              		.global	__aeabi_fadd
  17              		.global	__aeabi_fcmpge
  18              		.global	__aeabi_fcmple
  19              		.section	.text.pid,"ax",%progbits
  20              		.align	1
  21              		.global	pid
  22              		.arch armv7-m
  23              		.syntax unified
  24              		.thumb
  25              		.thumb_func
  26              		.fpu softvfp
  28              	pid:
  29              	.LVL0:
  30              	.LFB68:
  31              		.file 1 "Core/Src/main.c"
   1:Core/Src/main.c **** /* USER CODE BEGIN Header */
   2:Core/Src/main.c **** /**
   3:Core/Src/main.c ****   ******************************************************************************
   4:Core/Src/main.c ****   * @file           : main.c
   5:Core/Src/main.c ****   * @brief          : Main program body
   6:Core/Src/main.c ****   ******************************************************************************
   7:Core/Src/main.c ****   * @attention
   8:Core/Src/main.c ****   *
   9:Core/Src/main.c ****   * <h2><center>&copy; Copyright (c) 2021 STMicroelectronics.
  10:Core/Src/main.c ****   * All rights reserved.</center></h2>
  11:Core/Src/main.c ****   *
  12:Core/Src/main.c ****   * This software component is licensed by ST under BSD 3-Clause license,
  13:Core/Src/main.c ****   * the "License"; You may not use this file except in compliance with the
  14:Core/Src/main.c ****   * License. You may obtain a copy of the License at:
  15:Core/Src/main.c ****   *                        opensource.org/licenses/BSD-3-Clause
  16:Core/Src/main.c ****   *
  17:Core/Src/main.c ****   ******************************************************************************
  18:Core/Src/main.c ****   */
  19:Core/Src/main.c **** /* USER CODE END Header */
  20:Core/Src/main.c **** /* Includes ------------------------------------------------------------------*/
  21:Core/Src/main.c **** #include "main.h"
  22:Core/Src/main.c **** #include "dma.h"
  23:Core/Src/main.c **** #include "tim.h"
  24:Core/Src/main.c **** #include "usart.h"
  25:Core/Src/main.c **** #include "gpio.h"
  26:Core/Src/main.c **** 
  27:Core/Src/main.c **** /* Private includes ----------------------------------------------------------*/
ARM GAS  C:\Users\wangw\AppData\Local\Temp\ccLETVy1.s 			page 2


  28:Core/Src/main.c **** /* USER CODE BEGIN Includes */
  29:Core/Src/main.c **** #include "jy62.h"
  30:Core/Src/main.c **** #include "zigbee.h"
  31:Core/Src/main.c **** /* USER CODE END Includes */
  32:Core/Src/main.c **** 
  33:Core/Src/main.c **** /* Private typedef -----------------------------------------------------------*/
  34:Core/Src/main.c **** /* USER CODE BEGIN PTD */
  35:Core/Src/main.c **** 
  36:Core/Src/main.c **** //////////////////////////////////////Âü∫Êú¨‰ø°ÊÅØ///////////////////////////////////////////
  37:Core/Src/main.c **** //ÂÆöÊó∂Âô®Âë®Êúü‰∏∫50ms
  38:Core/Src/main.c **** 
  39:Core/Src/main.c **** volatile float distance1 = 0.0, distance2 = 0.0, distance3 = 0.0, distance4 = 0.0;
  40:Core/Src/main.c **** extern uint8_t jy62Receive[JY62_MESSAGE_LENGTH];
  41:Core/Src/main.c **** extern uint8_t jy62Message[JY62_MESSAGE_LENGTH];
  42:Core/Src/main.c **** 
  43:Core/Src/main.c **** // float angle_obj, dis_obj;         //Êú™‰ΩøÁî®ÁöÑÂÖ®Â±ÄÂèòÈáè??
  44:Core/Src/main.c **** // float obj_x, obj_y, car_x, car_y; //Êú™‰ΩøÁî®ÁöÑÂÖ®Â±ÄÂèòÈáè??
  45:Core/Src/main.c **** 
  46:Core/Src/main.c **** //////////////////////////////////////Sol_Car_PosÂáΩÊï∞ÂèòÈáèÂÆö‰πâ////////////////////////////////
  47:Core/Src/main.c **** int beacon_Pos[6];               //‰∏â‰∏™‰ø°Ê†áÂùêÊ†áÔºå‰æùÊ¨°Â≠òÊîæx_1„ÄÅy_1„ÄÅx_2„ÄÅy_2„ÄÅx_3„ÄÅy
  48:Core/Src/main.c **** int car_Pos[2];                  //Â∞èËΩ¶ÂΩìÂâçÂùêÊ†á
  49:Core/Src/main.c **** double beacon_determinant = 0.0; //ËÆ°ÁÆó‰∏≠Èó¥ÂèòÈáè
  50:Core/Src/main.c **** //////////////////////////////////////Sol_Car_PosÂáΩÊï∞ÂÆö‰πâÁªìÊùü////////////////////////////////
  51:Core/Src/main.c **** //////////////////////////////////////Ê±ÇËß£ÈáëÁüø‰ΩçÁΩÆ‰∏≠Èó¥ÂèòÈáèÂÆπÂô®/////////////////////////
  52:Core/Src/main.c **** //Ê±ÇËß£ÈáëÁüø‰ΩçÁΩÆÔøΩ??Ë¶ÅÁî®Âà∞ÂΩìÂâçÊó∂ÂàªÔøΩ?ÔøΩ‰∏äÔøΩ??Êó∂Âàª„ÄÅ‰∏ä‰∏ä‰∏™Êó∂ÂàªÁöÑÂ∞èËΩ¶‰ΩçÁΩ
  53:Core/Src/main.c **** struct Sol_Mine_Pos_Temp
  54:Core/Src/main.c **** {
  55:Core/Src/main.c ****     uint16_t x;   //Â∞èËΩ¶xÂùêÊ†á
  56:Core/Src/main.c ****     uint16_t y;   //Â∞èËΩ¶yÂùêÊ†á
  57:Core/Src/main.c ****     uint32_t E_1; //Âú∫Âº∫1
  58:Core/Src/main.c ****     uint32_t E_2; //Âú∫Âº∫2
  59:Core/Src/main.c **** } Prev_Pos[3] = {{0, 0, 0}, {0, 0, 0}, {0, 0, 0}};
  60:Core/Src/main.c **** short Prev_Pos_head = 0;
  61:Core/Src/main.c **** ////////////////////////////////////Ê±ÇËß£ÈáëÁüø‰ΩçÁΩÆ‰∏≠Èó¥ÂèòÈáèÂÆπÂô®ÁªìÊùü/////////////////////
  62:Core/Src/main.c **** 
  63:Core/Src/main.c **** struct A //ËµÑÊ∫êÂùêÊ†á
  64:Core/Src/main.c **** {
  65:Core/Src/main.c ****     int x[2];         //(x[0],y[0])ÊòØÁ¨¨ÔøΩ??‰∏™ËµÑÊ∫êÁöÑÂùêÊ†á
  66:Core/Src/main.c ****     int y[2];         //(x[1],y[1])ÊòØÁ¨¨‰∫å‰∏™ËµÑÊ∫êÁöÑÂùêÔøΩ??
  67:Core/Src/main.c ****     int iscalculated; //ÊòØÂê¶Ë¢´ËÆ°ÁÆóÂá∫ÔøΩ?? 0-false
  68:Core/Src/main.c ****     int priority;     //ÔøΩ??ËøëËµÑÊ∫êÁöÑ‰∏ãÊ†á
  69:Core/Src/main.c **** } resource_location = {{-1, -1}, {-1, -1}, 0, -1};
  70:Core/Src/main.c **** int score;                //ÂæóÂàÜÔøΩ??
  71:Core/Src/main.c **** int count_pos = 0;        //ÂùêÊ†áËÆ°Êï∞Âô®ÔºåÂåπÈÖç‰∏ä‰ΩçÊú∫È¢ëÁéá
  72:Core/Src/main.c **** int count_beacon = 0;     //‰ø°Ê†áËÆ°Êï∞Âô®ÔºåÁ°Æ‰øùÂÅúÁïô‰∏ÄÁßí
  73:Core/Src/main.c **** int count_storehouse = 0; //‰ªìÂ∫ìËÆ°Êó∂Âô®ÔºåÁ°Æ‰øùÂÅúÁïô‰∏§Áßí
  74:Core/Src/main.c **** uint16_t now;             //ËÆ∞ÂΩïÂΩìÂâçÊó∂Èó¥
  75:Core/Src/main.c **** 
  76:Core/Src/main.c **** short Round=1;            //ÂõûÂêàÊï∞
  77:Core/Src/main.c **** short trigger=0;          //ÂÆöÊó∂Âô®Ëß¶ÂèëÊ†áÂøóÈáèÔºåÂèñ1Êó∂Ëß¶Âèë
  78:Core/Src/main.c **** 
  79:Core/Src/main.c **** int goto_state = 0;
  80:Core/Src/main.c **** float dis_cur, dis_pre;
  81:Core/Src/main.c **** //‰ªìÂ∫ìÂùêÊ†á
  82:Core/Src/main.c **** int rep[8][2] = {{15, 15},
  83:Core/Src/main.c ****                  {127, 15},
  84:Core/Src/main.c ****                  {239, 127},
ARM GAS  C:\Users\wangw\AppData\Local\Temp\ccLETVy1.s 			page 3


  85:Core/Src/main.c ****                  {239, 239},
  86:Core/Src/main.c ****                  {127, 239},
  87:Core/Src/main.c ****                  {15, 239},
  88:Core/Src/main.c ****                  {15, 127}};
  89:Core/Src/main.c **** int beacons[3][2]={{127,30},{127,127},{60,127}};    //‰∏â‰∏™‰ø°Ê†áÁöÑÁêÜÊÉ≥‰ΩçÁΩÆ
  90:Core/Src/main.c **** int beacon_idx=-1;
  91:Core/Src/main.c **** 
  92:Core/Src/main.c **** int State = -1;
  93:Core/Src/main.c **** //Áä∂ÔøΩ?ÔøΩÂèòÈáèÂØπÂ∫îË°®
  94:Core/Src/main.c **** // -1-ÊØîËµõÊú™ÂºÄÂßãÊàñÂ∑≤ÁªìÔøΩ?
  95:Core/Src/main.c **** // 0-ÂàùÂßã/ÈöèÊÑèÊ∏∏Ëµ∞Ëß£ËµÑÊ∫êÂùêÔøΩ?
  96:Core/Src/main.c **** // 1-Â∑≤Ëé∑ÂæóËµÑÊ∫êÂùêÊ†áÔºåÂéªÁ¨¨ÔøΩ?‰∏™ËµÑÔøΩ?
  97:Core/Src/main.c **** // 2-Â∑≤Êç°Ëµ∑Á¨¨ÔøΩ?‰∏™ËµÑÊ∫êÔºåÂéªÁ¨¨‰∫å‰∏™
  98:Core/Src/main.c **** // 3-ËµÑÊ∫êÂÖ®ÈÉ®Êç°Âà∞ÔºåÂéªÊîæÁ¨¨ÔøΩ?‰∏™‰ø°ÔøΩ?(beacon)
  99:Core/Src/main.c **** // 4-ÂéªÊîæÁ¨¨‰∫å‰∏™‰ø°ÔøΩ?
 100:Core/Src/main.c **** // 5-ÂéªÊîæÁ¨¨‰∏â‰∏™‰ø°ÔøΩ?
 101:Core/Src/main.c **** // 6-Âéª‰ªìÔøΩ?
 102:Core/Src/main.c **** 
 103:Core/Src/main.c **** int destination[2]; //ÊîæÂà∞ÂÖ®Â±Ä
 104:Core/Src/main.c **** int prev_type;      //ÂÖ®Â±Ä ËÆ∞ÂΩï‰∏ä‰∏ÄÊ¨°ÊäµËææ‰ªìÂ∫ìÁöÑÁßçÁ±ª
 105:Core/Src/main.c **** int count_rep = 0;   //‰ªìÂ∫ìÂÅúÊ≠¢ËÆ°Êï∞Âô®
 106:Core/Src/main.c **** int current_Res = 0; //ËÆ∞ÂΩïÂΩìÂâçÂ∞èËΩ¶‰∏äÁöÑËµÑÊ∫êÔºå‰ª•‰æøÂêéÁª≠ÊØîËæÉ
 107:Core/Src/main.c **** 
 108:Core/Src/main.c **** #define forward_speed 1500
 109:Core/Src/main.c **** #define rotate_speed 3200
 110:Core/Src/main.c **** #define angle_err 2
 111:Core/Src/main.c **** /* USER CODE END PTD */
 112:Core/Src/main.c **** 
 113:Core/Src/main.c **** /* Private define ------------------------------------------------------------*/
 114:Core/Src/main.c **** /* USER CODE BEGIN PD */
 115:Core/Src/main.c **** //////////////////////////////////////Solve_Mine_PosÂáΩÊï∞ÂÆèÂÆöÔøΩ???/////////////////////////////
 116:Core/Src/main.c **** #define A_COFFIENT 1000000000.0 //ÈáëÁüøÂº∫Â∫¶Á≥ªÊï∞A
 117:Core/Src/main.c **** #define POS_ERR_TOL 4           //ÈáëÁüø‰ΩçÁΩÆËÆ°ÁÆóÁªìÊûúÂÅèÁ¶ªÂú∫Âú∞ÁöÑÊúÄÂ§ßËØØÔøΩ???
 118:Core/Src/main.c **** //////////////////////////////////////Solve_Mine_PosÂÆèÂÆö‰πâÁªìÔøΩ???/////////////////////////////
 119:Core/Src/main.c **** ////////////////////////////////////////atan2LUTifÂáΩÊï∞ÂÆèÂÆöÔøΩ???///////////////////////////////
 120:Core/Src/main.c **** #define M_PI_2 1.5707963
 121:Core/Src/main.c **** #define M_PI 3.141592654
 122:Core/Src/main.c **** #define M_PI_4_P_0273 1.05839816339744830962 //M_PI/4 + 0.273
 123:Core/Src/main.c **** const double ATAN_LUT[256] = {0.0000000000, 0.0039215485, 0.0078429764, 0.0117641631, 0.0156849881,
 124:Core/Src/main.c ****                               0.0235250710, 0.0274440882, 0.0313622624, 0.0352794736, 0.0391956019,
 125:Core/Src/main.c ****                               0.0470241318, 0.0509362949, 0.0548468980, 0.0587558227, 0.0626629506,
 126:Core/Src/main.c ****                               0.0704713446, 0.0743723758, 0.0782711405, 0.0821675224, 0.0860614053,
 127:Core/Src/main.c ****                               0.0938412126, 0.0977269074, 0.1016096438, 0.1054893085, 0.1093657884,
 128:Core/Src/main.c ****                               0.1171087446, 0.1209749978, 0.1248376255, 0.1286965013, 0.1325515323,
 129:Core/Src/main.c ****                               0.1402496096, 0.1440924408, 0.1479309912, 0.1517651553, 0.1555948280,
 130:Core/Src/main.c ****                               0.1632402828, 0.1670558588, 0.1708665312, 0.1746721990, 0.1784727620,
 131:Core/Src/main.c ****                               0.1860581771, 0.1898428334, 0.1936219929, 0.1973955598, 0.2011634395,
 132:Core/Src/main.c ****                               0.2086817623, 0.2124320205, 0.2161762215, 0.2199142752, 0.2236460927,
 133:Core/Src/main.c ****                               0.2310906672, 0.2348032511, 0.2385092525, 0.2422085871, 0.2459011721,
 134:Core/Src/main.c ****                               0.2532657662, 0.2569376146, 0.2606023917, 0.2642600199, 0.2679104224,
 135:Core/Src/main.c ****                               0.2751892491, 0.2788175253, 0.2824382800, 0.2860514417, 0.2896569404,
 136:Core/Src/main.c ****                               0.2968446734, 0.3004267728, 0.3040009393, 0.3075671084, 0.3111252164,
 137:Core/Src/main.c ****                               0.3182170002, 0.3217505544, 0.3252758042, 0.3287926915, 0.3323011594,
 138:Core/Src/main.c ****                               0.3392926145, 0.3427754932, 0.3462497357, 0.3497152904, 0.3531721069,
 139:Core/Src/main.c ****                               0.3600593294, 0.3634896400, 0.3669110217, 0.3703234297, 0.3737268255,
 140:Core/Src/main.c ****                               0.3805063771, 0.3838824615, 0.3872493632, 0.3906070437, 0.3939554653,
 141:Core/Src/main.c ****                               0.4006243869, 0.4039448169, 0.4072558481, 0.4105574480, 0.4138495853,
ARM GAS  C:\Users\wangw\AppData\Local\Temp\ccLETVy1.s 			page 4


 142:Core/Src/main.c ****                               0.4204053512, 0.4236689219, 0.4269229141, 0.4301673014, 0.4334020581,
 143:Core/Src/main.c ****                               0.4398425828, 0.4430483044, 0.4462443029, 0.4494305575, 0.4526070482,
 144:Core/Src/main.c ****                               0.4589306629, 0.4620777516, 0.4652150058, 0.4683424102, 0.4714599501,
 145:Core/Src/main.c ****                               0.4776653824, 0.4807532499, 0.4838312032, 0.4868992318, 0.4899573263,
 146:Core/Src/main.c ****                               0.4960436784, 0.4990719209, 0.5020901990, 0.5050985071, 0.5080968402,
 147:Core/Src/main.c ****                               0.5140635659, 0.5170319525, 0.5199903521, 0.5229387636, 0.5258771863,
 148:Core/Src/main.c ****                               0.5317240673, 0.5346325278, 0.5375310045, 0.5404195003, 0.5432980185,
 149:Core/Src/main.c ****                               0.5490251398, 0.5518737530, 0.5547124091, 0.5575411147, 0.5603598769,
 150:Core/Src/main.c ****                               0.5659676030, 0.5687565842, 0.5715356566, 0.5743048302, 0.5770641155,
 151:Core/Src/main.c ****                               0.5825530662, 0.5852827553, 0.5880026035, 0.5907126240, 0.5934128303,
 152:Core/Src/main.c ****                               0.5987838570, 0.6014547069, 0.6041158015, 0.6067671569, 0.6094087892,
 153:Core/Src/main.c ****                               0.6146629519, 0.6172755171, 0.6198784285, 0.6224717045, 0.6250553640,
 154:Core/Src/main.c ****                               0.6301939095, 0.6327488350, 0.6352942223, 0.6378300921, 0.6403564651,
 155:Core/Src/main.c ****                               0.6453808058, 0.6478788169, 0.6503674179, 0.6528466311, 0.6553164793,
 156:Core/Src/main.c ****                               0.6602281731, 0.6626700655, 0.6651026865, 0.6675260602, 0.6699402110,
 157:Core/Src/main.c ****                               0.6747409422, 0.6771275725, 0.6795050796, 0.6818734889, 0.6842328261,
 158:Core/Src/main.c ****                               0.6889243882, 0.6912566655, 0.6935799756, 0.6958943450, 0.6981998008,
 159:Core/Src/main.c ****                               0.7027840796, 0.7050629571, 0.7073330300, 0.7095943260, 0.7118468729,
 160:Core/Src/main.c ****                               0.7163258312, 0.7185522990, 0.7207701302, 0.7229793534, 0.7251799971,
 161:Core/Src/main.c ****                               0.7295556609, 0.7317307387, 0.7338973524, 0.7360555311, 0.7382053040,
 162:Core/Src/main.c ****                               0.7424797493, 0.7446044805, 0.7467209234, 0.7488291075, 0.7509290624,
 163:Core/Src/main.c ****                               0.7551044035, 0.7571798492, 0.7592471847, 0.7613064400, 0.7633576449,
 164:Core/Src/main.c ****                               0.7674360235, 0.7694632573, 0.7714825607, 0.7734939638, 0.7754974968,
 165:Core/Src/main.c ****                               0.7794810727, 0.7814611759, 0.7834335294, 0.7853981634};
 166:Core/Src/main.c **** ////////////////////////////////////////atan2LUTifÂÆèÂÆö‰πâÁªìÔøΩ???///////////////////////////////
 167:Core/Src/main.c **** 
 168:Core/Src/main.c **** /* USER CODE END PD */
 169:Core/Src/main.c **** 
 170:Core/Src/main.c **** /* Private macro -------------------------------------------------------------*/
 171:Core/Src/main.c **** /* USER CODE BEGIN PM */
 172:Core/Src/main.c **** 
 173:Core/Src/main.c **** /* USER CODE END PM */
 174:Core/Src/main.c **** 
 175:Core/Src/main.c **** /* Private variables ---------------------------------------------------------*/
 176:Core/Src/main.c **** 
 177:Core/Src/main.c **** /* USER CODE BEGIN PV */
 178:Core/Src/main.c **** const float Kp = 300.0;
 179:Core/Src/main.c **** const float Ki = -118;
 180:Core/Src/main.c **** const float Kd = 50;
 181:Core/Src/main.c **** float state[3] = {0.0};
 182:Core/Src/main.c **** /* USER CODE END PV */
 183:Core/Src/main.c **** 
 184:Core/Src/main.c **** /* Private function prototypes -----------------------------------------------*/
 185:Core/Src/main.c **** void SystemClock_Config(void);
 186:Core/Src/main.c **** /* USER CODE BEGIN PFP */
 187:Core/Src/main.c **** 
 188:Core/Src/main.c **** /* USER CODE END PFP */
 189:Core/Src/main.c **** 
 190:Core/Src/main.c **** /* Private user code ---------------------------------------------------------*/
 191:Core/Src/main.c **** /* USER CODE BEGIN 0 */
 192:Core/Src/main.c **** 
 193:Core/Src/main.c **** void HAL_TIM_PeriodElapsedCallback(TIM_HandleTypeDef *htim)
 194:Core/Src/main.c **** {
 195:Core/Src/main.c ****     HAL_UART_Receive_DMA(&huart2, jy62Receive, JY62_MESSAGE_LENGTH);
 196:Core/Src/main.c ****     count_pos++;
 197:Core/Src/main.c ****     if (htim->Instance == TIM1)
 198:Core/Src/main.c ****     {
ARM GAS  C:\Users\wangw\AppData\Local\Temp\ccLETVy1.s 			page 5


 199:Core/Src/main.c ****         if (count_pos==2){  //Êé•Êî∂Âà∞‰∏ä‰ΩçÊú∫‰ø°ÊÅØÔºåÈúÄË¶ÅÊõ¥Êñ∞Â∞èËΩ¶‰ΩçÁΩÆ
 200:Core/Src/main.c ****             count_pos=0;
 201:Core/Src/main.c ****             trigger=1;
 202:Core/Src/main.c ****             if (Round==1){  //Á¨¨‰∏ÄÂõûÂêàÔºåÈÄöËøágetCarPosX()Êõ¥Êñ∞Â∞èËΩ¶xyÂùêÊ†á
 203:Core/Src/main.c ****                 car_Pos[0] = getCarPosX();
 204:Core/Src/main.c ****                 car_Pos[1] = getCarPosY(); ///Êõ¥Êñ∞Â∞èËΩ¶xyÂùêÊ†á
 205:Core/Src/main.c ****             }
 206:Core/Src/main.c ****             else
 207:Core/Src/main.c ****                 Sol_Car_Pos(getDistanceOfMyBeacon(0), getDistanceOfMyBeacon(1), getDistanceOfMyBeac
 208:Core/Src/main.c ****         }
 209:Core/Src/main.c ****     }
 210:Core/Src/main.c **** }
 211:Core/Src/main.c **** /* USER CODE END 0 */
 212:Core/Src/main.c **** 
 213:Core/Src/main.c **** /**
 214:Core/Src/main.c ****   * @brief  The application entry point.
 215:Core/Src/main.c ****   * @retval int
 216:Core/Src/main.c ****   */
 217:Core/Src/main.c **** int main(void)
 218:Core/Src/main.c **** {
 219:Core/Src/main.c ****     /* USER CODE BEGIN 1 */
 220:Core/Src/main.c ****     /* USER CODE END 1 */
 221:Core/Src/main.c **** 
 222:Core/Src/main.c ****     /* MCU Configuration--------------------------------------------------------*/
 223:Core/Src/main.c **** 
 224:Core/Src/main.c ****     /* Reset of all peripherals, Initializes the Flash interface and the Systick. */
 225:Core/Src/main.c ****     HAL_Init();
 226:Core/Src/main.c **** 
 227:Core/Src/main.c ****     /* USER CODE BEGIN Init */
 228:Core/Src/main.c ****     jy62_Init(&huart2);
 229:Core/Src/main.c ****     SetBaud(115200);
 230:Core/Src/main.c ****     SetHorizontal();
 231:Core/Src/main.c ****     InitAngle();
 232:Core/Src/main.c ****     Calibrate();
 233:Core/Src/main.c ****     SleepOrAwake();
 234:Core/Src/main.c ****     /* USER CODE END Init */
 235:Core/Src/main.c **** 
 236:Core/Src/main.c ****     /* Configure the system clock */
 237:Core/Src/main.c ****     SystemClock_Config();
 238:Core/Src/main.c **** 
 239:Core/Src/main.c ****     /* USER CODE BEGIN SysInit */
 240:Core/Src/main.c **** 
 241:Core/Src/main.c ****     /* USER CODE END SysInit */
 242:Core/Src/main.c **** 
 243:Core/Src/main.c ****     /* Initialize all configured peripherals */
 244:Core/Src/main.c ****     MX_GPIO_Init();
 245:Core/Src/main.c ****     MX_TIM1_Init();
 246:Core/Src/main.c ****     MX_TIM2_Init();
 247:Core/Src/main.c ****     MX_TIM8_Init();
 248:Core/Src/main.c ****     MX_TIM3_Init();
 249:Core/Src/main.c ****     MX_TIM4_Init();
 250:Core/Src/main.c ****     MX_DMA_Init();
 251:Core/Src/main.c ****     MX_USART2_UART_Init();
 252:Core/Src/main.c ****     MX_USART1_UART_Init();
 253:Core/Src/main.c ****     MX_TIM5_Init();
 254:Core/Src/main.c ****     /* USER CODE BEGIN 2 */
 255:Core/Src/main.c ****     zigbee_Init(&huart1);
ARM GAS  C:\Users\wangw\AppData\Local\Temp\ccLETVy1.s 			page 6


 256:Core/Src/main.c ****     HAL_TIM_Base_Start_IT(&htim1);
 257:Core/Src/main.c ****     HAL_TIM_PWM_Start(&htim8, TIM_CHANNEL_1);
 258:Core/Src/main.c ****     HAL_TIM_PWM_Start(&htim8, TIM_CHANNEL_2);
 259:Core/Src/main.c ****     HAL_TIM_PWM_Start(&htim8, TIM_CHANNEL_3);
 260:Core/Src/main.c ****     HAL_TIM_PWM_Start(&htim8, TIM_CHANNEL_4);
 261:Core/Src/main.c ****     HAL_TIM_Encoder_Start(&htim2, TIM_CHANNEL_1);
 262:Core/Src/main.c ****     HAL_TIM_Encoder_Start(&htim2, TIM_CHANNEL_2);
 263:Core/Src/main.c ****     HAL_TIM_Encoder_Start(&htim3, TIM_CHANNEL_1);
 264:Core/Src/main.c ****     HAL_TIM_Encoder_Start(&htim3, TIM_CHANNEL_2);
 265:Core/Src/main.c ****     HAL_TIM_Encoder_Start(&htim4, TIM_CHANNEL_1);
 266:Core/Src/main.c ****     HAL_TIM_Encoder_Start(&htim4, TIM_CHANNEL_2);
 267:Core/Src/main.c ****     HAL_TIM_Encoder_Start(&htim5, TIM_CHANNEL_1);
 268:Core/Src/main.c ****     HAL_TIM_Encoder_Start(&htim5, TIM_CHANNEL_2);
 269:Core/Src/main.c ****     jy62_Init(&huart2);
 270:Core/Src/main.c ****     void jy62_Init(UART_HandleTypeDef * huart);
 271:Core/Src/main.c **** 
 272:Core/Src/main.c ****     HAL_GPIO_WritePin(GPIOB, GPIO_PIN_0, GPIO_PIN_SET);
 273:Core/Src/main.c ****     HAL_GPIO_WritePin(GPIOB, GPIO_PIN_1, GPIO_PIN_RESET);
 274:Core/Src/main.c ****     HAL_GPIO_WritePin(GPIOB, GPIO_PIN_2, GPIO_PIN_RESET);
 275:Core/Src/main.c ****     HAL_GPIO_WritePin(GPIOB, GPIO_PIN_10, GPIO_PIN_SET);
 276:Core/Src/main.c ****     HAL_GPIO_WritePin(GPIOB, GPIO_PIN_11, GPIO_PIN_SET);
 277:Core/Src/main.c ****     HAL_GPIO_WritePin(GPIOB, GPIO_PIN_12, GPIO_PIN_RESET);
 278:Core/Src/main.c ****     HAL_GPIO_WritePin(GPIOB, GPIO_PIN_13, GPIO_PIN_RESET);
 279:Core/Src/main.c ****     HAL_GPIO_WritePin(GPIOB, GPIO_PIN_14, GPIO_PIN_SET);
 280:Core/Src/main.c ****     /* USER CODE END 2 */
 281:Core/Src/main.c **** 
 282:Core/Src/main.c ****     /* Infinite loop */
 283:Core/Src/main.c ****     /* USER CODE BEGIN WHILE */
 284:Core/Src/main.c ****     while (1)
 285:Core/Src/main.c ****     {
 286:Core/Src/main.c ****         /* USER CODE END WHILE */
 287:Core/Src/main.c **** 
 288:Core/Src/main.c ****         /* USER CODE BEGIN 3 */
 289:Core/Src/main.c ****         if (trigger){
 290:Core/Src/main.c ****             trigger=0;          //ÈáçÁΩÆËß¶ÂèëÊ†áÂøóÈáè
 291:Core/Src/main.c ****             ///////////////////////////////////Âà§Êñ≠ÊØîËµõÁä∂ÊÄÅ//////////////////////////////////
 292:Core/Src/main.c ****             if (getGameState() == 3){   //ÊöÇÂÅú
 293:Core/Src/main.c ****                 State = -1;
 294:Core/Src/main.c ****             }
 295:Core/Src/main.c ****             if ((getGameState() == 1) && (getCarTask() == 0) && (State < 0)){ //‰∏äÂçäÂú∫ÂºÄÂßã
 296:Core/Src/main.c ****                 State = 0;
 297:Core/Src/main.c ****             }
 298:Core/Src/main.c ****             if ((getGameState() == 1) && (getCarTask() == 1)){ //‰∏ãÂçäÂú∫ÂºÄÂßã
 299:Core/Src/main.c ****                 Round=1;
 300:Core/Src/main.c ****                 if (State < 10){
 301:Core/Src/main.c ****                     State = 10;
 302:Core/Src/main.c ****                     beacon_determinant = -beacon_Pos[0] * beacon_Pos[3] + beacon_Pos[2] * beacon_Po
 303:Core/Src/main.c ****                 }
 304:Core/Src/main.c ****                 if ((getGameTime() > 1000) && (State < 12)) //ÔøΩ?ÂêéÊó∂ÔøΩ?
 305:Core/Src/main.c ****                     State = 12;
 306:Core/Src/main.c ****             }
 307:Core/Src/main.c ****             /////////////////////////////////Âà§Êñ≠ÊØîËµõÁä∂ÊÄÅÁªìÊùü//////////////////////////////
 308:Core/Src/main.c **** 
 309:Core/Src/main.c ****             switch (State){
 310:Core/Src/main.c ****                 case (0): //ÂàùÂßãÁä∂ÊÄÅ??
 311:Core/Src/main.c ****                 {
 312:Core/Src/main.c ****                     //Ê≠•È™§1ÔºöÈöèÊÑèËµ∞
ARM GAS  C:\Users\wangw\AppData\Local\Temp\ccLETVy1.s 			page 7


 313:Core/Src/main.c ****                     rotate_clockwise_plus_forward(rotate_speed); ///ÂàùÂßãÊó∂ËΩ¨ÂúàÔºåÁ°ÆÂÆöËµÑÊ∫êÂ
 314:Core/Src/main.c ****                     if (Solve_Mine_Pos(Prev_Pos[0].x, Prev_Pos[0].y, Prev_Pos[0].E_1, Prev_Pos[1].x
 315:Core/Src/main.c ****                     {
 316:Core/Src/main.c ****                         //Âà©Áî®Solve_Mine_PosÂáΩÊï∞ËøîÂõûÂÄºÁõ¥Êé•Âà§Êñ≠ËÆ°ÁÆóÊòØÂê¶ÊàêÔøΩ??
 317:Core/Src/main.c ****                         State = 1; //ËøõÂÖ•‰∏ã‰∏ÄÁä∂ÔøΩ??
 318:Core/Src/main.c ****                         //Ê≠•È™§3ÔºöÁ°ÆÂÆöÁ¶ªËΩ¶ÊúÄËøëÁöÑÔøΩ??ÔøΩ??
 319:Core/Src/main.c ****                         resource_location.priority = (resource_location.x[0] * resource_location.x[
 320:Core/Src/main.c ****                         break;
 321:Core/Src/main.c ****                     }
 322:Core/Src/main.c ****                     else
 323:Core/Src/main.c ****                     {
 324:Core/Src/main.c ****                         //caseËÆ°ÁÆó‰∏çÊàêÂäüÔºåÔøΩ??Ë¶ÅÊõ¥Êñ∞‰ΩçÁΩÆ‰∏éÂú∫Âº∫‰ø°ÊÅØÔºåÈáçÊñ∞ËÆ°ÁÆóÔ
 325:Core/Src/main.c ****                         Prev_Pos[Prev_Pos_head].x = getCarPosX();          //Âà©Áî®getCarPosXÂáΩÊï∞
 326:Core/Src/main.c ****                         Prev_Pos[Prev_Pos_head].y = getCarPosY();          //Âêå‰∏ä
 327:Core/Src/main.c ****                         Prev_Pos[Prev_Pos_head].E_1 = getMineIntensity(0); //Âà©Áî®getMineIntensity
 328:Core/Src/main.c ****                         Prev_Pos[Prev_Pos_head].E_2 = getMineIntensity(1); //Âêå‰∏ä
 329:Core/Src/main.c ****                         Prev_Pos_head = (Prev_Pos_head + 1) % 3;           //Â§¥ÊåáÈíàÂæ™ÁéØÂú∞ÂêéÁ
 330:Core/Src/main.c ****                         break;
 331:Core/Src/main.c ****                     }
 332:Core/Src/main.c ****                 }
 333:Core/Src/main.c ****                 case (1):
 334:Core/Src/main.c ****                 {
 335:Core/Src/main.c ****                     //ÂéªÊúÄËøëÁöÑËµÑÊ∫ê
 336:Core/Src/main.c ****                     Goto(resource_location.x[resource_location.priority], resource_location.y[resou
 337:Core/Src/main.c ****                     if (getCarMineSumNum() == 1)
 338:Core/Src/main.c ****                     {
 339:Core/Src/main.c ****                         State = 2; //ËøõÂÖ•‰∏ã‰∏ÄÁä∂ÊÄÅ
 340:Core/Src/main.c ****                         goto_state = 0;
 341:Core/Src/main.c ****                     }
 342:Core/Src/main.c ****                     break;
 343:Core/Src/main.c ****                 }
 344:Core/Src/main.c ****                 case (2):
 345:Core/Src/main.c ****                 {
 346:Core/Src/main.c ****                     //ÂéªÁ¨¨‰∫å‰∏™ËµÑÊ∫ê
 347:Core/Src/main.c ****                     Goto(resource_location.x[!resource_location.priority], resource_location.y[!res
 348:Core/Src/main.c ****                     if (getCarMineSumNum() == 2)
 349:Core/Src/main.c ****                     {
 350:Core/Src/main.c ****                         State = 3; //ËøõÂÖ•‰∏ã‰∏ÄÁä∂ÊÄÅ
 351:Core/Src/main.c ****                         goto_state = 0;
 352:Core/Src/main.c ****                     }
 353:Core/Src/main.c ****                     break;
 354:Core/Src/main.c ****                 }
 355:Core/Src/main.c ****                 case (3):{
 356:Core/Src/main.c ****                     //‰ºòÂåñÂéª‰ø°Ê†áÁöÑ‰ΩçÁΩÆ
 357:Core/Src/main.c ****                     if (beacon_idx<0)  //idxËÆ∞ÂΩïÊúÄËøëÁöÑ‰ø°Ê†áÁöÑ‰∏ãÊ†á
 358:Core/Src/main.c ****                         beacon_idx=sort_beacons(car_Pos[0],car_Pos[1]);
 359:Core/Src/main.c ****                     //ÊîæÁΩÆÁ¨¨‰∏Ä‰∏™‰ø°Ê†á
 360:Core/Src/main.c ****                     Goto(beacons[beacon_idx][0], beacons[beacon_idx][1]);
 361:Core/Src/main.c ****                     if (car_Pos[0] < 15 || car_Pos[0] > 240 || car_Pos[1] < 15 || car_Pos[1] > 240)
 362:Core/Src/main.c ****                     //also, not beyond the boundary
 363:Core/Src/main.c ****                     {
 364:Core/Src/main.c ****                         brake(); //ÂàπËΩ¶
 365:Core/Src/main.c ****                         if (count_beacon == 0)
 366:Core/Src/main.c ****                             zigbeeSend(0x00);
 367:Core/Src/main.c ****                         count_beacon++;
 368:Core/Src/main.c ****                         if (count_beacon <= 20)
 369:Core/Src/main.c ****                         {
ARM GAS  C:\Users\wangw\AppData\Local\Temp\ccLETVy1.s 			page 8


 370:Core/Src/main.c ****                             HAL_GPIO_WritePin(GPIOC, GPIO_PIN_0, GPIO_PIN_SET);
 371:Core/Src/main.c ****                         }
 372:Core/Src/main.c ****                         else
 373:Core/Src/main.c ****                         {
 374:Core/Src/main.c ****                             State = 4;
 375:Core/Src/main.c ****                             count_beacon = 0;
 376:Core/Src/main.c ****                             beacon_Pos[0] = getCarPosX();
 377:Core/Src/main.c ****                             beacon_Pos[1] = getCarPosY(); //Áªôbeacon_PosËµãÔøΩ?ÔøΩÔºåÁî®‰∫éÁ¨¨‰∫åÂ
 378:Core/Src/main.c ****                             HAL_GPIO_WritePin(GPIOC, GPIO_PIN_0, GPIO_PIN_RESET);
 379:Core/Src/main.c ****                             goto_state = 0;
 380:Core/Src/main.c ****                         }
 381:Core/Src/main.c ****                     }
 382:Core/Src/main.c ****                     break;
 383:Core/Src/main.c ****                 }
 384:Core/Src/main.c ****                 case (4):{
 385:Core/Src/main.c ****                     //ÊîæÁΩÆÁ¨¨‰∫å‰∏™‰ø°Ê†á
 386:Core/Src/main.c ****                     Goto(beacons[(beacon_idx+1)%3][0], beacons[(beacon_idx+1)%3][1]);
 387:Core/Src/main.c ****                     if (getCarPosX() < 15 || getCarPosX() > 240 || getCarPosY() < 15 || getCarPosY(
 388:Core/Src/main.c ****                     //also, not beyond the boundary
 389:Core/Src/main.c ****                     {
 390:Core/Src/main.c ****                         brake(); //ÂàπËΩ¶
 391:Core/Src/main.c ****                         if (count_beacon == 0)
 392:Core/Src/main.c ****                             zigbeeSend(0x01);
 393:Core/Src/main.c ****                         count_beacon++;
 394:Core/Src/main.c ****                         if (count_beacon <= 20)
 395:Core/Src/main.c ****                         {
 396:Core/Src/main.c ****                             HAL_GPIO_WritePin(GPIOC, GPIO_PIN_0, GPIO_PIN_SET);
 397:Core/Src/main.c ****                         }
 398:Core/Src/main.c ****                         else
 399:Core/Src/main.c ****                         {
 400:Core/Src/main.c ****                             State = 5;
 401:Core/Src/main.c ****                             count_beacon = 0;
 402:Core/Src/main.c ****                             beacon_Pos[2] = getCarPosX();
 403:Core/Src/main.c ****                             beacon_Pos[3] = getCarPosY(); //Áªôbeacon_PosËµãÔøΩ?ÔøΩÔºåÁî®‰∫éÁ¨¨‰∫åÂ
 404:Core/Src/main.c ****                             HAL_GPIO_WritePin(GPIOC, GPIO_PIN_0, GPIO_PIN_RESET);
 405:Core/Src/main.c ****                             goto_state = 0;
 406:Core/Src/main.c ****                         }
 407:Core/Src/main.c ****                     }
 408:Core/Src/main.c ****                     break;
 409:Core/Src/main.c ****                 }
 410:Core/Src/main.c ****                 case (5):{
 411:Core/Src/main.c ****                     //ÊîæÁΩÆÁ¨¨‰∏â‰∏™‰ø°Ê†á
 412:Core/Src/main.c ****                     Goto(beacons[(beacon_idx+2)%3][0], beacons[(beacon_idx+2)%3][1]);
 413:Core/Src/main.c ****                     if (getCarPosX() < 15 || getCarPosX() > 240 || getCarPosY() < 15 || getCarPosY(
 414:Core/Src/main.c ****                     {
 415:Core/Src/main.c ****                         brake(); //ÂàπËΩ¶
 416:Core/Src/main.c ****                         if (count_beacon == 0)
 417:Core/Src/main.c ****                             zigbeeSend(0x02);
 418:Core/Src/main.c ****                         count_beacon++;
 419:Core/Src/main.c ****                         if (count_beacon <= 20)
 420:Core/Src/main.c ****                         {
 421:Core/Src/main.c ****                             HAL_GPIO_WritePin(GPIOC, GPIO_PIN_0, GPIO_PIN_SET);
 422:Core/Src/main.c ****                         }
 423:Core/Src/main.c ****                         else
 424:Core/Src/main.c ****                         {
 425:Core/Src/main.c ****                             State = 6;
 426:Core/Src/main.c ****                             count_beacon = 0;
ARM GAS  C:\Users\wangw\AppData\Local\Temp\ccLETVy1.s 			page 9


 427:Core/Src/main.c ****                             beacon_Pos[4] = getCarPosX();
 428:Core/Src/main.c ****                             beacon_Pos[5] = getCarPosY(); //Áªôbeacon_PosËµãÔøΩ?ÔøΩÔºåÁî®‰∫éÁ¨¨‰∫åÂ
 429:Core/Src/main.c ****                             HAL_GPIO_WritePin(GPIOC, GPIO_PIN_0, GPIO_PIN_RESET);
 430:Core/Src/main.c ****                             goto_state = 0;
 431:Core/Src/main.c ****                         }
 432:Core/Src/main.c ****                     }
 433:Core/Src/main.c ****                     break;
 434:Core/Src/main.c ****                 }
 435:Core/Src/main.c ****                 case (6):{
 436:Core/Src/main.c ****                     //ÂéªÊúÄËøë‰ªìÔøΩ?7Âè∑Ôºå‰∏çÂà§Êñ≠ÊòØÂê¶Âà∞ÔøΩ??
 437:Core/Src/main.c ****                     //ËøòÊòØÂà§Êñ≠‰∏Ä‰∏ãÂêß
 438:Core/Src/main.c ****                     Goto(15, 127);
 439:Core/Src/main.c ****                     if ((car_Pos[0] < 5) || (car_Pos[0] > 250) || (car_Pos[1] < 5) || (car_Pos[1] >
 440:Core/Src/main.c ****                     {
 441:Core/Src/main.c ****                         //Ëµ∞Ëøá‰∫Ü
 442:Core/Src/main.c ****                         brake();
 443:Core/Src/main.c ****                         goto_state = 0;
 444:Core/Src/main.c ****                         break;
 445:Core/Src/main.c ****                     }
 446:Core/Src/main.c ****                     if ((car_Pos[0] - 15) * (car_Pos[0] - 15) + (car_Pos[1] - 127) * (car_Pos[1] - 
 447:Core/Src/main.c ****                     {
 448:Core/Src/main.c ****                         brake();    //ÂàπËΩ¶
 449:Core/Src/main.c ****                         State = -1; //Á¨¨‰∏ÄÂõûÂêàÁªìÊùü
 450:Core/Src/main.c ****                         goto_state = 0;
 451:Core/Src/main.c ****                     }
 452:Core/Src/main.c ****                     break;
 453:Core/Src/main.c ****                 }
 454:Core/Src/main.c ****                 case (10):{
 455:Core/Src/main.c ****                     //Ê≠•È™§1ÔºöÈöèÊÑèËµ∞
 456:Core/Src/main.c ****                     rotate_clockwise_plus_forward(rotate_speed); ///ÂàùÂßãÊó∂ËΩ¨ÂúàÔºåÁ°ÆÂÆöËµÑÊ∫êÂ
 457:Core/Src/main.c **** 
 458:Core/Src/main.c ****                     //Ê±ÇËß£ËµÑÊ∫êÂùêÊ†á
 459:Core/Src/main.c ****                     if (Solve_Mine_Pos(Prev_Pos[0].x, Prev_Pos[0].y, Prev_Pos[0].E_1, Prev_Pos[1].x
 460:Core/Src/main.c ****                     {
 461:Core/Src/main.c ****                         //Âà©Áî®Solve_Mine_PosÂáΩÊï∞ËøîÂõûÂÄºÁõ¥Êé•Âà§Êñ≠ËÆ°ÁÆóÊòØÂê¶ÊàêÔøΩ?
 462:Core/Src/main.c ****                         State = 11; //ËøõÂÖ•Ë°åËøõÊ®°Âºè
 463:Core/Src/main.c ****                         //Á°ÆÂÆöÁ¶ªËΩ¶ÊúÄËøëÁöÑËµÑÊ∫ê
 464:Core/Src/main.c ****                         current_Res = getCarMineSumNum();
 465:Core/Src/main.c ****                         resource_location.priority = (resource_location.x[0] * resource_location.x[
 466:Core/Src/main.c ****                     }
 467:Core/Src/main.c ****                     else
 468:Core/Src/main.c ****                     {
 469:Core/Src/main.c ****                         //caseËÆ°ÁÆó‰∏çÊàêÂäüÔºåÔøΩ?Ë¶ÅÊõ¥Êñ∞‰ΩçÁΩÆ‰∏éÂú∫Âº∫‰ø°ÊÅØÔºåÈáçÊñ∞ËÆ°ÁÆóÔø
 470:Core/Src/main.c ****                         Prev_Pos[Prev_Pos_head].x = getCarPosX();          //Âà©Áî®getCarPosXÂáΩÊï∞
 471:Core/Src/main.c ****                         Prev_Pos[Prev_Pos_head].y = getCarPosY();          //Âêå‰∏ä
 472:Core/Src/main.c ****                         Prev_Pos[Prev_Pos_head].E_1 = getMineIntensity(0); //Âà©Áî®getMineIntensity
 473:Core/Src/main.c ****                         Prev_Pos[Prev_Pos_head].E_1 = getMineIntensity(1); //Âêå‰∏ä
 474:Core/Src/main.c ****                         Prev_Pos_head = (Prev_Pos_head + 1) % 3;           //Â§¥ÊåáÈíàÂæ™ÁéØÂú∞ÂêéÁ
 475:Core/Src/main.c ****                     }
 476:Core/Src/main.c ****                     break;
 477:Core/Src/main.c ****                 }
 478:Core/Src/main.c ****                 case (11):{
 479:Core/Src/main.c ****                     Goto(resource_location.x[!resource_location.priority], resource_location.y[!res
 480:Core/Src/main.c ****                     if (getCarMineSumNum() > current_Res)
 481:Core/Src/main.c ****                     {
 482:Core/Src/main.c ****                         State = 10;                   //ËøîÂõûËÆ°ÁÆóÁä∂ÊÄÅ
 483:Core/Src/main.c ****                         if (getCarMineSumNum() == 10) //Êª°ËΩΩ
ARM GAS  C:\Users\wangw\AppData\Local\Temp\ccLETVy1.s 			page 10


 484:Core/Src/main.c ****                             State = 12;               //ËÄåÂΩí
 485:Core/Src/main.c ****                     }
 486:Core/Src/main.c ****                     break;
 487:Core/Src/main.c ****                 }
 488:Core/Src/main.c ****                 case (12):{
 489:Core/Src/main.c ****                     //ËÆ°ÁÆóÂ∞èËΩ¶Âà∞8‰∏™‰ªìÂ∫ìÁöÑË∑ùÁ¶ª
 490:Core/Src/main.c ****                     Get_Rep_opt(car_Pos[0], car_Pos[1]);
 491:Core/Src/main.c ****                     State = 13;
 492:Core/Src/main.c ****                     // break;
 493:Core/Src/main.c ****                 }
 494:Core/Src/main.c ****                 case (13):{
 495:Core/Src/main.c ****                     if ((car_Pos[0] - destination[0]) * (car_Pos[0] - destination[0])+(car_Pos[1] -
 496:Core/Src/main.c ****                     {
 497:Core/Src/main.c ****                         count_rep++;
 498:Core/Src/main.c ****                         if (count_rep > 20)
 499:Core/Src/main.c ****                         {
 500:Core/Src/main.c ****                             State = 12; //ËøîÂõûËÆ°ÁÆóÁä∂ÊÄÅ
 501:Core/Src/main.c ****                             count_rep = 0;
 502:Core/Src/main.c ****                             if (getCarMineSumNum() == 0) //ÂÖ®ÈÉ®Âç∏ËΩΩ
 503:Core/Src/main.c ****                                 State = 10;
 504:Core/Src/main.c ****                         }
 505:Core/Src/main.c ****                     }
 506:Core/Src/main.c ****                     else
 507:Core/Src/main.c ****                         Goto(destination[0], destination[1]); //ÂâçÂæÄ‰ªìÂ∫ì
 508:Core/Src/main.c ****                     break;
 509:Core/Src/main.c ****                 }
 510:Core/Src/main.c ****             }
 511:Core/Src/main.c **** 
 512:Core/Src/main.c ****         }
 513:Core/Src/main.c ****     }
 514:Core/Src/main.c ****     /* USER CODE END 3 */
 515:Core/Src/main.c **** }
 516:Core/Src/main.c **** 
 517:Core/Src/main.c **** /**
 518:Core/Src/main.c ****   * @brief System Clock Configuration
 519:Core/Src/main.c ****   * @retval None
 520:Core/Src/main.c ****   */
 521:Core/Src/main.c **** void SystemClock_Config(void)
 522:Core/Src/main.c **** {
 523:Core/Src/main.c ****     RCC_OscInitTypeDef RCC_OscInitStruct = {0};
 524:Core/Src/main.c ****     RCC_ClkInitTypeDef RCC_ClkInitStruct = {0};
 525:Core/Src/main.c **** 
 526:Core/Src/main.c ****     /** Initializes the RCC Oscillators according to the specified parameters
 527:Core/Src/main.c ****   * in the RCC_OscInitTypeDef structure.
 528:Core/Src/main.c ****   */
 529:Core/Src/main.c ****     RCC_OscInitStruct.OscillatorType = RCC_OSCILLATORTYPE_HSE;
 530:Core/Src/main.c ****     RCC_OscInitStruct.HSEState = RCC_HSE_ON;
 531:Core/Src/main.c ****     RCC_OscInitStruct.HSEPredivValue = RCC_HSE_PREDIV_DIV1;
 532:Core/Src/main.c ****     RCC_OscInitStruct.HSIState = RCC_HSI_ON;
 533:Core/Src/main.c ****     RCC_OscInitStruct.PLL.PLLState = RCC_PLL_ON;
 534:Core/Src/main.c ****     RCC_OscInitStruct.PLL.PLLSource = RCC_PLLSOURCE_HSE;
 535:Core/Src/main.c ****     RCC_OscInitStruct.PLL.PLLMUL = RCC_PLL_MUL9;
 536:Core/Src/main.c ****     if (HAL_RCC_OscConfig(&RCC_OscInitStruct) != HAL_OK)
 537:Core/Src/main.c ****     {
 538:Core/Src/main.c ****         Error_Handler();
 539:Core/Src/main.c ****     }
 540:Core/Src/main.c ****     /** Initializes the CPU, AHB and APB buses clocks
ARM GAS  C:\Users\wangw\AppData\Local\Temp\ccLETVy1.s 			page 11


 541:Core/Src/main.c ****   */
 542:Core/Src/main.c ****     RCC_ClkInitStruct.ClockType = RCC_CLOCKTYPE_HCLK | RCC_CLOCKTYPE_SYSCLK | RCC_CLOCKTYPE_PCLK1 |
 543:Core/Src/main.c ****     RCC_ClkInitStruct.SYSCLKSource = RCC_SYSCLKSOURCE_PLLCLK;
 544:Core/Src/main.c ****     RCC_ClkInitStruct.AHBCLKDivider = RCC_SYSCLK_DIV1;
 545:Core/Src/main.c ****     RCC_ClkInitStruct.APB1CLKDivider = RCC_HCLK_DIV2;
 546:Core/Src/main.c ****     RCC_ClkInitStruct.APB2CLKDivider = RCC_HCLK_DIV1;
 547:Core/Src/main.c **** 
 548:Core/Src/main.c ****     if (HAL_RCC_ClockConfig(&RCC_ClkInitStruct, FLASH_LATENCY_2) != HAL_OK)
 549:Core/Src/main.c ****     {
 550:Core/Src/main.c ****         Error_Handler();
 551:Core/Src/main.c ****     }
 552:Core/Src/main.c **** }
 553:Core/Src/main.c **** 
 554:Core/Src/main.c **** /* USER CODE BEGIN 4 */
 555:Core/Src/main.c **** float pid(float in)
 556:Core/Src/main.c **** {
  32              		.loc 1 556 1 view -0
  33              		.cfi_startproc
  34              		@ args = 0, pretend = 0, frame = 0
  35              		@ frame_needed = 0, uses_anonymous_args = 0
  36              		.loc 1 556 1 is_stmt 0 view .LVU1
  37 0000 F8B5     		push	{r3, r4, r5, r6, r7, lr}
  38              	.LCFI0:
  39              		.cfi_def_cfa_offset 24
  40              		.cfi_offset 3, -24
  41              		.cfi_offset 4, -20
  42              		.cfi_offset 5, -16
  43              		.cfi_offset 6, -12
  44              		.cfi_offset 7, -8
  45              		.cfi_offset 14, -4
  46 0002 0546     		mov	r5, r0
 557:Core/Src/main.c ****     float out;
  47              		.loc 1 557 5 is_stmt 1 view .LVU2
 558:Core/Src/main.c ****     // y[n] = A0 * x[n] + A1 * x[n-1] + A2 * x[n-2]
 559:Core/Src/main.c ****     out = ((Kp + Ki + Kd) * in) + ((-Ki - 2 * Kd) * state[0]) + (Kd * state[1]);
  48              		.loc 1 559 5 view .LVU3
  49              		.loc 1 559 27 is_stmt 0 view .LVU4
  50 0004 1749     		ldr	r1, .L13
  51 0006 FFF7FEFF 		bl	__aeabi_fmul
  52              	.LVL1:
  53              		.loc 1 559 27 view .LVU5
  54 000a 0646     		mov	r6, r0
  55              		.loc 1 559 58 view .LVU6
  56 000c 164C     		ldr	r4, .L13+4
  57 000e 2768     		ldr	r7, [r4]	@ float
  58              		.loc 1 559 51 view .LVU7
  59 0010 1649     		ldr	r1, .L13+8
  60 0012 3846     		mov	r0, r7
  61 0014 FFF7FEFF 		bl	__aeabi_fmul
  62              	.LVL2:
  63 0018 0146     		mov	r1, r0
  64              		.loc 1 559 33 view .LVU8
  65 001a 3046     		mov	r0, r6
  66 001c FFF7FEFF 		bl	__aeabi_fadd
  67              	.LVL3:
  68 0020 0646     		mov	r6, r0
  69              		.loc 1 559 69 view .LVU9
ARM GAS  C:\Users\wangw\AppData\Local\Temp\ccLETVy1.s 			page 12


  70 0022 1349     		ldr	r1, .L13+12
  71 0024 6068     		ldr	r0, [r4, #4]	@ float
  72 0026 FFF7FEFF 		bl	__aeabi_fmul
  73              	.LVL4:
  74 002a 0146     		mov	r1, r0
  75              		.loc 1 559 9 view .LVU10
  76 002c 3046     		mov	r0, r6
  77 002e FFF7FEFF 		bl	__aeabi_fadd
  78              	.LVL5:
  79 0032 0646     		mov	r6, r0
  80              	.LVL6:
 560:Core/Src/main.c ****     state[1] = state[0];
  81              		.loc 1 560 5 is_stmt 1 view .LVU11
  82              		.loc 1 560 14 is_stmt 0 view .LVU12
  83 0034 6760     		str	r7, [r4, #4]	@ float
 561:Core/Src/main.c ****     state[0] = in;
  84              		.loc 1 561 5 is_stmt 1 view .LVU13
  85              		.loc 1 561 14 is_stmt 0 view .LVU14
  86 0036 2560     		str	r5, [r4]	@ float
 562:Core/Src/main.c ****     if (out >= PID_MAX)
  87              		.loc 1 562 5 is_stmt 1 view .LVU15
  88              		.loc 1 562 8 is_stmt 0 view .LVU16
  89 0038 0E49     		ldr	r1, .L13+16
  90 003a FFF7FEFF 		bl	__aeabi_fcmpge
  91              	.LVL7:
  92              		.loc 1 562 8 view .LVU17
  93 003e 20B1     		cbz	r0, .L9
 563:Core/Src/main.c ****         state[2] = PID_MAX;
  94              		.loc 1 563 9 is_stmt 1 view .LVU18
  95              		.loc 1 563 18 is_stmt 0 view .LVU19
  96 0040 0C4A     		ldr	r2, .L13+16
  97 0042 A260     		str	r2, [r4, #8]	@ float
  98              	.L4:
 564:Core/Src/main.c ****     else if (out <= PID_MIN)
 565:Core/Src/main.c ****         state[2] = PID_MIN;
 566:Core/Src/main.c ****     else
 567:Core/Src/main.c ****         state[2] = out;
 568:Core/Src/main.c ****     return (state[2]);
  99              		.loc 1 568 5 is_stmt 1 view .LVU20
 569:Core/Src/main.c **** }
 100              		.loc 1 569 1 is_stmt 0 view .LVU21
 101 0044 084B     		ldr	r3, .L13+4
 102 0046 9868     		ldr	r0, [r3, #8]	@ float
 103 0048 F8BD     		pop	{r3, r4, r5, r6, r7, pc}
 104              	.LVL8:
 105              	.L9:
 564:Core/Src/main.c ****     else if (out <= PID_MIN)
 106              		.loc 1 564 10 is_stmt 1 view .LVU22
 564:Core/Src/main.c ****     else if (out <= PID_MIN)
 107              		.loc 1 564 13 is_stmt 0 view .LVU23
 108 004a 0021     		movs	r1, #0
 109 004c 3046     		mov	r0, r6
 110 004e FFF7FEFF 		bl	__aeabi_fcmple
 111              	.LVL9:
 112 0052 10B9     		cbnz	r0, .L12
 567:Core/Src/main.c ****     return (state[2]);
 113              		.loc 1 567 9 is_stmt 1 view .LVU24
ARM GAS  C:\Users\wangw\AppData\Local\Temp\ccLETVy1.s 			page 13


 567:Core/Src/main.c ****     return (state[2]);
 114              		.loc 1 567 18 is_stmt 0 view .LVU25
 115 0054 044B     		ldr	r3, .L13+4
 116 0056 9E60     		str	r6, [r3, #8]	@ float
 117 0058 F4E7     		b	.L4
 118              	.L12:
 565:Core/Src/main.c ****     else
 119              		.loc 1 565 9 is_stmt 1 view .LVU26
 565:Core/Src/main.c ****     else
 120              		.loc 1 565 18 is_stmt 0 view .LVU27
 121 005a 034B     		ldr	r3, .L13+4
 122 005c 0022     		movs	r2, #0
 123 005e 9A60     		str	r2, [r3, #8]	@ float
 124 0060 F0E7     		b	.L4
 125              	.L14:
 126 0062 00BF     		.align	2
 127              	.L13:
 128 0064 00006843 		.word	1130889216
 129 0068 00000000 		.word	.LANCHOR0
 130 006c 00009041 		.word	1099956224
 131 0070 00004842 		.word	1112014848
 132 0074 00803B45 		.word	1161527296
 133              		.cfi_endproc
 134              	.LFE68:
 136              		.section	.text.Abs,"ax",%progbits
 137              		.align	1
 138              		.global	Abs
 139              		.syntax unified
 140              		.thumb
 141              		.thumb_func
 142              		.fpu softvfp
 144              	Abs:
 145              	.LVL10:
 146              	.LFB69:
 570:Core/Src/main.c **** 
 571:Core/Src/main.c **** short Abs(short in)
 572:Core/Src/main.c **** {
 147              		.loc 1 572 1 is_stmt 1 view -0
 148              		.cfi_startproc
 149              		@ args = 0, pretend = 0, frame = 0
 150              		@ frame_needed = 0, uses_anonymous_args = 0
 151              		@ link register save eliminated.
 573:Core/Src/main.c ****     return in >= 0 ? in : -in;
 152              		.loc 1 573 5 view .LVU29
 153              		.loc 1 573 25 is_stmt 0 view .LVU30
 154 0000 0028     		cmp	r0, #0
 155 0002 B8BF     		it	lt
 156 0004 4042     		rsblt	r0, r0, #0
 157              	.LVL11:
 574:Core/Src/main.c **** }
 158              		.loc 1 574 1 view .LVU31
 159 0006 00B2     		sxth	r0, r0
 160 0008 7047     		bx	lr
 161              		.cfi_endproc
 162              	.LFE69:
 164              		.global	__aeabi_dcmplt
 165              		.global	__aeabi_dadd
ARM GAS  C:\Users\wangw\AppData\Local\Temp\ccLETVy1.s 			page 14


 166              		.global	__aeabi_dcmpgt
 167              		.global	__aeabi_dsub
 168              		.section	.text.qiuyu360,"ax",%progbits
 169              		.align	1
 170              		.global	qiuyu360
 171              		.syntax unified
 172              		.thumb
 173              		.thumb_func
 174              		.fpu softvfp
 176              	qiuyu360:
 177              	.LVL12:
 178              	.LFB70:
 575:Core/Src/main.c **** 
 576:Core/Src/main.c **** double qiuyu360(double in){
 179              		.loc 1 576 27 is_stmt 1 view -0
 180              		.cfi_startproc
 181              		@ args = 0, pretend = 0, frame = 0
 182              		@ frame_needed = 0, uses_anonymous_args = 0
 183              		.loc 1 576 27 is_stmt 0 view .LVU33
 184 0000 38B5     		push	{r3, r4, r5, lr}
 185              	.LCFI1:
 186              		.cfi_def_cfa_offset 16
 187              		.cfi_offset 3, -16
 188              		.cfi_offset 4, -12
 189              		.cfi_offset 5, -8
 190              		.cfi_offset 14, -4
 191 0002 0446     		mov	r4, r0
 192 0004 0D46     		mov	r5, r1
 577:Core/Src/main.c ****     in=in<0?in+360:in;
 193              		.loc 1 577 5 is_stmt 1 view .LVU34
 194              		.loc 1 577 19 is_stmt 0 view .LVU35
 195 0006 0022     		movs	r2, #0
 196 0008 0023     		movs	r3, #0
 197 000a FFF7FEFF 		bl	__aeabi_dcmplt
 198              	.LVL13:
 199              		.loc 1 577 19 view .LVU36
 200 000e 88B9     		cbnz	r0, .L24
 201              	.L17:
 202              	.LVL14:
 578:Core/Src/main.c ****     return (in>360?in-360:in);
 203              		.loc 1 578 5 is_stmt 1 discriminator 4 view .LVU37
 204              		.loc 1 578 26 is_stmt 0 discriminator 4 view .LVU38
 205 0010 0022     		movs	r2, #0
 206 0012 0D4B     		ldr	r3, .L25
 207 0014 2046     		mov	r0, r4
 208 0016 2946     		mov	r1, r5
 209 0018 FFF7FEFF 		bl	__aeabi_dcmpgt
 210              	.LVL15:
 211 001c 38B1     		cbz	r0, .L19
 212              		.loc 1 578 26 discriminator 1 view .LVU39
 213 001e 0022     		movs	r2, #0
 214 0020 094B     		ldr	r3, .L25
 215 0022 2046     		mov	r0, r4
 216 0024 2946     		mov	r1, r5
 217 0026 FFF7FEFF 		bl	__aeabi_dsub
 218              	.LVL16:
 219 002a 0446     		mov	r4, r0
ARM GAS  C:\Users\wangw\AppData\Local\Temp\ccLETVy1.s 			page 15


 220              	.LVL17:
 221              		.loc 1 578 26 discriminator 1 view .LVU40
 222 002c 0D46     		mov	r5, r1
 223              	.L19:
 579:Core/Src/main.c **** }
 224              		.loc 1 579 1 discriminator 4 view .LVU41
 225 002e 2046     		mov	r0, r4
 226 0030 2946     		mov	r1, r5
 227 0032 38BD     		pop	{r3, r4, r5, pc}
 228              	.LVL18:
 229              	.L24:
 577:Core/Src/main.c ****     in=in<0?in+360:in;
 230              		.loc 1 577 19 discriminator 1 view .LVU42
 231 0034 0022     		movs	r2, #0
 232 0036 044B     		ldr	r3, .L25
 233 0038 2046     		mov	r0, r4
 234 003a 2946     		mov	r1, r5
 235 003c FFF7FEFF 		bl	__aeabi_dadd
 236              	.LVL19:
 237 0040 0446     		mov	r4, r0
 238 0042 0D46     		mov	r5, r1
 239 0044 E4E7     		b	.L17
 240              	.L26:
 241 0046 00BF     		.align	2
 242              	.L25:
 243 0048 00807640 		.word	1081507840
 244              		.cfi_endproc
 245              	.LFE70:
 247              		.section	.text.forward,"ax",%progbits
 248              		.align	1
 249              		.global	forward
 250              		.syntax unified
 251              		.thumb
 252              		.thumb_func
 253              		.fpu softvfp
 255              	forward:
 256              	.LVL20:
 257              	.LFB71:
 580:Core/Src/main.c **** 
 581:Core/Src/main.c **** void forward(int pwm,int amend)
 582:Core/Src/main.c **** {
 258              		.loc 1 582 1 is_stmt 1 view -0
 259              		.cfi_startproc
 260              		@ args = 0, pretend = 0, frame = 0
 261              		@ frame_needed = 0, uses_anonymous_args = 0
 262              		.loc 1 582 1 is_stmt 0 view .LVU44
 263 0000 70B5     		push	{r4, r5, r6, lr}
 264              	.LCFI2:
 265              		.cfi_def_cfa_offset 16
 266              		.cfi_offset 4, -16
 267              		.cfi_offset 5, -12
 268              		.cfi_offset 6, -8
 269              		.cfi_offset 14, -4
 270 0002 0546     		mov	r5, r0
 271 0004 0E46     		mov	r6, r1
 583:Core/Src/main.c ****     //change rotate direction of wheel
 584:Core/Src/main.c ****     HAL_GPIO_WritePin(GPIOB, GPIO_PIN_0, GPIO_PIN_SET);
ARM GAS  C:\Users\wangw\AppData\Local\Temp\ccLETVy1.s 			page 16


 272              		.loc 1 584 5 is_stmt 1 view .LVU45
 273 0006 1B4C     		ldr	r4, .L29
 274 0008 0122     		movs	r2, #1
 275 000a 1146     		mov	r1, r2
 276              	.LVL21:
 277              		.loc 1 584 5 is_stmt 0 view .LVU46
 278 000c 2046     		mov	r0, r4
 279              	.LVL22:
 280              		.loc 1 584 5 view .LVU47
 281 000e FFF7FEFF 		bl	HAL_GPIO_WritePin
 282              	.LVL23:
 585:Core/Src/main.c ****     HAL_GPIO_WritePin(GPIOB, GPIO_PIN_1, GPIO_PIN_RESET);
 283              		.loc 1 585 5 is_stmt 1 view .LVU48
 284 0012 0022     		movs	r2, #0
 285 0014 0221     		movs	r1, #2
 286 0016 2046     		mov	r0, r4
 287 0018 FFF7FEFF 		bl	HAL_GPIO_WritePin
 288              	.LVL24:
 586:Core/Src/main.c ****     HAL_GPIO_WritePin(GPIOB, GPIO_PIN_2, GPIO_PIN_RESET);
 289              		.loc 1 586 5 view .LVU49
 290 001c 0022     		movs	r2, #0
 291 001e 0421     		movs	r1, #4
 292 0020 2046     		mov	r0, r4
 293 0022 FFF7FEFF 		bl	HAL_GPIO_WritePin
 294              	.LVL25:
 587:Core/Src/main.c ****     HAL_GPIO_WritePin(GPIOB, GPIO_PIN_10, GPIO_PIN_SET);
 295              		.loc 1 587 5 view .LVU50
 296 0026 0122     		movs	r2, #1
 297 0028 4FF48061 		mov	r1, #1024
 298 002c 2046     		mov	r0, r4
 299 002e FFF7FEFF 		bl	HAL_GPIO_WritePin
 300              	.LVL26:
 588:Core/Src/main.c ****     HAL_GPIO_WritePin(GPIOB, GPIO_PIN_11, GPIO_PIN_SET);
 301              		.loc 1 588 5 view .LVU51
 302 0032 0122     		movs	r2, #1
 303 0034 4FF40061 		mov	r1, #2048
 304 0038 2046     		mov	r0, r4
 305 003a FFF7FEFF 		bl	HAL_GPIO_WritePin
 306              	.LVL27:
 589:Core/Src/main.c ****     HAL_GPIO_WritePin(GPIOB, GPIO_PIN_12, GPIO_PIN_RESET);
 307              		.loc 1 589 5 view .LVU52
 308 003e 0022     		movs	r2, #0
 309 0040 4FF48051 		mov	r1, #4096
 310 0044 2046     		mov	r0, r4
 311 0046 FFF7FEFF 		bl	HAL_GPIO_WritePin
 312              	.LVL28:
 590:Core/Src/main.c ****     HAL_GPIO_WritePin(GPIOB, GPIO_PIN_13, GPIO_PIN_RESET);
 313              		.loc 1 590 5 view .LVU53
 314 004a 0022     		movs	r2, #0
 315 004c 4FF40051 		mov	r1, #8192
 316 0050 2046     		mov	r0, r4
 317 0052 FFF7FEFF 		bl	HAL_GPIO_WritePin
 318              	.LVL29:
 591:Core/Src/main.c ****     HAL_GPIO_WritePin(GPIOB, GPIO_PIN_14, GPIO_PIN_SET);
 319              		.loc 1 591 5 view .LVU54
 320 0056 0122     		movs	r2, #1
 321 0058 4FF48041 		mov	r1, #16384
ARM GAS  C:\Users\wangw\AppData\Local\Temp\ccLETVy1.s 			page 17


 322 005c 2046     		mov	r0, r4
 323 005e FFF7FEFF 		bl	HAL_GPIO_WritePin
 324              	.LVL30:
 592:Core/Src/main.c ****     //give pwm output
 593:Core/Src/main.c ****     __HAL_TIM_SetCompare(&htim8, TIM_CHANNEL_1, pwm+amend);
 325              		.loc 1 593 5 view .LVU55
 326 0062 054B     		ldr	r3, .L29+4
 327 0064 1B68     		ldr	r3, [r3]
 328 0066 AA19     		adds	r2, r5, r6
 329 0068 5A63     		str	r2, [r3, #52]
 594:Core/Src/main.c ****     __HAL_TIM_SetCompare(&htim8, TIM_CHANNEL_2, pwm+amend);
 330              		.loc 1 594 5 view .LVU56
 331 006a 9A63     		str	r2, [r3, #56]
 595:Core/Src/main.c ****     __HAL_TIM_SetCompare(&htim8, TIM_CHANNEL_3, pwm-amend);
 332              		.loc 1 595 5 view .LVU57
 333 006c AD1B     		subs	r5, r5, r6
 334              	.LVL31:
 335              		.loc 1 595 5 is_stmt 0 view .LVU58
 336 006e DD63     		str	r5, [r3, #60]
 596:Core/Src/main.c ****     __HAL_TIM_SetCompare(&htim8, TIM_CHANNEL_4, pwm-amend);
 337              		.loc 1 596 5 is_stmt 1 view .LVU59
 338 0070 1D64     		str	r5, [r3, #64]
 597:Core/Src/main.c **** }
 339              		.loc 1 597 1 is_stmt 0 view .LVU60
 340 0072 70BD     		pop	{r4, r5, r6, pc}
 341              	.LVL32:
 342              	.L30:
 343              		.loc 1 597 1 view .LVU61
 344              		.align	2
 345              	.L29:
 346 0074 000C0140 		.word	1073810432
 347 0078 00000000 		.word	htim8
 348              		.cfi_endproc
 349              	.LFE71:
 351              		.section	.text.backward,"ax",%progbits
 352              		.align	1
 353              		.global	backward
 354              		.syntax unified
 355              		.thumb
 356              		.thumb_func
 357              		.fpu softvfp
 359              	backward:
 360              	.LVL33:
 361              	.LFB72:
 598:Core/Src/main.c **** 
 599:Core/Src/main.c **** void backward(int pwm)
 600:Core/Src/main.c **** {
 362              		.loc 1 600 1 is_stmt 1 view -0
 363              		.cfi_startproc
 364              		@ args = 0, pretend = 0, frame = 0
 365              		@ frame_needed = 0, uses_anonymous_args = 0
 366              		.loc 1 600 1 is_stmt 0 view .LVU63
 367 0000 38B5     		push	{r3, r4, r5, lr}
 368              	.LCFI3:
 369              		.cfi_def_cfa_offset 16
 370              		.cfi_offset 3, -16
 371              		.cfi_offset 4, -12
ARM GAS  C:\Users\wangw\AppData\Local\Temp\ccLETVy1.s 			page 18


 372              		.cfi_offset 5, -8
 373              		.cfi_offset 14, -4
 374 0002 0546     		mov	r5, r0
 601:Core/Src/main.c ****     //change rotate direction of wheel
 602:Core/Src/main.c ****     HAL_GPIO_WritePin(GPIOB, GPIO_PIN_0, GPIO_PIN_RESET);
 375              		.loc 1 602 5 is_stmt 1 view .LVU64
 376 0004 1A4C     		ldr	r4, .L33
 377 0006 0022     		movs	r2, #0
 378 0008 0121     		movs	r1, #1
 379 000a 2046     		mov	r0, r4
 380              	.LVL34:
 381              		.loc 1 602 5 is_stmt 0 view .LVU65
 382 000c FFF7FEFF 		bl	HAL_GPIO_WritePin
 383              	.LVL35:
 603:Core/Src/main.c ****     HAL_GPIO_WritePin(GPIOB, GPIO_PIN_1, GPIO_PIN_SET);
 384              		.loc 1 603 5 is_stmt 1 view .LVU66
 385 0010 0122     		movs	r2, #1
 386 0012 0221     		movs	r1, #2
 387 0014 2046     		mov	r0, r4
 388 0016 FFF7FEFF 		bl	HAL_GPIO_WritePin
 389              	.LVL36:
 604:Core/Src/main.c ****     HAL_GPIO_WritePin(GPIOB, GPIO_PIN_2, GPIO_PIN_SET);
 390              		.loc 1 604 5 view .LVU67
 391 001a 0122     		movs	r2, #1
 392 001c 0421     		movs	r1, #4
 393 001e 2046     		mov	r0, r4
 394 0020 FFF7FEFF 		bl	HAL_GPIO_WritePin
 395              	.LVL37:
 605:Core/Src/main.c ****     HAL_GPIO_WritePin(GPIOB, GPIO_PIN_10, GPIO_PIN_RESET);
 396              		.loc 1 605 5 view .LVU68
 397 0024 0022     		movs	r2, #0
 398 0026 4FF48061 		mov	r1, #1024
 399 002a 2046     		mov	r0, r4
 400 002c FFF7FEFF 		bl	HAL_GPIO_WritePin
 401              	.LVL38:
 606:Core/Src/main.c ****     HAL_GPIO_WritePin(GPIOB, GPIO_PIN_11, GPIO_PIN_RESET);
 402              		.loc 1 606 5 view .LVU69
 403 0030 0022     		movs	r2, #0
 404 0032 4FF40061 		mov	r1, #2048
 405 0036 2046     		mov	r0, r4
 406 0038 FFF7FEFF 		bl	HAL_GPIO_WritePin
 407              	.LVL39:
 607:Core/Src/main.c ****     HAL_GPIO_WritePin(GPIOB, GPIO_PIN_12, GPIO_PIN_SET);
 408              		.loc 1 607 5 view .LVU70
 409 003c 0122     		movs	r2, #1
 410 003e 4FF48051 		mov	r1, #4096
 411 0042 2046     		mov	r0, r4
 412 0044 FFF7FEFF 		bl	HAL_GPIO_WritePin
 413              	.LVL40:
 608:Core/Src/main.c ****     HAL_GPIO_WritePin(GPIOB, GPIO_PIN_13, GPIO_PIN_SET);
 414              		.loc 1 608 5 view .LVU71
 415 0048 0122     		movs	r2, #1
 416 004a 4FF40051 		mov	r1, #8192
 417 004e 2046     		mov	r0, r4
 418 0050 FFF7FEFF 		bl	HAL_GPIO_WritePin
 419              	.LVL41:
 609:Core/Src/main.c ****     HAL_GPIO_WritePin(GPIOB, GPIO_PIN_14, GPIO_PIN_RESET);
ARM GAS  C:\Users\wangw\AppData\Local\Temp\ccLETVy1.s 			page 19


 420              		.loc 1 609 5 view .LVU72
 421 0054 0022     		movs	r2, #0
 422 0056 4FF48041 		mov	r1, #16384
 423 005a 2046     		mov	r0, r4
 424 005c FFF7FEFF 		bl	HAL_GPIO_WritePin
 425              	.LVL42:
 610:Core/Src/main.c ****     //give pwm output
 611:Core/Src/main.c ****     __HAL_TIM_SetCompare(&htim8, TIM_CHANNEL_1, pwm);
 426              		.loc 1 611 5 view .LVU73
 427 0060 044B     		ldr	r3, .L33+4
 428 0062 1B68     		ldr	r3, [r3]
 429 0064 5D63     		str	r5, [r3, #52]
 612:Core/Src/main.c ****     __HAL_TIM_SetCompare(&htim8, TIM_CHANNEL_2, pwm);
 430              		.loc 1 612 5 view .LVU74
 431 0066 9D63     		str	r5, [r3, #56]
 613:Core/Src/main.c ****     __HAL_TIM_SetCompare(&htim8, TIM_CHANNEL_3, pwm);
 432              		.loc 1 613 5 view .LVU75
 433 0068 DD63     		str	r5, [r3, #60]
 614:Core/Src/main.c ****     __HAL_TIM_SetCompare(&htim8, TIM_CHANNEL_4, pwm);
 434              		.loc 1 614 5 view .LVU76
 435 006a 1D64     		str	r5, [r3, #64]
 615:Core/Src/main.c **** }
 436              		.loc 1 615 1 is_stmt 0 view .LVU77
 437 006c 38BD     		pop	{r3, r4, r5, pc}
 438              	.LVL43:
 439              	.L34:
 440              		.loc 1 615 1 view .LVU78
 441 006e 00BF     		.align	2
 442              	.L33:
 443 0070 000C0140 		.word	1073810432
 444 0074 00000000 		.word	htim8
 445              		.cfi_endproc
 446              	.LFE72:
 448              		.section	.text.rotate_counterclockwise,"ax",%progbits
 449              		.align	1
 450              		.global	rotate_counterclockwise
 451              		.syntax unified
 452              		.thumb
 453              		.thumb_func
 454              		.fpu softvfp
 456              	rotate_counterclockwise:
 457              	.LVL44:
 458              	.LFB73:
 616:Core/Src/main.c **** 
 617:Core/Src/main.c **** void rotate_counterclockwise(int pwm)
 618:Core/Src/main.c **** {
 459              		.loc 1 618 1 is_stmt 1 view -0
 460              		.cfi_startproc
 461              		@ args = 0, pretend = 0, frame = 0
 462              		@ frame_needed = 0, uses_anonymous_args = 0
 463              		.loc 1 618 1 is_stmt 0 view .LVU80
 464 0000 38B5     		push	{r3, r4, r5, lr}
 465              	.LCFI4:
 466              		.cfi_def_cfa_offset 16
 467              		.cfi_offset 3, -16
 468              		.cfi_offset 4, -12
 469              		.cfi_offset 5, -8
ARM GAS  C:\Users\wangw\AppData\Local\Temp\ccLETVy1.s 			page 20


 470              		.cfi_offset 14, -4
 471 0002 0546     		mov	r5, r0
 619:Core/Src/main.c ****     //change rotate direction of wheel
 620:Core/Src/main.c ****     HAL_GPIO_WritePin(GPIOB, GPIO_PIN_0, GPIO_PIN_SET);
 472              		.loc 1 620 5 is_stmt 1 view .LVU81
 473 0004 1A4C     		ldr	r4, .L37
 474 0006 0122     		movs	r2, #1
 475 0008 1146     		mov	r1, r2
 476 000a 2046     		mov	r0, r4
 477              	.LVL45:
 478              		.loc 1 620 5 is_stmt 0 view .LVU82
 479 000c FFF7FEFF 		bl	HAL_GPIO_WritePin
 480              	.LVL46:
 621:Core/Src/main.c ****     HAL_GPIO_WritePin(GPIOB, GPIO_PIN_1, GPIO_PIN_RESET);
 481              		.loc 1 621 5 is_stmt 1 view .LVU83
 482 0010 0022     		movs	r2, #0
 483 0012 0221     		movs	r1, #2
 484 0014 2046     		mov	r0, r4
 485 0016 FFF7FEFF 		bl	HAL_GPIO_WritePin
 486              	.LVL47:
 622:Core/Src/main.c ****     HAL_GPIO_WritePin(GPIOB, GPIO_PIN_2, GPIO_PIN_RESET);
 487              		.loc 1 622 5 view .LVU84
 488 001a 0022     		movs	r2, #0
 489 001c 0421     		movs	r1, #4
 490 001e 2046     		mov	r0, r4
 491 0020 FFF7FEFF 		bl	HAL_GPIO_WritePin
 492              	.LVL48:
 623:Core/Src/main.c ****     HAL_GPIO_WritePin(GPIOB, GPIO_PIN_10, GPIO_PIN_SET);
 493              		.loc 1 623 5 view .LVU85
 494 0024 0122     		movs	r2, #1
 495 0026 4FF48061 		mov	r1, #1024
 496 002a 2046     		mov	r0, r4
 497 002c FFF7FEFF 		bl	HAL_GPIO_WritePin
 498              	.LVL49:
 624:Core/Src/main.c ****     HAL_GPIO_WritePin(GPIOB, GPIO_PIN_11, GPIO_PIN_RESET);
 499              		.loc 1 624 5 view .LVU86
 500 0030 0022     		movs	r2, #0
 501 0032 4FF40061 		mov	r1, #2048
 502 0036 2046     		mov	r0, r4
 503 0038 FFF7FEFF 		bl	HAL_GPIO_WritePin
 504              	.LVL50:
 625:Core/Src/main.c ****     HAL_GPIO_WritePin(GPIOB, GPIO_PIN_12, GPIO_PIN_SET);
 505              		.loc 1 625 5 view .LVU87
 506 003c 0122     		movs	r2, #1
 507 003e 4FF48051 		mov	r1, #4096
 508 0042 2046     		mov	r0, r4
 509 0044 FFF7FEFF 		bl	HAL_GPIO_WritePin
 510              	.LVL51:
 626:Core/Src/main.c ****     HAL_GPIO_WritePin(GPIOB, GPIO_PIN_13, GPIO_PIN_SET);
 511              		.loc 1 626 5 view .LVU88
 512 0048 0122     		movs	r2, #1
 513 004a 4FF40051 		mov	r1, #8192
 514 004e 2046     		mov	r0, r4
 515 0050 FFF7FEFF 		bl	HAL_GPIO_WritePin
 516              	.LVL52:
 627:Core/Src/main.c ****     HAL_GPIO_WritePin(GPIOB, GPIO_PIN_14, GPIO_PIN_RESET);
 517              		.loc 1 627 5 view .LVU89
ARM GAS  C:\Users\wangw\AppData\Local\Temp\ccLETVy1.s 			page 21


 518 0054 0022     		movs	r2, #0
 519 0056 4FF48041 		mov	r1, #16384
 520 005a 2046     		mov	r0, r4
 521 005c FFF7FEFF 		bl	HAL_GPIO_WritePin
 522              	.LVL53:
 628:Core/Src/main.c ****     //give pwm output
 629:Core/Src/main.c ****     __HAL_TIM_SetCompare(&htim8, TIM_CHANNEL_1, pwm);
 523              		.loc 1 629 5 view .LVU90
 524 0060 044B     		ldr	r3, .L37+4
 525 0062 1B68     		ldr	r3, [r3]
 526 0064 5D63     		str	r5, [r3, #52]
 630:Core/Src/main.c ****     __HAL_TIM_SetCompare(&htim8, TIM_CHANNEL_2, pwm);
 527              		.loc 1 630 5 view .LVU91
 528 0066 9D63     		str	r5, [r3, #56]
 631:Core/Src/main.c ****     __HAL_TIM_SetCompare(&htim8, TIM_CHANNEL_3, pwm);
 529              		.loc 1 631 5 view .LVU92
 530 0068 DD63     		str	r5, [r3, #60]
 632:Core/Src/main.c ****     __HAL_TIM_SetCompare(&htim8, TIM_CHANNEL_4, pwm);
 531              		.loc 1 632 5 view .LVU93
 532 006a 1D64     		str	r5, [r3, #64]
 633:Core/Src/main.c **** }
 533              		.loc 1 633 1 is_stmt 0 view .LVU94
 534 006c 38BD     		pop	{r3, r4, r5, pc}
 535              	.LVL54:
 536              	.L38:
 537              		.loc 1 633 1 view .LVU95
 538 006e 00BF     		.align	2
 539              	.L37:
 540 0070 000C0140 		.word	1073810432
 541 0074 00000000 		.word	htim8
 542              		.cfi_endproc
 543              	.LFE73:
 545              		.section	.text.rotate_clockwise,"ax",%progbits
 546              		.align	1
 547              		.global	rotate_clockwise
 548              		.syntax unified
 549              		.thumb
 550              		.thumb_func
 551              		.fpu softvfp
 553              	rotate_clockwise:
 554              	.LVL55:
 555              	.LFB74:
 634:Core/Src/main.c **** 
 635:Core/Src/main.c **** void rotate_clockwise(int pwm)
 636:Core/Src/main.c **** {
 556              		.loc 1 636 1 is_stmt 1 view -0
 557              		.cfi_startproc
 558              		@ args = 0, pretend = 0, frame = 0
 559              		@ frame_needed = 0, uses_anonymous_args = 0
 560              		.loc 1 636 1 is_stmt 0 view .LVU97
 561 0000 38B5     		push	{r3, r4, r5, lr}
 562              	.LCFI5:
 563              		.cfi_def_cfa_offset 16
 564              		.cfi_offset 3, -16
 565              		.cfi_offset 4, -12
 566              		.cfi_offset 5, -8
 567              		.cfi_offset 14, -4
ARM GAS  C:\Users\wangw\AppData\Local\Temp\ccLETVy1.s 			page 22


 568 0002 0546     		mov	r5, r0
 637:Core/Src/main.c ****     //change rotate direction of wheel
 638:Core/Src/main.c ****     HAL_GPIO_WritePin(GPIOB, GPIO_PIN_0, GPIO_PIN_RESET);
 569              		.loc 1 638 5 is_stmt 1 view .LVU98
 570 0004 1A4C     		ldr	r4, .L41
 571 0006 0022     		movs	r2, #0
 572 0008 0121     		movs	r1, #1
 573 000a 2046     		mov	r0, r4
 574              	.LVL56:
 575              		.loc 1 638 5 is_stmt 0 view .LVU99
 576 000c FFF7FEFF 		bl	HAL_GPIO_WritePin
 577              	.LVL57:
 639:Core/Src/main.c ****     HAL_GPIO_WritePin(GPIOB, GPIO_PIN_1, GPIO_PIN_SET);
 578              		.loc 1 639 5 is_stmt 1 view .LVU100
 579 0010 0122     		movs	r2, #1
 580 0012 0221     		movs	r1, #2
 581 0014 2046     		mov	r0, r4
 582 0016 FFF7FEFF 		bl	HAL_GPIO_WritePin
 583              	.LVL58:
 640:Core/Src/main.c ****     HAL_GPIO_WritePin(GPIOB, GPIO_PIN_2, GPIO_PIN_SET);
 584              		.loc 1 640 5 view .LVU101
 585 001a 0122     		movs	r2, #1
 586 001c 0421     		movs	r1, #4
 587 001e 2046     		mov	r0, r4
 588 0020 FFF7FEFF 		bl	HAL_GPIO_WritePin
 589              	.LVL59:
 641:Core/Src/main.c ****     HAL_GPIO_WritePin(GPIOB, GPIO_PIN_10, GPIO_PIN_RESET);
 590              		.loc 1 641 5 view .LVU102
 591 0024 0022     		movs	r2, #0
 592 0026 4FF48061 		mov	r1, #1024
 593 002a 2046     		mov	r0, r4
 594 002c FFF7FEFF 		bl	HAL_GPIO_WritePin
 595              	.LVL60:
 642:Core/Src/main.c ****     HAL_GPIO_WritePin(GPIOB, GPIO_PIN_11, GPIO_PIN_SET);
 596              		.loc 1 642 5 view .LVU103
 597 0030 0122     		movs	r2, #1
 598 0032 4FF40061 		mov	r1, #2048
 599 0036 2046     		mov	r0, r4
 600 0038 FFF7FEFF 		bl	HAL_GPIO_WritePin
 601              	.LVL61:
 643:Core/Src/main.c ****     HAL_GPIO_WritePin(GPIOB, GPIO_PIN_12, GPIO_PIN_RESET);
 602              		.loc 1 643 5 view .LVU104
 603 003c 0022     		movs	r2, #0
 604 003e 4FF48051 		mov	r1, #4096
 605 0042 2046     		mov	r0, r4
 606 0044 FFF7FEFF 		bl	HAL_GPIO_WritePin
 607              	.LVL62:
 644:Core/Src/main.c ****     HAL_GPIO_WritePin(GPIOB, GPIO_PIN_13, GPIO_PIN_RESET);
 608              		.loc 1 644 5 view .LVU105
 609 0048 0022     		movs	r2, #0
 610 004a 4FF40051 		mov	r1, #8192
 611 004e 2046     		mov	r0, r4
 612 0050 FFF7FEFF 		bl	HAL_GPIO_WritePin
 613              	.LVL63:
 645:Core/Src/main.c ****     HAL_GPIO_WritePin(GPIOB, GPIO_PIN_14, GPIO_PIN_SET);
 614              		.loc 1 645 5 view .LVU106
 615 0054 0122     		movs	r2, #1
ARM GAS  C:\Users\wangw\AppData\Local\Temp\ccLETVy1.s 			page 23


 616 0056 4FF48041 		mov	r1, #16384
 617 005a 2046     		mov	r0, r4
 618 005c FFF7FEFF 		bl	HAL_GPIO_WritePin
 619              	.LVL64:
 646:Core/Src/main.c ****     //give pwm output
 647:Core/Src/main.c ****     __HAL_TIM_SetCompare(&htim8, TIM_CHANNEL_1, pwm);
 620              		.loc 1 647 5 view .LVU107
 621 0060 044B     		ldr	r3, .L41+4
 622 0062 1B68     		ldr	r3, [r3]
 623 0064 5D63     		str	r5, [r3, #52]
 648:Core/Src/main.c ****     __HAL_TIM_SetCompare(&htim8, TIM_CHANNEL_2, pwm);
 624              		.loc 1 648 5 view .LVU108
 625 0066 9D63     		str	r5, [r3, #56]
 649:Core/Src/main.c ****     __HAL_TIM_SetCompare(&htim8, TIM_CHANNEL_3, pwm);
 626              		.loc 1 649 5 view .LVU109
 627 0068 DD63     		str	r5, [r3, #60]
 650:Core/Src/main.c ****     __HAL_TIM_SetCompare(&htim8, TIM_CHANNEL_4, pwm);
 628              		.loc 1 650 5 view .LVU110
 629 006a 1D64     		str	r5, [r3, #64]
 651:Core/Src/main.c **** }
 630              		.loc 1 651 1 is_stmt 0 view .LVU111
 631 006c 38BD     		pop	{r3, r4, r5, pc}
 632              	.LVL65:
 633              	.L42:
 634              		.loc 1 651 1 view .LVU112
 635 006e 00BF     		.align	2
 636              	.L41:
 637 0070 000C0140 		.word	1073810432
 638 0074 00000000 		.word	htim8
 639              		.cfi_endproc
 640              	.LFE74:
 642              		.section	.text.rotate_clockwise_plus_forward,"ax",%progbits
 643              		.align	1
 644              		.global	rotate_clockwise_plus_forward
 645              		.syntax unified
 646              		.thumb
 647              		.thumb_func
 648              		.fpu softvfp
 650              	rotate_clockwise_plus_forward:
 651              	.LVL66:
 652              	.LFB75:
 652:Core/Src/main.c **** 
 653:Core/Src/main.c **** void rotate_clockwise_plus_forward(int pwm)
 654:Core/Src/main.c **** {
 653              		.loc 1 654 1 is_stmt 1 view -0
 654              		.cfi_startproc
 655              		@ args = 0, pretend = 0, frame = 0
 656              		@ frame_needed = 0, uses_anonymous_args = 0
 657              		.loc 1 654 1 is_stmt 0 view .LVU114
 658 0000 10B5     		push	{r4, lr}
 659              	.LCFI6:
 660              		.cfi_def_cfa_offset 8
 661              		.cfi_offset 4, -8
 662              		.cfi_offset 14, -4
 655:Core/Src/main.c ****     //change rotate direction of wheel
 656:Core/Src/main.c ****     HAL_GPIO_WritePin(GPIOB, GPIO_PIN_0, GPIO_PIN_SET); //Âè≥Ëæπ
 663              		.loc 1 656 5 is_stmt 1 view .LVU115
ARM GAS  C:\Users\wangw\AppData\Local\Temp\ccLETVy1.s 			page 24


 664 0002 1C4C     		ldr	r4, .L45
 665 0004 0122     		movs	r2, #1
 666 0006 1146     		mov	r1, r2
 667 0008 2046     		mov	r0, r4
 668              	.LVL67:
 669              		.loc 1 656 5 is_stmt 0 view .LVU116
 670 000a FFF7FEFF 		bl	HAL_GPIO_WritePin
 671              	.LVL68:
 657:Core/Src/main.c ****     HAL_GPIO_WritePin(GPIOB, GPIO_PIN_1, GPIO_PIN_RESET);
 672              		.loc 1 657 5 is_stmt 1 view .LVU117
 673 000e 0022     		movs	r2, #0
 674 0010 0221     		movs	r1, #2
 675 0012 2046     		mov	r0, r4
 676 0014 FFF7FEFF 		bl	HAL_GPIO_WritePin
 677              	.LVL69:
 658:Core/Src/main.c ****     HAL_GPIO_WritePin(GPIOB, GPIO_PIN_2, GPIO_PIN_RESET);
 678              		.loc 1 658 5 view .LVU118
 679 0018 0022     		movs	r2, #0
 680 001a 0421     		movs	r1, #4
 681 001c 2046     		mov	r0, r4
 682 001e FFF7FEFF 		bl	HAL_GPIO_WritePin
 683              	.LVL70:
 659:Core/Src/main.c ****     HAL_GPIO_WritePin(GPIOB, GPIO_PIN_10, GPIO_PIN_SET);
 684              		.loc 1 659 5 view .LVU119
 685 0022 0122     		movs	r2, #1
 686 0024 4FF48061 		mov	r1, #1024
 687 0028 2046     		mov	r0, r4
 688 002a FFF7FEFF 		bl	HAL_GPIO_WritePin
 689              	.LVL71:
 660:Core/Src/main.c ****     HAL_GPIO_WritePin(GPIOB, GPIO_PIN_11, GPIO_PIN_SET); //Â∑¶Ëæπ
 690              		.loc 1 660 5 view .LVU120
 691 002e 0122     		movs	r2, #1
 692 0030 4FF40061 		mov	r1, #2048
 693 0034 2046     		mov	r0, r4
 694 0036 FFF7FEFF 		bl	HAL_GPIO_WritePin
 695              	.LVL72:
 661:Core/Src/main.c ****     HAL_GPIO_WritePin(GPIOB, GPIO_PIN_12, GPIO_PIN_RESET);
 696              		.loc 1 661 5 view .LVU121
 697 003a 0022     		movs	r2, #0
 698 003c 4FF48051 		mov	r1, #4096
 699 0040 2046     		mov	r0, r4
 700 0042 FFF7FEFF 		bl	HAL_GPIO_WritePin
 701              	.LVL73:
 662:Core/Src/main.c ****     HAL_GPIO_WritePin(GPIOB, GPIO_PIN_13, GPIO_PIN_RESET);
 702              		.loc 1 662 5 view .LVU122
 703 0046 0022     		movs	r2, #0
 704 0048 4FF40051 		mov	r1, #8192
 705 004c 2046     		mov	r0, r4
 706 004e FFF7FEFF 		bl	HAL_GPIO_WritePin
 707              	.LVL74:
 663:Core/Src/main.c ****     HAL_GPIO_WritePin(GPIOB, GPIO_PIN_14, GPIO_PIN_SET);
 708              		.loc 1 663 5 view .LVU123
 709 0052 0122     		movs	r2, #1
 710 0054 4FF48041 		mov	r1, #16384
 711 0058 2046     		mov	r0, r4
 712 005a FFF7FEFF 		bl	HAL_GPIO_WritePin
 713              	.LVL75:
ARM GAS  C:\Users\wangw\AppData\Local\Temp\ccLETVy1.s 			page 25


 664:Core/Src/main.c ****     //give pwm output
 665:Core/Src/main.c ****     __HAL_TIM_SetCompare(&htim8, TIM_CHANNEL_1, 800);
 714              		.loc 1 665 5 view .LVU124
 715 005e 064B     		ldr	r3, .L45+4
 716 0060 1B68     		ldr	r3, [r3]
 717 0062 4FF44872 		mov	r2, #800
 718 0066 5A63     		str	r2, [r3, #52]
 666:Core/Src/main.c ****     __HAL_TIM_SetCompare(&htim8, TIM_CHANNEL_2, 800);
 719              		.loc 1 666 5 view .LVU125
 720 0068 9A63     		str	r2, [r3, #56]
 667:Core/Src/main.c ****     __HAL_TIM_SetCompare(&htim8, TIM_CHANNEL_3, 2000);
 721              		.loc 1 667 5 view .LVU126
 722 006a 4FF4FA62 		mov	r2, #2000
 723 006e DA63     		str	r2, [r3, #60]
 668:Core/Src/main.c ****     __HAL_TIM_SetCompare(&htim8, TIM_CHANNEL_4, 2000);
 724              		.loc 1 668 5 view .LVU127
 725 0070 1A64     		str	r2, [r3, #64]
 669:Core/Src/main.c **** }
 726              		.loc 1 669 1 is_stmt 0 view .LVU128
 727 0072 10BD     		pop	{r4, pc}
 728              	.L46:
 729              		.align	2
 730              	.L45:
 731 0074 000C0140 		.word	1073810432
 732 0078 00000000 		.word	htim8
 733              		.cfi_endproc
 734              	.LFE75:
 736              		.section	.text.brake,"ax",%progbits
 737              		.align	1
 738              		.global	brake
 739              		.syntax unified
 740              		.thumb
 741              		.thumb_func
 742              		.fpu softvfp
 744              	brake:
 745              	.LFB76:
 670:Core/Src/main.c **** void brake()
 671:Core/Src/main.c **** {
 746              		.loc 1 671 1 is_stmt 1 view -0
 747              		.cfi_startproc
 748              		@ args = 0, pretend = 0, frame = 0
 749              		@ frame_needed = 0, uses_anonymous_args = 0
 750 0000 10B5     		push	{r4, lr}
 751              	.LCFI7:
 752              		.cfi_def_cfa_offset 8
 753              		.cfi_offset 4, -8
 754              		.cfi_offset 14, -4
 672:Core/Src/main.c ****     //change rotate direction of wheel
 673:Core/Src/main.c ****     HAL_GPIO_WritePin(GPIOB, GPIO_PIN_0, GPIO_PIN_SET);
 755              		.loc 1 673 5 view .LVU130
 756 0002 1B4C     		ldr	r4, .L49
 757 0004 0122     		movs	r2, #1
 758 0006 1146     		mov	r1, r2
 759 0008 2046     		mov	r0, r4
 760 000a FFF7FEFF 		bl	HAL_GPIO_WritePin
 761              	.LVL76:
 674:Core/Src/main.c ****     HAL_GPIO_WritePin(GPIOB, GPIO_PIN_1, GPIO_PIN_SET);
ARM GAS  C:\Users\wangw\AppData\Local\Temp\ccLETVy1.s 			page 26


 762              		.loc 1 674 5 view .LVU131
 763 000e 0122     		movs	r2, #1
 764 0010 0221     		movs	r1, #2
 765 0012 2046     		mov	r0, r4
 766 0014 FFF7FEFF 		bl	HAL_GPIO_WritePin
 767              	.LVL77:
 675:Core/Src/main.c ****     HAL_GPIO_WritePin(GPIOB, GPIO_PIN_2, GPIO_PIN_SET);
 768              		.loc 1 675 5 view .LVU132
 769 0018 0122     		movs	r2, #1
 770 001a 0421     		movs	r1, #4
 771 001c 2046     		mov	r0, r4
 772 001e FFF7FEFF 		bl	HAL_GPIO_WritePin
 773              	.LVL78:
 676:Core/Src/main.c ****     HAL_GPIO_WritePin(GPIOB, GPIO_PIN_10, GPIO_PIN_SET);
 774              		.loc 1 676 5 view .LVU133
 775 0022 0122     		movs	r2, #1
 776 0024 4FF48061 		mov	r1, #1024
 777 0028 2046     		mov	r0, r4
 778 002a FFF7FEFF 		bl	HAL_GPIO_WritePin
 779              	.LVL79:
 677:Core/Src/main.c ****     HAL_GPIO_WritePin(GPIOB, GPIO_PIN_11, GPIO_PIN_SET);
 780              		.loc 1 677 5 view .LVU134
 781 002e 0122     		movs	r2, #1
 782 0030 4FF40061 		mov	r1, #2048
 783 0034 2046     		mov	r0, r4
 784 0036 FFF7FEFF 		bl	HAL_GPIO_WritePin
 785              	.LVL80:
 678:Core/Src/main.c ****     HAL_GPIO_WritePin(GPIOB, GPIO_PIN_12, GPIO_PIN_SET);
 786              		.loc 1 678 5 view .LVU135
 787 003a 0122     		movs	r2, #1
 788 003c 4FF48051 		mov	r1, #4096
 789 0040 2046     		mov	r0, r4
 790 0042 FFF7FEFF 		bl	HAL_GPIO_WritePin
 791              	.LVL81:
 679:Core/Src/main.c ****     HAL_GPIO_WritePin(GPIOB, GPIO_PIN_13, GPIO_PIN_SET);
 792              		.loc 1 679 5 view .LVU136
 793 0046 0122     		movs	r2, #1
 794 0048 4FF40051 		mov	r1, #8192
 795 004c 2046     		mov	r0, r4
 796 004e FFF7FEFF 		bl	HAL_GPIO_WritePin
 797              	.LVL82:
 680:Core/Src/main.c ****     HAL_GPIO_WritePin(GPIOB, GPIO_PIN_14, GPIO_PIN_SET);
 798              		.loc 1 680 5 view .LVU137
 799 0052 0122     		movs	r2, #1
 800 0054 4FF48041 		mov	r1, #16384
 801 0058 2046     		mov	r0, r4
 802 005a FFF7FEFF 		bl	HAL_GPIO_WritePin
 803              	.LVL83:
 681:Core/Src/main.c ****     //give pwm output
 682:Core/Src/main.c ****     __HAL_TIM_SetCompare(&htim8, TIM_CHANNEL_1, 0);
 804              		.loc 1 682 5 view .LVU138
 805 005e 054B     		ldr	r3, .L49+4
 806 0060 1B68     		ldr	r3, [r3]
 807 0062 0022     		movs	r2, #0
 808 0064 5A63     		str	r2, [r3, #52]
 683:Core/Src/main.c ****     __HAL_TIM_SetCompare(&htim8, TIM_CHANNEL_2, 0);
 809              		.loc 1 683 5 view .LVU139
ARM GAS  C:\Users\wangw\AppData\Local\Temp\ccLETVy1.s 			page 27


 810 0066 9A63     		str	r2, [r3, #56]
 684:Core/Src/main.c ****     __HAL_TIM_SetCompare(&htim8, TIM_CHANNEL_3, 0);
 811              		.loc 1 684 5 view .LVU140
 812 0068 DA63     		str	r2, [r3, #60]
 685:Core/Src/main.c ****     __HAL_TIM_SetCompare(&htim8, TIM_CHANNEL_4, 0);
 813              		.loc 1 685 5 view .LVU141
 814 006a 1A64     		str	r2, [r3, #64]
 686:Core/Src/main.c **** }
 815              		.loc 1 686 1 is_stmt 0 view .LVU142
 816 006c 10BD     		pop	{r4, pc}
 817              	.L50:
 818 006e 00BF     		.align	2
 819              	.L49:
 820 0070 000C0140 		.word	1073810432
 821 0074 00000000 		.word	htim8
 822              		.cfi_endproc
 823              	.LFE76:
 825              		.section	.text.fabs,"ax",%progbits
 826              		.align	1
 827              		.global	fabs
 828              		.syntax unified
 829              		.thumb
 830              		.thumb_func
 831              		.fpu softvfp
 833              	fabs:
 834              	.LVL84:
 835              	.LFB77:
 687:Core/Src/main.c **** double fabs(double x)
 688:Core/Src/main.c **** {
 836              		.loc 1 688 1 is_stmt 1 view -0
 837              		.cfi_startproc
 838              		@ args = 0, pretend = 0, frame = 0
 839              		@ frame_needed = 0, uses_anonymous_args = 0
 840              		.loc 1 688 1 is_stmt 0 view .LVU144
 841 0000 38B5     		push	{r3, r4, r5, lr}
 842              	.LCFI8:
 843              		.cfi_def_cfa_offset 16
 844              		.cfi_offset 3, -16
 845              		.cfi_offset 4, -12
 846              		.cfi_offset 5, -8
 847              		.cfi_offset 14, -4
 848 0002 0546     		mov	r5, r0
 849 0004 0C46     		mov	r4, r1
 689:Core/Src/main.c ****     //ÂèåÁ≤æÂ∫¶ÊµÆÁÇπÊï∞Ê±ÇÁªùÂØπÔøΩ?ÔøΩÂáΩÔøΩ??
 690:Core/Src/main.c ****     return (x > 0) ? x : (-x);
 850              		.loc 1 690 5 is_stmt 1 view .LVU145
 851              		.loc 1 690 24 is_stmt 0 view .LVU146
 852 0006 0022     		movs	r2, #0
 853 0008 0023     		movs	r3, #0
 854 000a 2846     		mov	r0, r5
 855              	.LVL85:
 856              		.loc 1 690 24 view .LVU147
 857 000c 2146     		mov	r1, r4
 858 000e FFF7FEFF 		bl	__aeabi_dcmpgt
 859              	.LVL86:
 860 0012 10B1     		cbz	r0, .L54
 861              	.L52:
ARM GAS  C:\Users\wangw\AppData\Local\Temp\ccLETVy1.s 			page 28


 691:Core/Src/main.c **** }
 862              		.loc 1 691 1 discriminator 4 view .LVU148
 863 0014 2846     		mov	r0, r5
 864 0016 2146     		mov	r1, r4
 865 0018 38BD     		pop	{r3, r4, r5, pc}
 866              	.L54:
 690:Core/Src/main.c **** }
 867              		.loc 1 690 24 discriminator 2 view .LVU149
 868 001a 04F10044 		add	r4, r4, #-2147483648
 869 001e F9E7     		b	.L52
 870              		.cfi_endproc
 871              	.LFE77:
 873              		.global	__aeabi_dcmpeq
 874              		.global	__aeabi_dmul
 875              		.global	__aeabi_ddiv
 876              		.global	__aeabi_d2iz
 877              		.section	.text.atan2LUTif,"ax",%progbits
 878              		.align	1
 879              		.global	atan2LUTif
 880              		.syntax unified
 881              		.thumb
 882              		.thumb_func
 883              		.fpu softvfp
 885              	atan2LUTif:
 886              	.LVL87:
 887              	.LFB78:
 692:Core/Src/main.c **** double atan2LUTif(double y, double x)
 693:Core/Src/main.c **** {
 888              		.loc 1 693 1 is_stmt 1 view -0
 889              		.cfi_startproc
 890              		@ args = 0, pretend = 0, frame = 0
 891              		@ frame_needed = 0, uses_anonymous_args = 0
 892              		.loc 1 693 1 is_stmt 0 view .LVU151
 893 0000 2DE9F843 		push	{r3, r4, r5, r6, r7, r8, r9, lr}
 894              	.LCFI9:
 895              		.cfi_def_cfa_offset 32
 896              		.cfi_offset 3, -32
 897              		.cfi_offset 4, -28
 898              		.cfi_offset 5, -24
 899              		.cfi_offset 6, -20
 900              		.cfi_offset 7, -16
 901              		.cfi_offset 8, -12
 902              		.cfi_offset 9, -8
 903              		.cfi_offset 14, -4
 904 0004 0446     		mov	r4, r0
 905 0006 0F46     		mov	r7, r1
 906 0008 1546     		mov	r5, r2
 907 000a 1E46     		mov	r6, r3
 694:Core/Src/main.c ****     //ÂèçÊ≠£ÂàáÂáΩÊï∞ÂÆûÔøΩ??.ËØØÂ∑Æ‰∏çÂ§ßÔøΩ??0.5¬∞.ÂÖ•Âè£ÂèÇÊï∞Ôºö‰∏§ÁÇπÈó¥y„ÄÅxÂùêÊ†áÁöÑÂ∑ÆÔøΩ??
 695:Core/Src/main.c ****     double absx, absy, val;
 908              		.loc 1 695 5 is_stmt 1 view .LVU152
 696:Core/Src/main.c ****     if (x == 0 && y == 0)
 909              		.loc 1 696 5 view .LVU153
 910              		.loc 1 696 8 is_stmt 0 view .LVU154
 911 000c 0022     		movs	r2, #0
 912              	.LVL88:
 913              		.loc 1 696 8 view .LVU155
ARM GAS  C:\Users\wangw\AppData\Local\Temp\ccLETVy1.s 			page 29


 914 000e 0023     		movs	r3, #0
 915 0010 2846     		mov	r0, r5
 916              	.LVL89:
 917              		.loc 1 696 8 view .LVU156
 918 0012 3146     		mov	r1, r6
 919 0014 FFF7FEFF 		bl	__aeabi_dcmpeq
 920              	.LVL90:
 921 0018 40B1     		cbz	r0, .L56
 922              		.loc 1 696 16 discriminator 1 view .LVU157
 923 001a 0022     		movs	r2, #0
 924 001c 0023     		movs	r3, #0
 925 001e 2046     		mov	r0, r4
 926 0020 3946     		mov	r1, r7
 927 0022 FFF7FEFF 		bl	__aeabi_dcmpeq
 928              	.LVL91:
 929 0026 0028     		cmp	r0, #0
 930 0028 40F0E180 		bne	.L75
 931              	.L56:
 697:Core/Src/main.c ****     {
 698:Core/Src/main.c ****         return 0;
 699:Core/Src/main.c ****     }
 700:Core/Src/main.c ****     absy = fabs(y);
 932              		.loc 1 700 5 is_stmt 1 view .LVU158
 933              		.loc 1 700 10 is_stmt 0 view .LVU159
 934 002c 27F00048 		bic	r8, r7, #-2147483648
 935              	.LVL92:
 701:Core/Src/main.c ****     absx = fabs(x);
 936              		.loc 1 701 5 is_stmt 1 view .LVU160
 937              		.loc 1 701 10 is_stmt 0 view .LVU161
 938 0030 26F00049 		bic	r9, r6, #-2147483648
 939              	.LVL93:
 702:Core/Src/main.c ****     if (absy - absx == absy)
 940              		.loc 1 702 5 is_stmt 1 view .LVU162
 941              		.loc 1 702 14 is_stmt 0 view .LVU163
 942 0034 2A46     		mov	r2, r5
 943 0036 4B46     		mov	r3, r9
 944 0038 2046     		mov	r0, r4
 945 003a 4146     		mov	r1, r8
 946 003c FFF7FEFF 		bl	__aeabi_dsub
 947              	.LVL94:
 948              		.loc 1 702 8 view .LVU164
 949 0040 2246     		mov	r2, r4
 950 0042 4346     		mov	r3, r8
 951 0044 FFF7FEFF 		bl	__aeabi_dcmpeq
 952              	.LVL95:
 953 0048 0028     		cmp	r0, #0
 954 004a 40D1     		bne	.L93
 703:Core/Src/main.c ****     {
 704:Core/Src/main.c ****         return y < 0 ? -M_PI_2 : M_PI_2;
 705:Core/Src/main.c ****     }
 706:Core/Src/main.c ****     if (absx - absy == absx)
 955              		.loc 1 706 5 is_stmt 1 view .LVU165
 956              		.loc 1 706 14 is_stmt 0 view .LVU166
 957 004c 2246     		mov	r2, r4
 958 004e 4346     		mov	r3, r8
 959 0050 2846     		mov	r0, r5
 960 0052 4946     		mov	r1, r9
ARM GAS  C:\Users\wangw\AppData\Local\Temp\ccLETVy1.s 			page 30


 961 0054 FFF7FEFF 		bl	__aeabi_dsub
 962              	.LVL96:
 963              		.loc 1 706 8 view .LVU167
 964 0058 2A46     		mov	r2, r5
 965 005a 4B46     		mov	r3, r9
 966 005c FFF7FEFF 		bl	__aeabi_dcmpeq
 967              	.LVL97:
 968 0060 0028     		cmp	r0, #0
 969 0062 40F0A380 		bne	.L77
 707:Core/Src/main.c ****     {
 708:Core/Src/main.c ****         val = 0.0;
 709:Core/Src/main.c ****     }
 710:Core/Src/main.c ****     else
 711:Core/Src/main.c ****     {
 712:Core/Src/main.c ****         if (y > 0)
 970              		.loc 1 712 9 is_stmt 1 view .LVU168
 971              		.loc 1 712 12 is_stmt 0 view .LVU169
 972 0066 0022     		movs	r2, #0
 973 0068 0023     		movs	r3, #0
 974 006a 2046     		mov	r0, r4
 975 006c 3946     		mov	r1, r7
 976 006e FFF7FEFF 		bl	__aeabi_dcmpgt
 977              	.LVL98:
 978 0072 0028     		cmp	r0, #0
 979 0074 54D0     		beq	.L89
 713:Core/Src/main.c ****         {
 714:Core/Src/main.c ****             if (absx > absy)
 980              		.loc 1 714 13 is_stmt 1 view .LVU170
 981              		.loc 1 714 16 is_stmt 0 view .LVU171
 982 0076 2A46     		mov	r2, r5
 983 0078 4B46     		mov	r3, r9
 984 007a 2046     		mov	r0, r4
 985 007c 4146     		mov	r1, r8
 986 007e FFF7FEFF 		bl	__aeabi_dcmplt
 987              	.LVL99:
 988 0082 98B3     		cbz	r0, .L90
 715:Core/Src/main.c ****                 val = ATAN_LUT[(int)(255 * absy / absx)]; //1st octant
 989              		.loc 1 715 17 is_stmt 1 view .LVU172
 990              		.loc 1 715 42 is_stmt 0 view .LVU173
 991 0084 5CA3     		adr	r3, .L96
 992 0086 D3E90023 		ldrd	r2, [r3]
 993 008a 2046     		mov	r0, r4
 994 008c 4146     		mov	r1, r8
 995 008e FFF7FEFF 		bl	__aeabi_dmul
 996              	.LVL100:
 997              		.loc 1 715 49 view .LVU174
 998 0092 2A46     		mov	r2, r5
 999 0094 4B46     		mov	r3, r9
 1000 0096 FFF7FEFF 		bl	__aeabi_ddiv
 1001              	.LVL101:
 1002              		.loc 1 715 32 view .LVU175
 1003 009a FFF7FEFF 		bl	__aeabi_d2iz
 1004              	.LVL102:
 1005              		.loc 1 715 21 view .LVU176
 1006 009e 604B     		ldr	r3, .L96+40
 1007 00a0 03EBC002 		add	r2, r3, r0, lsl #3
 1008 00a4 53F83040 		ldr	r4, [r3, r0, lsl #3]
ARM GAS  C:\Users\wangw\AppData\Local\Temp\ccLETVy1.s 			page 31


 1009              	.LVL103:
 1010              		.loc 1 715 21 view .LVU177
 1011 00a8 5768     		ldr	r7, [r2, #4]
 1012              	.LVL104:
 1013              	.L68:
 716:Core/Src/main.c ****             else
 717:Core/Src/main.c ****                 val = M_PI_2 - ATAN_LUT[(int)(255 * absx / absy)]; //2nd octant
 718:Core/Src/main.c ****             val = x < 0 ? (M_PI - val) : val;                      //3-4th octants from 2-1
 1014              		.loc 1 718 13 is_stmt 1 view .LVU178
 1015              		.loc 1 718 40 is_stmt 0 view .LVU179
 1016 00aa 0022     		movs	r2, #0
 1017 00ac 0023     		movs	r3, #0
 1018 00ae 2846     		mov	r0, r5
 1019 00b0 3146     		mov	r1, r6
 1020 00b2 FFF7FEFF 		bl	__aeabi_dcmplt
 1021              	.LVL105:
 1022 00b6 0028     		cmp	r0, #0
 1023 00b8 7AD0     		beq	.L63
 1024              		.loc 1 718 40 discriminator 1 view .LVU180
 1025 00ba 2246     		mov	r2, r4
 1026 00bc 3B46     		mov	r3, r7
 1027 00be 50A1     		adr	r1, .L96+8
 1028 00c0 D1E90001 		ldrd	r0, [r1]
 1029 00c4 FFF7FEFF 		bl	__aeabi_dsub
 1030              	.LVL106:
 1031 00c8 0446     		mov	r4, r0
 1032              	.LVL107:
 1033              		.loc 1 718 40 discriminator 1 view .LVU181
 1034 00ca 0F46     		mov	r7, r1
 1035 00cc 70E0     		b	.L63
 1036              	.LVL108:
 1037              	.L93:
 704:Core/Src/main.c ****     }
 1038              		.loc 1 704 9 is_stmt 1 view .LVU182
 704:Core/Src/main.c ****     }
 1039              		.loc 1 704 32 is_stmt 0 view .LVU183
 1040 00ce 0022     		movs	r2, #0
 1041 00d0 0023     		movs	r3, #0
 1042 00d2 2046     		mov	r0, r4
 1043 00d4 3946     		mov	r1, r7
 1044 00d6 FFF7FEFF 		bl	__aeabi_dcmplt
 1045              	.LVL109:
 1046 00da 18B9     		cbnz	r0, .L94
 1047 00dc 4AA5     		adr	r5, .L96+16
 1048 00de D5E90045 		ldrd	r4, [r5]
 1049              	.LVL110:
 704:Core/Src/main.c ****     }
 1050              		.loc 1 704 32 view .LVU184
 1051 00e2 77E0     		b	.L55
 1052              	.LVL111:
 1053              	.L94:
 704:Core/Src/main.c ****     }
 1054              		.loc 1 704 32 view .LVU185
 1055 00e4 4AA5     		adr	r5, .L96+24
 1056 00e6 D5E90045 		ldrd	r4, [r5]
 1057              	.LVL112:
 704:Core/Src/main.c ****     }
ARM GAS  C:\Users\wangw\AppData\Local\Temp\ccLETVy1.s 			page 32


 1058              		.loc 1 704 32 view .LVU186
 1059 00ea 73E0     		b	.L55
 1060              	.LVL113:
 1061              	.L90:
 717:Core/Src/main.c ****             val = x < 0 ? (M_PI - val) : val;                      //3-4th octants from 2-1
 1062              		.loc 1 717 17 is_stmt 1 view .LVU187
 717:Core/Src/main.c ****             val = x < 0 ? (M_PI - val) : val;                      //3-4th octants from 2-1
 1063              		.loc 1 717 51 is_stmt 0 view .LVU188
 1064 00ec 42A3     		adr	r3, .L96
 1065 00ee D3E90023 		ldrd	r2, [r3]
 1066 00f2 2846     		mov	r0, r5
 1067 00f4 4946     		mov	r1, r9
 1068 00f6 FFF7FEFF 		bl	__aeabi_dmul
 1069              	.LVL114:
 717:Core/Src/main.c ****             val = x < 0 ? (M_PI - val) : val;                      //3-4th octants from 2-1
 1070              		.loc 1 717 58 view .LVU189
 1071 00fa 2246     		mov	r2, r4
 1072 00fc 4346     		mov	r3, r8
 1073 00fe FFF7FEFF 		bl	__aeabi_ddiv
 1074              	.LVL115:
 717:Core/Src/main.c ****             val = x < 0 ? (M_PI - val) : val;                      //3-4th octants from 2-1
 1075              		.loc 1 717 41 view .LVU190
 1076 0102 FFF7FEFF 		bl	__aeabi_d2iz
 1077              	.LVL116:
 717:Core/Src/main.c ****             val = x < 0 ? (M_PI - val) : val;                      //3-4th octants from 2-1
 1078              		.loc 1 717 40 view .LVU191
 1079 0106 464B     		ldr	r3, .L96+40
 1080 0108 03EBC003 		add	r3, r3, r0, lsl #3
 717:Core/Src/main.c ****             val = x < 0 ? (M_PI - val) : val;                      //3-4th octants from 2-1
 1081              		.loc 1 717 21 view .LVU192
 1082 010c D3E90023 		ldrd	r2, [r3]
 1083 0110 3DA1     		adr	r1, .L96+16
 1084 0112 D1E90001 		ldrd	r0, [r1]
 1085 0116 FFF7FEFF 		bl	__aeabi_dsub
 1086              	.LVL117:
 1087 011a 0446     		mov	r4, r0
 1088              	.LVL118:
 717:Core/Src/main.c ****             val = x < 0 ? (M_PI - val) : val;                      //3-4th octants from 2-1
 1089              		.loc 1 717 21 view .LVU193
 1090 011c 0F46     		mov	r7, r1
 1091              	.LVL119:
 717:Core/Src/main.c ****             val = x < 0 ? (M_PI - val) : val;                      //3-4th octants from 2-1
 1092              		.loc 1 717 21 view .LVU194
 1093 011e C4E7     		b	.L68
 1094              	.LVL120:
 1095              	.L89:
 719:Core/Src/main.c ****         }
 720:Core/Src/main.c ****         else
 721:Core/Src/main.c ****         {
 722:Core/Src/main.c ****             if (absx > absy)
 1096              		.loc 1 722 13 is_stmt 1 view .LVU195
 1097              		.loc 1 722 16 is_stmt 0 view .LVU196
 1098 0120 2A46     		mov	r2, r5
 1099 0122 4B46     		mov	r3, r9
 1100 0124 2046     		mov	r0, r4
 1101 0126 4146     		mov	r1, r8
 1102 0128 FFF7FEFF 		bl	__aeabi_dcmplt
ARM GAS  C:\Users\wangw\AppData\Local\Temp\ccLETVy1.s 			page 33


 1103              	.LVL121:
 1104 012c 28B3     		cbz	r0, .L91
 723:Core/Src/main.c ****                 val = -ATAN_LUT[(int)(255 * absy / absx)]; //8th octant
 1105              		.loc 1 723 17 is_stmt 1 view .LVU197
 1106              		.loc 1 723 43 is_stmt 0 view .LVU198
 1107 012e 32A3     		adr	r3, .L96
 1108 0130 D3E90023 		ldrd	r2, [r3]
 1109 0134 2046     		mov	r0, r4
 1110 0136 4146     		mov	r1, r8
 1111 0138 FFF7FEFF 		bl	__aeabi_dmul
 1112              	.LVL122:
 1113              		.loc 1 723 50 view .LVU199
 1114 013c 2A46     		mov	r2, r5
 1115 013e 4B46     		mov	r3, r9
 1116 0140 FFF7FEFF 		bl	__aeabi_ddiv
 1117              	.LVL123:
 1118              		.loc 1 723 33 view .LVU200
 1119 0144 FFF7FEFF 		bl	__aeabi_d2iz
 1120              	.LVL124:
 1121              		.loc 1 723 32 view .LVU201
 1122 0148 354B     		ldr	r3, .L96+40
 1123 014a 03EBC002 		add	r2, r3, r0, lsl #3
 1124 014e 5768     		ldr	r7, [r2, #4]
 1125              		.loc 1 723 21 view .LVU202
 1126 0150 53F83040 		ldr	r4, [r3, r0, lsl #3]
 1127              	.LVL125:
 1128              		.loc 1 723 21 view .LVU203
 1129 0154 07F10047 		add	r7, r7, #-2147483648
 1130              	.LVL126:
 1131              	.L72:
 724:Core/Src/main.c ****             else
 725:Core/Src/main.c ****                 val = -M_PI_2 + ATAN_LUT[(int)(255 * absx / absy)]; //7th octant
 726:Core/Src/main.c ****             val = x < 0 ? -M_PI - val : val;                        //5-6th octants from 8-7
 1132              		.loc 1 726 13 is_stmt 1 view .LVU204
 1133              		.loc 1 726 39 is_stmt 0 view .LVU205
 1134 0158 0022     		movs	r2, #0
 1135 015a 0023     		movs	r3, #0
 1136 015c 2846     		mov	r0, r5
 1137 015e 3146     		mov	r1, r6
 1138 0160 FFF7FEFF 		bl	__aeabi_dcmplt
 1139              	.LVL127:
 1140 0164 20B3     		cbz	r0, .L63
 1141              		.loc 1 726 39 discriminator 1 view .LVU206
 1142 0166 2246     		mov	r2, r4
 1143 0168 3B46     		mov	r3, r7
 1144 016a 2BA1     		adr	r1, .L96+32
 1145 016c D1E90001 		ldrd	r0, [r1]
 1146 0170 FFF7FEFF 		bl	__aeabi_dsub
 1147              	.LVL128:
 1148 0174 0446     		mov	r4, r0
 1149              	.LVL129:
 1150              		.loc 1 726 39 discriminator 1 view .LVU207
 1151 0176 0F46     		mov	r7, r1
 1152 0178 1AE0     		b	.L63
 1153              	.LVL130:
 1154              	.L91:
 725:Core/Src/main.c ****             val = x < 0 ? -M_PI - val : val;                        //5-6th octants from 8-7
ARM GAS  C:\Users\wangw\AppData\Local\Temp\ccLETVy1.s 			page 34


 1155              		.loc 1 725 17 is_stmt 1 view .LVU208
 725:Core/Src/main.c ****             val = x < 0 ? -M_PI - val : val;                        //5-6th octants from 8-7
 1156              		.loc 1 725 52 is_stmt 0 view .LVU209
 1157 017a 1FA3     		adr	r3, .L96
 1158 017c D3E90023 		ldrd	r2, [r3]
 1159 0180 2846     		mov	r0, r5
 1160 0182 4946     		mov	r1, r9
 1161 0184 FFF7FEFF 		bl	__aeabi_dmul
 1162              	.LVL131:
 725:Core/Src/main.c ****             val = x < 0 ? -M_PI - val : val;                        //5-6th octants from 8-7
 1163              		.loc 1 725 59 view .LVU210
 1164 0188 2246     		mov	r2, r4
 1165 018a 4346     		mov	r3, r8
 1166 018c FFF7FEFF 		bl	__aeabi_ddiv
 1167              	.LVL132:
 725:Core/Src/main.c ****             val = x < 0 ? -M_PI - val : val;                        //5-6th octants from 8-7
 1168              		.loc 1 725 42 view .LVU211
 1169 0190 FFF7FEFF 		bl	__aeabi_d2iz
 1170              	.LVL133:
 725:Core/Src/main.c ****             val = x < 0 ? -M_PI - val : val;                        //5-6th octants from 8-7
 1171              		.loc 1 725 41 view .LVU212
 1172 0194 224B     		ldr	r3, .L96+40
 1173 0196 03EBC000 		add	r0, r3, r0, lsl #3
 725:Core/Src/main.c ****             val = x < 0 ? -M_PI - val : val;                        //5-6th octants from 8-7
 1174              		.loc 1 725 21 view .LVU213
 1175 019a 1BA3     		adr	r3, .L96+16
 1176 019c D3E90023 		ldrd	r2, [r3]
 1177 01a0 03C8     		ldmia	r0, {r0-r1}
 1178 01a2 FFF7FEFF 		bl	__aeabi_dsub
 1179              	.LVL134:
 1180 01a6 0446     		mov	r4, r0
 1181              	.LVL135:
 725:Core/Src/main.c ****             val = x < 0 ? -M_PI - val : val;                        //5-6th octants from 8-7
 1182              		.loc 1 725 21 view .LVU214
 1183 01a8 0F46     		mov	r7, r1
 1184              	.LVL136:
 725:Core/Src/main.c ****             val = x < 0 ? -M_PI - val : val;                        //5-6th octants from 8-7
 1185              		.loc 1 725 21 view .LVU215
 1186 01aa D5E7     		b	.L72
 1187              	.LVL137:
 1188              	.L77:
 708:Core/Src/main.c ****     }
 1189              		.loc 1 708 13 view .LVU216
 1190 01ac 0024     		movs	r4, #0
 1191              	.LVL138:
 708:Core/Src/main.c ****     }
 1192              		.loc 1 708 13 view .LVU217
 1193 01ae 2746     		mov	r7, r4
 1194              	.L63:
 1195              	.LVL139:
 727:Core/Src/main.c ****         }
 728:Core/Src/main.c ****     }
 729:Core/Src/main.c ****     val = val * 180 / M_PI;
 1196              		.loc 1 729 5 is_stmt 1 view .LVU218
 1197              		.loc 1 729 15 is_stmt 0 view .LVU219
 1198 01b0 0022     		movs	r2, #0
 1199 01b2 1C4B     		ldr	r3, .L96+44
ARM GAS  C:\Users\wangw\AppData\Local\Temp\ccLETVy1.s 			page 35


 1200 01b4 2046     		mov	r0, r4
 1201 01b6 3946     		mov	r1, r7
 1202 01b8 FFF7FEFF 		bl	__aeabi_dmul
 1203              	.LVL140:
 1204              		.loc 1 729 9 view .LVU220
 1205 01bc 10A3     		adr	r3, .L96+8
 1206 01be D3E90023 		ldrd	r2, [r3]
 1207 01c2 FFF7FEFF 		bl	__aeabi_ddiv
 1208              	.LVL141:
 1209 01c6 0446     		mov	r4, r0
 1210              	.LVL142:
 1211              		.loc 1 729 9 view .LVU221
 1212 01c8 0D46     		mov	r5, r1
 1213              	.LVL143:
 730:Core/Src/main.c ****     return (val < 0) ? (val + 360) : val;
 1214              		.loc 1 730 5 is_stmt 1 view .LVU222
 1215              		.loc 1 730 36 is_stmt 0 view .LVU223
 1216 01ca 0022     		movs	r2, #0
 1217 01cc 0023     		movs	r3, #0
 1218 01ce FFF7FEFF 		bl	__aeabi_dcmplt
 1219              	.LVL144:
 1220 01d2 18B9     		cbnz	r0, .L95
 1221              	.LVL145:
 1222              	.L55:
 731:Core/Src/main.c **** }
 1223              		.loc 1 731 1 view .LVU224
 1224 01d4 2046     		mov	r0, r4
 1225 01d6 2946     		mov	r1, r5
 1226 01d8 BDE8F883 		pop	{r3, r4, r5, r6, r7, r8, r9, pc}
 1227              	.LVL146:
 1228              	.L95:
 730:Core/Src/main.c ****     return (val < 0) ? (val + 360) : val;
 1229              		.loc 1 730 36 discriminator 1 view .LVU225
 1230 01dc 0022     		movs	r2, #0
 1231 01de 124B     		ldr	r3, .L96+48
 1232 01e0 2046     		mov	r0, r4
 1233 01e2 2946     		mov	r1, r5
 1234 01e4 FFF7FEFF 		bl	__aeabi_dadd
 1235              	.LVL147:
 1236 01e8 0446     		mov	r4, r0
 1237              	.LVL148:
 730:Core/Src/main.c ****     return (val < 0) ? (val + 360) : val;
 1238              		.loc 1 730 36 discriminator 1 view .LVU226
 1239 01ea 0D46     		mov	r5, r1
 1240 01ec F2E7     		b	.L55
 1241              	.L75:
 698:Core/Src/main.c ****     }
 1242              		.loc 1 698 16 view .LVU227
 1243 01ee 0024     		movs	r4, #0
 1244 01f0 0025     		movs	r5, #0
 1245 01f2 EFE7     		b	.L55
 1246              	.L97:
 1247 01f4 AFF30080 		.align	3
 1248              	.L96:
 1249 01f8 00000000 		.word	0
 1250 01fc 00E06F40 		.word	1081073664
 1251 0200 50455254 		.word	1414677840
ARM GAS  C:\Users\wangw\AppData\Local\Temp\ccLETVy1.s 			page 36


 1252 0204 FB210940 		.word	1074340347
 1253 0208 4AD8124D 		.word	1293080650
 1254 020c FB21F93F 		.word	1073291771
 1255 0210 4AD8124D 		.word	1293080650
 1256 0214 FB21F9BF 		.word	-1074191877
 1257 0218 50455254 		.word	1414677840
 1258 021c FB2109C0 		.word	-1073143301
 1259 0220 00000000 		.word	.LANCHOR1
 1260 0224 00806640 		.word	1080459264
 1261 0228 00807640 		.word	1081507840
 1262              		.cfi_endproc
 1263              	.LFE78:
 1265              		.global	__aeabi_i2d
 1266              		.global	__aeabi_ui2d
 1267              		.section	.text.Solve_Mine_Pos,"ax",%progbits
 1268              		.align	1
 1269              		.global	Solve_Mine_Pos
 1270              		.syntax unified
 1271              		.thumb
 1272              		.thumb_func
 1273              		.fpu softvfp
 1275              	Solve_Mine_Pos:
 1276              	.LVL149:
 1277              	.LFB79:
 732:Core/Src/main.c **** int Solve_Mine_Pos(uint16_t xx_1, uint16_t yy_1, uint32_t EE_1, uint16_t xx_2, uint16_t yy_2, uint3
 733:Core/Src/main.c **** {
 1278              		.loc 1 733 1 is_stmt 1 view -0
 1279              		.cfi_startproc
 1280              		@ args = 28, pretend = 0, frame = 56
 1281              		@ frame_needed = 0, uses_anonymous_args = 0
 1282              		.loc 1 733 1 is_stmt 0 view .LVU229
 1283 0000 2DE9F04F 		push	{r4, r5, r6, r7, r8, r9, r10, fp, lr}
 1284              	.LCFI10:
 1285              		.cfi_def_cfa_offset 36
 1286              		.cfi_offset 4, -36
 1287              		.cfi_offset 5, -32
 1288              		.cfi_offset 6, -28
 1289              		.cfi_offset 7, -24
 1290              		.cfi_offset 8, -20
 1291              		.cfi_offset 9, -16
 1292              		.cfi_offset 10, -12
 1293              		.cfi_offset 11, -8
 1294              		.cfi_offset 14, -4
 1295 0004 8FB0     		sub	sp, sp, #60
 1296              	.LCFI11:
 1297              		.cfi_def_cfa_offset 96
 1298 0006 8046     		mov	r8, r0
 1299 0008 8946     		mov	r9, r1
 1300 000a 1746     		mov	r7, r2
 1301 000c 1D46     		mov	r5, r3
 1302 000e BDF860A0 		ldrh	r10, [sp, #96]
 1303 0012 BDF86840 		ldrh	r4, [sp, #104]
 1304 0016 BDF86C30 		ldrh	r3, [sp, #108]
 1305              	.LVL150:
 734:Core/Src/main.c ****     /*
 735:Core/Src/main.c ****     ÂÖ•Âè£ÂèÇÊï∞Ôºöxx_i,yy_i,EE_i,(i=1,2,3)‰∏∫‰∏â‰∏™‰∏çÂêåÁÇπÁöÑÂùêÊ†á‰∏éÂú∫Âº∫„ÄÇdouble *coordinat
 736:Core/Src/main.c ****     Ê≠§ÂáΩÊï∞Ê†πÊçÆ‰∏âÁªÑÂùêÔøΩ??&Âú∫Âº∫Êï∞ÊçÆËøõË°åËß£ÁÆóÔºåÂ∞ÜÂæóÂà∞ÁöÑÁªìÊûúÂ≠òÂÇ®Âú®coordinateÊ
ARM GAS  C:\Users\wangw\AppData\Local\Temp\ccLETVy1.s 			page 37


 737:Core/Src/main.c ****     ËøîÂõûÂÄº‰∏∫0or1„ÄÇcase 1ÔºöËÆ°ÁÆóÊó†ÊòéÊòæÂºÇÂ∏∏;case 0Ôºö‰∏â‰∏™ÁÇπÊï∞ÊçÆÈáè‰∏çÂ§üÔºåÊàñÊòØËÆ°
 738:Core/Src/main.c ****     */
 739:Core/Src/main.c ****     /*
 740:Core/Src/main.c ****     ËÆ°ÁÆóÂÖ¨Âºè‰∏∫Ôºö
 741:Core/Src/main.c ****     y=(A*((xx_2-xx_3)/EE_1+(xx_3-xx_1)/EE_2+(xx_1-xx_2)/EE_3)+(xx_1-xx_2)*(xx_2-xx_3)*(xx_3-xx_1)+y
 742:Core/Src/main.c ****     x=(xx_1+xx_2-((xx_2-xx_3)*(A/EE_1-A/EE_2)-(yy_1-yy_2)*(xx_2-xx_3)*(yy_1+yy_2-2*y))/(xx_1-xx_2)/
 743:Core/Src/main.c ****     Ê≠§ÂÖ¨ÂºèÂú®matlab‰∏äËøêÁÆóÊ≠£Â∏∏ÔºåÁ≤æÂ∫¶Êª°Ë∂≥Ë¶ÅÊ±Ç
 744:Core/Src/main.c ****     */
 745:Core/Src/main.c ****     double determinant = xx_1 * yy_2 - xx_2 * yy_1 + xx_3 * yy_1 - xx_1 * yy_3 + xx_2 * yy_3 - xx_3
 1306              		.loc 1 745 5 is_stmt 1 view .LVU230
 1307              		.loc 1 745 31 is_stmt 0 view .LVU231
 1308 001a 0AFB00F6 		mul	r6, r10, r0
 1309              		.loc 1 745 38 view .LVU232
 1310 001e 01FB1566 		mls	r6, r1, r5, r6
 1311              		.loc 1 745 52 view .LVU233
 1312 0022 04FB0166 		mla	r6, r4, r1, r6
 1313              		.loc 1 745 66 view .LVU234
 1314 0026 03FB1066 		mls	r6, r3, r0, r6
 1315              		.loc 1 745 80 view .LVU235
 1316 002a 0993     		str	r3, [sp, #36]
 1317 002c 03FB0566 		mla	r6, r3, r5, r6
 1318              		.loc 1 745 101 view .LVU236
 1319 0030 04FB0AFB 		mul	fp, r4, r10
 1320              		.loc 1 745 12 view .LVU237
 1321 0034 A6EB0B00 		sub	r0, r6, fp
 1322              	.LVL151:
 1323              		.loc 1 745 12 view .LVU238
 1324 0038 FFF7FEFF 		bl	__aeabi_i2d
 1325              	.LVL152:
 1326              		.loc 1 745 12 view .LVU239
 1327 003c CDE90001 		strd	r0, [sp]
 1328              	.LVL153:
 746:Core/Src/main.c ****     if (!determinant) //??????
 1329              		.loc 1 746 5 is_stmt 1 view .LVU240
 1330              		.loc 1 746 8 is_stmt 0 view .LVU241
 1331 0040 5E45     		cmp	r6, fp
 1332 0042 00F05381 		beq	.L100
 747:Core/Src/main.c ****         return 0;
 748:Core/Src/main.c ****     double y = (((double)(xx_2 - xx_3) * (A_COFFIENT / (double)EE_1) + (double)(xx_3 - xx_1) * (A_C
 1333              		.loc 1 748 5 is_stmt 1 view .LVU242
 1334              		.loc 1 748 32 is_stmt 0 view .LVU243
 1335 0046 A5EB040B 		sub	fp, r5, r4
 1336              		.loc 1 748 18 view .LVU244
 1337 004a 5846     		mov	r0, fp
 1338              	.LVL154:
 1339              		.loc 1 748 18 view .LVU245
 1340 004c FFF7FEFF 		bl	__aeabi_i2d
 1341              	.LVL155:
 1342 0050 CDE90201 		strd	r0, [sp, #8]
 1343              		.loc 1 748 56 view .LVU246
 1344 0054 3846     		mov	r0, r7
 1345 0056 FFF7FEFF 		bl	__aeabi_ui2d
 1346              	.LVL156:
 1347 005a 0246     		mov	r2, r0
 1348 005c 0B46     		mov	r3, r1
 1349              		.loc 1 748 54 view .LVU247
 1350 005e AAA1     		adr	r1, .L106
ARM GAS  C:\Users\wangw\AppData\Local\Temp\ccLETVy1.s 			page 38


 1351 0060 D1E90001 		ldrd	r0, [r1]
 1352 0064 FFF7FEFF 		bl	__aeabi_ddiv
 1353              	.LVL157:
 1354 0068 0246     		mov	r2, r0
 1355 006a 0B46     		mov	r3, r1
 1356              		.loc 1 748 40 view .LVU248
 1357 006c CDE90A23 		strd	r2, [sp, #40]
 1358 0070 DDE90201 		ldrd	r0, [sp, #8]
 1359 0074 FFF7FEFF 		bl	__aeabi_dmul
 1360              	.LVL158:
 1361 0078 0646     		mov	r6, r0
 1362 007a 0F46     		mov	r7, r1
 1363              	.LVL159:
 1364              		.loc 1 748 72 view .LVU249
 1365 007c A4EB0800 		sub	r0, r4, r8
 1366 0080 FFF7FEFF 		bl	__aeabi_i2d
 1367              	.LVL160:
 1368 0084 CDE90601 		strd	r0, [sp, #24]
 1369              		.loc 1 748 110 view .LVU250
 1370 0088 1998     		ldr	r0, [sp, #100]
 1371 008a FFF7FEFF 		bl	__aeabi_ui2d
 1372              	.LVL161:
 1373 008e 0246     		mov	r2, r0
 1374 0090 0B46     		mov	r3, r1
 1375              		.loc 1 748 108 view .LVU251
 1376 0092 9DA1     		adr	r1, .L106
 1377 0094 D1E90001 		ldrd	r0, [r1]
 1378 0098 FFF7FEFF 		bl	__aeabi_ddiv
 1379              	.LVL162:
 1380 009c 0246     		mov	r2, r0
 1381 009e 0B46     		mov	r3, r1
 1382              		.loc 1 748 94 view .LVU252
 1383 00a0 CDE90C23 		strd	r2, [sp, #48]
 1384 00a4 DDE90601 		ldrd	r0, [sp, #24]
 1385 00a8 FFF7FEFF 		bl	__aeabi_dmul
 1386              	.LVL163:
 1387 00ac 0246     		mov	r2, r0
 1388 00ae 0B46     		mov	r3, r1
 1389              		.loc 1 748 70 view .LVU253
 1390 00b0 3046     		mov	r0, r6
 1391 00b2 3946     		mov	r1, r7
 1392 00b4 FFF7FEFF 		bl	__aeabi_dadd
 1393              	.LVL164:
 1394 00b8 0646     		mov	r6, r0
 1395 00ba 0F46     		mov	r7, r1
 1396              		.loc 1 748 126 view .LVU254
 1397 00bc A8EB0500 		sub	r0, r8, r5
 1398 00c0 FFF7FEFF 		bl	__aeabi_i2d
 1399              	.LVL165:
 1400 00c4 CDE90401 		strd	r0, [sp, #16]
 1401              		.loc 1 748 172 view .LVU255
 1402 00c8 1C98     		ldr	r0, [sp, #112]
 1403 00ca FFF7FEFF 		bl	__aeabi_ui2d
 1404              	.LVL166:
 1405 00ce 0246     		mov	r2, r0
 1406 00d0 0B46     		mov	r3, r1
 1407              		.loc 1 748 150 view .LVU256
ARM GAS  C:\Users\wangw\AppData\Local\Temp\ccLETVy1.s 			page 39


 1408 00d2 8DA1     		adr	r1, .L106
 1409 00d4 D1E90001 		ldrd	r0, [r1]
 1410 00d8 FFF7FEFF 		bl	__aeabi_ddiv
 1411              	.LVL167:
 1412 00dc 0246     		mov	r2, r0
 1413 00de 0B46     		mov	r3, r1
 1414              		.loc 1 748 148 view .LVU257
 1415 00e0 DDE90401 		ldrd	r0, [sp, #16]
 1416 00e4 FFF7FEFF 		bl	__aeabi_dmul
 1417              	.LVL168:
 1418 00e8 0246     		mov	r2, r0
 1419 00ea 0B46     		mov	r3, r1
 1420              		.loc 1 748 124 view .LVU258
 1421 00ec 3046     		mov	r0, r6
 1422 00ee 3946     		mov	r1, r7
 1423 00f0 FFF7FEFF 		bl	__aeabi_dadd
 1424              	.LVL169:
 1425              		.loc 1 748 187 view .LVU259
 1426 00f4 DDE90023 		ldrd	r2, [sp]
 1427 00f8 FFF7FEFF 		bl	__aeabi_ddiv
 1428              	.LVL170:
 1429 00fc 0646     		mov	r6, r0
 1430 00fe 0F46     		mov	r7, r1
 1431              		.loc 1 748 217 view .LVU260
 1432 0100 DDE90423 		ldrd	r2, [sp, #16]
 1433 0104 DDE90201 		ldrd	r0, [sp, #8]
 1434 0108 FFF7FEFF 		bl	__aeabi_dmul
 1435              	.LVL171:
 1436              		.loc 1 748 241 view .LVU261
 1437 010c DDE90023 		ldrd	r2, [sp]
 1438 0110 FFF7FEFF 		bl	__aeabi_ddiv
 1439              	.LVL172:
 1440 0114 0246     		mov	r2, r0
 1441 0116 0B46     		mov	r3, r1
 1442              		.loc 1 748 255 view .LVU262
 1443 0118 DDE90601 		ldrd	r0, [sp, #24]
 1444 011c FFF7FEFF 		bl	__aeabi_dmul
 1445              	.LVL173:
 1446 0120 0246     		mov	r2, r0
 1447 0122 0B46     		mov	r3, r1
 1448              		.loc 1 748 201 view .LVU263
 1449 0124 3046     		mov	r0, r6
 1450 0126 3946     		mov	r1, r7
 1451 0128 FFF7FEFF 		bl	__aeabi_dadd
 1452              	.LVL174:
 1453 012c CDE90601 		strd	r0, [sp, #24]
 1454              		.loc 1 748 273 view .LVU264
 1455 0130 4846     		mov	r0, r9
 1456 0132 FFF7FEFF 		bl	__aeabi_ui2d
 1457              	.LVL175:
 1458              		.loc 1 748 286 view .LVU265
 1459 0136 DDE90023 		ldrd	r2, [sp]
 1460 013a FFF7FEFF 		bl	__aeabi_ddiv
 1461              	.LVL176:
 1462 013e 0646     		mov	r6, r0
 1463 0140 0F46     		mov	r7, r1
 1464              		.loc 1 748 300 view .LVU266
ARM GAS  C:\Users\wangw\AppData\Local\Temp\ccLETVy1.s 			page 40


 1465 0142 4846     		mov	r0, r9
 1466 0144 FFF7FEFF 		bl	__aeabi_i2d
 1467              	.LVL177:
 1468 0148 3246     		mov	r2, r6
 1469 014a 3B46     		mov	r3, r7
 1470 014c FFF7FEFF 		bl	__aeabi_dmul
 1471              	.LVL178:
 1472 0150 0646     		mov	r6, r0
 1473 0152 0F46     		mov	r7, r1
 1474              		.loc 1 748 307 view .LVU267
 1475 0154 601B     		subs	r0, r4, r5
 1476 0156 FFF7FEFF 		bl	__aeabi_i2d
 1477              	.LVL179:
 1478 015a 3246     		mov	r2, r6
 1479 015c 3B46     		mov	r3, r7
 1480 015e FFF7FEFF 		bl	__aeabi_dmul
 1481              	.LVL180:
 1482 0162 0246     		mov	r2, r0
 1483 0164 0B46     		mov	r3, r1
 1484              		.loc 1 748 271 view .LVU268
 1485 0166 DDE90601 		ldrd	r0, [sp, #24]
 1486 016a FFF7FEFF 		bl	__aeabi_dadd
 1487              	.LVL181:
 1488 016e CDE90601 		strd	r0, [sp, #24]
 1489              		.loc 1 748 325 view .LVU269
 1490 0172 5046     		mov	r0, r10
 1491 0174 FFF7FEFF 		bl	__aeabi_ui2d
 1492              	.LVL182:
 1493 0178 0646     		mov	r6, r0
 1494 017a 0F46     		mov	r7, r1
 1495              		.loc 1 748 338 view .LVU270
 1496 017c 5046     		mov	r0, r10
 1497 017e FFF7FEFF 		bl	__aeabi_i2d
 1498              	.LVL183:
 1499 0182 3246     		mov	r2, r6
 1500 0184 3B46     		mov	r3, r7
 1501 0186 FFF7FEFF 		bl	__aeabi_dmul
 1502              	.LVL184:
 1503              		.loc 1 748 345 view .LVU271
 1504 018a DDE90023 		ldrd	r2, [sp]
 1505 018e FFF7FEFF 		bl	__aeabi_ddiv
 1506              	.LVL185:
 1507 0192 0646     		mov	r6, r0
 1508 0194 0F46     		mov	r7, r1
 1509              		.loc 1 748 359 view .LVU272
 1510 0196 A8EB0400 		sub	r0, r8, r4
 1511 019a FFF7FEFF 		bl	__aeabi_i2d
 1512              	.LVL186:
 1513 019e 3246     		mov	r2, r6
 1514 01a0 3B46     		mov	r3, r7
 1515 01a2 FFF7FEFF 		bl	__aeabi_dmul
 1516              	.LVL187:
 1517 01a6 0246     		mov	r2, r0
 1518 01a8 0B46     		mov	r3, r1
 1519              		.loc 1 748 323 view .LVU273
 1520 01aa DDE90601 		ldrd	r0, [sp, #24]
 1521 01ae FFF7FEFF 		bl	__aeabi_dadd
ARM GAS  C:\Users\wangw\AppData\Local\Temp\ccLETVy1.s 			page 41


 1522              	.LVL188:
 1523 01b2 CDE90601 		strd	r0, [sp, #24]
 1524              		.loc 1 748 377 view .LVU274
 1525 01b6 099C     		ldr	r4, [sp, #36]
 1526 01b8 2046     		mov	r0, r4
 1527 01ba FFF7FEFF 		bl	__aeabi_ui2d
 1528              	.LVL189:
 1529 01be 0646     		mov	r6, r0
 1530 01c0 0F46     		mov	r7, r1
 1531              		.loc 1 748 390 view .LVU275
 1532 01c2 2046     		mov	r0, r4
 1533 01c4 FFF7FEFF 		bl	__aeabi_i2d
 1534              	.LVL190:
 1535 01c8 3246     		mov	r2, r6
 1536 01ca 3B46     		mov	r3, r7
 1537 01cc FFF7FEFF 		bl	__aeabi_dmul
 1538              	.LVL191:
 1539              		.loc 1 748 397 view .LVU276
 1540 01d0 DDE90023 		ldrd	r2, [sp]
 1541 01d4 FFF7FEFF 		bl	__aeabi_ddiv
 1542              	.LVL192:
 1543 01d8 0646     		mov	r6, r0
 1544 01da 0F46     		mov	r7, r1
 1545              		.loc 1 748 411 view .LVU277
 1546 01dc A5EB0800 		sub	r0, r5, r8
 1547 01e0 FFF7FEFF 		bl	__aeabi_i2d
 1548              	.LVL193:
 1549 01e4 3246     		mov	r2, r6
 1550 01e6 3B46     		mov	r3, r7
 1551 01e8 FFF7FEFF 		bl	__aeabi_dmul
 1552              	.LVL194:
 1553 01ec 0246     		mov	r2, r0
 1554 01ee 0B46     		mov	r3, r1
 1555              		.loc 1 748 375 view .LVU278
 1556 01f0 DDE90601 		ldrd	r0, [sp, #24]
 1557 01f4 FFF7FEFF 		bl	__aeabi_dadd
 1558              	.LVL195:
 1559              		.loc 1 748 12 view .LVU279
 1560 01f8 0022     		movs	r2, #0
 1561 01fa 474B     		ldr	r3, .L106+16
 1562 01fc FFF7FEFF 		bl	__aeabi_dmul
 1563              	.LVL196:
 1564 0200 0646     		mov	r6, r0
 1565 0202 0F46     		mov	r7, r1
 1566              	.LVL197:
 749:Core/Src/main.c ****     double x = (xx_1 + xx_2 - ((xx_2 - xx_3) * (A_COFFIENT / (double)EE_1 - A_COFFIENT / (double)EE
 1567              		.loc 1 749 5 is_stmt 1 view .LVU280
 1568              		.loc 1 749 22 is_stmt 0 view .LVU281
 1569 0204 08EB0504 		add	r4, r8, r5
 1570              		.loc 1 749 75 view .LVU282
 1571 0208 DDE90C23 		ldrd	r2, [sp, #48]
 1572 020c DDE90A01 		ldrd	r0, [sp, #40]
 1573 0210 FFF7FEFF 		bl	__aeabi_dsub
 1574              	.LVL198:
 1575 0214 0246     		mov	r2, r0
 1576 0216 0B46     		mov	r3, r1
 1577              		.loc 1 749 46 view .LVU283
ARM GAS  C:\Users\wangw\AppData\Local\Temp\ccLETVy1.s 			page 42


 1578 0218 DDE90201 		ldrd	r0, [sp, #8]
 1579 021c FFF7FEFF 		bl	__aeabi_dmul
 1580              	.LVL199:
 1581 0220 CDE90001 		strd	r0, [sp]
 1582              	.LVL200:
 1583              		.loc 1 749 112 view .LVU284
 1584 0224 A9EB0A05 		sub	r5, r9, r10
 1585              		.loc 1 749 120 view .LVU285
 1586 0228 05FB0BF5 		mul	r5, r5, fp
 1587              		.loc 1 749 152 view .LVU286
 1588 022c CA44     		add	r10, r10, r9
 1589              		.loc 1 749 163 view .LVU287
 1590 022e 3246     		mov	r2, r6
 1591 0230 3B46     		mov	r3, r7
 1592 0232 3046     		mov	r0, r6
 1593 0234 3946     		mov	r1, r7
 1594 0236 FFF7FEFF 		bl	__aeabi_dadd
 1595              	.LVL201:
 1596 023a 8046     		mov	r8, r0
 1597 023c 8946     		mov	r9, r1
 1598              		.loc 1 749 138 view .LVU288
 1599 023e 5046     		mov	r0, r10
 1600 0240 FFF7FEFF 		bl	__aeabi_i2d
 1601              	.LVL202:
 1602 0244 4246     		mov	r2, r8
 1603 0246 4B46     		mov	r3, r9
 1604 0248 FFF7FEFF 		bl	__aeabi_dsub
 1605              	.LVL203:
 1606 024c 8046     		mov	r8, r0
 1607 024e 8946     		mov	r9, r1
 1608              		.loc 1 749 136 view .LVU289
 1609 0250 2846     		mov	r0, r5
 1610 0252 FFF7FEFF 		bl	__aeabi_i2d
 1611              	.LVL204:
 1612 0256 4246     		mov	r2, r8
 1613 0258 4B46     		mov	r3, r9
 1614 025a FFF7FEFF 		bl	__aeabi_dmul
 1615              	.LVL205:
 1616 025e 0246     		mov	r2, r0
 1617 0260 0B46     		mov	r3, r1
 1618              		.loc 1 749 104 view .LVU290
 1619 0262 DDE90001 		ldrd	r0, [sp]
 1620 0266 FFF7FEFF 		bl	__aeabi_dsub
 1621              	.LVL206:
 1622              		.loc 1 749 169 view .LVU291
 1623 026a DDE90423 		ldrd	r2, [sp, #16]
 1624 026e FFF7FEFF 		bl	__aeabi_ddiv
 1625              	.LVL207:
 1626              		.loc 1 749 185 view .LVU292
 1627 0272 DDE90223 		ldrd	r2, [sp, #8]
 1628 0276 FFF7FEFF 		bl	__aeabi_ddiv
 1629              	.LVL208:
 1630 027a 8046     		mov	r8, r0
 1631 027c 8946     		mov	r9, r1
 1632              		.loc 1 749 29 view .LVU293
 1633 027e 2046     		mov	r0, r4
 1634 0280 FFF7FEFF 		bl	__aeabi_i2d
ARM GAS  C:\Users\wangw\AppData\Local\Temp\ccLETVy1.s 			page 43


 1635              	.LVL209:
 1636 0284 4246     		mov	r2, r8
 1637 0286 4B46     		mov	r3, r9
 1638 0288 FFF7FEFF 		bl	__aeabi_dsub
 1639              	.LVL210:
 1640              		.loc 1 749 12 view .LVU294
 1641 028c 0022     		movs	r2, #0
 1642 028e 224B     		ldr	r3, .L106+16
 1643 0290 FFF7FEFF 		bl	__aeabi_dmul
 1644              	.LVL211:
 1645 0294 0446     		mov	r4, r0
 1646 0296 0D46     		mov	r5, r1
 1647              	.LVL212:
 750:Core/Src/main.c **** 
 751:Core/Src/main.c ****     if (x < -POS_ERR_TOL || x > 254 + POS_ERR_TOL || y < -POS_ERR_TOL || y > 254 + POS_ERR_TOL) //?
 1648              		.loc 1 751 5 is_stmt 1 view .LVU295
 1649              		.loc 1 751 8 is_stmt 0 view .LVU296
 1650 0298 0022     		movs	r2, #0
 1651 029a 204B     		ldr	r3, .L106+20
 1652 029c FFF7FEFF 		bl	__aeabi_dcmplt
 1653              	.LVL213:
 1654 02a0 30BB     		cbnz	r0, .L101
 1655              		.loc 1 751 26 discriminator 1 view .LVU297
 1656 02a2 1BA3     		adr	r3, .L106+8
 1657 02a4 D3E90023 		ldrd	r2, [r3]
 1658 02a8 2046     		mov	r0, r4
 1659 02aa 2946     		mov	r1, r5
 1660 02ac FFF7FEFF 		bl	__aeabi_dcmpgt
 1661              	.LVL214:
 1662 02b0 10BB     		cbnz	r0, .L102
 1663              		.loc 1 751 51 discriminator 2 view .LVU298
 1664 02b2 0022     		movs	r2, #0
 1665 02b4 194B     		ldr	r3, .L106+20
 1666 02b6 3046     		mov	r0, r6
 1667 02b8 3946     		mov	r1, r7
 1668 02ba FFF7FEFF 		bl	__aeabi_dcmplt
 1669              	.LVL215:
 1670 02be E8B9     		cbnz	r0, .L103
 1671              		.loc 1 751 71 discriminator 3 view .LVU299
 1672 02c0 13A3     		adr	r3, .L106+8
 1673 02c2 D3E90023 		ldrd	r2, [r3]
 1674 02c6 3046     		mov	r0, r6
 1675 02c8 3946     		mov	r1, r7
 1676 02ca FFF7FEFF 		bl	__aeabi_dcmpgt
 1677              	.LVL216:
 1678 02ce B8B9     		cbnz	r0, .L104
 752:Core/Src/main.c ****         return 0;
 753:Core/Src/main.c **** 
 754:Core/Src/main.c ****     *coordinate_x = (int)x;
 1679              		.loc 1 754 5 is_stmt 1 view .LVU300
 1680              		.loc 1 754 21 is_stmt 0 view .LVU301
 1681 02d0 2046     		mov	r0, r4
 1682 02d2 2946     		mov	r1, r5
 1683 02d4 FFF7FEFF 		bl	__aeabi_d2iz
 1684              	.LVL217:
 1685              		.loc 1 754 19 view .LVU302
 1686 02d8 1D9B     		ldr	r3, [sp, #116]
ARM GAS  C:\Users\wangw\AppData\Local\Temp\ccLETVy1.s 			page 44


 1687 02da 1860     		str	r0, [r3]
 755:Core/Src/main.c ****     *coordinate_y = (int)y;
 1688              		.loc 1 755 5 is_stmt 1 view .LVU303
 1689              		.loc 1 755 21 is_stmt 0 view .LVU304
 1690 02dc 3046     		mov	r0, r6
 1691 02de 3946     		mov	r1, r7
 1692 02e0 FFF7FEFF 		bl	__aeabi_d2iz
 1693              	.LVL218:
 1694              		.loc 1 755 19 view .LVU305
 1695 02e4 1E9B     		ldr	r3, [sp, #120]
 1696 02e6 1860     		str	r0, [r3]
 756:Core/Src/main.c ****     return 1;
 1697              		.loc 1 756 5 is_stmt 1 view .LVU306
 1698              		.loc 1 756 12 is_stmt 0 view .LVU307
 1699 02e8 0120     		movs	r0, #1
 1700 02ea 02E0     		b	.L98
 1701              	.LVL219:
 1702              	.L100:
 747:Core/Src/main.c ****     double y = (((double)(xx_2 - xx_3) * (A_COFFIENT / (double)EE_1) + (double)(xx_3 - xx_1) * (A_C
 1703              		.loc 1 747 16 view .LVU308
 1704 02ec 0020     		movs	r0, #0
 1705              	.LVL220:
 747:Core/Src/main.c ****     double y = (((double)(xx_2 - xx_3) * (A_COFFIENT / (double)EE_1) + (double)(xx_3 - xx_1) * (A_C
 1706              		.loc 1 747 16 view .LVU309
 1707 02ee 00E0     		b	.L98
 1708              	.LVL221:
 1709              	.L101:
 752:Core/Src/main.c **** 
 1710              		.loc 1 752 16 view .LVU310
 1711 02f0 0020     		movs	r0, #0
 1712              	.LVL222:
 1713              	.L98:
 757:Core/Src/main.c **** }
 1714              		.loc 1 757 1 view .LVU311
 1715 02f2 0FB0     		add	sp, sp, #60
 1716              	.LCFI12:
 1717              		.cfi_remember_state
 1718              		.cfi_def_cfa_offset 36
 1719              		@ sp needed
 1720 02f4 BDE8F08F 		pop	{r4, r5, r6, r7, r8, r9, r10, fp, pc}
 1721              	.LVL223:
 1722              	.L102:
 1723              	.LCFI13:
 1724              		.cfi_restore_state
 752:Core/Src/main.c **** 
 1725              		.loc 1 752 16 view .LVU312
 1726 02f8 0020     		movs	r0, #0
 1727 02fa FAE7     		b	.L98
 1728              	.L103:
 1729 02fc 0020     		movs	r0, #0
 1730 02fe F8E7     		b	.L98
 1731              	.L104:
 1732 0300 0020     		movs	r0, #0
 1733 0302 F6E7     		b	.L98
 1734              	.L107:
 1735 0304 AFF30080 		.align	3
 1736              	.L106:
ARM GAS  C:\Users\wangw\AppData\Local\Temp\ccLETVy1.s 			page 45


 1737 0308 00000000 		.word	0
 1738 030c 65CDCD41 		.word	1104006501
 1739 0310 00000000 		.word	0
 1740 0314 00207040 		.word	1081090048
 1741 0318 0000E03F 		.word	1071644672
 1742 031c 000010C0 		.word	-1072693248
 1743              		.cfi_endproc
 1744              	.LFE79:
 1746              		.section	.text.Sol_Car_Pos,"ax",%progbits
 1747              		.align	1
 1748              		.global	Sol_Car_Pos
 1749              		.syntax unified
 1750              		.thumb
 1751              		.thumb_func
 1752              		.fpu softvfp
 1754              	Sol_Car_Pos:
 1755              	.LVL224:
 1756              	.LFB80:
 758:Core/Src/main.c **** void Sol_Car_Pos(double r_1, double r_2, double r_3)
 759:Core/Src/main.c **** {
 1757              		.loc 1 759 1 is_stmt 1 view -0
 1758              		.cfi_startproc
 1759              		@ args = 8, pretend = 0, frame = 32
 1760              		@ frame_needed = 0, uses_anonymous_args = 0
 1761              		.loc 1 759 1 is_stmt 0 view .LVU314
 1762 0000 2DE9F04F 		push	{r4, r5, r6, r7, r8, r9, r10, fp, lr}
 1763              	.LCFI14:
 1764              		.cfi_def_cfa_offset 36
 1765              		.cfi_offset 4, -36
 1766              		.cfi_offset 5, -32
 1767              		.cfi_offset 6, -28
 1768              		.cfi_offset 7, -24
 1769              		.cfi_offset 8, -20
 1770              		.cfi_offset 9, -16
 1771              		.cfi_offset 10, -12
 1772              		.cfi_offset 11, -8
 1773              		.cfi_offset 14, -4
 1774 0004 89B0     		sub	sp, sp, #36
 1775              	.LCFI15:
 1776              		.cfi_def_cfa_offset 72
 1777 0006 1646     		mov	r6, r2
 1778 0008 1F46     		mov	r7, r3
 1779 000a DDE91289 		ldrd	r8, [sp, #72]
 760:Core/Src/main.c ****     ///Á¨¨‰∫åÂõûÂêàËÆ°ÁÆóÂ∞èËΩ¶‰ΩçÁΩÆÂáΩÊï∞„ÄÇËÆ°ÁÆóÂá∫Â∞èËΩ¶ÂΩìÂâçÂùêÊ†áÔºåÂ≠òÂÇ®Âú®car_Pos[2]Êï∞Á
 761:Core/Src/main.c ****     ///ËøîÂõûÂÄºÔºöÔøΩ??
 762:Core/Src/main.c ****     car_Pos[1] = (r_1 * r_1 * (beacon_Pos[4] - beacon_Pos[2]) + r_3 * r_3 * (beacon_Pos[2] - beacon
 1780              		.loc 1 762 5 is_stmt 1 view .LVU315
 1781              		.loc 1 762 23 is_stmt 0 view .LVU316
 1782 000e 0246     		mov	r2, r0
 1783              	.LVL225:
 1784              		.loc 1 762 23 view .LVU317
 1785 0010 0B46     		mov	r3, r1
 1786 0012 FFF7FEFF 		bl	__aeabi_dmul
 1787              	.LVL226:
 1788              		.loc 1 762 23 view .LVU318
 1789 0016 CDE90201 		strd	r0, [sp, #8]
 1790              		.loc 1 762 42 view .LVU319
ARM GAS  C:\Users\wangw\AppData\Local\Temp\ccLETVy1.s 			page 46


 1791 001a DFF8B0A1 		ldr	r10, .L110
 1792 001e DAF81040 		ldr	r4, [r10, #16]
 1793              		.loc 1 762 58 view .LVU320
 1794 0022 DAF80850 		ldr	r5, [r10, #8]
 1795              		.loc 1 762 29 view .LVU321
 1796 0026 601B     		subs	r0, r4, r5
 1797 0028 FFF7FEFF 		bl	__aeabi_i2d
 1798              	.LVL227:
 1799 002c DDE90223 		ldrd	r2, [sp, #8]
 1800 0030 FFF7FEFF 		bl	__aeabi_dmul
 1801              	.LVL228:
 1802 0034 CDE90001 		strd	r0, [sp]
 1803              		.loc 1 762 69 view .LVU322
 1804 0038 4246     		mov	r2, r8
 1805 003a 4B46     		mov	r3, r9
 1806 003c 4046     		mov	r0, r8
 1807 003e 4946     		mov	r1, r9
 1808 0040 FFF7FEFF 		bl	__aeabi_dmul
 1809              	.LVL229:
 1810 0044 CDE90401 		strd	r0, [sp, #16]
 1811              		.loc 1 762 104 view .LVU323
 1812 0048 DAF80080 		ldr	r8, [r10]
 1813              		.loc 1 762 75 view .LVU324
 1814 004c A5EB0800 		sub	r0, r5, r8
 1815 0050 FFF7FEFF 		bl	__aeabi_i2d
 1816              	.LVL230:
 1817 0054 DDE90423 		ldrd	r2, [sp, #16]
 1818 0058 FFF7FEFF 		bl	__aeabi_dmul
 1819              	.LVL231:
 1820 005c 0246     		mov	r2, r0
 1821 005e 0B46     		mov	r3, r1
 1822              		.loc 1 762 63 view .LVU325
 1823 0060 DDE90001 		ldrd	r0, [sp]
 1824 0064 FFF7FEFF 		bl	__aeabi_dadd
 1825              	.LVL232:
 1826 0068 CDE90001 		strd	r0, [sp]
 1827              		.loc 1 762 115 view .LVU326
 1828 006c 3246     		mov	r2, r6
 1829 006e 3B46     		mov	r3, r7
 1830 0070 3046     		mov	r0, r6
 1831 0072 3946     		mov	r1, r7
 1832 0074 FFF7FEFF 		bl	__aeabi_dmul
 1833              	.LVL233:
 1834 0078 0646     		mov	r6, r0
 1835 007a 0F46     		mov	r7, r1
 1836              		.loc 1 762 121 view .LVU327
 1837 007c A8EB0400 		sub	r0, r8, r4
 1838 0080 FFF7FEFF 		bl	__aeabi_i2d
 1839              	.LVL234:
 1840 0084 CDE90667 		strd	r6, [sp, #24]
 1841 0088 3246     		mov	r2, r6
 1842 008a 3B46     		mov	r3, r7
 1843 008c FFF7FEFF 		bl	__aeabi_dmul
 1844              	.LVL235:
 1845 0090 0246     		mov	r2, r0
 1846 0092 0B46     		mov	r3, r1
 1847              		.loc 1 762 109 view .LVU328
ARM GAS  C:\Users\wangw\AppData\Local\Temp\ccLETVy1.s 			page 47


 1848 0094 DDE90001 		ldrd	r0, [sp]
 1849 0098 FFF7FEFF 		bl	__aeabi_dadd
 1850              	.LVL236:
 1851              		.loc 1 762 156 view .LVU329
 1852 009c 0022     		movs	r2, #0
 1853 009e 4C4B     		ldr	r3, .L110+4
 1854 00a0 FFF7FEFF 		bl	__aeabi_dmul
 1855              	.LVL237:
 1856              		.loc 1 762 160 view .LVU330
 1857 00a4 4B4B     		ldr	r3, .L110+8
 1858 00a6 D3E90067 		ldrd	r6, [r3]
 1859 00aa CDE90067 		strd	r6, [sp]
 1860 00ae 3246     		mov	r2, r6
 1861 00b0 3B46     		mov	r3, r7
 1862 00b2 FFF7FEFF 		bl	__aeabi_ddiv
 1863              	.LVL238:
 1864 00b6 0646     		mov	r6, r0
 1865 00b8 0F46     		mov	r7, r1
 1866              		.loc 1 762 199 view .LVU331
 1867 00ba 281B     		subs	r0, r5, r4
 1868              		.loc 1 762 228 view .LVU332
 1869 00bc DAF804B0 		ldr	fp, [r10, #4]
 1870              		.loc 1 762 216 view .LVU333
 1871 00c0 0BFB00F3 		mul	r3, fp, r0
 1872              		.loc 1 762 265 view .LVU334
 1873 00c4 A8EB0500 		sub	r0, r8, r5
 1874              		.loc 1 762 294 view .LVU335
 1875 00c8 DAF81490 		ldr	r9, [r10, #20]
 1876              		.loc 1 762 282 view .LVU336
 1877 00cc 09FB00F0 		mul	r0, r9, r0
 1878              		.loc 1 762 298 view .LVU337
 1879 00d0 00FB09F0 		mul	r0, r0, r9
 1880              		.loc 1 762 248 view .LVU338
 1881 00d4 03FB0B00 		mla	r0, r3, fp, r0
 1882              		.loc 1 762 331 view .LVU339
 1883 00d8 A4EB0803 		sub	r3, r4, r8
 1884              		.loc 1 762 360 view .LVU340
 1885 00dc DAF80CA0 		ldr	r10, [r10, #12]
 1886              		.loc 1 762 348 view .LVU341
 1887 00e0 0AFB03F3 		mul	r3, r10, r3
 1888              		.loc 1 762 314 view .LVU342
 1889 00e4 03FB0A00 		mla	r0, r3, r10, r0
 1890              		.loc 1 762 381 view .LVU343
 1891 00e8 00EBD070 		add	r0, r0, r0, lsr #31
 1892              		.loc 1 762 385 view .LVU344
 1893 00ec 4010     		asrs	r0, r0, #1
 1894 00ee FFF7FEFF 		bl	__aeabi_i2d
 1895              	.LVL239:
 1896 00f2 DDE90023 		ldrd	r2, [sp]
 1897 00f6 FFF7FEFF 		bl	__aeabi_ddiv
 1898              	.LVL240:
 1899 00fa 0246     		mov	r2, r0
 1900 00fc 0B46     		mov	r3, r1
 1901              		.loc 1 762 181 view .LVU345
 1902 00fe 3046     		mov	r0, r6
 1903 0100 3946     		mov	r1, r7
 1904 0102 FFF7FEFF 		bl	__aeabi_dadd
ARM GAS  C:\Users\wangw\AppData\Local\Temp\ccLETVy1.s 			page 48


 1905              	.LVL241:
 1906              		.loc 1 762 16 view .LVU346
 1907 0106 FFF7FEFF 		bl	__aeabi_d2iz
 1908              	.LVL242:
 1909 010a 334B     		ldr	r3, .L110+12
 1910 010c 5860     		str	r0, [r3, #4]
 763:Core/Src/main.c ****     car_Pos[0] = -(r_1 * r_1 * (beacon_Pos[5] - beacon_Pos[3]) + r_3 * r_3 * (beacon_Pos[3] - beaco
 1911              		.loc 1 763 5 is_stmt 1 view .LVU347
 1912              		.loc 1 763 30 is_stmt 0 view .LVU348
 1913 010e A9EB0A00 		sub	r0, r9, r10
 1914 0112 FFF7FEFF 		bl	__aeabi_i2d
 1915              	.LVL243:
 1916 0116 DDE90223 		ldrd	r2, [sp, #8]
 1917 011a FFF7FEFF 		bl	__aeabi_dmul
 1918              	.LVL244:
 1919 011e 0646     		mov	r6, r0
 1920 0120 0F46     		mov	r7, r1
 1921              		.loc 1 763 76 view .LVU349
 1922 0122 AAEB0B00 		sub	r0, r10, fp
 1923 0126 FFF7FEFF 		bl	__aeabi_i2d
 1924              	.LVL245:
 1925 012a DDE90423 		ldrd	r2, [sp, #16]
 1926 012e FFF7FEFF 		bl	__aeabi_dmul
 1927              	.LVL246:
 1928 0132 0246     		mov	r2, r0
 1929 0134 0B46     		mov	r3, r1
 1930              		.loc 1 763 64 view .LVU350
 1931 0136 3046     		mov	r0, r6
 1932 0138 3946     		mov	r1, r7
 1933 013a FFF7FEFF 		bl	__aeabi_dadd
 1934              	.LVL247:
 1935 013e 0646     		mov	r6, r0
 1936 0140 0F46     		mov	r7, r1
 1937              		.loc 1 763 122 view .LVU351
 1938 0142 ABEB0900 		sub	r0, fp, r9
 1939 0146 FFF7FEFF 		bl	__aeabi_i2d
 1940              	.LVL248:
 1941 014a DDE90623 		ldrd	r2, [sp, #24]
 1942 014e FFF7FEFF 		bl	__aeabi_dmul
 1943              	.LVL249:
 1944 0152 0246     		mov	r2, r0
 1945 0154 0B46     		mov	r3, r1
 1946              		.loc 1 763 110 view .LVU352
 1947 0156 3046     		mov	r0, r6
 1948 0158 3946     		mov	r1, r7
 1949 015a FFF7FEFF 		bl	__aeabi_dadd
 1950              	.LVL250:
 1951 015e 0746     		mov	r7, r0
 1952 0160 0E46     		mov	r6, r1
 1953              		.loc 1 763 157 view .LVU353
 1954 0162 0022     		movs	r2, #0
 1955 0164 1A4B     		ldr	r3, .L110+4
 1956 0166 3846     		mov	r0, r7
 1957 0168 06F10041 		add	r1, r6, #-2147483648
 1958 016c FFF7FEFF 		bl	__aeabi_dmul
 1959              	.LVL251:
 1960              		.loc 1 763 161 view .LVU354
ARM GAS  C:\Users\wangw\AppData\Local\Temp\ccLETVy1.s 			page 49


 1961 0170 DDE90023 		ldrd	r2, [sp]
 1962 0174 FFF7FEFF 		bl	__aeabi_ddiv
 1963              	.LVL252:
 1964 0178 0646     		mov	r6, r0
 1965 017a 0F46     		mov	r7, r1
 1966              		.loc 1 763 200 view .LVU355
 1967 017c AAEB0900 		sub	r0, r10, r9
 1968              		.loc 1 763 217 view .LVU356
 1969 0180 00FB08F0 		mul	r0, r0, r8
 1970              		.loc 1 763 266 view .LVU357
 1971 0184 ABEB0A0A 		sub	r10, fp, r10
 1972              		.loc 1 763 283 view .LVU358
 1973 0188 0AFB04FA 		mul	r10, r10, r4
 1974              		.loc 1 763 299 view .LVU359
 1975 018c 0AFB04F4 		mul	r4, r10, r4
 1976              		.loc 1 763 249 view .LVU360
 1977 0190 00FB0848 		mla	r8, r0, r8, r4
 1978              		.loc 1 763 332 view .LVU361
 1979 0194 A9EB0B09 		sub	r9, r9, fp
 1980              		.loc 1 763 349 view .LVU362
 1981 0198 09FB05F9 		mul	r9, r9, r5
 1982              		.loc 1 763 315 view .LVU363
 1983 019c 09FB0585 		mla	r5, r9, r5, r8
 1984              		.loc 1 763 382 view .LVU364
 1985 01a0 05EBD575 		add	r5, r5, r5, lsr #31
 1986              		.loc 1 763 386 view .LVU365
 1987 01a4 6810     		asrs	r0, r5, #1
 1988 01a6 FFF7FEFF 		bl	__aeabi_i2d
 1989              	.LVL253:
 1990 01aa DDE90023 		ldrd	r2, [sp]
 1991 01ae FFF7FEFF 		bl	__aeabi_ddiv
 1992              	.LVL254:
 1993 01b2 0246     		mov	r2, r0
 1994 01b4 0B46     		mov	r3, r1
 1995              		.loc 1 763 182 view .LVU366
 1996 01b6 3046     		mov	r0, r6
 1997 01b8 3946     		mov	r1, r7
 1998 01ba FFF7FEFF 		bl	__aeabi_dsub
 1999              	.LVL255:
 2000              		.loc 1 763 16 view .LVU367
 2001 01be FFF7FEFF 		bl	__aeabi_d2iz
 2002              	.LVL256:
 2003 01c2 054B     		ldr	r3, .L110+12
 2004 01c4 1860     		str	r0, [r3]
 764:Core/Src/main.c **** }
 2005              		.loc 1 764 1 view .LVU368
 2006 01c6 09B0     		add	sp, sp, #36
 2007              	.LCFI16:
 2008              		.cfi_def_cfa_offset 36
 2009              		@ sp needed
 2010 01c8 BDE8F08F 		pop	{r4, r5, r6, r7, r8, r9, r10, fp, pc}
 2011              	.LVL257:
 2012              	.L111:
 2013              		.loc 1 764 1 view .LVU369
 2014              		.align	2
 2015              	.L110:
 2016 01cc 00000000 		.word	.LANCHOR2
ARM GAS  C:\Users\wangw\AppData\Local\Temp\ccLETVy1.s 			page 50


 2017 01d0 0000E03F 		.word	1071644672
 2018 01d4 00000000 		.word	.LANCHOR3
 2019 01d8 00000000 		.word	.LANCHOR4
 2020              		.cfi_endproc
 2021              	.LFE80:
 2023              		.section	.text.HAL_TIM_PeriodElapsedCallback,"ax",%progbits
 2024              		.align	1
 2025              		.global	HAL_TIM_PeriodElapsedCallback
 2026              		.syntax unified
 2027              		.thumb
 2028              		.thumb_func
 2029              		.fpu softvfp
 2031              	HAL_TIM_PeriodElapsedCallback:
 2032              	.LVL258:
 2033              	.LFB65:
 194:Core/Src/main.c ****     HAL_UART_Receive_DMA(&huart2, jy62Receive, JY62_MESSAGE_LENGTH);
 2034              		.loc 1 194 1 is_stmt 1 view -0
 2035              		.cfi_startproc
 2036              		@ args = 0, pretend = 0, frame = 0
 2037              		@ frame_needed = 0, uses_anonymous_args = 0
 194:Core/Src/main.c ****     HAL_UART_Receive_DMA(&huart2, jy62Receive, JY62_MESSAGE_LENGTH);
 2038              		.loc 1 194 1 is_stmt 0 view .LVU371
 2039 0000 2DE9F041 		push	{r4, r5, r6, r7, r8, lr}
 2040              	.LCFI17:
 2041              		.cfi_def_cfa_offset 24
 2042              		.cfi_offset 4, -24
 2043              		.cfi_offset 5, -20
 2044              		.cfi_offset 6, -16
 2045              		.cfi_offset 7, -12
 2046              		.cfi_offset 8, -8
 2047              		.cfi_offset 14, -4
 2048 0004 82B0     		sub	sp, sp, #8
 2049              	.LCFI18:
 2050              		.cfi_def_cfa_offset 32
 2051 0006 0446     		mov	r4, r0
 195:Core/Src/main.c ****     count_pos++;
 2052              		.loc 1 195 5 is_stmt 1 view .LVU372
 2053 0008 0B22     		movs	r2, #11
 2054 000a 2349     		ldr	r1, .L118
 2055 000c 2348     		ldr	r0, .L118+4
 2056              	.LVL259:
 195:Core/Src/main.c ****     count_pos++;
 2057              		.loc 1 195 5 is_stmt 0 view .LVU373
 2058 000e FFF7FEFF 		bl	HAL_UART_Receive_DMA
 2059              	.LVL260:
 196:Core/Src/main.c ****     if (htim->Instance == TIM1)
 2060              		.loc 1 196 5 is_stmt 1 view .LVU374
 196:Core/Src/main.c ****     if (htim->Instance == TIM1)
 2061              		.loc 1 196 14 is_stmt 0 view .LVU375
 2062 0012 234A     		ldr	r2, .L118+8
 2063 0014 1368     		ldr	r3, [r2]
 2064 0016 0133     		adds	r3, r3, #1
 2065 0018 1360     		str	r3, [r2]
 197:Core/Src/main.c ****     {
 2066              		.loc 1 197 5 is_stmt 1 view .LVU376
 197:Core/Src/main.c ****     {
 2067              		.loc 1 197 13 is_stmt 0 view .LVU377
ARM GAS  C:\Users\wangw\AppData\Local\Temp\ccLETVy1.s 			page 51


 2068 001a 2168     		ldr	r1, [r4]
 197:Core/Src/main.c ****     {
 2069              		.loc 1 197 8 view .LVU378
 2070 001c 214A     		ldr	r2, .L118+12
 2071 001e 9142     		cmp	r1, r2
 2072 0020 02D0     		beq	.L116
 2073              	.LVL261:
 2074              	.L112:
 210:Core/Src/main.c **** /* USER CODE END 0 */
 2075              		.loc 1 210 1 view .LVU379
 2076 0022 02B0     		add	sp, sp, #8
 2077              	.LCFI19:
 2078              		.cfi_remember_state
 2079              		.cfi_def_cfa_offset 24
 2080              		@ sp needed
 2081 0024 BDE8F081 		pop	{r4, r5, r6, r7, r8, pc}
 2082              	.LVL262:
 2083              	.L116:
 2084              	.LCFI20:
 2085              		.cfi_restore_state
 199:Core/Src/main.c ****             count_pos=0;
 2086              		.loc 1 199 9 is_stmt 1 view .LVU380
 199:Core/Src/main.c ****             count_pos=0;
 2087              		.loc 1 199 12 is_stmt 0 view .LVU381
 2088 0028 022B     		cmp	r3, #2
 2089 002a FAD1     		bne	.L112
 200:Core/Src/main.c ****             trigger=1;
 2090              		.loc 1 200 13 is_stmt 1 view .LVU382
 200:Core/Src/main.c ****             trigger=1;
 2091              		.loc 1 200 22 is_stmt 0 view .LVU383
 2092 002c 1C4B     		ldr	r3, .L118+8
 2093 002e 0022     		movs	r2, #0
 2094 0030 1A60     		str	r2, [r3]
 201:Core/Src/main.c ****             if (Round==1){  //Á¨¨‰∏ÄÂõûÂêàÔºåÈÄöËøágetCarPosX()Êõ¥Êñ∞Â∞èËΩ¶xyÂùêÊ†á
 2095              		.loc 1 201 13 is_stmt 1 view .LVU384
 201:Core/Src/main.c ****             if (Round==1){  //Á¨¨‰∏ÄÂõûÂêàÔºåÈÄöËøágetCarPosX()Êõ¥Êñ∞Â∞èËΩ¶xyÂùêÊ†á
 2096              		.loc 1 201 20 is_stmt 0 view .LVU385
 2097 0032 1D4B     		ldr	r3, .L118+16
 2098 0034 0122     		movs	r2, #1
 2099 0036 1A80     		strh	r2, [r3]	@ movhi
 202:Core/Src/main.c ****                 car_Pos[0] = getCarPosX();
 2100              		.loc 1 202 13 is_stmt 1 view .LVU386
 202:Core/Src/main.c ****                 car_Pos[0] = getCarPosX();
 2101              		.loc 1 202 22 is_stmt 0 view .LVU387
 2102 0038 1C4B     		ldr	r3, .L118+20
 2103 003a B3F90030 		ldrsh	r3, [r3]
 202:Core/Src/main.c ****                 car_Pos[0] = getCarPosX();
 2104              		.loc 1 202 16 view .LVU388
 2105 003e 9342     		cmp	r3, r2
 2106 0040 21D0     		beq	.L117
 207:Core/Src/main.c ****         }
 2107              		.loc 1 207 17 is_stmt 1 view .LVU389
 207:Core/Src/main.c ****         }
 2108              		.loc 1 207 29 is_stmt 0 view .LVU390
 2109 0042 0020     		movs	r0, #0
 2110 0044 FFF7FEFF 		bl	getDistanceOfMyBeacon
 2111              	.LVL263:
ARM GAS  C:\Users\wangw\AppData\Local\Temp\ccLETVy1.s 			page 52


 2112 0048 0446     		mov	r4, r0
 2113              	.LVL264:
 207:Core/Src/main.c ****         }
 2114              		.loc 1 207 55 view .LVU391
 2115 004a 0120     		movs	r0, #1
 2116 004c FFF7FEFF 		bl	getDistanceOfMyBeacon
 2117              	.LVL265:
 2118 0050 0546     		mov	r5, r0
 207:Core/Src/main.c ****         }
 2119              		.loc 1 207 81 view .LVU392
 2120 0052 0220     		movs	r0, #2
 2121 0054 FFF7FEFF 		bl	getDistanceOfMyBeacon
 2122              	.LVL266:
 2123 0058 8046     		mov	r8, r0
 207:Core/Src/main.c ****         }
 2124              		.loc 1 207 17 view .LVU393
 2125 005a 2846     		mov	r0, r5
 2126 005c FFF7FEFF 		bl	__aeabi_ui2d
 2127              	.LVL267:
 2128 0060 0646     		mov	r6, r0
 2129 0062 0F46     		mov	r7, r1
 2130 0064 2046     		mov	r0, r4
 2131 0066 FFF7FEFF 		bl	__aeabi_ui2d
 2132              	.LVL268:
 2133 006a 0446     		mov	r4, r0
 2134 006c 0D46     		mov	r5, r1
 2135 006e 4046     		mov	r0, r8
 2136 0070 FFF7FEFF 		bl	__aeabi_ui2d
 2137              	.LVL269:
 2138 0074 CDE90001 		strd	r0, [sp]
 2139 0078 3246     		mov	r2, r6
 2140 007a 3B46     		mov	r3, r7
 2141 007c 2046     		mov	r0, r4
 2142 007e 2946     		mov	r1, r5
 2143 0080 FFF7FEFF 		bl	Sol_Car_Pos
 2144              	.LVL270:
 210:Core/Src/main.c **** /* USER CODE END 0 */
 2145              		.loc 1 210 1 view .LVU394
 2146 0084 CDE7     		b	.L112
 2147              	.LVL271:
 2148              	.L117:
 203:Core/Src/main.c ****                 car_Pos[1] = getCarPosY(); ///Êõ¥Êñ∞Â∞èËΩ¶xyÂùêÊ†á
 2149              		.loc 1 203 17 is_stmt 1 view .LVU395
 203:Core/Src/main.c ****                 car_Pos[1] = getCarPosY(); ///Êõ¥Êñ∞Â∞èËΩ¶xyÂùêÊ†á
 2150              		.loc 1 203 30 is_stmt 0 view .LVU396
 2151 0086 FFF7FEFF 		bl	getCarPosX
 2152              	.LVL272:
 203:Core/Src/main.c ****                 car_Pos[1] = getCarPosY(); ///Êõ¥Êñ∞Â∞èËΩ¶xyÂùêÊ†á
 2153              		.loc 1 203 28 view .LVU397
 2154 008a 094C     		ldr	r4, .L118+24
 2155              	.LVL273:
 203:Core/Src/main.c ****                 car_Pos[1] = getCarPosY(); ///Êõ¥Êñ∞Â∞èËΩ¶xyÂùêÊ†á
 2156              		.loc 1 203 28 view .LVU398
 2157 008c 2060     		str	r0, [r4]
 204:Core/Src/main.c ****             }
 2158              		.loc 1 204 17 is_stmt 1 view .LVU399
 204:Core/Src/main.c ****             }
ARM GAS  C:\Users\wangw\AppData\Local\Temp\ccLETVy1.s 			page 53


 2159              		.loc 1 204 30 is_stmt 0 view .LVU400
 2160 008e FFF7FEFF 		bl	getCarPosY
 2161              	.LVL274:
 204:Core/Src/main.c ****             }
 2162              		.loc 1 204 28 view .LVU401
 2163 0092 6060     		str	r0, [r4, #4]
 2164 0094 C5E7     		b	.L112
 2165              	.L119:
 2166 0096 00BF     		.align	2
 2167              	.L118:
 2168 0098 00000000 		.word	jy62Receive
 2169 009c 00000000 		.word	huart2
 2170 00a0 00000000 		.word	.LANCHOR5
 2171 00a4 002C0140 		.word	1073818624
 2172 00a8 00000000 		.word	.LANCHOR6
 2173 00ac 00000000 		.word	.LANCHOR7
 2174 00b0 00000000 		.word	.LANCHOR4
 2175              		.cfi_endproc
 2176              	.LFE65:
 2178              		.global	__aeabi_d2f
 2179              		.global	__aeabi_fsub
 2180              		.global	__aeabi_f2d
 2181              		.global	__aeabi_fcmplt
 2182              		.global	__aeabi_dcmpge
 2183              		.global	__aeabi_fcmpgt
 2184              		.global	__aeabi_dcmple
 2185              		.section	.text.find,"ax",%progbits
 2186              		.align	1
 2187              		.global	find
 2188              		.syntax unified
 2189              		.thumb
 2190              		.thumb_func
 2191              		.fpu softvfp
 2193              	find:
 2194              	.LVL275:
 2195              	.LFB81:
 765:Core/Src/main.c **** void find(int x, int y){    //ÂêëÁõÆÊ†áÁÇπ(x,y)ÁßªÂä®ÂáΩÊï∞
 2196              		.loc 1 765 24 is_stmt 1 view -0
 2197              		.cfi_startproc
 2198              		@ args = 0, pretend = 0, frame = 0
 2199              		@ frame_needed = 0, uses_anonymous_args = 0
 2200              		.loc 1 765 24 is_stmt 0 view .LVU403
 2201 0000 F8B5     		push	{r3, r4, r5, r6, r7, lr}
 2202              	.LCFI21:
 2203              		.cfi_def_cfa_offset 24
 2204              		.cfi_offset 3, -24
 2205              		.cfi_offset 4, -20
 2206              		.cfi_offset 5, -16
 2207              		.cfi_offset 6, -12
 2208              		.cfi_offset 7, -8
 2209              		.cfi_offset 14, -4
 766:Core/Src/main.c ****     float angle_obj;
 2210              		.loc 1 766 5 is_stmt 1 view .LVU404
 767:Core/Src/main.c ****     static double prev_err=0.0,curr_err=0.0;
 2211              		.loc 1 767 5 view .LVU405
 768:Core/Src/main.c ****     angle_obj = 360 - atan2LUTif(y - car_Pos[1], x - car_Pos[0]); ///ËÆ°ÁÆóÂà∞ÁõÆÊ†áÁÇπËøûÁ∫øÁöÑÂ§π
 2212              		.loc 1 768 5 view .LVU406
ARM GAS  C:\Users\wangw\AppData\Local\Temp\ccLETVy1.s 			page 54


 2213              		.loc 1 768 45 is_stmt 0 view .LVU407
 2214 0002 AB4B     		ldr	r3, .L197+8
 2215 0004 5E68     		ldr	r6, [r3, #4]
 2216              		.loc 1 768 36 view .LVU408
 2217 0006 8E1B     		subs	r6, r1, r6
 2218              		.loc 1 768 61 view .LVU409
 2219 0008 1B68     		ldr	r3, [r3]
 2220              		.loc 1 768 23 view .LVU410
 2221 000a C01A     		subs	r0, r0, r3
 2222              	.LVL276:
 2223              		.loc 1 768 23 view .LVU411
 2224 000c FFF7FEFF 		bl	__aeabi_i2d
 2225              	.LVL277:
 2226              		.loc 1 768 23 view .LVU412
 2227 0010 0446     		mov	r4, r0
 2228 0012 0D46     		mov	r5, r1
 2229 0014 3046     		mov	r0, r6
 2230 0016 FFF7FEFF 		bl	__aeabi_i2d
 2231              	.LVL278:
 2232 001a 2246     		mov	r2, r4
 2233 001c 2B46     		mov	r3, r5
 2234 001e FFF7FEFF 		bl	atan2LUTif
 2235              	.LVL279:
 2236 0022 0246     		mov	r2, r0
 2237 0024 0B46     		mov	r3, r1
 2238              		.loc 1 768 21 view .LVU413
 2239 0026 0020     		movs	r0, #0
 2240 0028 A249     		ldr	r1, .L197+12
 2241 002a FFF7FEFF 		bl	__aeabi_dsub
 2242              	.LVL280:
 2243              		.loc 1 768 15 view .LVU414
 2244 002e FFF7FEFF 		bl	__aeabi_d2f
 2245              	.LVL281:
 2246 0032 0446     		mov	r4, r0
 2247              	.LVL282:
 769:Core/Src/main.c **** 
 770:Core/Src/main.c ****     float angle_car = GetYaw();
 2248              		.loc 1 770 5 is_stmt 1 view .LVU415
 2249              		.loc 1 770 23 is_stmt 0 view .LVU416
 2250 0034 FFF7FEFF 		bl	GetYaw
 2251              	.LVL283:
 2252              		.loc 1 770 23 view .LVU417
 2253 0038 0546     		mov	r5, r0
 2254              	.LVL284:
 771:Core/Src/main.c ****     if (angle_obj >= angle_err && angle_obj <= 360.0 - angle_err)
 2255              		.loc 1 771 5 is_stmt 1 view .LVU418
 2256              		.loc 1 771 8 is_stmt 0 view .LVU419
 2257 003a 4FF08041 		mov	r1, #1073741824
 2258 003e 2046     		mov	r0, r4
 2259              	.LVL285:
 2260              		.loc 1 771 8 view .LVU420
 2261 0040 FFF7FEFF 		bl	__aeabi_fcmpge
 2262              	.LVL286:
 2263 0044 0028     		cmp	r0, #0
 2264 0046 00F0A380 		beq	.L121
 2265              		.loc 1 771 32 discriminator 1 view .LVU421
 2266 004a 9B49     		ldr	r1, .L197+16
ARM GAS  C:\Users\wangw\AppData\Local\Temp\ccLETVy1.s 			page 55


 2267 004c 2046     		mov	r0, r4
 2268 004e FFF7FEFF 		bl	__aeabi_fcmple
 2269              	.LVL287:
 2270 0052 0028     		cmp	r0, #0
 2271 0054 00F09C80 		beq	.L121
 772:Core/Src/main.c ****     {
 773:Core/Src/main.c ****         if (angle_car >= angle_obj - angle_err && angle_car <= angle_obj + angle_err)
 2272              		.loc 1 773 9 is_stmt 1 view .LVU422
 2273              		.loc 1 773 36 is_stmt 0 view .LVU423
 2274 0058 4FF08041 		mov	r1, #1073741824
 2275 005c 2046     		mov	r0, r4
 2276 005e FFF7FEFF 		bl	__aeabi_fsub
 2277              	.LVL288:
 2278              		.loc 1 773 12 view .LVU424
 2279 0062 2946     		mov	r1, r5
 2280 0064 FFF7FEFF 		bl	__aeabi_fcmple
 2281              	.LVL289:
 2282 0068 40B1     		cbz	r0, .L124
 2283              		.loc 1 773 74 discriminator 1 view .LVU425
 2284 006a 4FF08041 		mov	r1, #1073741824
 2285 006e 2046     		mov	r0, r4
 2286 0070 FFF7FEFF 		bl	__aeabi_fadd
 2287              	.LVL290:
 2288              		.loc 1 773 48 discriminator 1 view .LVU426
 2289 0074 2946     		mov	r1, r5
 2290 0076 FFF7FEFF 		bl	__aeabi_fcmpge
 2291              	.LVL291:
 2292 007a E8B9     		cbnz	r0, .L192
 2293              	.L124:
 774:Core/Src/main.c ****         {
 775:Core/Src/main.c ****             curr_err = angle_car-angle_obj;
 776:Core/Src/main.c ****             if (prev_err&&fabs(curr_err-prev_err)>2)        //ÈôêÂπÖÊª§Ê≥¢
 777:Core/Src/main.c ****                 curr_err=prev_err;
 778:Core/Src/main.c ****             forward(forward_speed,(int)(150*curr_err));    //Â¢ûÂä†ÊØî‰æã‰øÆÊ≠£È°π
 779:Core/Src/main.c ****             goto_state = 1;
 780:Core/Src/main.c ****             prev_err = curr_err;
 781:Core/Src/main.c ****             return;
 782:Core/Src/main.c ****         }
 783:Core/Src/main.c ****         else
 784:Core/Src/main.c ****         {
 785:Core/Src/main.c ****             if (angle_obj <= 180)
 2294              		.loc 1 785 13 is_stmt 1 view .LVU427
 2295              		.loc 1 785 16 is_stmt 0 view .LVU428
 2296 007c 8F49     		ldr	r1, .L197+20
 2297 007e 2046     		mov	r0, r4
 2298 0080 FFF7FEFF 		bl	__aeabi_fcmple
 2299              	.LVL292:
 2300 0084 0028     		cmp	r0, #0
 2301 0086 62D0     		beq	.L187
 786:Core/Src/main.c ****             {
 787:Core/Src/main.c ****                 if (angle_car >= angle_obj && angle_car <= angle_obj + 180)
 2302              		.loc 1 787 17 is_stmt 1 view .LVU429
 2303              		.loc 1 787 20 is_stmt 0 view .LVU430
 2304 0088 2946     		mov	r1, r5
 2305 008a 2046     		mov	r0, r4
 2306 008c FFF7FEFF 		bl	__aeabi_fcmple
 2307              	.LVL293:
ARM GAS  C:\Users\wangw\AppData\Local\Temp\ccLETVy1.s 			page 56


 2308 0090 40B1     		cbz	r0, .L133
 2309              		.loc 1 787 70 discriminator 1 view .LVU431
 2310 0092 8A49     		ldr	r1, .L197+20
 2311 0094 2046     		mov	r0, r4
 2312 0096 FFF7FEFF 		bl	__aeabi_fadd
 2313              	.LVL294:
 2314              		.loc 1 787 44 discriminator 1 view .LVU432
 2315 009a 2946     		mov	r1, r5
 2316 009c FFF7FEFF 		bl	__aeabi_fcmpge
 2317              	.LVL295:
 2318 00a0 0028     		cmp	r0, #0
 2319 00a2 4AD1     		bne	.L193
 2320              	.L133:
 788:Core/Src/main.c ****                 {
 789:Core/Src/main.c ****                     rotate_clockwise(rotate_speed);
 790:Core/Src/main.c ****                     prev_err=0;
 791:Core/Src/main.c ****                 }
 792:Core/Src/main.c ****                 else{
 793:Core/Src/main.c ****                     rotate_counterclockwise(rotate_speed);
 2321              		.loc 1 793 21 is_stmt 1 view .LVU433
 2322 00a4 4FF44860 		mov	r0, #3200
 2323 00a8 FFF7FEFF 		bl	rotate_counterclockwise
 2324              	.LVL296:
 794:Core/Src/main.c ****                     prev_err=0;
 2325              		.loc 1 794 21 view .LVU434
 2326              		.loc 1 794 29 is_stmt 0 view .LVU435
 2327 00ac 844B     		ldr	r3, .L197+24
 2328 00ae 0020     		movs	r0, #0
 2329 00b0 0021     		movs	r1, #0
 2330 00b2 C3E90001 		strd	r0, [r3]
 2331 00b6 F6E0     		b	.L120
 2332              	.L192:
 775:Core/Src/main.c ****             if (prev_err&&fabs(curr_err-prev_err)>2)        //ÈôêÂπÖÊª§Ê≥¢
 2333              		.loc 1 775 13 is_stmt 1 view .LVU436
 775:Core/Src/main.c ****             if (prev_err&&fabs(curr_err-prev_err)>2)        //ÈôêÂπÖÊª§Ê≥¢
 2334              		.loc 1 775 33 is_stmt 0 view .LVU437
 2335 00b8 2146     		mov	r1, r4
 2336 00ba 2846     		mov	r0, r5
 2337 00bc FFF7FEFF 		bl	__aeabi_fsub
 2338              	.LVL297:
 2339 00c0 FFF7FEFF 		bl	__aeabi_f2d
 2340              	.LVL298:
 2341 00c4 0446     		mov	r4, r0
 2342              	.LVL299:
 775:Core/Src/main.c ****             if (prev_err&&fabs(curr_err-prev_err)>2)        //ÈôêÂπÖÊª§Ê≥¢
 2343              		.loc 1 775 33 view .LVU438
 2344 00c6 0D46     		mov	r5, r1
 2345              	.LVL300:
 775:Core/Src/main.c ****             if (prev_err&&fabs(curr_err-prev_err)>2)        //ÈôêÂπÖÊª§Ê≥¢
 2346              		.loc 1 775 22 view .LVU439
 2347 00c8 7E4B     		ldr	r3, .L197+28
 2348 00ca C3E90045 		strd	r4, [r3]
 776:Core/Src/main.c ****                 curr_err=prev_err;
 2349              		.loc 1 776 13 is_stmt 1 view .LVU440
 776:Core/Src/main.c ****                 curr_err=prev_err;
 2350              		.loc 1 776 17 is_stmt 0 view .LVU441
 2351 00ce 7C4B     		ldr	r3, .L197+24
ARM GAS  C:\Users\wangw\AppData\Local\Temp\ccLETVy1.s 			page 57


 2352 00d0 D3E90067 		ldrd	r6, [r3]
 776:Core/Src/main.c ****                 curr_err=prev_err;
 2353              		.loc 1 776 16 view .LVU442
 2354 00d4 0022     		movs	r2, #0
 2355 00d6 0023     		movs	r3, #0
 2356 00d8 3046     		mov	r0, r6
 2357 00da 3946     		mov	r1, r7
 2358 00dc FFF7FEFF 		bl	__aeabi_dcmpeq
 2359              	.LVL301:
 2360 00e0 98B9     		cbnz	r0, .L127
 776:Core/Src/main.c ****                 curr_err=prev_err;
 2361              		.loc 1 776 40 discriminator 1 view .LVU443
 2362 00e2 3246     		mov	r2, r6
 2363 00e4 3B46     		mov	r3, r7
 2364 00e6 2046     		mov	r0, r4
 2365 00e8 2946     		mov	r1, r5
 2366 00ea FFF7FEFF 		bl	__aeabi_dsub
 2367              	.LVL302:
 2368 00ee 0546     		mov	r5, r0
 2369 00f0 0C46     		mov	r4, r1
 776:Core/Src/main.c ****                 curr_err=prev_err;
 2370              		.loc 1 776 25 discriminator 1 view .LVU444
 2371 00f2 0022     		movs	r2, #0
 2372 00f4 4FF08043 		mov	r3, #1073741824
 2373 00f8 2846     		mov	r0, r5
 2374 00fa 24F00041 		bic	r1, r4, #-2147483648
 2375 00fe FFF7FEFF 		bl	__aeabi_dcmpgt
 2376              	.LVL303:
 2377 0102 10B1     		cbz	r0, .L127
 777:Core/Src/main.c ****             forward(forward_speed,(int)(150*curr_err));    //Â¢ûÂä†ÊØî‰æã‰øÆÊ≠£È°π
 2378              		.loc 1 777 17 is_stmt 1 view .LVU445
 777:Core/Src/main.c ****             forward(forward_speed,(int)(150*curr_err));    //Â¢ûÂä†ÊØî‰æã‰øÆÊ≠£È°π
 2379              		.loc 1 777 25 is_stmt 0 view .LVU446
 2380 0104 6F4B     		ldr	r3, .L197+28
 2381 0106 C3E90067 		strd	r6, [r3]
 2382              	.L127:
 778:Core/Src/main.c ****             goto_state = 1;
 2383              		.loc 1 778 13 is_stmt 1 view .LVU447
 778:Core/Src/main.c ****             goto_state = 1;
 2384              		.loc 1 778 44 is_stmt 0 view .LVU448
 2385 010a 6E4C     		ldr	r4, .L197+28
 2386 010c 66A3     		adr	r3, .L197
 2387 010e D3E90023 		ldrd	r2, [r3]
 2388 0112 D4E90001 		ldrd	r0, [r4]
 2389 0116 FFF7FEFF 		bl	__aeabi_dmul
 2390              	.LVL304:
 778:Core/Src/main.c ****             goto_state = 1;
 2391              		.loc 1 778 13 view .LVU449
 2392 011a FFF7FEFF 		bl	__aeabi_d2iz
 2393              	.LVL305:
 2394 011e 0146     		mov	r1, r0
 2395 0120 40F2DC50 		movw	r0, #1500
 2396 0124 FFF7FEFF 		bl	forward
 2397              	.LVL306:
 779:Core/Src/main.c ****             prev_err = curr_err;
 2398              		.loc 1 779 13 is_stmt 1 view .LVU450
 779:Core/Src/main.c ****             prev_err = curr_err;
ARM GAS  C:\Users\wangw\AppData\Local\Temp\ccLETVy1.s 			page 58


 2399              		.loc 1 779 24 is_stmt 0 view .LVU451
 2400 0128 674B     		ldr	r3, .L197+32
 2401 012a 0122     		movs	r2, #1
 2402 012c 1A60     		str	r2, [r3]
 780:Core/Src/main.c ****             return;
 2403              		.loc 1 780 13 is_stmt 1 view .LVU452
 780:Core/Src/main.c ****             return;
 2404              		.loc 1 780 22 is_stmt 0 view .LVU453
 2405 012e D4E90001 		ldrd	r0, [r4]
 2406 0132 634B     		ldr	r3, .L197+24
 2407 0134 C3E90001 		strd	r0, [r3]
 781:Core/Src/main.c ****         }
 2408              		.loc 1 781 13 is_stmt 1 view .LVU454
 2409 0138 B5E0     		b	.L120
 2410              	.LVL307:
 2411              	.L193:
 789:Core/Src/main.c ****                     prev_err=0;
 2412              		.loc 1 789 21 view .LVU455
 2413 013a 4FF44860 		mov	r0, #3200
 2414 013e FFF7FEFF 		bl	rotate_clockwise
 2415              	.LVL308:
 790:Core/Src/main.c ****                 }
 2416              		.loc 1 790 21 view .LVU456
 790:Core/Src/main.c ****                 }
 2417              		.loc 1 790 29 is_stmt 0 view .LVU457
 2418 0142 5F4B     		ldr	r3, .L197+24
 2419 0144 0020     		movs	r0, #0
 2420 0146 0021     		movs	r1, #0
 2421 0148 C3E90001 		strd	r0, [r3]
 2422 014c ABE0     		b	.L120
 2423              	.L187:
 795:Core/Src/main.c ****                 }
 796:Core/Src/main.c ****             }
 797:Core/Src/main.c ****             else
 798:Core/Src/main.c ****             {
 799:Core/Src/main.c ****                 if (angle_car <= angle_obj && angle_car >= angle_obj - 180)
 2424              		.loc 1 799 17 is_stmt 1 view .LVU458
 2425              		.loc 1 799 20 is_stmt 0 view .LVU459
 2426 014e 2946     		mov	r1, r5
 2427 0150 2046     		mov	r0, r4
 2428 0152 FFF7FEFF 		bl	__aeabi_fcmpge
 2429              	.LVL309:
 2430 0156 38B1     		cbz	r0, .L136
 2431              		.loc 1 799 70 discriminator 1 view .LVU460
 2432 0158 5849     		ldr	r1, .L197+20
 2433 015a 2046     		mov	r0, r4
 2434 015c FFF7FEFF 		bl	__aeabi_fsub
 2435              	.LVL310:
 2436              		.loc 1 799 44 discriminator 1 view .LVU461
 2437 0160 2946     		mov	r1, r5
 2438 0162 FFF7FEFF 		bl	__aeabi_fcmple
 2439              	.LVL311:
 2440 0166 48B9     		cbnz	r0, .L194
 2441              	.L136:
 800:Core/Src/main.c ****                 {
 801:Core/Src/main.c ****                     rotate_counterclockwise(rotate_speed);
 802:Core/Src/main.c ****                     prev_err=0;
ARM GAS  C:\Users\wangw\AppData\Local\Temp\ccLETVy1.s 			page 59


 803:Core/Src/main.c ****                 }
 804:Core/Src/main.c ****                 else{
 805:Core/Src/main.c ****                     rotate_clockwise(rotate_speed);
 2442              		.loc 1 805 21 is_stmt 1 view .LVU462
 2443 0168 4FF44860 		mov	r0, #3200
 2444 016c FFF7FEFF 		bl	rotate_clockwise
 2445              	.LVL312:
 806:Core/Src/main.c ****                     prev_err=0;
 2446              		.loc 1 806 21 view .LVU463
 2447              		.loc 1 806 29 is_stmt 0 view .LVU464
 2448 0170 534B     		ldr	r3, .L197+24
 2449 0172 0020     		movs	r0, #0
 2450 0174 0021     		movs	r1, #0
 2451 0176 C3E90001 		strd	r0, [r3]
 2452 017a 94E0     		b	.L120
 2453              	.L194:
 801:Core/Src/main.c ****                     prev_err=0;
 2454              		.loc 1 801 21 is_stmt 1 view .LVU465
 2455 017c 4FF44860 		mov	r0, #3200
 2456 0180 FFF7FEFF 		bl	rotate_counterclockwise
 2457              	.LVL313:
 802:Core/Src/main.c ****                 }
 2458              		.loc 1 802 21 view .LVU466
 802:Core/Src/main.c ****                 }
 2459              		.loc 1 802 29 is_stmt 0 view .LVU467
 2460 0184 4E4B     		ldr	r3, .L197+24
 2461 0186 0020     		movs	r0, #0
 2462 0188 0021     		movs	r1, #0
 2463 018a C3E90001 		strd	r0, [r3]
 2464 018e 8AE0     		b	.L120
 2465              	.L121:
 807:Core/Src/main.c ****                 }
 808:Core/Src/main.c ****             }
 809:Core/Src/main.c ****         }
 810:Core/Src/main.c ****     }
 811:Core/Src/main.c ****     else
 812:Core/Src/main.c ****     {
 813:Core/Src/main.c ****         if (angle_obj < angle_err)
 2466              		.loc 1 813 9 is_stmt 1 view .LVU468
 2467              		.loc 1 813 12 is_stmt 0 view .LVU469
 2468 0190 4FF08041 		mov	r1, #1073741824
 2469 0194 2046     		mov	r0, r4
 2470 0196 FFF7FEFF 		bl	__aeabi_fcmplt
 2471              	.LVL314:
 2472 019a 0028     		cmp	r0, #0
 2473 019c 00F0A280 		beq	.L188
 814:Core/Src/main.c ****         {
 815:Core/Src/main.c ****             if ((angle_car >= angle_obj - angle_err + 360.0 || angle_car <= angle_obj + angle_err))
 2474              		.loc 1 815 13 is_stmt 1 view .LVU470
 2475              		.loc 1 815 28 is_stmt 0 view .LVU471
 2476 01a0 2846     		mov	r0, r5
 2477 01a2 FFF7FEFF 		bl	__aeabi_f2d
 2478              	.LVL315:
 2479 01a6 0646     		mov	r6, r0
 2480 01a8 0F46     		mov	r7, r1
 2481              		.loc 1 815 41 view .LVU472
 2482 01aa 4FF08041 		mov	r1, #1073741824
ARM GAS  C:\Users\wangw\AppData\Local\Temp\ccLETVy1.s 			page 60


 2483 01ae 2046     		mov	r0, r4
 2484 01b0 FFF7FEFF 		bl	__aeabi_fsub
 2485              	.LVL316:
 2486 01b4 FFF7FEFF 		bl	__aeabi_f2d
 2487              	.LVL317:
 2488              		.loc 1 815 53 view .LVU473
 2489 01b8 0022     		movs	r2, #0
 2490 01ba 3E4B     		ldr	r3, .L197+12
 2491 01bc FFF7FEFF 		bl	__aeabi_dadd
 2492              	.LVL318:
 2493 01c0 0246     		mov	r2, r0
 2494 01c2 0B46     		mov	r3, r1
 2495              		.loc 1 815 16 view .LVU474
 2496 01c4 3046     		mov	r0, r6
 2497 01c6 3946     		mov	r1, r7
 2498 01c8 FFF7FEFF 		bl	__aeabi_dcmpge
 2499              	.LVL319:
 2500 01cc 00BB     		cbnz	r0, .L141
 2501              		.loc 1 815 87 discriminator 1 view .LVU475
 2502 01ce 4FF08041 		mov	r1, #1073741824
 2503 01d2 2046     		mov	r0, r4
 2504 01d4 FFF7FEFF 		bl	__aeabi_fadd
 2505              	.LVL320:
 2506              		.loc 1 815 61 discriminator 1 view .LVU476
 2507 01d8 2946     		mov	r1, r5
 2508 01da FFF7FEFF 		bl	__aeabi_fcmpge
 2509              	.LVL321:
 2510 01de B8B9     		cbnz	r0, .L141
 816:Core/Src/main.c ****             {
 817:Core/Src/main.c ****                 curr_err = (angle_car-angle_obj)>180?(angle_car-angle_obj)-360:(angle_car-angle_obj
 818:Core/Src/main.c ****                 if (prev_err&&fabs(curr_err-prev_err)>2)    //ÈôêÂπÖÊª§Ê≥¢
 819:Core/Src/main.c ****                     curr_err=prev_err;
 820:Core/Src/main.c ****                 forward(forward_speed,(int)(150*curr_err));
 821:Core/Src/main.c ****                 goto_state = 1;
 822:Core/Src/main.c ****                 prev_err=curr_err;
 823:Core/Src/main.c ****                 return;
 824:Core/Src/main.c ****             }
 825:Core/Src/main.c ****             else
 826:Core/Src/main.c ****             {
 827:Core/Src/main.c ****                 if (angle_car >= angle_obj && angle_car <= angle_obj + 180)
 2511              		.loc 1 827 17 is_stmt 1 view .LVU477
 2512              		.loc 1 827 20 is_stmt 0 view .LVU478
 2513 01e0 2946     		mov	r1, r5
 2514 01e2 2046     		mov	r0, r4
 2515 01e4 FFF7FEFF 		bl	__aeabi_fcmple
 2516              	.LVL322:
 2517 01e8 40B1     		cbz	r0, .L149
 2518              		.loc 1 827 70 discriminator 1 view .LVU479
 2519 01ea 3449     		ldr	r1, .L197+20
 2520 01ec 2046     		mov	r0, r4
 2521 01ee FFF7FEFF 		bl	__aeabi_fadd
 2522              	.LVL323:
 2523              		.loc 1 827 44 discriminator 1 view .LVU480
 2524 01f2 2946     		mov	r1, r5
 2525 01f4 FFF7FEFF 		bl	__aeabi_fcmpge
 2526              	.LVL324:
 2527 01f8 0028     		cmp	r0, #0
ARM GAS  C:\Users\wangw\AppData\Local\Temp\ccLETVy1.s 			page 61


 2528 01fa 69D1     		bne	.L195
 2529              	.L149:
 828:Core/Src/main.c ****                 {
 829:Core/Src/main.c ****                     rotate_clockwise(rotate_speed);
 830:Core/Src/main.c ****                     prev_err=0;
 831:Core/Src/main.c ****                 }
 832:Core/Src/main.c ****                 else{
 833:Core/Src/main.c ****                     rotate_counterclockwise(rotate_speed);
 2530              		.loc 1 833 21 is_stmt 1 view .LVU481
 2531 01fc 4FF44860 		mov	r0, #3200
 2532 0200 FFF7FEFF 		bl	rotate_counterclockwise
 2533              	.LVL325:
 834:Core/Src/main.c ****                     prev_err=0;
 2534              		.loc 1 834 21 view .LVU482
 2535              		.loc 1 834 29 is_stmt 0 view .LVU483
 2536 0204 2E4B     		ldr	r3, .L197+24
 2537 0206 0020     		movs	r0, #0
 2538 0208 0021     		movs	r1, #0
 2539 020a C3E90001 		strd	r0, [r3]
 2540 020e 4AE0     		b	.L120
 2541              	.L141:
 817:Core/Src/main.c ****                 if (prev_err&&fabs(curr_err-prev_err)>2)    //ÈôêÂπÖÊª§Ê≥¢
 2542              		.loc 1 817 17 is_stmt 1 view .LVU484
 817:Core/Src/main.c ****                 if (prev_err&&fabs(curr_err-prev_err)>2)    //ÈôêÂπÖÊª§Ê≥¢
 2543              		.loc 1 817 38 is_stmt 0 view .LVU485
 2544 0210 2146     		mov	r1, r4
 2545 0212 2846     		mov	r0, r5
 2546 0214 FFF7FEFF 		bl	__aeabi_fsub
 2547              	.LVL326:
 2548 0218 0446     		mov	r4, r0
 2549              	.LVL327:
 817:Core/Src/main.c ****                 if (prev_err&&fabs(curr_err-prev_err)>2)    //ÈôêÂπÖÊª§Ê≥¢
 2550              		.loc 1 817 79 view .LVU486
 2551 021a 2849     		ldr	r1, .L197+20
 2552 021c FFF7FEFF 		bl	__aeabi_fcmpgt
 2553              	.LVL328:
 2554 0220 20B1     		cbz	r0, .L144
 817:Core/Src/main.c ****                 if (prev_err&&fabs(curr_err-prev_err)>2)    //ÈôêÂπÖÊª§Ê≥¢
 2555              		.loc 1 817 79 discriminator 1 view .LVU487
 2556 0222 2A49     		ldr	r1, .L197+36
 2557 0224 2046     		mov	r0, r4
 2558 0226 FFF7FEFF 		bl	__aeabi_fsub
 2559              	.LVL329:
 2560 022a 0446     		mov	r4, r0
 2561              	.L144:
 817:Core/Src/main.c ****                 if (prev_err&&fabs(curr_err-prev_err)>2)    //ÈôêÂπÖÊª§Ê≥¢
 2562              		.loc 1 817 79 discriminator 4 view .LVU488
 2563 022c 2046     		mov	r0, r4
 2564 022e FFF7FEFF 		bl	__aeabi_f2d
 2565              	.LVL330:
 2566 0232 0446     		mov	r4, r0
 2567 0234 0D46     		mov	r5, r1
 2568              	.LVL331:
 817:Core/Src/main.c ****                 if (prev_err&&fabs(curr_err-prev_err)>2)    //ÈôêÂπÖÊª§Ê≥¢
 2569              		.loc 1 817 26 discriminator 4 view .LVU489
 2570 0236 234B     		ldr	r3, .L197+28
 2571 0238 C3E90045 		strd	r4, [r3]
ARM GAS  C:\Users\wangw\AppData\Local\Temp\ccLETVy1.s 			page 62


 818:Core/Src/main.c ****                     curr_err=prev_err;
 2572              		.loc 1 818 17 is_stmt 1 discriminator 4 view .LVU490
 818:Core/Src/main.c ****                     curr_err=prev_err;
 2573              		.loc 1 818 21 is_stmt 0 discriminator 4 view .LVU491
 2574 023c 204B     		ldr	r3, .L197+24
 2575 023e D3E90067 		ldrd	r6, [r3]
 818:Core/Src/main.c ****                     curr_err=prev_err;
 2576              		.loc 1 818 20 discriminator 4 view .LVU492
 2577 0242 0022     		movs	r2, #0
 2578 0244 0023     		movs	r3, #0
 2579 0246 3046     		mov	r0, r6
 2580 0248 3946     		mov	r1, r7
 2581 024a FFF7FEFF 		bl	__aeabi_dcmpeq
 2582              	.LVL332:
 2583 024e 98B9     		cbnz	r0, .L146
 818:Core/Src/main.c ****                     curr_err=prev_err;
 2584              		.loc 1 818 44 discriminator 1 view .LVU493
 2585 0250 3246     		mov	r2, r6
 2586 0252 3B46     		mov	r3, r7
 2587 0254 2046     		mov	r0, r4
 2588 0256 2946     		mov	r1, r5
 2589 0258 FFF7FEFF 		bl	__aeabi_dsub
 2590              	.LVL333:
 2591 025c 0546     		mov	r5, r0
 2592 025e 0C46     		mov	r4, r1
 818:Core/Src/main.c ****                     curr_err=prev_err;
 2593              		.loc 1 818 29 discriminator 1 view .LVU494
 2594 0260 0022     		movs	r2, #0
 2595 0262 4FF08043 		mov	r3, #1073741824
 2596 0266 2846     		mov	r0, r5
 2597 0268 24F00041 		bic	r1, r4, #-2147483648
 2598 026c FFF7FEFF 		bl	__aeabi_dcmpgt
 2599              	.LVL334:
 2600 0270 10B1     		cbz	r0, .L146
 819:Core/Src/main.c ****                 forward(forward_speed,(int)(150*curr_err));
 2601              		.loc 1 819 21 is_stmt 1 view .LVU495
 819:Core/Src/main.c ****                 forward(forward_speed,(int)(150*curr_err));
 2602              		.loc 1 819 29 is_stmt 0 view .LVU496
 2603 0272 144B     		ldr	r3, .L197+28
 2604 0274 C3E90067 		strd	r6, [r3]
 2605              	.L146:
 820:Core/Src/main.c ****                 goto_state = 1;
 2606              		.loc 1 820 17 is_stmt 1 view .LVU497
 820:Core/Src/main.c ****                 goto_state = 1;
 2607              		.loc 1 820 48 is_stmt 0 view .LVU498
 2608 0278 124C     		ldr	r4, .L197+28
 2609 027a 0BA3     		adr	r3, .L197
 2610 027c D3E90023 		ldrd	r2, [r3]
 2611 0280 D4E90001 		ldrd	r0, [r4]
 2612 0284 FFF7FEFF 		bl	__aeabi_dmul
 2613              	.LVL335:
 820:Core/Src/main.c ****                 goto_state = 1;
 2614              		.loc 1 820 17 view .LVU499
 2615 0288 FFF7FEFF 		bl	__aeabi_d2iz
 2616              	.LVL336:
 2617 028c 0146     		mov	r1, r0
 2618 028e 40F2DC50 		movw	r0, #1500
ARM GAS  C:\Users\wangw\AppData\Local\Temp\ccLETVy1.s 			page 63


 2619 0292 FFF7FEFF 		bl	forward
 2620              	.LVL337:
 821:Core/Src/main.c ****                 prev_err=curr_err;
 2621              		.loc 1 821 17 is_stmt 1 view .LVU500
 821:Core/Src/main.c ****                 prev_err=curr_err;
 2622              		.loc 1 821 28 is_stmt 0 view .LVU501
 2623 0296 0C4B     		ldr	r3, .L197+32
 2624 0298 0122     		movs	r2, #1
 2625 029a 1A60     		str	r2, [r3]
 822:Core/Src/main.c ****                 return;
 2626              		.loc 1 822 17 is_stmt 1 view .LVU502
 822:Core/Src/main.c ****                 return;
 2627              		.loc 1 822 25 is_stmt 0 view .LVU503
 2628 029c D4E90001 		ldrd	r0, [r4]
 2629 02a0 074B     		ldr	r3, .L197+24
 2630 02a2 C3E90001 		strd	r0, [r3]
 823:Core/Src/main.c ****             }
 2631              		.loc 1 823 17 is_stmt 1 view .LVU504
 2632              	.L120:
 835:Core/Src/main.c ****                 }
 836:Core/Src/main.c ****             }
 837:Core/Src/main.c ****         }
 838:Core/Src/main.c ****         else if (angle_obj > 360 - angle_err)
 839:Core/Src/main.c ****         {
 840:Core/Src/main.c ****             if ((angle_car <= angle_obj + angle_err - 360.0 || angle_car >= angle_obj - angle_err))
 841:Core/Src/main.c ****             {
 842:Core/Src/main.c ****                 curr_err = (angle_car-angle_obj)>180?(angle_car-angle_obj)-360:(angle_car-angle_obj
 843:Core/Src/main.c ****                 if (prev_err&&fabs(curr_err-prev_err)>2)    //ÈôêÂπÖÊª§Ê≥¢
 844:Core/Src/main.c ****                     curr_err=prev_err;
 845:Core/Src/main.c ****                 forward(forward_speed,(int)(150*curr_err));
 846:Core/Src/main.c ****                 goto_state = 1;
 847:Core/Src/main.c ****                 prev_err=curr_err;
 848:Core/Src/main.c ****                 return;
 849:Core/Src/main.c ****             }
 850:Core/Src/main.c ****             else
 851:Core/Src/main.c ****             {
 852:Core/Src/main.c ****                 if (angle_car <= angle_obj && angle_car >= angle_obj - 180){
 853:Core/Src/main.c ****                     rotate_counterclockwise(rotate_speed);
 854:Core/Src/main.c ****                     prev_err=0;
 855:Core/Src/main.c ****                 }
 856:Core/Src/main.c ****                 else{
 857:Core/Src/main.c ****                     rotate_clockwise(rotate_speed);
 858:Core/Src/main.c ****                     prev_err=0;
 859:Core/Src/main.c ****                 }
 860:Core/Src/main.c ****             }
 861:Core/Src/main.c ****         }
 862:Core/Src/main.c ****     }
 863:Core/Src/main.c **** }
 2633              		.loc 1 863 1 is_stmt 0 view .LVU505
 2634 02a6 F8BD     		pop	{r3, r4, r5, r6, r7, pc}
 2635              	.L198:
 2636              		.align	3
 2637              	.L197:
 2638 02a8 00000000 		.word	0
 2639 02ac 00C06240 		.word	1080213504
 2640 02b0 00000000 		.word	.LANCHOR4
 2641 02b4 00807640 		.word	1081507840
ARM GAS  C:\Users\wangw\AppData\Local\Temp\ccLETVy1.s 			page 64


 2642 02b8 0000B343 		.word	1135804416
 2643 02bc 00003443 		.word	1127481344
 2644 02c0 00000000 		.word	.LANCHOR9
 2645 02c4 00000000 		.word	.LANCHOR8
 2646 02c8 00000000 		.word	.LANCHOR10
 2647 02cc 0000B443 		.word	1135869952
 2648              	.LVL338:
 2649              	.L195:
 829:Core/Src/main.c ****                     prev_err=0;
 2650              		.loc 1 829 21 is_stmt 1 view .LVU506
 2651 02d0 4FF44860 		mov	r0, #3200
 2652 02d4 FFF7FEFF 		bl	rotate_clockwise
 2653              	.LVL339:
 830:Core/Src/main.c ****                 }
 2654              		.loc 1 830 21 view .LVU507
 830:Core/Src/main.c ****                 }
 2655              		.loc 1 830 29 is_stmt 0 view .LVU508
 2656 02d8 4F4B     		ldr	r3, .L199+8
 2657 02da 0020     		movs	r0, #0
 2658 02dc 0021     		movs	r1, #0
 2659 02de C3E90001 		strd	r0, [r3]
 2660 02e2 E0E7     		b	.L120
 2661              	.L188:
 838:Core/Src/main.c ****         {
 2662              		.loc 1 838 14 is_stmt 1 view .LVU509
 838:Core/Src/main.c ****         {
 2663              		.loc 1 838 17 is_stmt 0 view .LVU510
 2664 02e4 4D49     		ldr	r1, .L199+12
 2665 02e6 2046     		mov	r0, r4
 2666 02e8 FFF7FEFF 		bl	__aeabi_fcmpgt
 2667              	.LVL340:
 2668 02ec 0028     		cmp	r0, #0
 2669 02ee DAD0     		beq	.L120
 840:Core/Src/main.c ****             {
 2670              		.loc 1 840 13 is_stmt 1 view .LVU511
 840:Core/Src/main.c ****             {
 2671              		.loc 1 840 28 is_stmt 0 view .LVU512
 2672 02f0 2846     		mov	r0, r5
 2673 02f2 FFF7FEFF 		bl	__aeabi_f2d
 2674              	.LVL341:
 2675 02f6 0646     		mov	r6, r0
 2676 02f8 0F46     		mov	r7, r1
 840:Core/Src/main.c ****             {
 2677              		.loc 1 840 41 view .LVU513
 2678 02fa 4FF08041 		mov	r1, #1073741824
 2679 02fe 2046     		mov	r0, r4
 2680 0300 FFF7FEFF 		bl	__aeabi_fadd
 2681              	.LVL342:
 2682 0304 FFF7FEFF 		bl	__aeabi_f2d
 2683              	.LVL343:
 840:Core/Src/main.c ****             {
 2684              		.loc 1 840 53 view .LVU514
 2685 0308 0022     		movs	r2, #0
 2686 030a 454B     		ldr	r3, .L199+16
 2687 030c FFF7FEFF 		bl	__aeabi_dsub
 2688              	.LVL344:
 2689 0310 0246     		mov	r2, r0
ARM GAS  C:\Users\wangw\AppData\Local\Temp\ccLETVy1.s 			page 65


 2690 0312 0B46     		mov	r3, r1
 840:Core/Src/main.c ****             {
 2691              		.loc 1 840 16 view .LVU515
 2692 0314 3046     		mov	r0, r6
 2693 0316 3946     		mov	r1, r7
 2694 0318 FFF7FEFF 		bl	__aeabi_dcmple
 2695              	.LVL345:
 2696 031c 00BB     		cbnz	r0, .L153
 840:Core/Src/main.c ****             {
 2697              		.loc 1 840 87 discriminator 1 view .LVU516
 2698 031e 4FF08041 		mov	r1, #1073741824
 2699 0322 2046     		mov	r0, r4
 2700 0324 FFF7FEFF 		bl	__aeabi_fsub
 2701              	.LVL346:
 840:Core/Src/main.c ****             {
 2702              		.loc 1 840 61 discriminator 1 view .LVU517
 2703 0328 2946     		mov	r1, r5
 2704 032a FFF7FEFF 		bl	__aeabi_fcmple
 2705              	.LVL347:
 2706 032e B8B9     		cbnz	r0, .L153
 852:Core/Src/main.c ****                     rotate_counterclockwise(rotate_speed);
 2707              		.loc 1 852 17 is_stmt 1 view .LVU518
 852:Core/Src/main.c ****                     rotate_counterclockwise(rotate_speed);
 2708              		.loc 1 852 20 is_stmt 0 view .LVU519
 2709 0330 2946     		mov	r1, r5
 2710 0332 2046     		mov	r0, r4
 2711 0334 FFF7FEFF 		bl	__aeabi_fcmpge
 2712              	.LVL348:
 2713 0338 40B1     		cbz	r0, .L161
 852:Core/Src/main.c ****                     rotate_counterclockwise(rotate_speed);
 2714              		.loc 1 852 70 discriminator 1 view .LVU520
 2715 033a 3A49     		ldr	r1, .L199+20
 2716 033c 2046     		mov	r0, r4
 2717 033e FFF7FEFF 		bl	__aeabi_fsub
 2718              	.LVL349:
 852:Core/Src/main.c ****                     rotate_counterclockwise(rotate_speed);
 2719              		.loc 1 852 44 discriminator 1 view .LVU521
 2720 0342 2946     		mov	r1, r5
 2721 0344 FFF7FEFF 		bl	__aeabi_fcmple
 2722              	.LVL350:
 2723 0348 0028     		cmp	r0, #0
 2724 034a 55D1     		bne	.L196
 2725              	.L161:
 857:Core/Src/main.c ****                     prev_err=0;
 2726              		.loc 1 857 21 is_stmt 1 view .LVU522
 2727 034c 4FF44860 		mov	r0, #3200
 2728 0350 FFF7FEFF 		bl	rotate_clockwise
 2729              	.LVL351:
 858:Core/Src/main.c ****                 }
 2730              		.loc 1 858 21 view .LVU523
 858:Core/Src/main.c ****                 }
 2731              		.loc 1 858 29 is_stmt 0 view .LVU524
 2732 0354 304B     		ldr	r3, .L199+8
 2733 0356 0020     		movs	r0, #0
 2734 0358 0021     		movs	r1, #0
 2735 035a C3E90001 		strd	r0, [r3]
 2736 035e A2E7     		b	.L120
ARM GAS  C:\Users\wangw\AppData\Local\Temp\ccLETVy1.s 			page 66


 2737              	.L153:
 842:Core/Src/main.c ****                 if (prev_err&&fabs(curr_err-prev_err)>2)    //ÈôêÂπÖÊª§Ê≥¢
 2738              		.loc 1 842 17 is_stmt 1 view .LVU525
 842:Core/Src/main.c ****                 if (prev_err&&fabs(curr_err-prev_err)>2)    //ÈôêÂπÖÊª§Ê≥¢
 2739              		.loc 1 842 38 is_stmt 0 view .LVU526
 2740 0360 2146     		mov	r1, r4
 2741 0362 2846     		mov	r0, r5
 2742 0364 FFF7FEFF 		bl	__aeabi_fsub
 2743              	.LVL352:
 2744 0368 0446     		mov	r4, r0
 2745              	.LVL353:
 842:Core/Src/main.c ****                 if (prev_err&&fabs(curr_err-prev_err)>2)    //ÈôêÂπÖÊª§Ê≥¢
 2746              		.loc 1 842 79 view .LVU527
 2747 036a 2E49     		ldr	r1, .L199+20
 2748 036c FFF7FEFF 		bl	__aeabi_fcmpgt
 2749              	.LVL354:
 2750 0370 20B1     		cbz	r0, .L156
 842:Core/Src/main.c ****                 if (prev_err&&fabs(curr_err-prev_err)>2)    //ÈôêÂπÖÊª§Ê≥¢
 2751              		.loc 1 842 79 discriminator 1 view .LVU528
 2752 0372 2D49     		ldr	r1, .L199+24
 2753 0374 2046     		mov	r0, r4
 2754 0376 FFF7FEFF 		bl	__aeabi_fsub
 2755              	.LVL355:
 2756 037a 0446     		mov	r4, r0
 2757              	.L156:
 842:Core/Src/main.c ****                 if (prev_err&&fabs(curr_err-prev_err)>2)    //ÈôêÂπÖÊª§Ê≥¢
 2758              		.loc 1 842 79 discriminator 4 view .LVU529
 2759 037c 2046     		mov	r0, r4
 2760 037e FFF7FEFF 		bl	__aeabi_f2d
 2761              	.LVL356:
 2762 0382 0446     		mov	r4, r0
 2763 0384 0D46     		mov	r5, r1
 2764              	.LVL357:
 842:Core/Src/main.c ****                 if (prev_err&&fabs(curr_err-prev_err)>2)    //ÈôêÂπÖÊª§Ê≥¢
 2765              		.loc 1 842 26 discriminator 4 view .LVU530
 2766 0386 294B     		ldr	r3, .L199+28
 2767 0388 C3E90045 		strd	r4, [r3]
 843:Core/Src/main.c ****                     curr_err=prev_err;
 2768              		.loc 1 843 17 is_stmt 1 discriminator 4 view .LVU531
 843:Core/Src/main.c ****                     curr_err=prev_err;
 2769              		.loc 1 843 21 is_stmt 0 discriminator 4 view .LVU532
 2770 038c 224B     		ldr	r3, .L199+8
 2771 038e D3E90067 		ldrd	r6, [r3]
 843:Core/Src/main.c ****                     curr_err=prev_err;
 2772              		.loc 1 843 20 discriminator 4 view .LVU533
 2773 0392 0022     		movs	r2, #0
 2774 0394 0023     		movs	r3, #0
 2775 0396 3046     		mov	r0, r6
 2776 0398 3946     		mov	r1, r7
 2777 039a FFF7FEFF 		bl	__aeabi_dcmpeq
 2778              	.LVL358:
 2779 039e 98B9     		cbnz	r0, .L158
 843:Core/Src/main.c ****                     curr_err=prev_err;
 2780              		.loc 1 843 44 discriminator 1 view .LVU534
 2781 03a0 3246     		mov	r2, r6
 2782 03a2 3B46     		mov	r3, r7
 2783 03a4 2046     		mov	r0, r4
ARM GAS  C:\Users\wangw\AppData\Local\Temp\ccLETVy1.s 			page 67


 2784 03a6 2946     		mov	r1, r5
 2785 03a8 FFF7FEFF 		bl	__aeabi_dsub
 2786              	.LVL359:
 2787 03ac 0546     		mov	r5, r0
 2788 03ae 0C46     		mov	r4, r1
 843:Core/Src/main.c ****                     curr_err=prev_err;
 2789              		.loc 1 843 29 discriminator 1 view .LVU535
 2790 03b0 0022     		movs	r2, #0
 2791 03b2 4FF08043 		mov	r3, #1073741824
 2792 03b6 2846     		mov	r0, r5
 2793 03b8 24F00041 		bic	r1, r4, #-2147483648
 2794 03bc FFF7FEFF 		bl	__aeabi_dcmpgt
 2795              	.LVL360:
 2796 03c0 10B1     		cbz	r0, .L158
 844:Core/Src/main.c ****                 forward(forward_speed,(int)(150*curr_err));
 2797              		.loc 1 844 21 is_stmt 1 view .LVU536
 844:Core/Src/main.c ****                 forward(forward_speed,(int)(150*curr_err));
 2798              		.loc 1 844 29 is_stmt 0 view .LVU537
 2799 03c2 1A4B     		ldr	r3, .L199+28
 2800 03c4 C3E90067 		strd	r6, [r3]
 2801              	.L158:
 845:Core/Src/main.c ****                 goto_state = 1;
 2802              		.loc 1 845 17 is_stmt 1 view .LVU538
 845:Core/Src/main.c ****                 goto_state = 1;
 2803              		.loc 1 845 48 is_stmt 0 view .LVU539
 2804 03c8 184C     		ldr	r4, .L199+28
 2805 03ca 11A3     		adr	r3, .L199
 2806 03cc D3E90023 		ldrd	r2, [r3]
 2807 03d0 D4E90001 		ldrd	r0, [r4]
 2808 03d4 FFF7FEFF 		bl	__aeabi_dmul
 2809              	.LVL361:
 845:Core/Src/main.c ****                 goto_state = 1;
 2810              		.loc 1 845 17 view .LVU540
 2811 03d8 FFF7FEFF 		bl	__aeabi_d2iz
 2812              	.LVL362:
 2813 03dc 0146     		mov	r1, r0
 2814 03de 40F2DC50 		movw	r0, #1500
 2815 03e2 FFF7FEFF 		bl	forward
 2816              	.LVL363:
 846:Core/Src/main.c ****                 prev_err=curr_err;
 2817              		.loc 1 846 17 is_stmt 1 view .LVU541
 846:Core/Src/main.c ****                 prev_err=curr_err;
 2818              		.loc 1 846 28 is_stmt 0 view .LVU542
 2819 03e6 124B     		ldr	r3, .L199+32
 2820 03e8 0122     		movs	r2, #1
 2821 03ea 1A60     		str	r2, [r3]
 847:Core/Src/main.c ****                 return;
 2822              		.loc 1 847 17 is_stmt 1 view .LVU543
 847:Core/Src/main.c ****                 return;
 2823              		.loc 1 847 25 is_stmt 0 view .LVU544
 2824 03ec D4E90001 		ldrd	r0, [r4]
 2825 03f0 094B     		ldr	r3, .L199+8
 2826 03f2 C3E90001 		strd	r0, [r3]
 848:Core/Src/main.c ****             }
 2827              		.loc 1 848 17 is_stmt 1 view .LVU545
 2828 03f6 56E7     		b	.L120
 2829              	.LVL364:
ARM GAS  C:\Users\wangw\AppData\Local\Temp\ccLETVy1.s 			page 68


 2830              	.L196:
 853:Core/Src/main.c ****                     prev_err=0;
 2831              		.loc 1 853 21 view .LVU546
 2832 03f8 4FF44860 		mov	r0, #3200
 2833 03fc FFF7FEFF 		bl	rotate_counterclockwise
 2834              	.LVL365:
 854:Core/Src/main.c ****                 }
 2835              		.loc 1 854 21 view .LVU547
 854:Core/Src/main.c ****                 }
 2836              		.loc 1 854 29 is_stmt 0 view .LVU548
 2837 0400 054B     		ldr	r3, .L199+8
 2838 0402 0020     		movs	r0, #0
 2839 0404 0021     		movs	r1, #0
 2840 0406 C3E90001 		strd	r0, [r3]
 2841 040a 4CE7     		b	.L120
 2842              	.L200:
 2843 040c AFF30080 		.align	3
 2844              	.L199:
 2845 0410 00000000 		.word	0
 2846 0414 00C06240 		.word	1080213504
 2847 0418 00000000 		.word	.LANCHOR9
 2848 041c 0000B343 		.word	1135804416
 2849 0420 00807640 		.word	1081507840
 2850 0424 00003443 		.word	1127481344
 2851 0428 0000B443 		.word	1135869952
 2852 042c 00000000 		.word	.LANCHOR8
 2853 0430 00000000 		.word	.LANCHOR10
 2854              		.cfi_endproc
 2855              	.LFE81:
 2857              		.section	.text.sort_beacons,"ax",%progbits
 2858              		.align	1
 2859              		.global	sort_beacons
 2860              		.syntax unified
 2861              		.thumb
 2862              		.thumb_func
 2863              		.fpu softvfp
 2865              	sort_beacons:
 2866              	.LVL366:
 2867              	.LFB82:
 864:Core/Src/main.c **** int sort_beacons(int x,int y){
 2868              		.loc 1 864 30 is_stmt 1 view -0
 2869              		.cfi_startproc
 2870              		@ args = 0, pretend = 0, frame = 0
 2871              		@ frame_needed = 0, uses_anonymous_args = 0
 2872              		@ link register save eliminated.
 2873              		.loc 1 864 30 is_stmt 0 view .LVU550
 2874 0000 30B4     		push	{r4, r5}
 2875              	.LCFI22:
 2876              		.cfi_def_cfa_offset 8
 2877              		.cfi_offset 4, -8
 2878              		.cfi_offset 5, -4
 2879 0002 0346     		mov	r3, r0
 865:Core/Src/main.c ****     int dis=(x-beacons[0][0])*(x-beacons[0][0])+(y-beacons[0][1])*(y-beacons[0][1]);    //ÊúÄÂ∞èË∑ù
 2880              		.loc 1 865 5 is_stmt 1 view .LVU551
 2881              		.loc 1 865 26 is_stmt 0 view .LVU552
 2882 0004 134C     		ldr	r4, .L208
 2883 0006 2268     		ldr	r2, [r4]
ARM GAS  C:\Users\wangw\AppData\Local\Temp\ccLETVy1.s 			page 69


 2884              		.loc 1 865 15 view .LVU553
 2885 0008 821A     		subs	r2, r0, r2
 2886              		.loc 1 865 62 view .LVU554
 2887 000a 6068     		ldr	r0, [r4, #4]
 2888              	.LVL367:
 2889              		.loc 1 865 51 view .LVU555
 2890 000c 081A     		subs	r0, r1, r0
 2891              		.loc 1 865 66 view .LVU556
 2892 000e 00FB00F0 		mul	r0, r0, r0
 2893              		.loc 1 865 9 view .LVU557
 2894 0012 02FB0200 		mla	r0, r2, r2, r0
 2895              	.LVL368:
 866:Core/Src/main.c ****     int idx=0;                          //ÊúÄËøë‰ø°Ê†áÁöÑ‰∏ãÊ†á
 2896              		.loc 1 866 5 is_stmt 1 view .LVU558
 867:Core/Src/main.c ****     if (dis>(x-beacons[1][0])*(x-beacons[1][0])+(y-beacons[1][1])*(y-beacons[1][1])){
 2897              		.loc 1 867 5 view .LVU559
 2898              		.loc 1 867 26 is_stmt 0 view .LVU560
 2899 0016 A268     		ldr	r2, [r4, #8]
 2900              		.loc 1 867 15 view .LVU561
 2901 0018 9A1A     		subs	r2, r3, r2
 2902              		.loc 1 867 62 view .LVU562
 2903 001a E468     		ldr	r4, [r4, #12]
 2904              		.loc 1 867 51 view .LVU563
 2905 001c A1EB040C 		sub	ip, r1, r4
 2906              		.loc 1 867 66 view .LVU564
 2907 0020 0CFB0CFC 		mul	ip, ip, ip
 2908              		.loc 1 867 48 view .LVU565
 2909 0024 02FB02C2 		mla	r2, r2, r2, ip
 2910              		.loc 1 867 8 view .LVU566
 2911 0028 8242     		cmp	r2, r0
 2912 002a 0EDB     		blt	.L204
 865:Core/Src/main.c ****     int dis=(x-beacons[0][0])*(x-beacons[0][0])+(y-beacons[0][1])*(y-beacons[0][1]);    //ÊúÄÂ∞èË∑ù
 2913              		.loc 1 865 9 view .LVU567
 2914 002c 0246     		mov	r2, r0
 866:Core/Src/main.c ****     int idx=0;                          //ÊúÄËøë‰ø°Ê†áÁöÑ‰∏ãÊ†á
 2915              		.loc 1 866 9 view .LVU568
 2916 002e 0020     		movs	r0, #0
 2917              	.LVL369:
 2918              	.L202:
 868:Core/Src/main.c ****         //Á¨¨‰∫å‰∏™‰ªìÂ∫ìÁ¶ªÂæóÊØîÁ¨¨‰∏Ä‰∏™‰ªìÂ∫ìËøëÔºåÈÇ£‰πà‰∫§Êç¢Êõ¥Êñ∞ÊúÄÂ∞èË∑ùÁ¶ª‰∏é‰∏ãÊ†á
 869:Core/Src/main.c ****         dis=(x-beacons[1][0])*(x-beacons[1][0])+(y-beacons[1][1])*(y-beacons[1][1]);
 870:Core/Src/main.c ****         idx=1;
 871:Core/Src/main.c ****     }
 872:Core/Src/main.c ****     if (dis>(x-beacons[2][0])*(x-beacons[2][0])+(y-beacons[2][1])*(y-beacons[2][1])){
 2919              		.loc 1 872 5 is_stmt 1 view .LVU569
 2920              		.loc 1 872 26 is_stmt 0 view .LVU570
 2921 0030 084C     		ldr	r4, .L208
 2922              		.loc 1 872 15 view .LVU571
 2923 0032 2569     		ldr	r5, [r4, #16]
 2924 0034 5B1B     		subs	r3, r3, r5
 2925              	.LVL370:
 2926              		.loc 1 872 62 view .LVU572
 2927 0036 6469     		ldr	r4, [r4, #20]
 2928              		.loc 1 872 51 view .LVU573
 2929 0038 091B     		subs	r1, r1, r4
 2930              	.LVL371:
 2931              		.loc 1 872 66 view .LVU574
ARM GAS  C:\Users\wangw\AppData\Local\Temp\ccLETVy1.s 			page 70


 2932 003a 01FB01F1 		mul	r1, r1, r1
 2933              		.loc 1 872 48 view .LVU575
 2934 003e 03FB0313 		mla	r3, r3, r3, r1
 2935              		.loc 1 872 8 view .LVU576
 2936 0042 9342     		cmp	r3, r2
 2937 0044 03DB     		blt	.L207
 2938              	.LVL372:
 2939              	.L201:
 873:Core/Src/main.c ****         //Á¨¨‰∏â‰∏™‰ªìÂ∫ìÁ¶ªÂæóÊØîÁ¨¨‰∏Ä‰∏™‰ªìÂ∫ìËøëÔºåÈÇ£‰πà‰∫§Êç¢ÂùêÊ†á
 874:Core/Src/main.c ****         dis=(x-beacons[2][0])*(x-beacons[2][0])+(y-beacons[2][1])*(y-beacons[2][1]);
 875:Core/Src/main.c ****         idx=2;
 876:Core/Src/main.c ****     }
 877:Core/Src/main.c ****     return idx;
 878:Core/Src/main.c **** }
 2940              		.loc 1 878 1 view .LVU577
 2941 0046 30BC     		pop	{r4, r5}
 2942              	.LCFI23:
 2943              		.cfi_remember_state
 2944              		.cfi_restore 5
 2945              		.cfi_restore 4
 2946              		.cfi_def_cfa_offset 0
 2947 0048 7047     		bx	lr
 2948              	.LVL373:
 2949              	.L204:
 2950              	.LCFI24:
 2951              		.cfi_restore_state
 870:Core/Src/main.c ****     }
 2952              		.loc 1 870 12 view .LVU578
 2953 004a 0120     		movs	r0, #1
 2954              	.LVL374:
 870:Core/Src/main.c ****     }
 2955              		.loc 1 870 12 view .LVU579
 2956 004c F0E7     		b	.L202
 2957              	.LVL375:
 2958              	.L207:
 875:Core/Src/main.c ****     }
 2959              		.loc 1 875 12 view .LVU580
 2960 004e 0220     		movs	r0, #2
 2961              	.LVL376:
 877:Core/Src/main.c **** }
 2962              		.loc 1 877 5 is_stmt 1 view .LVU581
 877:Core/Src/main.c **** }
 2963              		.loc 1 877 12 is_stmt 0 view .LVU582
 2964 0050 F9E7     		b	.L201
 2965              	.L209:
 2966 0052 00BF     		.align	2
 2967              	.L208:
 2968 0054 00000000 		.word	.LANCHOR11
 2969              		.cfi_endproc
 2970              	.LFE82:
 2972              		.global	__aeabi_i2f
 2973              		.section	.text.Goto,"ax",%progbits
 2974              		.align	1
 2975              		.global	Goto
 2976              		.syntax unified
 2977              		.thumb
 2978              		.thumb_func
ARM GAS  C:\Users\wangw\AppData\Local\Temp\ccLETVy1.s 			page 71


 2979              		.fpu softvfp
 2981              	Goto:
 2982              	.LVL377:
 2983              	.LFB83:
 879:Core/Src/main.c **** 
 880:Core/Src/main.c **** void Goto(int x, int y)
 881:Core/Src/main.c **** {
 2984              		.loc 1 881 1 is_stmt 1 view -0
 2985              		.cfi_startproc
 2986              		@ args = 0, pretend = 0, frame = 0
 2987              		@ frame_needed = 0, uses_anonymous_args = 0
 2988              		.loc 1 881 1 is_stmt 0 view .LVU584
 2989 0000 10B5     		push	{r4, lr}
 2990              	.LCFI25:
 2991              		.cfi_def_cfa_offset 8
 2992              		.cfi_offset 4, -8
 2993              		.cfi_offset 14, -4
 882:Core/Src/main.c ****     if (goto_state == 0)
 2994              		.loc 1 882 5 is_stmt 1 view .LVU585
 2995              		.loc 1 882 20 is_stmt 0 view .LVU586
 2996 0002 194B     		ldr	r3, .L217
 2997 0004 1B68     		ldr	r3, [r3]
 2998              		.loc 1 882 8 view .LVU587
 2999 0006 23B3     		cbz	r3, .L216
 3000              	.LVL378:
 3001              	.L211:
 883:Core/Src/main.c ****         find(resource_location.x[resource_location.priority], resource_location.y[resource_location
 884:Core/Src/main.c ****     dis_cur = (resource_location.x[resource_location.priority] - car_Pos[0]) * (resource_location.x
 3002              		.loc 1 884 5 is_stmt 1 view .LVU588
 3003              		.loc 1 884 53 is_stmt 0 view .LVU589
 3004 0008 184A     		ldr	r2, .L217+4
 3005 000a 5369     		ldr	r3, [r2, #20]
 3006              		.loc 1 884 35 view .LVU590
 3007 000c 52F82300 		ldr	r0, [r2, r3, lsl #2]
 3008              		.loc 1 884 73 view .LVU591
 3009 0010 1749     		ldr	r1, .L217+8
 3010 0012 0C68     		ldr	r4, [r1]
 3011              		.loc 1 884 64 view .LVU592
 3012 0014 001B     		subs	r0, r0, r4
 3013              		.loc 1 884 165 view .LVU593
 3014 0016 0233     		adds	r3, r3, #2
 3015 0018 52F82330 		ldr	r3, [r2, r3, lsl #2]
 3016              		.loc 1 884 203 view .LVU594
 3017 001c 4A68     		ldr	r2, [r1, #4]
 3018              		.loc 1 884 194 view .LVU595
 3019 001e 9B1A     		subs	r3, r3, r2
 3020              		.loc 1 884 208 view .LVU596
 3021 0020 03FB03F3 		mul	r3, r3, r3
 3022              		.loc 1 884 13 view .LVU597
 3023 0024 00FB0030 		mla	r0, r0, r0, r3
 3024 0028 FFF7FEFF 		bl	__aeabi_i2f
 3025              	.LVL379:
 3026 002c 0446     		mov	r4, r0
 3027 002e 114B     		ldr	r3, .L217+12
 3028 0030 1860     		str	r0, [r3]	@ float
 885:Core/Src/main.c ****     if (dis_cur > dis_pre + 60) // going pass by without getting the resource
 3029              		.loc 1 885 5 is_stmt 1 view .LVU598
ARM GAS  C:\Users\wangw\AppData\Local\Temp\ccLETVy1.s 			page 72


 3030              		.loc 1 885 27 is_stmt 0 view .LVU599
 3031 0032 1149     		ldr	r1, .L217+16
 3032 0034 114B     		ldr	r3, .L217+20
 3033 0036 1868     		ldr	r0, [r3]	@ float
 3034 0038 FFF7FEFF 		bl	__aeabi_fadd
 3035              	.LVL380:
 3036 003c 0146     		mov	r1, r0
 3037              		.loc 1 885 8 view .LVU600
 3038 003e 2046     		mov	r0, r4
 3039 0040 FFF7FEFF 		bl	__aeabi_fcmpgt
 3040              	.LVL381:
 3041 0044 10B1     		cbz	r0, .L212
 886:Core/Src/main.c ****         goto_state = 0;
 3042              		.loc 1 886 9 is_stmt 1 view .LVU601
 3043              		.loc 1 886 20 is_stmt 0 view .LVU602
 3044 0046 084B     		ldr	r3, .L217
 3045 0048 0022     		movs	r2, #0
 3046 004a 1A60     		str	r2, [r3]
 3047              	.L212:
 887:Core/Src/main.c ****     dis_pre = dis_cur;
 3048              		.loc 1 887 5 is_stmt 1 view .LVU603
 3049              		.loc 1 887 13 is_stmt 0 view .LVU604
 3050 004c 0B4B     		ldr	r3, .L217+20
 3051 004e 1C60     		str	r4, [r3]	@ float
 888:Core/Src/main.c **** }
 3052              		.loc 1 888 1 view .LVU605
 3053 0050 10BD     		pop	{r4, pc}
 3054              	.LVL382:
 3055              	.L216:
 883:Core/Src/main.c ****     dis_cur = (resource_location.x[resource_location.priority] - car_Pos[0]) * (resource_location.x
 3056              		.loc 1 883 9 is_stmt 1 view .LVU606
 883:Core/Src/main.c ****     dis_cur = (resource_location.x[resource_location.priority] - car_Pos[0]) * (resource_location.x
 3057              		.loc 1 883 51 is_stmt 0 view .LVU607
 3058 0052 064B     		ldr	r3, .L217+4
 3059 0054 5A69     		ldr	r2, [r3, #20]
 883:Core/Src/main.c ****     dis_cur = (resource_location.x[resource_location.priority] - car_Pos[0]) * (resource_location.x
 3060              		.loc 1 883 9 view .LVU608
 3061 0056 911C     		adds	r1, r2, #2
 3062              	.LVL383:
 883:Core/Src/main.c ****     dis_cur = (resource_location.x[resource_location.priority] - car_Pos[0]) * (resource_location.x
 3063              		.loc 1 883 9 view .LVU609
 3064 0058 53F82110 		ldr	r1, [r3, r1, lsl #2]
 3065 005c 53F82200 		ldr	r0, [r3, r2, lsl #2]
 3066              	.LVL384:
 883:Core/Src/main.c ****     dis_cur = (resource_location.x[resource_location.priority] - car_Pos[0]) * (resource_location.x
 3067              		.loc 1 883 9 view .LVU610
 3068 0060 FFF7FEFF 		bl	find
 3069              	.LVL385:
 3070 0064 D0E7     		b	.L211
 3071              	.L218:
 3072 0066 00BF     		.align	2
 3073              	.L217:
 3074 0068 00000000 		.word	.LANCHOR10
 3075 006c 00000000 		.word	.LANCHOR12
 3076 0070 00000000 		.word	.LANCHOR4
 3077 0074 00000000 		.word	.LANCHOR13
 3078 0078 00007042 		.word	1114636288
ARM GAS  C:\Users\wangw\AppData\Local\Temp\ccLETVy1.s 			page 73


 3079 007c 00000000 		.word	.LANCHOR14
 3080              		.cfi_endproc
 3081              	.LFE83:
 3083              		.section	.text.Get_Rep_opt,"ax",%progbits
 3084              		.align	1
 3085              		.global	Get_Rep_opt
 3086              		.syntax unified
 3087              		.thumb
 3088              		.thumb_func
 3089              		.fpu softvfp
 3091              	Get_Rep_opt:
 3092              	.LVL386:
 3093              	.LFB84:
 889:Core/Src/main.c **** 
 890:Core/Src/main.c **** //ÂØªÊâæÔøΩ??ËøëÁöÑ‰ªìÂ∫ìÂùêÊ†á
 891:Core/Src/main.c **** // Parameters: Â∞èËΩ¶ÂùêÊ†á
 892:Core/Src/main.c **** // Return: ÔøΩ??ËøëÁöÑ‰ªìÂ∫ìÂùêÊ†áÁöÑÊï∞ÁªÑÊåáÔøΩ??
 893:Core/Src/main.c **** void Get_Rep_opt(int x, int y)
 894:Core/Src/main.c **** {
 3094              		.loc 1 894 1 is_stmt 1 view -0
 3095              		.cfi_startproc
 3096              		@ args = 0, pretend = 0, frame = 0
 3097              		@ frame_needed = 0, uses_anonymous_args = 0
 3098              		.loc 1 894 1 is_stmt 0 view .LVU612
 3099 0000 2DE9F041 		push	{r4, r5, r6, r7, r8, lr}
 3100              	.LCFI26:
 3101              		.cfi_def_cfa_offset 24
 3102              		.cfi_offset 4, -24
 3103              		.cfi_offset 5, -20
 3104              		.cfi_offset 6, -16
 3105              		.cfi_offset 7, -12
 3106              		.cfi_offset 8, -8
 3107              		.cfi_offset 14, -4
 3108 0004 0646     		mov	r6, r0
 3109 0006 0F46     		mov	r7, r1
 895:Core/Src/main.c ****     int min;
 3110              		.loc 1 895 5 is_stmt 1 view .LVU613
 896:Core/Src/main.c ****     int min_rep;
 3111              		.loc 1 896 5 view .LVU614
 897:Core/Src/main.c ****     int i = 0;
 3112              		.loc 1 897 5 view .LVU615
 3113              	.LVL387:
 898:Core/Src/main.c ****     min = (x - 15) * (x - 15) + (y - 15) * (y - 15);
 3114              		.loc 1 898 5 view .LVU616
 3115              		.loc 1 898 14 is_stmt 0 view .LVU617
 3116 0008 A0F10F05 		sub	r5, r0, #15
 3117              		.loc 1 898 36 view .LVU618
 3118 000c A1F10F03 		sub	r3, r1, #15
 3119              		.loc 1 898 42 view .LVU619
 3120 0010 03FB03F3 		mul	r3, r3, r3
 3121              		.loc 1 898 9 view .LVU620
 3122 0014 05FB0535 		mla	r5, r5, r5, r3
 3123              	.LVL388:
 899:Core/Src/main.c ****     min_rep = 0;
 3124              		.loc 1 899 5 is_stmt 1 view .LVU621
 900:Core/Src/main.c ****     for (i = 0; i < 8; ++i)
 3125              		.loc 1 900 5 view .LVU622
ARM GAS  C:\Users\wangw\AppData\Local\Temp\ccLETVy1.s 			page 74


 3126              		.loc 1 900 12 is_stmt 0 view .LVU623
 3127 0018 0024     		movs	r4, #0
 899:Core/Src/main.c ****     min_rep = 0;
 3128              		.loc 1 899 13 view .LVU624
 3129 001a A046     		mov	r8, r4
 3130              		.loc 1 900 5 view .LVU625
 3131 001c 00E0     		b	.L220
 3132              	.LVL389:
 3133              	.L221:
 3134              		.loc 1 900 24 is_stmt 1 discriminator 2 view .LVU626
 3135 001e 0134     		adds	r4, r4, #1
 3136              	.LVL390:
 3137              	.L220:
 3138              		.loc 1 900 17 discriminator 1 view .LVU627
 3139              		.loc 1 900 5 is_stmt 0 discriminator 1 view .LVU628
 3140 0020 072C     		cmp	r4, #7
 3141 0022 17DC     		bgt	.L230
 901:Core/Src/main.c ****     {
 902:Core/Src/main.c ****         if (getParkDotMineType(i) == prev_type) //ÂêåÁ±ªÂûãÂ∑≤ÁªèÂéªËøá‰∫Ü
 3142              		.loc 1 902 9 is_stmt 1 view .LVU629
 3143              		.loc 1 902 13 is_stmt 0 view .LVU630
 3144 0024 2046     		mov	r0, r4
 3145 0026 FFF7FEFF 		bl	getParkDotMineType
 3146              	.LVL391:
 3147              		.loc 1 902 35 view .LVU631
 3148 002a 284B     		ldr	r3, .L232
 3149 002c 1B68     		ldr	r3, [r3]
 3150              		.loc 1 902 12 view .LVU632
 3151 002e 9842     		cmp	r0, r3
 3152 0030 F5D0     		beq	.L221
 903:Core/Src/main.c ****             continue;
 904:Core/Src/main.c ****         if (((rep[i][0] - x) * (rep[i][0] - x) + (rep[i][1] - y) * (rep[i][1] - y)) < min)
 3153              		.loc 1 904 9 is_stmt 1 view .LVU633
 3154              		.loc 1 904 21 is_stmt 0 view .LVU634
 3155 0032 274A     		ldr	r2, .L232+4
 3156 0034 52F83430 		ldr	r3, [r2, r4, lsl #3]
 3157              		.loc 1 904 25 view .LVU635
 3158 0038 9B1B     		subs	r3, r3, r6
 3159              		.loc 1 904 57 view .LVU636
 3160 003a 02EBC402 		add	r2, r2, r4, lsl #3
 3161 003e 5268     		ldr	r2, [r2, #4]
 3162              		.loc 1 904 61 view .LVU637
 3163 0040 D21B     		subs	r2, r2, r7
 3164              		.loc 1 904 66 view .LVU638
 3165 0042 02FB02F2 		mul	r2, r2, r2
 3166              		.loc 1 904 48 view .LVU639
 3167 0046 03FB0323 		mla	r3, r3, r3, r2
 3168              		.loc 1 904 12 view .LVU640
 3169 004a AB42     		cmp	r3, r5
 3170 004c E7DA     		bge	.L221
 905:Core/Src/main.c ****         {
 906:Core/Src/main.c ****             min_rep = i;
 3171              		.loc 1 906 21 view .LVU641
 3172 004e A046     		mov	r8, r4
 3173              	.LVL392:
 907:Core/Src/main.c ****             min = (rep[i][0] - x) * (rep[i][0] - x) + (rep[i][1] - y) * (rep[i][1] - y);
 3174              		.loc 1 907 17 view .LVU642
ARM GAS  C:\Users\wangw\AppData\Local\Temp\ccLETVy1.s 			page 75


 3175 0050 1D46     		mov	r5, r3
 3176              	.LVL393:
 3177              		.loc 1 907 17 view .LVU643
 3178 0052 E4E7     		b	.L221
 3179              	.LVL394:
 3180              	.L230:
 908:Core/Src/main.c ****         }
 909:Core/Src/main.c ****     }
 910:Core/Src/main.c ****     for (i = 0; i < 3; ++i)
 3181              		.loc 1 910 12 view .LVU644
 3182 0054 0024     		movs	r4, #0
 3183              	.LVL395:
 3184              		.loc 1 910 12 view .LVU645
 3185 0056 00E0     		b	.L223
 3186              	.LVL396:
 3187              	.L224:
 3188              		.loc 1 910 24 is_stmt 1 discriminator 2 view .LVU646
 3189 0058 0134     		adds	r4, r4, #1
 3190              	.LVL397:
 3191              	.L223:
 3192              		.loc 1 910 17 discriminator 1 view .LVU647
 3193              		.loc 1 910 5 is_stmt 0 discriminator 1 view .LVU648
 3194 005a 022C     		cmp	r4, #2
 3195 005c 19DC     		bgt	.L231
 911:Core/Src/main.c ****     {
 912:Core/Src/main.c ****         if (getMyBeaconMineType(i) == prev_type) //ÂêåÁ±ªÂûãÂ∑≤ÁªèÂéªËøá‰∫Ü
 3196              		.loc 1 912 9 is_stmt 1 view .LVU649
 3197              		.loc 1 912 13 is_stmt 0 view .LVU650
 3198 005e 2046     		mov	r0, r4
 3199 0060 FFF7FEFF 		bl	getMyBeaconMineType
 3200              	.LVL398:
 3201              		.loc 1 912 36 view .LVU651
 3202 0064 194B     		ldr	r3, .L232
 3203 0066 1B68     		ldr	r3, [r3]
 3204              		.loc 1 912 12 view .LVU652
 3205 0068 9842     		cmp	r0, r3
 3206 006a F5D0     		beq	.L224
 913:Core/Src/main.c ****             continue;
 914:Core/Src/main.c ****         if (((beacon_Pos[2 * i] - x) * (beacon_Pos[2 * i] - x) + (beacon_Pos[2 * i + 1] - y) * (bea
 3207              		.loc 1 914 9 is_stmt 1 view .LVU653
 3208              		.loc 1 914 28 is_stmt 0 view .LVU654
 3209 006c 6200     		lsls	r2, r4, #1
 3210              		.loc 1 914 25 view .LVU655
 3211 006e 1949     		ldr	r1, .L232+8
 3212 0070 51F82230 		ldr	r3, [r1, r2, lsl #2]
 3213              		.loc 1 914 33 view .LVU656
 3214 0074 9B1B     		subs	r3, r3, r6
 3215              		.loc 1 914 84 view .LVU657
 3216 0076 0132     		adds	r2, r2, #1
 3217              		.loc 1 914 77 view .LVU658
 3218 0078 51F82220 		ldr	r2, [r1, r2, lsl #2]
 3219              		.loc 1 914 89 view .LVU659
 3220 007c D21B     		subs	r2, r2, r7
 3221              		.loc 1 914 94 view .LVU660
 3222 007e 02FB02F2 		mul	r2, r2, r2
 3223              		.loc 1 914 64 view .LVU661
 3224 0082 03FB0323 		mla	r3, r3, r3, r2
ARM GAS  C:\Users\wangw\AppData\Local\Temp\ccLETVy1.s 			page 76


 3225              		.loc 1 914 12 view .LVU662
 3226 0086 AB42     		cmp	r3, r5
 3227 0088 E6DA     		bge	.L224
 915:Core/Src/main.c ****         {
 916:Core/Src/main.c ****             min_rep = 8 + i; //8Âà∞10
 3228              		.loc 1 916 13 is_stmt 1 view .LVU663
 3229              		.loc 1 916 21 is_stmt 0 view .LVU664
 3230 008a 04F10808 		add	r8, r4, #8
 3231              	.LVL399:
 917:Core/Src/main.c ****             min = (beacon_Pos[2 * i] - x) * (beacon_Pos[2 * i] - x) + (beacon_Pos[2 * i + 1] - y) *
 3232              		.loc 1 917 13 is_stmt 1 view .LVU665
 3233              		.loc 1 917 17 is_stmt 0 view .LVU666
 3234 008e 1D46     		mov	r5, r3
 3235 0090 E2E7     		b	.L224
 3236              	.LVL400:
 3237              	.L231:
 918:Core/Src/main.c ****         }
 919:Core/Src/main.c ****     }
 920:Core/Src/main.c ****     if (min_rep < 8)
 3238              		.loc 1 920 5 is_stmt 1 view .LVU667
 3239              		.loc 1 920 8 is_stmt 0 view .LVU668
 3240 0092 B8F1070F 		cmp	r8, #7
 3241 0096 0ADC     		bgt	.L226
 921:Core/Src/main.c ****     {
 922:Core/Src/main.c ****         destination[0] = rep[min_rep][0];
 3242              		.loc 1 922 9 is_stmt 1 view .LVU669
 3243              		.loc 1 922 38 is_stmt 0 view .LVU670
 3244 0098 0D4B     		ldr	r3, .L232+4
 3245 009a 53F83810 		ldr	r1, [r3, r8, lsl #3]
 3246              		.loc 1 922 24 view .LVU671
 3247 009e 0E4A     		ldr	r2, .L232+12
 3248 00a0 1160     		str	r1, [r2]
 923:Core/Src/main.c ****         destination[1] = rep[min_rep][1];
 3249              		.loc 1 923 9 is_stmt 1 view .LVU672
 3250              		.loc 1 923 38 is_stmt 0 view .LVU673
 3251 00a2 03EBC803 		add	r3, r3, r8, lsl #3
 3252 00a6 5B68     		ldr	r3, [r3, #4]
 3253              		.loc 1 923 24 view .LVU674
 3254 00a8 5360     		str	r3, [r2, #4]
 3255              	.LVL401:
 3256              	.L219:
 924:Core/Src/main.c ****         //return rep[min_rep];
 925:Core/Src/main.c ****     }
 926:Core/Src/main.c ****     else
 927:Core/Src/main.c ****     {
 928:Core/Src/main.c ****         destination[0] = beacon_Pos[2 * (min_rep - 8)];
 929:Core/Src/main.c ****         destination[1] = beacon_Pos[2 * (min_rep - 8) + 1];
 930:Core/Src/main.c ****         //return {beacon_Pos[2 * (min_rep - 8)], beacon_Pos[2 * (min_rep - 8) + 1]};}
 931:Core/Src/main.c ****     }
 932:Core/Src/main.c **** }
 3257              		.loc 1 932 1 view .LVU675
 3258 00aa BDE8F081 		pop	{r4, r5, r6, r7, r8, pc}
 3259              	.LVL402:
 3260              	.L226:
 928:Core/Src/main.c ****         destination[1] = beacon_Pos[2 * (min_rep - 8) + 1];
 3261              		.loc 1 928 9 is_stmt 1 view .LVU676
 928:Core/Src/main.c ****         destination[1] = beacon_Pos[2 * (min_rep - 8) + 1];
ARM GAS  C:\Users\wangw\AppData\Local\Temp\ccLETVy1.s 			page 77


 3262              		.loc 1 928 50 is_stmt 0 view .LVU677
 3263 00ae A8F10808 		sub	r8, r8, #8
 3264              	.LVL403:
 928:Core/Src/main.c ****         destination[1] = beacon_Pos[2 * (min_rep - 8) + 1];
 3265              		.loc 1 928 39 view .LVU678
 3266 00b2 4FEA4808 		lsl	r8, r8, #1
 3267              	.LVL404:
 928:Core/Src/main.c ****         destination[1] = beacon_Pos[2 * (min_rep - 8) + 1];
 3268              		.loc 1 928 36 view .LVU679
 3269 00b6 074A     		ldr	r2, .L232+8
 3270 00b8 52F82810 		ldr	r1, [r2, r8, lsl #2]
 928:Core/Src/main.c ****         destination[1] = beacon_Pos[2 * (min_rep - 8) + 1];
 3271              		.loc 1 928 24 view .LVU680
 3272 00bc 064B     		ldr	r3, .L232+12
 3273 00be 1960     		str	r1, [r3]
 929:Core/Src/main.c ****         //return {beacon_Pos[2 * (min_rep - 8)], beacon_Pos[2 * (min_rep - 8) + 1]};}
 3274              		.loc 1 929 9 is_stmt 1 view .LVU681
 929:Core/Src/main.c ****         //return {beacon_Pos[2 * (min_rep - 8)], beacon_Pos[2 * (min_rep - 8) + 1]};}
 3275              		.loc 1 929 55 is_stmt 0 view .LVU682
 3276 00c0 08F10108 		add	r8, r8, #1
 929:Core/Src/main.c ****         //return {beacon_Pos[2 * (min_rep - 8)], beacon_Pos[2 * (min_rep - 8) + 1]};}
 3277              		.loc 1 929 36 view .LVU683
 3278 00c4 52F82820 		ldr	r2, [r2, r8, lsl #2]
 929:Core/Src/main.c ****         //return {beacon_Pos[2 * (min_rep - 8)], beacon_Pos[2 * (min_rep - 8) + 1]};}
 3279              		.loc 1 929 24 view .LVU684
 3280 00c8 5A60     		str	r2, [r3, #4]
 3281              		.loc 1 932 1 view .LVU685
 3282 00ca EEE7     		b	.L219
 3283              	.L233:
 3284              		.align	2
 3285              	.L232:
 3286 00cc 00000000 		.word	.LANCHOR15
 3287 00d0 00000000 		.word	.LANCHOR16
 3288 00d4 00000000 		.word	.LANCHOR2
 3289 00d8 00000000 		.word	.LANCHOR17
 3290              		.cfi_endproc
 3291              	.LFE84:
 3293              		.section	.text.Error_Handler,"ax",%progbits
 3294              		.align	1
 3295              		.global	Error_Handler
 3296              		.syntax unified
 3297              		.thumb
 3298              		.thumb_func
 3299              		.fpu softvfp
 3301              	Error_Handler:
 3302              	.LFB85:
 933:Core/Src/main.c **** /* USER CODE END 4 */
 934:Core/Src/main.c **** 
 935:Core/Src/main.c **** /**
 936:Core/Src/main.c ****   * @brief  This function is executed in case of error occurrence.
 937:Core/Src/main.c ****   * @retval None
 938:Core/Src/main.c ****   */
 939:Core/Src/main.c **** void Error_Handler(void)
 940:Core/Src/main.c **** {
 3303              		.loc 1 940 1 is_stmt 1 view -0
 3304              		.cfi_startproc
 3305              		@ Volatile: function does not return.
ARM GAS  C:\Users\wangw\AppData\Local\Temp\ccLETVy1.s 			page 78


 3306              		@ args = 0, pretend = 0, frame = 0
 3307              		@ frame_needed = 0, uses_anonymous_args = 0
 3308              		@ link register save eliminated.
 941:Core/Src/main.c ****     /* USER CODE BEGIN Error_Handler_Debug */
 942:Core/Src/main.c ****     /* User can add his own implementation to report the HAL error return state */
 943:Core/Src/main.c ****     __disable_irq();
 3309              		.loc 1 943 5 view .LVU687
 3310              	.LBB4:
 3311              	.LBI4:
 3312              		.file 2 "Drivers/CMSIS/Include/cmsis_gcc.h"
   1:Drivers/CMSIS/Include/cmsis_gcc.h **** /**************************************************************************//**
   2:Drivers/CMSIS/Include/cmsis_gcc.h ****  * @file     cmsis_gcc.h
   3:Drivers/CMSIS/Include/cmsis_gcc.h ****  * @brief    CMSIS compiler GCC header file
   4:Drivers/CMSIS/Include/cmsis_gcc.h ****  * @version  V5.0.4
   5:Drivers/CMSIS/Include/cmsis_gcc.h ****  * @date     09. April 2018
   6:Drivers/CMSIS/Include/cmsis_gcc.h ****  ******************************************************************************/
   7:Drivers/CMSIS/Include/cmsis_gcc.h **** /*
   8:Drivers/CMSIS/Include/cmsis_gcc.h ****  * Copyright (c) 2009-2018 Arm Limited. All rights reserved.
   9:Drivers/CMSIS/Include/cmsis_gcc.h ****  *
  10:Drivers/CMSIS/Include/cmsis_gcc.h ****  * SPDX-License-Identifier: Apache-2.0
  11:Drivers/CMSIS/Include/cmsis_gcc.h ****  *
  12:Drivers/CMSIS/Include/cmsis_gcc.h ****  * Licensed under the Apache License, Version 2.0 (the License); you may
  13:Drivers/CMSIS/Include/cmsis_gcc.h ****  * not use this file except in compliance with the License.
  14:Drivers/CMSIS/Include/cmsis_gcc.h ****  * You may obtain a copy of the License at
  15:Drivers/CMSIS/Include/cmsis_gcc.h ****  *
  16:Drivers/CMSIS/Include/cmsis_gcc.h ****  * www.apache.org/licenses/LICENSE-2.0
  17:Drivers/CMSIS/Include/cmsis_gcc.h ****  *
  18:Drivers/CMSIS/Include/cmsis_gcc.h ****  * Unless required by applicable law or agreed to in writing, software
  19:Drivers/CMSIS/Include/cmsis_gcc.h ****  * distributed under the License is distributed on an AS IS BASIS, WITHOUT
  20:Drivers/CMSIS/Include/cmsis_gcc.h ****  * WARRANTIES OR CONDITIONS OF ANY KIND, either express or implied.
  21:Drivers/CMSIS/Include/cmsis_gcc.h ****  * See the License for the specific language governing permissions and
  22:Drivers/CMSIS/Include/cmsis_gcc.h ****  * limitations under the License.
  23:Drivers/CMSIS/Include/cmsis_gcc.h ****  */
  24:Drivers/CMSIS/Include/cmsis_gcc.h **** 
  25:Drivers/CMSIS/Include/cmsis_gcc.h **** #ifndef __CMSIS_GCC_H
  26:Drivers/CMSIS/Include/cmsis_gcc.h **** #define __CMSIS_GCC_H
  27:Drivers/CMSIS/Include/cmsis_gcc.h **** 
  28:Drivers/CMSIS/Include/cmsis_gcc.h **** /* ignore some GCC warnings */
  29:Drivers/CMSIS/Include/cmsis_gcc.h **** #pragma GCC diagnostic push
  30:Drivers/CMSIS/Include/cmsis_gcc.h **** #pragma GCC diagnostic ignored "-Wsign-conversion"
  31:Drivers/CMSIS/Include/cmsis_gcc.h **** #pragma GCC diagnostic ignored "-Wconversion"
  32:Drivers/CMSIS/Include/cmsis_gcc.h **** #pragma GCC diagnostic ignored "-Wunused-parameter"
  33:Drivers/CMSIS/Include/cmsis_gcc.h **** 
  34:Drivers/CMSIS/Include/cmsis_gcc.h **** /* Fallback for __has_builtin */
  35:Drivers/CMSIS/Include/cmsis_gcc.h **** #ifndef __has_builtin
  36:Drivers/CMSIS/Include/cmsis_gcc.h ****   #define __has_builtin(x) (0)
  37:Drivers/CMSIS/Include/cmsis_gcc.h **** #endif
  38:Drivers/CMSIS/Include/cmsis_gcc.h **** 
  39:Drivers/CMSIS/Include/cmsis_gcc.h **** /* CMSIS compiler specific defines */
  40:Drivers/CMSIS/Include/cmsis_gcc.h **** #ifndef   __ASM
  41:Drivers/CMSIS/Include/cmsis_gcc.h ****   #define __ASM                                  __asm
  42:Drivers/CMSIS/Include/cmsis_gcc.h **** #endif
  43:Drivers/CMSIS/Include/cmsis_gcc.h **** #ifndef   __INLINE
  44:Drivers/CMSIS/Include/cmsis_gcc.h ****   #define __INLINE                               inline
  45:Drivers/CMSIS/Include/cmsis_gcc.h **** #endif
  46:Drivers/CMSIS/Include/cmsis_gcc.h **** #ifndef   __STATIC_INLINE
  47:Drivers/CMSIS/Include/cmsis_gcc.h ****   #define __STATIC_INLINE                        static inline
ARM GAS  C:\Users\wangw\AppData\Local\Temp\ccLETVy1.s 			page 79


  48:Drivers/CMSIS/Include/cmsis_gcc.h **** #endif
  49:Drivers/CMSIS/Include/cmsis_gcc.h **** #ifndef   __STATIC_FORCEINLINE                 
  50:Drivers/CMSIS/Include/cmsis_gcc.h ****   #define __STATIC_FORCEINLINE                   __attribute__((always_inline)) static inline
  51:Drivers/CMSIS/Include/cmsis_gcc.h **** #endif                                           
  52:Drivers/CMSIS/Include/cmsis_gcc.h **** #ifndef   __NO_RETURN
  53:Drivers/CMSIS/Include/cmsis_gcc.h ****   #define __NO_RETURN                            __attribute__((__noreturn__))
  54:Drivers/CMSIS/Include/cmsis_gcc.h **** #endif
  55:Drivers/CMSIS/Include/cmsis_gcc.h **** #ifndef   __USED
  56:Drivers/CMSIS/Include/cmsis_gcc.h ****   #define __USED                                 __attribute__((used))
  57:Drivers/CMSIS/Include/cmsis_gcc.h **** #endif
  58:Drivers/CMSIS/Include/cmsis_gcc.h **** #ifndef   __WEAK
  59:Drivers/CMSIS/Include/cmsis_gcc.h ****   #define __WEAK                                 __attribute__((weak))
  60:Drivers/CMSIS/Include/cmsis_gcc.h **** #endif
  61:Drivers/CMSIS/Include/cmsis_gcc.h **** #ifndef   __PACKED
  62:Drivers/CMSIS/Include/cmsis_gcc.h ****   #define __PACKED                               __attribute__((packed, aligned(1)))
  63:Drivers/CMSIS/Include/cmsis_gcc.h **** #endif
  64:Drivers/CMSIS/Include/cmsis_gcc.h **** #ifndef   __PACKED_STRUCT
  65:Drivers/CMSIS/Include/cmsis_gcc.h ****   #define __PACKED_STRUCT                        struct __attribute__((packed, aligned(1)))
  66:Drivers/CMSIS/Include/cmsis_gcc.h **** #endif
  67:Drivers/CMSIS/Include/cmsis_gcc.h **** #ifndef   __PACKED_UNION
  68:Drivers/CMSIS/Include/cmsis_gcc.h ****   #define __PACKED_UNION                         union __attribute__((packed, aligned(1)))
  69:Drivers/CMSIS/Include/cmsis_gcc.h **** #endif
  70:Drivers/CMSIS/Include/cmsis_gcc.h **** #ifndef   __UNALIGNED_UINT32        /* deprecated */
  71:Drivers/CMSIS/Include/cmsis_gcc.h ****   #pragma GCC diagnostic push
  72:Drivers/CMSIS/Include/cmsis_gcc.h ****   #pragma GCC diagnostic ignored "-Wpacked"
  73:Drivers/CMSIS/Include/cmsis_gcc.h ****   #pragma GCC diagnostic ignored "-Wattributes"
  74:Drivers/CMSIS/Include/cmsis_gcc.h ****   struct __attribute__((packed)) T_UINT32 { uint32_t v; };
  75:Drivers/CMSIS/Include/cmsis_gcc.h ****   #pragma GCC diagnostic pop
  76:Drivers/CMSIS/Include/cmsis_gcc.h ****   #define __UNALIGNED_UINT32(x)                  (((struct T_UINT32 *)(x))->v)
  77:Drivers/CMSIS/Include/cmsis_gcc.h **** #endif
  78:Drivers/CMSIS/Include/cmsis_gcc.h **** #ifndef   __UNALIGNED_UINT16_WRITE
  79:Drivers/CMSIS/Include/cmsis_gcc.h ****   #pragma GCC diagnostic push
  80:Drivers/CMSIS/Include/cmsis_gcc.h ****   #pragma GCC diagnostic ignored "-Wpacked"
  81:Drivers/CMSIS/Include/cmsis_gcc.h ****   #pragma GCC diagnostic ignored "-Wattributes"
  82:Drivers/CMSIS/Include/cmsis_gcc.h ****   __PACKED_STRUCT T_UINT16_WRITE { uint16_t v; };
  83:Drivers/CMSIS/Include/cmsis_gcc.h ****   #pragma GCC diagnostic pop
  84:Drivers/CMSIS/Include/cmsis_gcc.h ****   #define __UNALIGNED_UINT16_WRITE(addr, val)    (void)((((struct T_UINT16_WRITE *)(void *)(addr))-
  85:Drivers/CMSIS/Include/cmsis_gcc.h **** #endif
  86:Drivers/CMSIS/Include/cmsis_gcc.h **** #ifndef   __UNALIGNED_UINT16_READ
  87:Drivers/CMSIS/Include/cmsis_gcc.h ****   #pragma GCC diagnostic push
  88:Drivers/CMSIS/Include/cmsis_gcc.h ****   #pragma GCC diagnostic ignored "-Wpacked"
  89:Drivers/CMSIS/Include/cmsis_gcc.h ****   #pragma GCC diagnostic ignored "-Wattributes"
  90:Drivers/CMSIS/Include/cmsis_gcc.h ****   __PACKED_STRUCT T_UINT16_READ { uint16_t v; };
  91:Drivers/CMSIS/Include/cmsis_gcc.h ****   #pragma GCC diagnostic pop
  92:Drivers/CMSIS/Include/cmsis_gcc.h ****   #define __UNALIGNED_UINT16_READ(addr)          (((const struct T_UINT16_READ *)(const void *)(add
  93:Drivers/CMSIS/Include/cmsis_gcc.h **** #endif
  94:Drivers/CMSIS/Include/cmsis_gcc.h **** #ifndef   __UNALIGNED_UINT32_WRITE
  95:Drivers/CMSIS/Include/cmsis_gcc.h ****   #pragma GCC diagnostic push
  96:Drivers/CMSIS/Include/cmsis_gcc.h ****   #pragma GCC diagnostic ignored "-Wpacked"
  97:Drivers/CMSIS/Include/cmsis_gcc.h ****   #pragma GCC diagnostic ignored "-Wattributes"
  98:Drivers/CMSIS/Include/cmsis_gcc.h ****   __PACKED_STRUCT T_UINT32_WRITE { uint32_t v; };
  99:Drivers/CMSIS/Include/cmsis_gcc.h ****   #pragma GCC diagnostic pop
 100:Drivers/CMSIS/Include/cmsis_gcc.h ****   #define __UNALIGNED_UINT32_WRITE(addr, val)    (void)((((struct T_UINT32_WRITE *)(void *)(addr))-
 101:Drivers/CMSIS/Include/cmsis_gcc.h **** #endif
 102:Drivers/CMSIS/Include/cmsis_gcc.h **** #ifndef   __UNALIGNED_UINT32_READ
 103:Drivers/CMSIS/Include/cmsis_gcc.h ****   #pragma GCC diagnostic push
 104:Drivers/CMSIS/Include/cmsis_gcc.h ****   #pragma GCC diagnostic ignored "-Wpacked"
ARM GAS  C:\Users\wangw\AppData\Local\Temp\ccLETVy1.s 			page 80


 105:Drivers/CMSIS/Include/cmsis_gcc.h ****   #pragma GCC diagnostic ignored "-Wattributes"
 106:Drivers/CMSIS/Include/cmsis_gcc.h ****   __PACKED_STRUCT T_UINT32_READ { uint32_t v; };
 107:Drivers/CMSIS/Include/cmsis_gcc.h ****   #pragma GCC diagnostic pop
 108:Drivers/CMSIS/Include/cmsis_gcc.h ****   #define __UNALIGNED_UINT32_READ(addr)          (((const struct T_UINT32_READ *)(const void *)(add
 109:Drivers/CMSIS/Include/cmsis_gcc.h **** #endif
 110:Drivers/CMSIS/Include/cmsis_gcc.h **** #ifndef   __ALIGNED
 111:Drivers/CMSIS/Include/cmsis_gcc.h ****   #define __ALIGNED(x)                           __attribute__((aligned(x)))
 112:Drivers/CMSIS/Include/cmsis_gcc.h **** #endif
 113:Drivers/CMSIS/Include/cmsis_gcc.h **** #ifndef   __RESTRICT
 114:Drivers/CMSIS/Include/cmsis_gcc.h ****   #define __RESTRICT                             __restrict
 115:Drivers/CMSIS/Include/cmsis_gcc.h **** #endif
 116:Drivers/CMSIS/Include/cmsis_gcc.h **** 
 117:Drivers/CMSIS/Include/cmsis_gcc.h **** 
 118:Drivers/CMSIS/Include/cmsis_gcc.h **** /* ###########################  Core Function Access  ########################### */
 119:Drivers/CMSIS/Include/cmsis_gcc.h **** /** \ingroup  CMSIS_Core_FunctionInterface
 120:Drivers/CMSIS/Include/cmsis_gcc.h ****     \defgroup CMSIS_Core_RegAccFunctions CMSIS Core Register Access Functions
 121:Drivers/CMSIS/Include/cmsis_gcc.h ****   @{
 122:Drivers/CMSIS/Include/cmsis_gcc.h ****  */
 123:Drivers/CMSIS/Include/cmsis_gcc.h **** 
 124:Drivers/CMSIS/Include/cmsis_gcc.h **** /**
 125:Drivers/CMSIS/Include/cmsis_gcc.h ****   \brief   Enable IRQ Interrupts
 126:Drivers/CMSIS/Include/cmsis_gcc.h ****   \details Enables IRQ interrupts by clearing the I-bit in the CPSR.
 127:Drivers/CMSIS/Include/cmsis_gcc.h ****            Can only be executed in Privileged modes.
 128:Drivers/CMSIS/Include/cmsis_gcc.h ****  */
 129:Drivers/CMSIS/Include/cmsis_gcc.h **** __STATIC_FORCEINLINE void __enable_irq(void)
 130:Drivers/CMSIS/Include/cmsis_gcc.h **** {
 131:Drivers/CMSIS/Include/cmsis_gcc.h ****   __ASM volatile ("cpsie i" : : : "memory");
 132:Drivers/CMSIS/Include/cmsis_gcc.h **** }
 133:Drivers/CMSIS/Include/cmsis_gcc.h **** 
 134:Drivers/CMSIS/Include/cmsis_gcc.h **** 
 135:Drivers/CMSIS/Include/cmsis_gcc.h **** /**
 136:Drivers/CMSIS/Include/cmsis_gcc.h ****   \brief   Disable IRQ Interrupts
 137:Drivers/CMSIS/Include/cmsis_gcc.h ****   \details Disables IRQ interrupts by setting the I-bit in the CPSR.
 138:Drivers/CMSIS/Include/cmsis_gcc.h ****            Can only be executed in Privileged modes.
 139:Drivers/CMSIS/Include/cmsis_gcc.h ****  */
 140:Drivers/CMSIS/Include/cmsis_gcc.h **** __STATIC_FORCEINLINE void __disable_irq(void)
 3313              		.loc 2 140 27 view .LVU688
 3314              	.LBB5:
 141:Drivers/CMSIS/Include/cmsis_gcc.h **** {
 142:Drivers/CMSIS/Include/cmsis_gcc.h ****   __ASM volatile ("cpsid i" : : : "memory");
 3315              		.loc 2 142 3 view .LVU689
 3316              		.syntax unified
 3317              	@ 142 "Drivers/CMSIS/Include/cmsis_gcc.h" 1
 3318 0000 72B6     		cpsid i
 3319              	@ 0 "" 2
 3320              		.thumb
 3321              		.syntax unified
 3322              	.L235:
 3323              	.LBE5:
 3324              	.LBE4:
 944:Core/Src/main.c ****     while (1)
 3325              		.loc 1 944 5 discriminator 1 view .LVU690
 945:Core/Src/main.c ****     {
 946:Core/Src/main.c ****     }
 3326              		.loc 1 946 5 discriminator 1 view .LVU691
 944:Core/Src/main.c ****     while (1)
 3327              		.loc 1 944 11 discriminator 1 view .LVU692
ARM GAS  C:\Users\wangw\AppData\Local\Temp\ccLETVy1.s 			page 81


 3328 0002 FEE7     		b	.L235
 3329              		.cfi_endproc
 3330              	.LFE85:
 3332              		.section	.text.SystemClock_Config,"ax",%progbits
 3333              		.align	1
 3334              		.global	SystemClock_Config
 3335              		.syntax unified
 3336              		.thumb
 3337              		.thumb_func
 3338              		.fpu softvfp
 3340              	SystemClock_Config:
 3341              	.LFB67:
 522:Core/Src/main.c ****     RCC_OscInitTypeDef RCC_OscInitStruct = {0};
 3342              		.loc 1 522 1 view -0
 3343              		.cfi_startproc
 3344              		@ args = 0, pretend = 0, frame = 64
 3345              		@ frame_needed = 0, uses_anonymous_args = 0
 3346 0000 00B5     		push	{lr}
 3347              	.LCFI27:
 3348              		.cfi_def_cfa_offset 4
 3349              		.cfi_offset 14, -4
 3350 0002 91B0     		sub	sp, sp, #68
 3351              	.LCFI28:
 3352              		.cfi_def_cfa_offset 72
 523:Core/Src/main.c ****     RCC_ClkInitTypeDef RCC_ClkInitStruct = {0};
 3353              		.loc 1 523 5 view .LVU694
 523:Core/Src/main.c ****     RCC_ClkInitTypeDef RCC_ClkInitStruct = {0};
 3354              		.loc 1 523 24 is_stmt 0 view .LVU695
 3355 0004 2822     		movs	r2, #40
 3356 0006 0021     		movs	r1, #0
 3357 0008 06A8     		add	r0, sp, #24
 3358 000a FFF7FEFF 		bl	memset
 3359              	.LVL405:
 524:Core/Src/main.c **** 
 3360              		.loc 1 524 5 is_stmt 1 view .LVU696
 524:Core/Src/main.c **** 
 3361              		.loc 1 524 24 is_stmt 0 view .LVU697
 3362 000e 0023     		movs	r3, #0
 3363 0010 0193     		str	r3, [sp, #4]
 3364 0012 0293     		str	r3, [sp, #8]
 3365 0014 0393     		str	r3, [sp, #12]
 3366 0016 0493     		str	r3, [sp, #16]
 3367 0018 0593     		str	r3, [sp, #20]
 529:Core/Src/main.c ****     RCC_OscInitStruct.HSEState = RCC_HSE_ON;
 3368              		.loc 1 529 5 is_stmt 1 view .LVU698
 529:Core/Src/main.c ****     RCC_OscInitStruct.HSEState = RCC_HSE_ON;
 3369              		.loc 1 529 38 is_stmt 0 view .LVU699
 3370 001a 0122     		movs	r2, #1
 3371 001c 0692     		str	r2, [sp, #24]
 530:Core/Src/main.c ****     RCC_OscInitStruct.HSEPredivValue = RCC_HSE_PREDIV_DIV1;
 3372              		.loc 1 530 5 is_stmt 1 view .LVU700
 530:Core/Src/main.c ****     RCC_OscInitStruct.HSEPredivValue = RCC_HSE_PREDIV_DIV1;
 3373              		.loc 1 530 32 is_stmt 0 view .LVU701
 3374 001e 4FF48033 		mov	r3, #65536
 3375 0022 0793     		str	r3, [sp, #28]
 531:Core/Src/main.c ****     RCC_OscInitStruct.HSIState = RCC_HSI_ON;
 3376              		.loc 1 531 5 is_stmt 1 view .LVU702
ARM GAS  C:\Users\wangw\AppData\Local\Temp\ccLETVy1.s 			page 82


 532:Core/Src/main.c ****     RCC_OscInitStruct.PLL.PLLState = RCC_PLL_ON;
 3377              		.loc 1 532 5 view .LVU703
 532:Core/Src/main.c ****     RCC_OscInitStruct.PLL.PLLState = RCC_PLL_ON;
 3378              		.loc 1 532 32 is_stmt 0 view .LVU704
 3379 0024 0A92     		str	r2, [sp, #40]
 533:Core/Src/main.c ****     RCC_OscInitStruct.PLL.PLLSource = RCC_PLLSOURCE_HSE;
 3380              		.loc 1 533 5 is_stmt 1 view .LVU705
 533:Core/Src/main.c ****     RCC_OscInitStruct.PLL.PLLSource = RCC_PLLSOURCE_HSE;
 3381              		.loc 1 533 36 is_stmt 0 view .LVU706
 3382 0026 0222     		movs	r2, #2
 3383 0028 0D92     		str	r2, [sp, #52]
 534:Core/Src/main.c ****     RCC_OscInitStruct.PLL.PLLMUL = RCC_PLL_MUL9;
 3384              		.loc 1 534 5 is_stmt 1 view .LVU707
 534:Core/Src/main.c ****     RCC_OscInitStruct.PLL.PLLMUL = RCC_PLL_MUL9;
 3385              		.loc 1 534 37 is_stmt 0 view .LVU708
 3386 002a 0E93     		str	r3, [sp, #56]
 535:Core/Src/main.c ****     if (HAL_RCC_OscConfig(&RCC_OscInitStruct) != HAL_OK)
 3387              		.loc 1 535 5 is_stmt 1 view .LVU709
 535:Core/Src/main.c ****     if (HAL_RCC_OscConfig(&RCC_OscInitStruct) != HAL_OK)
 3388              		.loc 1 535 34 is_stmt 0 view .LVU710
 3389 002c 4FF4E013 		mov	r3, #1835008
 3390 0030 0F93     		str	r3, [sp, #60]
 536:Core/Src/main.c ****     {
 3391              		.loc 1 536 5 is_stmt 1 view .LVU711
 536:Core/Src/main.c ****     {
 3392              		.loc 1 536 9 is_stmt 0 view .LVU712
 3393 0032 06A8     		add	r0, sp, #24
 3394 0034 FFF7FEFF 		bl	HAL_RCC_OscConfig
 3395              	.LVL406:
 536:Core/Src/main.c ****     {
 3396              		.loc 1 536 8 view .LVU713
 3397 0038 80B9     		cbnz	r0, .L240
 542:Core/Src/main.c ****     RCC_ClkInitStruct.SYSCLKSource = RCC_SYSCLKSOURCE_PLLCLK;
 3398              		.loc 1 542 5 is_stmt 1 view .LVU714
 542:Core/Src/main.c ****     RCC_ClkInitStruct.SYSCLKSource = RCC_SYSCLKSOURCE_PLLCLK;
 3399              		.loc 1 542 33 is_stmt 0 view .LVU715
 3400 003a 0F23     		movs	r3, #15
 3401 003c 0193     		str	r3, [sp, #4]
 543:Core/Src/main.c ****     RCC_ClkInitStruct.AHBCLKDivider = RCC_SYSCLK_DIV1;
 3402              		.loc 1 543 5 is_stmt 1 view .LVU716
 543:Core/Src/main.c ****     RCC_ClkInitStruct.AHBCLKDivider = RCC_SYSCLK_DIV1;
 3403              		.loc 1 543 36 is_stmt 0 view .LVU717
 3404 003e 0221     		movs	r1, #2
 3405 0040 0291     		str	r1, [sp, #8]
 544:Core/Src/main.c ****     RCC_ClkInitStruct.APB1CLKDivider = RCC_HCLK_DIV2;
 3406              		.loc 1 544 5 is_stmt 1 view .LVU718
 544:Core/Src/main.c ****     RCC_ClkInitStruct.APB1CLKDivider = RCC_HCLK_DIV2;
 3407              		.loc 1 544 37 is_stmt 0 view .LVU719
 3408 0042 0023     		movs	r3, #0
 3409 0044 0393     		str	r3, [sp, #12]
 545:Core/Src/main.c ****     RCC_ClkInitStruct.APB2CLKDivider = RCC_HCLK_DIV1;
 3410              		.loc 1 545 5 is_stmt 1 view .LVU720
 545:Core/Src/main.c ****     RCC_ClkInitStruct.APB2CLKDivider = RCC_HCLK_DIV1;
 3411              		.loc 1 545 38 is_stmt 0 view .LVU721
 3412 0046 4FF48062 		mov	r2, #1024
 3413 004a 0492     		str	r2, [sp, #16]
 546:Core/Src/main.c **** 
ARM GAS  C:\Users\wangw\AppData\Local\Temp\ccLETVy1.s 			page 83


 3414              		.loc 1 546 5 is_stmt 1 view .LVU722
 546:Core/Src/main.c **** 
 3415              		.loc 1 546 38 is_stmt 0 view .LVU723
 3416 004c 0593     		str	r3, [sp, #20]
 548:Core/Src/main.c ****     {
 3417              		.loc 1 548 5 is_stmt 1 view .LVU724
 548:Core/Src/main.c ****     {
 3418              		.loc 1 548 9 is_stmt 0 view .LVU725
 3419 004e 01A8     		add	r0, sp, #4
 3420 0050 FFF7FEFF 		bl	HAL_RCC_ClockConfig
 3421              	.LVL407:
 548:Core/Src/main.c ****     {
 3422              		.loc 1 548 8 view .LVU726
 3423 0054 20B9     		cbnz	r0, .L241
 552:Core/Src/main.c **** 
 3424              		.loc 1 552 1 view .LVU727
 3425 0056 11B0     		add	sp, sp, #68
 3426              	.LCFI29:
 3427              		.cfi_remember_state
 3428              		.cfi_def_cfa_offset 4
 3429              		@ sp needed
 3430 0058 5DF804FB 		ldr	pc, [sp], #4
 3431              	.L240:
 3432              	.LCFI30:
 3433              		.cfi_restore_state
 538:Core/Src/main.c ****     }
 3434              		.loc 1 538 9 is_stmt 1 view .LVU728
 3435 005c FFF7FEFF 		bl	Error_Handler
 3436              	.LVL408:
 3437              	.L241:
 550:Core/Src/main.c ****     }
 3438              		.loc 1 550 9 view .LVU729
 3439 0060 FFF7FEFF 		bl	Error_Handler
 3440              	.LVL409:
 3441              		.cfi_endproc
 3442              	.LFE67:
 3444              		.section	.text.main,"ax",%progbits
 3445              		.align	1
 3446              		.global	main
 3447              		.syntax unified
 3448              		.thumb
 3449              		.thumb_func
 3450              		.fpu softvfp
 3452              	main:
 3453              	.LFB66:
 218:Core/Src/main.c ****     /* USER CODE BEGIN 1 */
 3454              		.loc 1 218 1 view -0
 3455              		.cfi_startproc
 3456              		@ Volatile: function does not return.
 3457              		@ args = 0, pretend = 0, frame = 0
 3458              		@ frame_needed = 0, uses_anonymous_args = 0
 3459 0000 00B5     		push	{lr}
 3460              	.LCFI31:
 3461              		.cfi_def_cfa_offset 4
 3462              		.cfi_offset 14, -4
 3463 0002 89B0     		sub	sp, sp, #36
 3464              	.LCFI32:
ARM GAS  C:\Users\wangw\AppData\Local\Temp\ccLETVy1.s 			page 84


 3465              		.cfi_def_cfa_offset 40
 225:Core/Src/main.c **** 
 3466              		.loc 1 225 5 view .LVU731
 3467 0004 FFF7FEFF 		bl	HAL_Init
 3468              	.LVL410:
 228:Core/Src/main.c ****     SetBaud(115200);
 3469              		.loc 1 228 5 view .LVU732
 3470 0008 B74D     		ldr	r5, .L290
 3471 000a 2846     		mov	r0, r5
 3472 000c FFF7FEFF 		bl	jy62_Init
 3473              	.LVL411:
 229:Core/Src/main.c ****     SetHorizontal();
 3474              		.loc 1 229 5 view .LVU733
 3475 0010 4FF4E130 		mov	r0, #115200
 3476 0014 FFF7FEFF 		bl	SetBaud
 3477              	.LVL412:
 230:Core/Src/main.c ****     InitAngle();
 3478              		.loc 1 230 5 view .LVU734
 3479 0018 FFF7FEFF 		bl	SetHorizontal
 3480              	.LVL413:
 231:Core/Src/main.c ****     Calibrate();
 3481              		.loc 1 231 5 view .LVU735
 3482 001c FFF7FEFF 		bl	InitAngle
 3483              	.LVL414:
 232:Core/Src/main.c ****     SleepOrAwake();
 3484              		.loc 1 232 5 view .LVU736
 3485 0020 FFF7FEFF 		bl	Calibrate
 3486              	.LVL415:
 233:Core/Src/main.c ****     /* USER CODE END Init */
 3487              		.loc 1 233 5 view .LVU737
 3488 0024 FFF7FEFF 		bl	SleepOrAwake
 3489              	.LVL416:
 237:Core/Src/main.c **** 
 3490              		.loc 1 237 5 view .LVU738
 3491 0028 FFF7FEFF 		bl	SystemClock_Config
 3492              	.LVL417:
 244:Core/Src/main.c ****     MX_TIM1_Init();
 3493              		.loc 1 244 5 view .LVU739
 3494 002c FFF7FEFF 		bl	MX_GPIO_Init
 3495              	.LVL418:
 245:Core/Src/main.c ****     MX_TIM2_Init();
 3496              		.loc 1 245 5 view .LVU740
 3497 0030 FFF7FEFF 		bl	MX_TIM1_Init
 3498              	.LVL419:
 246:Core/Src/main.c ****     MX_TIM8_Init();
 3499              		.loc 1 246 5 view .LVU741
 3500 0034 FFF7FEFF 		bl	MX_TIM2_Init
 3501              	.LVL420:
 247:Core/Src/main.c ****     MX_TIM3_Init();
 3502              		.loc 1 247 5 view .LVU742
 3503 0038 FFF7FEFF 		bl	MX_TIM8_Init
 3504              	.LVL421:
 248:Core/Src/main.c ****     MX_TIM4_Init();
 3505              		.loc 1 248 5 view .LVU743
 3506 003c FFF7FEFF 		bl	MX_TIM3_Init
 3507              	.LVL422:
 249:Core/Src/main.c ****     MX_DMA_Init();
ARM GAS  C:\Users\wangw\AppData\Local\Temp\ccLETVy1.s 			page 85


 3508              		.loc 1 249 5 view .LVU744
 3509 0040 FFF7FEFF 		bl	MX_TIM4_Init
 3510              	.LVL423:
 250:Core/Src/main.c ****     MX_USART2_UART_Init();
 3511              		.loc 1 250 5 view .LVU745
 3512 0044 FFF7FEFF 		bl	MX_DMA_Init
 3513              	.LVL424:
 251:Core/Src/main.c ****     MX_USART1_UART_Init();
 3514              		.loc 1 251 5 view .LVU746
 3515 0048 FFF7FEFF 		bl	MX_USART2_UART_Init
 3516              	.LVL425:
 252:Core/Src/main.c ****     MX_TIM5_Init();
 3517              		.loc 1 252 5 view .LVU747
 3518 004c FFF7FEFF 		bl	MX_USART1_UART_Init
 3519              	.LVL426:
 253:Core/Src/main.c ****     /* USER CODE BEGIN 2 */
 3520              		.loc 1 253 5 view .LVU748
 3521 0050 FFF7FEFF 		bl	MX_TIM5_Init
 3522              	.LVL427:
 255:Core/Src/main.c ****     HAL_TIM_Base_Start_IT(&htim1);
 3523              		.loc 1 255 5 view .LVU749
 3524 0054 A548     		ldr	r0, .L290+4
 3525 0056 FFF7FEFF 		bl	zigbee_Init
 3526              	.LVL428:
 256:Core/Src/main.c ****     HAL_TIM_PWM_Start(&htim8, TIM_CHANNEL_1);
 3527              		.loc 1 256 5 view .LVU750
 3528 005a A548     		ldr	r0, .L290+8
 3529 005c FFF7FEFF 		bl	HAL_TIM_Base_Start_IT
 3530              	.LVL429:
 257:Core/Src/main.c ****     HAL_TIM_PWM_Start(&htim8, TIM_CHANNEL_2);
 3531              		.loc 1 257 5 view .LVU751
 3532 0060 A44C     		ldr	r4, .L290+12
 3533 0062 0021     		movs	r1, #0
 3534 0064 2046     		mov	r0, r4
 3535 0066 FFF7FEFF 		bl	HAL_TIM_PWM_Start
 3536              	.LVL430:
 258:Core/Src/main.c ****     HAL_TIM_PWM_Start(&htim8, TIM_CHANNEL_3);
 3537              		.loc 1 258 5 view .LVU752
 3538 006a 0421     		movs	r1, #4
 3539 006c 2046     		mov	r0, r4
 3540 006e FFF7FEFF 		bl	HAL_TIM_PWM_Start
 3541              	.LVL431:
 259:Core/Src/main.c ****     HAL_TIM_PWM_Start(&htim8, TIM_CHANNEL_4);
 3542              		.loc 1 259 5 view .LVU753
 3543 0072 0821     		movs	r1, #8
 3544 0074 2046     		mov	r0, r4
 3545 0076 FFF7FEFF 		bl	HAL_TIM_PWM_Start
 3546              	.LVL432:
 260:Core/Src/main.c ****     HAL_TIM_Encoder_Start(&htim2, TIM_CHANNEL_1);
 3547              		.loc 1 260 5 view .LVU754
 3548 007a 0C21     		movs	r1, #12
 3549 007c 2046     		mov	r0, r4
 3550 007e FFF7FEFF 		bl	HAL_TIM_PWM_Start
 3551              	.LVL433:
 261:Core/Src/main.c ****     HAL_TIM_Encoder_Start(&htim2, TIM_CHANNEL_2);
 3552              		.loc 1 261 5 view .LVU755
 3553 0082 9D4C     		ldr	r4, .L290+16
ARM GAS  C:\Users\wangw\AppData\Local\Temp\ccLETVy1.s 			page 86


 3554 0084 0021     		movs	r1, #0
 3555 0086 2046     		mov	r0, r4
 3556 0088 FFF7FEFF 		bl	HAL_TIM_Encoder_Start
 3557              	.LVL434:
 262:Core/Src/main.c ****     HAL_TIM_Encoder_Start(&htim3, TIM_CHANNEL_1);
 3558              		.loc 1 262 5 view .LVU756
 3559 008c 0421     		movs	r1, #4
 3560 008e 2046     		mov	r0, r4
 3561 0090 FFF7FEFF 		bl	HAL_TIM_Encoder_Start
 3562              	.LVL435:
 263:Core/Src/main.c ****     HAL_TIM_Encoder_Start(&htim3, TIM_CHANNEL_2);
 3563              		.loc 1 263 5 view .LVU757
 3564 0094 994C     		ldr	r4, .L290+20
 3565 0096 0021     		movs	r1, #0
 3566 0098 2046     		mov	r0, r4
 3567 009a FFF7FEFF 		bl	HAL_TIM_Encoder_Start
 3568              	.LVL436:
 264:Core/Src/main.c ****     HAL_TIM_Encoder_Start(&htim4, TIM_CHANNEL_1);
 3569              		.loc 1 264 5 view .LVU758
 3570 009e 0421     		movs	r1, #4
 3571 00a0 2046     		mov	r0, r4
 3572 00a2 FFF7FEFF 		bl	HAL_TIM_Encoder_Start
 3573              	.LVL437:
 265:Core/Src/main.c ****     HAL_TIM_Encoder_Start(&htim4, TIM_CHANNEL_2);
 3574              		.loc 1 265 5 view .LVU759
 3575 00a6 964C     		ldr	r4, .L290+24
 3576 00a8 0021     		movs	r1, #0
 3577 00aa 2046     		mov	r0, r4
 3578 00ac FFF7FEFF 		bl	HAL_TIM_Encoder_Start
 3579              	.LVL438:
 266:Core/Src/main.c ****     HAL_TIM_Encoder_Start(&htim5, TIM_CHANNEL_1);
 3580              		.loc 1 266 5 view .LVU760
 3581 00b0 0421     		movs	r1, #4
 3582 00b2 2046     		mov	r0, r4
 3583 00b4 FFF7FEFF 		bl	HAL_TIM_Encoder_Start
 3584              	.LVL439:
 267:Core/Src/main.c ****     HAL_TIM_Encoder_Start(&htim5, TIM_CHANNEL_2);
 3585              		.loc 1 267 5 view .LVU761
 3586 00b8 924C     		ldr	r4, .L290+28
 3587 00ba 0021     		movs	r1, #0
 3588 00bc 2046     		mov	r0, r4
 3589 00be FFF7FEFF 		bl	HAL_TIM_Encoder_Start
 3590              	.LVL440:
 268:Core/Src/main.c ****     jy62_Init(&huart2);
 3591              		.loc 1 268 5 view .LVU762
 3592 00c2 0421     		movs	r1, #4
 3593 00c4 2046     		mov	r0, r4
 3594 00c6 FFF7FEFF 		bl	HAL_TIM_Encoder_Start
 3595              	.LVL441:
 269:Core/Src/main.c ****     void jy62_Init(UART_HandleTypeDef * huart);
 3596              		.loc 1 269 5 view .LVU763
 3597 00ca 2846     		mov	r0, r5
 3598 00cc FFF7FEFF 		bl	jy62_Init
 3599              	.LVL442:
 270:Core/Src/main.c **** 
 3600              		.loc 1 270 5 view .LVU764
 272:Core/Src/main.c ****     HAL_GPIO_WritePin(GPIOB, GPIO_PIN_1, GPIO_PIN_RESET);
ARM GAS  C:\Users\wangw\AppData\Local\Temp\ccLETVy1.s 			page 87


 3601              		.loc 1 272 5 view .LVU765
 3602 00d0 8D4C     		ldr	r4, .L290+32
 3603 00d2 0122     		movs	r2, #1
 3604 00d4 1146     		mov	r1, r2
 3605 00d6 2046     		mov	r0, r4
 3606 00d8 FFF7FEFF 		bl	HAL_GPIO_WritePin
 3607              	.LVL443:
 273:Core/Src/main.c ****     HAL_GPIO_WritePin(GPIOB, GPIO_PIN_2, GPIO_PIN_RESET);
 3608              		.loc 1 273 5 view .LVU766
 3609 00dc 0022     		movs	r2, #0
 3610 00de 0221     		movs	r1, #2
 3611 00e0 2046     		mov	r0, r4
 3612 00e2 FFF7FEFF 		bl	HAL_GPIO_WritePin
 3613              	.LVL444:
 274:Core/Src/main.c ****     HAL_GPIO_WritePin(GPIOB, GPIO_PIN_10, GPIO_PIN_SET);
 3614              		.loc 1 274 5 view .LVU767
 3615 00e6 0022     		movs	r2, #0
 3616 00e8 0421     		movs	r1, #4
 3617 00ea 2046     		mov	r0, r4
 3618 00ec FFF7FEFF 		bl	HAL_GPIO_WritePin
 3619              	.LVL445:
 275:Core/Src/main.c ****     HAL_GPIO_WritePin(GPIOB, GPIO_PIN_11, GPIO_PIN_SET);
 3620              		.loc 1 275 5 view .LVU768
 3621 00f0 0122     		movs	r2, #1
 3622 00f2 4FF48061 		mov	r1, #1024
 3623 00f6 2046     		mov	r0, r4
 3624 00f8 FFF7FEFF 		bl	HAL_GPIO_WritePin
 3625              	.LVL446:
 276:Core/Src/main.c ****     HAL_GPIO_WritePin(GPIOB, GPIO_PIN_12, GPIO_PIN_RESET);
 3626              		.loc 1 276 5 view .LVU769
 3627 00fc 0122     		movs	r2, #1
 3628 00fe 4FF40061 		mov	r1, #2048
 3629 0102 2046     		mov	r0, r4
 3630 0104 FFF7FEFF 		bl	HAL_GPIO_WritePin
 3631              	.LVL447:
 277:Core/Src/main.c ****     HAL_GPIO_WritePin(GPIOB, GPIO_PIN_13, GPIO_PIN_RESET);
 3632              		.loc 1 277 5 view .LVU770
 3633 0108 0022     		movs	r2, #0
 3634 010a 4FF48051 		mov	r1, #4096
 3635 010e 2046     		mov	r0, r4
 3636 0110 FFF7FEFF 		bl	HAL_GPIO_WritePin
 3637              	.LVL448:
 278:Core/Src/main.c ****     HAL_GPIO_WritePin(GPIOB, GPIO_PIN_14, GPIO_PIN_SET);
 3638              		.loc 1 278 5 view .LVU771
 3639 0114 0022     		movs	r2, #0
 3640 0116 4FF40051 		mov	r1, #8192
 3641 011a 2046     		mov	r0, r4
 3642 011c FFF7FEFF 		bl	HAL_GPIO_WritePin
 3643              	.LVL449:
 279:Core/Src/main.c ****     /* USER CODE END 2 */
 3644              		.loc 1 279 5 view .LVU772
 3645 0120 0122     		movs	r2, #1
 3646 0122 4FF48041 		mov	r1, #16384
 3647 0126 2046     		mov	r0, r4
 3648 0128 FFF7FEFF 		bl	HAL_GPIO_WritePin
 3649              	.LVL450:
 3650 012c F8E2     		b	.L245
ARM GAS  C:\Users\wangw\AppData\Local\Temp\ccLETVy1.s 			page 88


 3651              	.L287:
 293:Core/Src/main.c ****             }
 3652              		.loc 1 293 17 view .LVU773
 293:Core/Src/main.c ****             }
 3653              		.loc 1 293 23 is_stmt 0 view .LVU774
 3654 012e 774B     		ldr	r3, .L290+36
 3655 0130 4FF0FF32 		mov	r2, #-1
 3656 0134 1A60     		str	r2, [r3]
 3657 0136 00E3     		b	.L246
 3658              	.L288:
 295:Core/Src/main.c ****                 State = 0;
 3659              		.loc 1 295 43 discriminator 1 view .LVU775
 3660 0138 FFF7FEFF 		bl	getCarTask
 3661              	.LVL451:
 295:Core/Src/main.c ****                 State = 0;
 3662              		.loc 1 295 39 discriminator 1 view .LVU776
 3663 013c 0028     		cmp	r0, #0
 3664 013e 40F00183 		bne	.L247
 295:Core/Src/main.c ****                 State = 0;
 3665              		.loc 1 295 72 discriminator 2 view .LVU777
 3666 0142 724B     		ldr	r3, .L290+36
 3667 0144 1B68     		ldr	r3, [r3]
 295:Core/Src/main.c ****                 State = 0;
 3668              		.loc 1 295 62 discriminator 2 view .LVU778
 3669 0146 002B     		cmp	r3, #0
 3670 0148 80F2FC82 		bge	.L247
 296:Core/Src/main.c ****             }
 3671              		.loc 1 296 17 is_stmt 1 view .LVU779
 296:Core/Src/main.c ****             }
 3672              		.loc 1 296 23 is_stmt 0 view .LVU780
 3673 014c 6F4B     		ldr	r3, .L290+36
 3674 014e 0022     		movs	r2, #0
 3675 0150 1A60     		str	r2, [r3]
 3676 0152 F7E2     		b	.L247
 3677              	.L289:
 298:Core/Src/main.c ****                 Round=1;
 3678              		.loc 1 298 43 discriminator 1 view .LVU781
 3679 0154 FFF7FEFF 		bl	getCarTask
 3680              	.LVL452:
 298:Core/Src/main.c ****                 Round=1;
 3681              		.loc 1 298 39 discriminator 1 view .LVU782
 3682 0158 0128     		cmp	r0, #1
 3683 015a 40F0F882 		bne	.L248
 299:Core/Src/main.c ****                 if (State < 10){
 3684              		.loc 1 299 17 is_stmt 1 view .LVU783
 299:Core/Src/main.c ****                 if (State < 10){
 3685              		.loc 1 299 22 is_stmt 0 view .LVU784
 3686 015e 6C4B     		ldr	r3, .L290+40
 3687 0160 0122     		movs	r2, #1
 3688 0162 1A80     		strh	r2, [r3]	@ movhi
 300:Core/Src/main.c ****                     State = 10;
 3689              		.loc 1 300 17 is_stmt 1 view .LVU785
 300:Core/Src/main.c ****                     State = 10;
 3690              		.loc 1 300 27 is_stmt 0 view .LVU786
 3691 0164 694B     		ldr	r3, .L290+36
 3692 0166 1B68     		ldr	r3, [r3]
 300:Core/Src/main.c ****                     State = 10;
ARM GAS  C:\Users\wangw\AppData\Local\Temp\ccLETVy1.s 			page 89


 3693              		.loc 1 300 20 view .LVU787
 3694 0168 092B     		cmp	r3, #9
 3695 016a 1ADC     		bgt	.L249
 301:Core/Src/main.c ****                     beacon_determinant = -beacon_Pos[0] * beacon_Pos[3] + beacon_Pos[2] * beacon_Po
 3696              		.loc 1 301 21 is_stmt 1 view .LVU788
 301:Core/Src/main.c ****                     beacon_determinant = -beacon_Pos[0] * beacon_Pos[3] + beacon_Pos[2] * beacon_Po
 3697              		.loc 1 301 27 is_stmt 0 view .LVU789
 3698 016c 674B     		ldr	r3, .L290+36
 3699 016e 0A22     		movs	r2, #10
 3700 0170 1A60     		str	r2, [r3]
 302:Core/Src/main.c ****                 }
 3701              		.loc 1 302 21 is_stmt 1 view .LVU790
 302:Core/Src/main.c ****                 }
 3702              		.loc 1 302 53 is_stmt 0 view .LVU791
 3703 0172 684A     		ldr	r2, .L290+44
 3704 0174 1568     		ldr	r5, [r2]
 302:Core/Src/main.c ****                 }
 3705              		.loc 1 302 69 view .LVU792
 3706 0176 D168     		ldr	r1, [r2, #12]
 302:Core/Src/main.c ****                 }
 3707              		.loc 1 302 85 view .LVU793
 3708 0178 9468     		ldr	r4, [r2, #8]
 302:Core/Src/main.c ****                 }
 3709              		.loc 1 302 101 view .LVU794
 3710 017a 5668     		ldr	r6, [r2, #4]
 302:Core/Src/main.c ****                 }
 3711              		.loc 1 302 89 view .LVU795
 3712 017c 06FB04F3 		mul	r3, r6, r4
 302:Core/Src/main.c ****                 }
 3713              		.loc 1 302 73 view .LVU796
 3714 0180 05FB1133 		mls	r3, r5, r1, r3
 302:Core/Src/main.c ****                 }
 3715              		.loc 1 302 117 view .LVU797
 3716 0184 1069     		ldr	r0, [r2, #16]
 302:Core/Src/main.c ****                 }
 3717              		.loc 1 302 105 view .LVU798
 3718 0186 00FB1633 		mls	r3, r0, r6, r3
 302:Core/Src/main.c ****                 }
 3719              		.loc 1 302 165 view .LVU799
 3720 018a 5269     		ldr	r2, [r2, #20]
 302:Core/Src/main.c ****                 }
 3721              		.loc 1 302 137 view .LVU800
 3722 018c 02FB0533 		mla	r3, r2, r5, r3
 302:Core/Src/main.c ****                 }
 3723              		.loc 1 302 169 view .LVU801
 3724 0190 02FB1433 		mls	r3, r2, r4, r3
 302:Core/Src/main.c ****                 }
 3725              		.loc 1 302 40 view .LVU802
 3726 0194 00FB0130 		mla	r0, r0, r1, r3
 3727 0198 FFF7FEFF 		bl	__aeabi_i2d
 3728              	.LVL453:
 3729 019c 5E4B     		ldr	r3, .L290+48
 3730 019e C3E90001 		strd	r0, [r3]
 3731              	.L249:
 304:Core/Src/main.c ****                     State = 12;
 3732              		.loc 1 304 17 is_stmt 1 view .LVU803
 304:Core/Src/main.c ****                     State = 12;
ARM GAS  C:\Users\wangw\AppData\Local\Temp\ccLETVy1.s 			page 90


 3733              		.loc 1 304 22 is_stmt 0 view .LVU804
 3734 01a2 FFF7FEFF 		bl	getGameTime
 3735              	.LVL454:
 304:Core/Src/main.c ****                     State = 12;
 3736              		.loc 1 304 20 view .LVU805
 3737 01a6 B0F57A7F 		cmp	r0, #1000
 3738 01aa 40F2D082 		bls	.L248
 304:Core/Src/main.c ****                     State = 12;
 3739              		.loc 1 304 54 discriminator 1 view .LVU806
 3740 01ae 574B     		ldr	r3, .L290+36
 3741 01b0 1B68     		ldr	r3, [r3]
 304:Core/Src/main.c ****                     State = 12;
 3742              		.loc 1 304 44 discriminator 1 view .LVU807
 3743 01b2 0B2B     		cmp	r3, #11
 3744 01b4 00F3CB82 		bgt	.L248
 305:Core/Src/main.c ****             }
 3745              		.loc 1 305 21 is_stmt 1 view .LVU808
 305:Core/Src/main.c ****             }
 3746              		.loc 1 305 27 is_stmt 0 view .LVU809
 3747 01b8 544B     		ldr	r3, .L290+36
 3748 01ba 0C22     		movs	r2, #12
 3749 01bc 1A60     		str	r2, [r3]
 3750 01be C6E2     		b	.L248
 3751              	.L261:
 313:Core/Src/main.c ****                     if (Solve_Mine_Pos(Prev_Pos[0].x, Prev_Pos[0].y, Prev_Pos[0].E_1, Prev_Pos[1].x
 3752              		.loc 1 313 21 is_stmt 1 view .LVU810
 3753 01c0 4FF44860 		mov	r0, #3200
 3754 01c4 FFF7FEFF 		bl	rotate_clockwise_plus_forward
 3755              	.LVL455:
 314:Core/Src/main.c ****                     {
 3756              		.loc 1 314 21 view .LVU811
 314:Core/Src/main.c ****                     {
 3757              		.loc 1 314 25 is_stmt 0 view .LVU812
 3758 01c8 5448     		ldr	r0, .L290+52
 3759 01ca 554B     		ldr	r3, .L290+56
 3760 01cc 03F10802 		add	r2, r3, #8
 3761 01d0 0692     		str	r2, [sp, #24]
 3762 01d2 0593     		str	r3, [sp, #20]
 3763 01d4 C369     		ldr	r3, [r0, #28]
 3764 01d6 0493     		str	r3, [sp, #16]
 3765 01d8 438B     		ldrh	r3, [r0, #26]
 3766 01da 0393     		str	r3, [sp, #12]
 3767 01dc 038B     		ldrh	r3, [r0, #24]
 3768 01de 0293     		str	r3, [sp, #8]
 3769 01e0 0369     		ldr	r3, [r0, #16]
 3770 01e2 0193     		str	r3, [sp, #4]
 3771 01e4 C389     		ldrh	r3, [r0, #14]
 3772 01e6 0093     		str	r3, [sp]
 3773 01e8 8389     		ldrh	r3, [r0, #12]
 3774 01ea 4268     		ldr	r2, [r0, #4]
 3775 01ec 4188     		ldrh	r1, [r0, #2]
 3776 01ee 0088     		ldrh	r0, [r0]
 3777 01f0 FFF7FEFF 		bl	Solve_Mine_Pos
 3778              	.LVL456:
 314:Core/Src/main.c ****                     {
 3779              		.loc 1 314 24 view .LVU813
 3780 01f4 0028     		cmp	r0, #0
ARM GAS  C:\Users\wangw\AppData\Local\Temp\ccLETVy1.s 			page 91


 3781 01f6 2DD0     		beq	.L262
 314:Core/Src/main.c ****                     {
 3782              		.loc 1 314 226 discriminator 1 view .LVU814
 3783 01f8 4848     		ldr	r0, .L290+52
 3784 01fa 494B     		ldr	r3, .L290+56
 3785 01fc 03F10C02 		add	r2, r3, #12
 3786 0200 0692     		str	r2, [sp, #24]
 3787 0202 0433     		adds	r3, r3, #4
 3788 0204 0593     		str	r3, [sp, #20]
 3789 0206 036A     		ldr	r3, [r0, #32]
 3790 0208 0493     		str	r3, [sp, #16]
 3791 020a 438B     		ldrh	r3, [r0, #26]
 3792 020c 0393     		str	r3, [sp, #12]
 3793 020e 038B     		ldrh	r3, [r0, #24]
 3794 0210 0293     		str	r3, [sp, #8]
 3795 0212 4369     		ldr	r3, [r0, #20]
 3796 0214 0193     		str	r3, [sp, #4]
 3797 0216 C389     		ldrh	r3, [r0, #14]
 3798 0218 0093     		str	r3, [sp]
 3799 021a 8389     		ldrh	r3, [r0, #12]
 3800 021c 8268     		ldr	r2, [r0, #8]
 3801 021e 4188     		ldrh	r1, [r0, #2]
 3802 0220 0088     		ldrh	r0, [r0]
 3803 0222 FFF7FEFF 		bl	Solve_Mine_Pos
 3804              	.LVL457:
 314:Core/Src/main.c ****                     {
 3805              		.loc 1 314 223 discriminator 1 view .LVU815
 3806 0226 A8B1     		cbz	r0, .L262
 317:Core/Src/main.c ****                         //Ê≠•È™§3ÔºöÁ°ÆÂÆöÁ¶ªËΩ¶ÊúÄËøëÁöÑÔøΩ??ÔøΩ??
 3807              		.loc 1 317 25 is_stmt 1 view .LVU816
 317:Core/Src/main.c ****                         //Ê≠•È™§3ÔºöÁ°ÆÂÆöÁ¶ªËΩ¶ÊúÄËøëÁöÑÔøΩ??ÔøΩ??
 3808              		.loc 1 317 31 is_stmt 0 view .LVU817
 3809 0228 384B     		ldr	r3, .L290+36
 3810 022a 0122     		movs	r2, #1
 3811 022c 1A60     		str	r2, [r3]
 319:Core/Src/main.c ****                         break;
 3812              		.loc 1 319 25 is_stmt 1 view .LVU818
 319:Core/Src/main.c ****                         break;
 3813              		.loc 1 319 74 is_stmt 0 view .LVU819
 3814 022e 3C4A     		ldr	r2, .L290+56
 3815 0230 1368     		ldr	r3, [r2]
 319:Core/Src/main.c ****                         break;
 3816              		.loc 1 319 124 view .LVU820
 3817 0232 9168     		ldr	r1, [r2, #8]
 319:Core/Src/main.c ****                         break;
 3818              		.loc 1 319 128 view .LVU821
 3819 0234 01FB01F1 		mul	r1, r1, r1
 319:Core/Src/main.c ****                         break;
 3820              		.loc 1 319 103 view .LVU822
 3821 0238 03FB0313 		mla	r3, r3, r3, r1
 319:Core/Src/main.c ****                         break;
 3822              		.loc 1 319 176 view .LVU823
 3823 023c 5168     		ldr	r1, [r2, #4]
 319:Core/Src/main.c ****                         break;
 3824              		.loc 1 319 226 view .LVU824
 3825 023e D068     		ldr	r0, [r2, #12]
 319:Core/Src/main.c ****                         break;
ARM GAS  C:\Users\wangw\AppData\Local\Temp\ccLETVy1.s 			page 92


 3826              		.loc 1 319 230 view .LVU825
 3827 0240 00FB00F0 		mul	r0, r0, r0
 319:Core/Src/main.c ****                         break;
 3828              		.loc 1 319 205 view .LVU826
 3829 0244 01FB0101 		mla	r1, r1, r1, r0
 319:Core/Src/main.c ****                         break;
 3830              		.loc 1 319 260 view .LVU827
 3831 0248 8B42     		cmp	r3, r1
 3832 024a B4BF     		ite	lt
 3833 024c 0023     		movlt	r3, #0
 3834 024e 0123     		movge	r3, #1
 319:Core/Src/main.c ****                         break;
 3835              		.loc 1 319 52 view .LVU828
 3836 0250 5361     		str	r3, [r2, #20]
 320:Core/Src/main.c ****                     }
 3837              		.loc 1 320 25 is_stmt 1 view .LVU829
 3838 0252 65E2     		b	.L245
 3839              	.L262:
 325:Core/Src/main.c ****                         Prev_Pos[Prev_Pos_head].y = getCarPosY();          //Âêå‰∏ä
 3840              		.loc 1 325 25 view .LVU830
 325:Core/Src/main.c ****                         Prev_Pos[Prev_Pos_head].y = getCarPosY();          //Âêå‰∏ä
 3841              		.loc 1 325 48 is_stmt 0 view .LVU831
 3842 0254 334C     		ldr	r4, .L290+60
 3843 0256 B4F90060 		ldrsh	r6, [r4]
 325:Core/Src/main.c ****                         Prev_Pos[Prev_Pos_head].y = getCarPosY();          //Âêå‰∏ä
 3844              		.loc 1 325 53 view .LVU832
 3845 025a FFF7FEFF 		bl	getCarPosX
 3846              	.LVL458:
 325:Core/Src/main.c ****                         Prev_Pos[Prev_Pos_head].y = getCarPosY();          //Âêå‰∏ä
 3847              		.loc 1 325 51 view .LVU833
 3848 025e 2F4D     		ldr	r5, .L290+52
 3849 0260 06EB4606 		add	r6, r6, r6, lsl #1
 3850 0264 25F82600 		strh	r0, [r5, r6, lsl #2]	@ movhi
 326:Core/Src/main.c ****                         Prev_Pos[Prev_Pos_head].E_1 = getMineIntensity(0); //Âà©Áî®getMineIntensity
 3851              		.loc 1 326 25 is_stmt 1 view .LVU834
 326:Core/Src/main.c ****                         Prev_Pos[Prev_Pos_head].E_1 = getMineIntensity(0); //Âà©Áî®getMineIntensity
 3852              		.loc 1 326 48 is_stmt 0 view .LVU835
 3853 0268 B4F90060 		ldrsh	r6, [r4]
 326:Core/Src/main.c ****                         Prev_Pos[Prev_Pos_head].E_1 = getMineIntensity(0); //Âà©Áî®getMineIntensity
 3854              		.loc 1 326 53 view .LVU836
 3855 026c FFF7FEFF 		bl	getCarPosY
 3856              	.LVL459:
 326:Core/Src/main.c ****                         Prev_Pos[Prev_Pos_head].E_1 = getMineIntensity(0); //Âà©Áî®getMineIntensity
 3857              		.loc 1 326 51 view .LVU837
 3858 0270 06EB4606 		add	r6, r6, r6, lsl #1
 3859 0274 05EB8603 		add	r3, r5, r6, lsl #2
 3860 0278 5880     		strh	r0, [r3, #2]	@ movhi
 327:Core/Src/main.c ****                         Prev_Pos[Prev_Pos_head].E_2 = getMineIntensity(1); //Âêå‰∏ä
 3861              		.loc 1 327 25 is_stmt 1 view .LVU838
 327:Core/Src/main.c ****                         Prev_Pos[Prev_Pos_head].E_2 = getMineIntensity(1); //Âêå‰∏ä
 3862              		.loc 1 327 48 is_stmt 0 view .LVU839
 3863 027a B4F90060 		ldrsh	r6, [r4]
 327:Core/Src/main.c ****                         Prev_Pos[Prev_Pos_head].E_2 = getMineIntensity(1); //Âêå‰∏ä
 3864              		.loc 1 327 55 view .LVU840
 3865 027e 0020     		movs	r0, #0
 3866 0280 FFF7FEFF 		bl	getMineIntensity
 3867              	.LVL460:
ARM GAS  C:\Users\wangw\AppData\Local\Temp\ccLETVy1.s 			page 93


 327:Core/Src/main.c ****                         Prev_Pos[Prev_Pos_head].E_2 = getMineIntensity(1); //Âêå‰∏ä
 3868              		.loc 1 327 53 view .LVU841
 3869 0284 06EB4606 		add	r6, r6, r6, lsl #1
 3870 0288 05EB8603 		add	r3, r5, r6, lsl #2
 3871 028c 5860     		str	r0, [r3, #4]
 328:Core/Src/main.c ****                         Prev_Pos_head = (Prev_Pos_head + 1) % 3;           //Â§¥ÊåáÈíàÂæ™ÁéØÂú∞ÂêéÁ
 3872              		.loc 1 328 25 is_stmt 1 view .LVU842
 328:Core/Src/main.c ****                         Prev_Pos_head = (Prev_Pos_head + 1) % 3;           //Â§¥ÊåáÈíàÂæ™ÁéØÂú∞ÂêéÁ
 3873              		.loc 1 328 48 is_stmt 0 view .LVU843
 3874 028e B4F90060 		ldrsh	r6, [r4]
 328:Core/Src/main.c ****                         Prev_Pos_head = (Prev_Pos_head + 1) % 3;           //Â§¥ÊåáÈíàÂæ™ÁéØÂú∞ÂêéÁ
 3875              		.loc 1 328 55 view .LVU844
 3876 0292 0120     		movs	r0, #1
 3877 0294 FFF7FEFF 		bl	getMineIntensity
 3878              	.LVL461:
 328:Core/Src/main.c ****                         Prev_Pos_head = (Prev_Pos_head + 1) % 3;           //Â§¥ÊåáÈíàÂæ™ÁéØÂú∞ÂêéÁ
 3879              		.loc 1 328 53 view .LVU845
 3880 0298 06EB4606 		add	r6, r6, r6, lsl #1
 3881 029c 05EB8605 		add	r5, r5, r6, lsl #2
 3882 02a0 A860     		str	r0, [r5, #8]
 329:Core/Src/main.c ****                         break;
 3883              		.loc 1 329 25 is_stmt 1 view .LVU846
 329:Core/Src/main.c ****                         break;
 3884              		.loc 1 329 56 is_stmt 0 view .LVU847
 3885 02a2 B4F90020 		ldrsh	r2, [r4]
 3886 02a6 0132     		adds	r2, r2, #1
 329:Core/Src/main.c ****                         break;
 3887              		.loc 1 329 61 view .LVU848
 3888 02a8 1F4B     		ldr	r3, .L290+64
 3889 02aa 83FB0213 		smull	r1, r3, r3, r2
 3890 02ae A3EBE273 		sub	r3, r3, r2, asr #31
 3891 02b2 03EB4303 		add	r3, r3, r3, lsl #1
 3892 02b6 D31A     		subs	r3, r2, r3
 329:Core/Src/main.c ****                         break;
 3893              		.loc 1 329 39 view .LVU849
 3894 02b8 2380     		strh	r3, [r4]	@ movhi
 330:Core/Src/main.c ****                     }
 3895              		.loc 1 330 25 is_stmt 1 view .LVU850
 3896 02ba 31E2     		b	.L245
 3897              	.L260:
 336:Core/Src/main.c ****                     if (getCarMineSumNum() == 1)
 3898              		.loc 1 336 21 view .LVU851
 336:Core/Src/main.c ****                     if (getCarMineSumNum() == 1)
 3899              		.loc 1 336 63 is_stmt 0 view .LVU852
 3900 02bc 184B     		ldr	r3, .L290+56
 3901 02be 5A69     		ldr	r2, [r3, #20]
 336:Core/Src/main.c ****                     if (getCarMineSumNum() == 1)
 3902              		.loc 1 336 21 view .LVU853
 3903 02c0 911C     		adds	r1, r2, #2
 3904 02c2 53F82110 		ldr	r1, [r3, r1, lsl #2]
 3905 02c6 53F82200 		ldr	r0, [r3, r2, lsl #2]
 3906 02ca FFF7FEFF 		bl	Goto
 3907              	.LVL462:
 337:Core/Src/main.c ****                     {
 3908              		.loc 1 337 21 is_stmt 1 view .LVU854
 337:Core/Src/main.c ****                     {
 3909              		.loc 1 337 25 is_stmt 0 view .LVU855
ARM GAS  C:\Users\wangw\AppData\Local\Temp\ccLETVy1.s 			page 94


 3910 02ce FFF7FEFF 		bl	getCarMineSumNum
 3911              	.LVL463:
 337:Core/Src/main.c ****                     {
 3912              		.loc 1 337 24 view .LVU856
 3913 02d2 0128     		cmp	r0, #1
 3914 02d4 40F02482 		bne	.L245
 339:Core/Src/main.c ****                         goto_state = 0;
 3915              		.loc 1 339 25 is_stmt 1 view .LVU857
 339:Core/Src/main.c ****                         goto_state = 0;
 3916              		.loc 1 339 31 is_stmt 0 view .LVU858
 3917 02d8 0C4B     		ldr	r3, .L290+36
 3918 02da 0222     		movs	r2, #2
 3919 02dc 1A60     		str	r2, [r3]
 340:Core/Src/main.c ****                     }
 3920              		.loc 1 340 25 is_stmt 1 view .LVU859
 340:Core/Src/main.c ****                     }
 3921              		.loc 1 340 36 is_stmt 0 view .LVU860
 3922 02de 134B     		ldr	r3, .L290+68
 3923 02e0 0022     		movs	r2, #0
 3924 02e2 1A60     		str	r2, [r3]
 3925 02e4 1CE2     		b	.L245
 3926              	.L291:
 3927 02e6 00BF     		.align	2
 3928              	.L290:
 3929 02e8 00000000 		.word	huart2
 3930 02ec 00000000 		.word	huart1
 3931 02f0 00000000 		.word	htim1
 3932 02f4 00000000 		.word	htim8
 3933 02f8 00000000 		.word	htim2
 3934 02fc 00000000 		.word	htim3
 3935 0300 00000000 		.word	htim4
 3936 0304 00000000 		.word	htim5
 3937 0308 000C0140 		.word	1073810432
 3938 030c 00000000 		.word	.LANCHOR18
 3939 0310 00000000 		.word	.LANCHOR7
 3940 0314 00000000 		.word	.LANCHOR2
 3941 0318 00000000 		.word	.LANCHOR3
 3942 031c 00000000 		.word	.LANCHOR19
 3943 0320 00000000 		.word	.LANCHOR12
 3944 0324 00000000 		.word	.LANCHOR20
 3945 0328 56555555 		.word	1431655766
 3946 032c 00000000 		.word	.LANCHOR10
 3947              	.L259:
 347:Core/Src/main.c ****                     if (getCarMineSumNum() == 2)
 3948              		.loc 1 347 21 is_stmt 1 view .LVU861
 347:Core/Src/main.c ****                     if (getCarMineSumNum() == 2)
 3949              		.loc 1 347 64 is_stmt 0 view .LVU862
 3950 0330 944A     		ldr	r2, .L292
 3951 0332 5369     		ldr	r3, [r2, #20]
 347:Core/Src/main.c ****                     if (getCarMineSumNum() == 2)
 3952              		.loc 1 347 46 view .LVU863
 3953 0334 B3FA83F3 		clz	r3, r3
 3954 0338 5B09     		lsrs	r3, r3, #5
 347:Core/Src/main.c ****                     if (getCarMineSumNum() == 2)
 3955              		.loc 1 347 21 view .LVU864
 3956 033a 991C     		adds	r1, r3, #2
 3957 033c 52F82110 		ldr	r1, [r2, r1, lsl #2]
ARM GAS  C:\Users\wangw\AppData\Local\Temp\ccLETVy1.s 			page 95


 3958 0340 52F82300 		ldr	r0, [r2, r3, lsl #2]
 3959 0344 FFF7FEFF 		bl	Goto
 3960              	.LVL464:
 348:Core/Src/main.c ****                     {
 3961              		.loc 1 348 21 is_stmt 1 view .LVU865
 348:Core/Src/main.c ****                     {
 3962              		.loc 1 348 25 is_stmt 0 view .LVU866
 3963 0348 FFF7FEFF 		bl	getCarMineSumNum
 3964              	.LVL465:
 348:Core/Src/main.c ****                     {
 3965              		.loc 1 348 24 view .LVU867
 3966 034c 0228     		cmp	r0, #2
 3967 034e 40F0E781 		bne	.L245
 350:Core/Src/main.c ****                         goto_state = 0;
 3968              		.loc 1 350 25 is_stmt 1 view .LVU868
 350:Core/Src/main.c ****                         goto_state = 0;
 3969              		.loc 1 350 31 is_stmt 0 view .LVU869
 3970 0352 8D4B     		ldr	r3, .L292+4
 3971 0354 0322     		movs	r2, #3
 3972 0356 1A60     		str	r2, [r3]
 351:Core/Src/main.c ****                     }
 3973              		.loc 1 351 25 is_stmt 1 view .LVU870
 351:Core/Src/main.c ****                     }
 3974              		.loc 1 351 36 is_stmt 0 view .LVU871
 3975 0358 8C4B     		ldr	r3, .L292+8
 3976 035a 0022     		movs	r2, #0
 3977 035c 1A60     		str	r2, [r3]
 3978 035e DFE1     		b	.L245
 3979              	.L258:
 357:Core/Src/main.c ****                         beacon_idx=sort_beacons(car_Pos[0],car_Pos[1]);
 3980              		.loc 1 357 21 is_stmt 1 view .LVU872
 357:Core/Src/main.c ****                         beacon_idx=sort_beacons(car_Pos[0],car_Pos[1]);
 3981              		.loc 1 357 35 is_stmt 0 view .LVU873
 3982 0360 8B4B     		ldr	r3, .L292+12
 3983 0362 1B68     		ldr	r3, [r3]
 357:Core/Src/main.c ****                         beacon_idx=sort_beacons(car_Pos[0],car_Pos[1]);
 3984              		.loc 1 357 24 view .LVU874
 3985 0364 002B     		cmp	r3, #0
 3986 0366 26DB     		blt	.L279
 3987              	.L264:
 360:Core/Src/main.c ****                     if (car_Pos[0] < 15 || car_Pos[0] > 240 || car_Pos[1] < 15 || car_Pos[1] > 240)
 3988              		.loc 1 360 21 is_stmt 1 view .LVU875
 3989 0368 894B     		ldr	r3, .L292+12
 3990 036a 1A68     		ldr	r2, [r3]
 3991 036c 894B     		ldr	r3, .L292+16
 3992 036e 03EBC201 		add	r1, r3, r2, lsl #3
 3993 0372 4968     		ldr	r1, [r1, #4]
 3994 0374 53F83200 		ldr	r0, [r3, r2, lsl #3]
 3995 0378 FFF7FEFF 		bl	Goto
 3996              	.LVL466:
 361:Core/Src/main.c ****                     //also, not beyond the boundary
 3997              		.loc 1 361 21 view .LVU876
 361:Core/Src/main.c ****                     //also, not beyond the boundary
 3998              		.loc 1 361 32 is_stmt 0 view .LVU877
 3999 037c 864B     		ldr	r3, .L292+20
 4000 037e 1B68     		ldr	r3, [r3]
 361:Core/Src/main.c ****                     //also, not beyond the boundary
ARM GAS  C:\Users\wangw\AppData\Local\Temp\ccLETVy1.s 			page 96


 4001              		.loc 1 361 41 view .LVU878
 4002 0380 0F3B     		subs	r3, r3, #15
 361:Core/Src/main.c ****                     //also, not beyond the boundary
 4003              		.loc 1 361 24 view .LVU879
 4004 0382 E12B     		cmp	r3, #225
 4005 0384 06D8     		bhi	.L265
 361:Core/Src/main.c ****                     //also, not beyond the boundary
 4006              		.loc 1 361 71 discriminator 1 view .LVU880
 4007 0386 844B     		ldr	r3, .L292+20
 4008 0388 5B68     		ldr	r3, [r3, #4]
 361:Core/Src/main.c ****                     //also, not beyond the boundary
 4009              		.loc 1 361 61 discriminator 1 view .LVU881
 4010 038a 0E2B     		cmp	r3, #14
 4011 038c 02DD     		ble	.L265
 361:Core/Src/main.c ****                     //also, not beyond the boundary
 4012              		.loc 1 361 80 discriminator 2 view .LVU882
 4013 038e F02B     		cmp	r3, #240
 4014 0390 40F3C681 		ble	.L245
 4015              	.L265:
 364:Core/Src/main.c ****                         if (count_beacon == 0)
 4016              		.loc 1 364 25 is_stmt 1 view .LVU883
 4017 0394 FFF7FEFF 		bl	brake
 4018              	.LVL467:
 365:Core/Src/main.c ****                             zigbeeSend(0x00);
 4019              		.loc 1 365 25 view .LVU884
 365:Core/Src/main.c ****                             zigbeeSend(0x00);
 4020              		.loc 1 365 42 is_stmt 0 view .LVU885
 4021 0398 804B     		ldr	r3, .L292+24
 4022 039a 1B68     		ldr	r3, [r3]
 365:Core/Src/main.c ****                             zigbeeSend(0x00);
 4023              		.loc 1 365 28 view .LVU886
 4024 039c 9BB1     		cbz	r3, .L280
 4025              	.L266:
 367:Core/Src/main.c ****                         if (count_beacon <= 20)
 4026              		.loc 1 367 25 is_stmt 1 view .LVU887
 367:Core/Src/main.c ****                         if (count_beacon <= 20)
 4027              		.loc 1 367 37 is_stmt 0 view .LVU888
 4028 039e 7F4A     		ldr	r2, .L292+24
 4029 03a0 1368     		ldr	r3, [r2]
 4030 03a2 0133     		adds	r3, r3, #1
 4031 03a4 1360     		str	r3, [r2]
 368:Core/Src/main.c ****                         {
 4032              		.loc 1 368 25 is_stmt 1 view .LVU889
 368:Core/Src/main.c ****                         {
 4033              		.loc 1 368 28 is_stmt 0 view .LVU890
 4034 03a6 142B     		cmp	r3, #20
 4035 03a8 11DC     		bgt	.L267
 370:Core/Src/main.c ****                         }
 4036              		.loc 1 370 29 is_stmt 1 view .LVU891
 4037 03aa 0122     		movs	r2, #1
 4038 03ac 1146     		mov	r1, r2
 4039 03ae 7C48     		ldr	r0, .L292+28
 4040 03b0 FFF7FEFF 		bl	HAL_GPIO_WritePin
 4041              	.LVL468:
 4042 03b4 B4E1     		b	.L245
 4043              	.L279:
 358:Core/Src/main.c ****                     //ÊîæÁΩÆÁ¨¨‰∏Ä‰∏™‰ø°Ê†á
ARM GAS  C:\Users\wangw\AppData\Local\Temp\ccLETVy1.s 			page 97


 4044              		.loc 1 358 25 view .LVU892
 358:Core/Src/main.c ****                     //ÊîæÁΩÆÁ¨¨‰∏Ä‰∏™‰ø°Ê†á
 4045              		.loc 1 358 36 is_stmt 0 view .LVU893
 4046 03b6 784B     		ldr	r3, .L292+20
 4047 03b8 5968     		ldr	r1, [r3, #4]
 4048 03ba 1868     		ldr	r0, [r3]
 4049 03bc FFF7FEFF 		bl	sort_beacons
 4050              	.LVL469:
 358:Core/Src/main.c ****                     //ÊîæÁΩÆÁ¨¨‰∏Ä‰∏™‰ø°Ê†á
 4051              		.loc 1 358 35 view .LVU894
 4052 03c0 734B     		ldr	r3, .L292+12
 4053 03c2 1860     		str	r0, [r3]
 4054 03c4 D0E7     		b	.L264
 4055              	.L280:
 366:Core/Src/main.c ****                         count_beacon++;
 4056              		.loc 1 366 29 is_stmt 1 view .LVU895
 4057 03c6 0020     		movs	r0, #0
 4058 03c8 FFF7FEFF 		bl	zigbeeSend
 4059              	.LVL470:
 4060 03cc E7E7     		b	.L266
 4061              	.L267:
 374:Core/Src/main.c ****                             count_beacon = 0;
 4062              		.loc 1 374 29 view .LVU896
 374:Core/Src/main.c ****                             count_beacon = 0;
 4063              		.loc 1 374 35 is_stmt 0 view .LVU897
 4064 03ce 6E4B     		ldr	r3, .L292+4
 4065 03d0 0422     		movs	r2, #4
 4066 03d2 1A60     		str	r2, [r3]
 375:Core/Src/main.c ****                             beacon_Pos[0] = getCarPosX();
 4067              		.loc 1 375 29 is_stmt 1 view .LVU898
 375:Core/Src/main.c ****                             beacon_Pos[0] = getCarPosX();
 4068              		.loc 1 375 42 is_stmt 0 view .LVU899
 4069 03d4 0024     		movs	r4, #0
 4070 03d6 714B     		ldr	r3, .L292+24
 4071 03d8 1C60     		str	r4, [r3]
 376:Core/Src/main.c ****                             beacon_Pos[1] = getCarPosY(); //Áªôbeacon_PosËµãÔøΩ?ÔøΩÔºåÁî®‰∫éÁ¨¨‰∫åÂ
 4072              		.loc 1 376 29 is_stmt 1 view .LVU900
 376:Core/Src/main.c ****                             beacon_Pos[1] = getCarPosY(); //Áªôbeacon_PosËµãÔøΩ?ÔøΩÔºåÁî®‰∫éÁ¨¨‰∫åÂ
 4073              		.loc 1 376 45 is_stmt 0 view .LVU901
 4074 03da FFF7FEFF 		bl	getCarPosX
 4075              	.LVL471:
 376:Core/Src/main.c ****                             beacon_Pos[1] = getCarPosY(); //Áªôbeacon_PosËµãÔøΩ?ÔøΩÔºåÁî®‰∫éÁ¨¨‰∫åÂ
 4076              		.loc 1 376 43 view .LVU902
 4077 03de 714D     		ldr	r5, .L292+32
 4078 03e0 2860     		str	r0, [r5]
 377:Core/Src/main.c ****                             HAL_GPIO_WritePin(GPIOC, GPIO_PIN_0, GPIO_PIN_RESET);
 4079              		.loc 1 377 29 is_stmt 1 view .LVU903
 377:Core/Src/main.c ****                             HAL_GPIO_WritePin(GPIOC, GPIO_PIN_0, GPIO_PIN_RESET);
 4080              		.loc 1 377 45 is_stmt 0 view .LVU904
 4081 03e2 FFF7FEFF 		bl	getCarPosY
 4082              	.LVL472:
 377:Core/Src/main.c ****                             HAL_GPIO_WritePin(GPIOC, GPIO_PIN_0, GPIO_PIN_RESET);
 4083              		.loc 1 377 43 view .LVU905
 4084 03e6 6860     		str	r0, [r5, #4]
 378:Core/Src/main.c ****                             goto_state = 0;
 4085              		.loc 1 378 29 is_stmt 1 view .LVU906
 4086 03e8 2246     		mov	r2, r4
ARM GAS  C:\Users\wangw\AppData\Local\Temp\ccLETVy1.s 			page 98


 4087 03ea 0121     		movs	r1, #1
 4088 03ec 6C48     		ldr	r0, .L292+28
 4089 03ee FFF7FEFF 		bl	HAL_GPIO_WritePin
 4090              	.LVL473:
 379:Core/Src/main.c ****                         }
 4091              		.loc 1 379 29 view .LVU907
 379:Core/Src/main.c ****                         }
 4092              		.loc 1 379 40 is_stmt 0 view .LVU908
 4093 03f2 664B     		ldr	r3, .L292+8
 4094 03f4 1C60     		str	r4, [r3]
 4095 03f6 93E1     		b	.L245
 4096              	.L257:
 386:Core/Src/main.c ****                     if (getCarPosX() < 15 || getCarPosX() > 240 || getCarPosY() < 15 || getCarPosY(
 4097              		.loc 1 386 21 is_stmt 1 view .LVU909
 386:Core/Src/main.c ****                     if (getCarPosX() < 15 || getCarPosX() > 240 || getCarPosY() < 15 || getCarPosY(
 4098              		.loc 1 386 45 is_stmt 0 view .LVU910
 4099 03f8 654B     		ldr	r3, .L292+12
 4100 03fa 1A68     		ldr	r2, [r3]
 4101 03fc 0132     		adds	r2, r2, #1
 386:Core/Src/main.c ****                     if (getCarPosX() < 15 || getCarPosX() > 240 || getCarPosY() < 15 || getCarPosY(
 4102              		.loc 1 386 48 view .LVU911
 4103 03fe 6A4B     		ldr	r3, .L292+36
 4104 0400 83FB0213 		smull	r1, r3, r3, r2
 4105 0404 A3EBE273 		sub	r3, r3, r2, asr #31
 4106 0408 03EB4303 		add	r3, r3, r3, lsl #1
 4107 040c D31A     		subs	r3, r2, r3
 386:Core/Src/main.c ****                     if (getCarPosX() < 15 || getCarPosX() > 240 || getCarPosY() < 15 || getCarPosY(
 4108              		.loc 1 386 21 view .LVU912
 4109 040e 614A     		ldr	r2, .L292+16
 4110 0410 02EBC301 		add	r1, r2, r3, lsl #3
 4111 0414 4968     		ldr	r1, [r1, #4]
 4112 0416 52F83300 		ldr	r0, [r2, r3, lsl #3]
 4113 041a FFF7FEFF 		bl	Goto
 4114              	.LVL474:
 387:Core/Src/main.c ****                     //also, not beyond the boundary
 4115              		.loc 1 387 21 is_stmt 1 view .LVU913
 387:Core/Src/main.c ****                     //also, not beyond the boundary
 4116              		.loc 1 387 25 is_stmt 0 view .LVU914
 4117 041e FFF7FEFF 		bl	getCarPosX
 4118              	.LVL475:
 387:Core/Src/main.c ****                     //also, not beyond the boundary
 4119              		.loc 1 387 24 view .LVU915
 4120 0422 0E28     		cmp	r0, #14
 4121 0424 03D9     		bls	.L268
 387:Core/Src/main.c ****                     //also, not beyond the boundary
 4122              		.loc 1 387 46 discriminator 1 view .LVU916
 4123 0426 FFF7FEFF 		bl	getCarPosX
 4124              	.LVL476:
 387:Core/Src/main.c ****                     //also, not beyond the boundary
 4125              		.loc 1 387 43 discriminator 1 view .LVU917
 4126 042a F028     		cmp	r0, #240
 4127 042c 10D9     		bls	.L281
 4128              	.L268:
 390:Core/Src/main.c ****                         if (count_beacon == 0)
 4129              		.loc 1 390 25 is_stmt 1 view .LVU918
 4130 042e FFF7FEFF 		bl	brake
 4131              	.LVL477:
ARM GAS  C:\Users\wangw\AppData\Local\Temp\ccLETVy1.s 			page 99


 391:Core/Src/main.c ****                             zigbeeSend(0x01);
 4132              		.loc 1 391 25 view .LVU919
 391:Core/Src/main.c ****                             zigbeeSend(0x01);
 4133              		.loc 1 391 42 is_stmt 0 view .LVU920
 4134 0432 5A4B     		ldr	r3, .L292+24
 4135 0434 1B68     		ldr	r3, [r3]
 391:Core/Src/main.c ****                             zigbeeSend(0x01);
 4136              		.loc 1 391 28 view .LVU921
 4137 0436 ABB1     		cbz	r3, .L282
 4138              	.L269:
 393:Core/Src/main.c ****                         if (count_beacon <= 20)
 4139              		.loc 1 393 25 is_stmt 1 view .LVU922
 393:Core/Src/main.c ****                         if (count_beacon <= 20)
 4140              		.loc 1 393 37 is_stmt 0 view .LVU923
 4141 0438 584A     		ldr	r2, .L292+24
 4142 043a 1368     		ldr	r3, [r2]
 4143 043c 0133     		adds	r3, r3, #1
 4144 043e 1360     		str	r3, [r2]
 394:Core/Src/main.c ****                         {
 4145              		.loc 1 394 25 is_stmt 1 view .LVU924
 394:Core/Src/main.c ****                         {
 4146              		.loc 1 394 28 is_stmt 0 view .LVU925
 4147 0440 142B     		cmp	r3, #20
 4148 0442 13DC     		bgt	.L270
 396:Core/Src/main.c ****                         }
 4149              		.loc 1 396 29 is_stmt 1 view .LVU926
 4150 0444 0122     		movs	r2, #1
 4151 0446 1146     		mov	r1, r2
 4152 0448 5548     		ldr	r0, .L292+28
 4153 044a FFF7FEFF 		bl	HAL_GPIO_WritePin
 4154              	.LVL478:
 4155 044e 67E1     		b	.L245
 4156              	.L281:
 387:Core/Src/main.c ****                     //also, not beyond the boundary
 4157              		.loc 1 387 68 is_stmt 0 discriminator 2 view .LVU927
 4158 0450 FFF7FEFF 		bl	getCarPosY
 4159              	.LVL479:
 387:Core/Src/main.c ****                     //also, not beyond the boundary
 4160              		.loc 1 387 65 discriminator 2 view .LVU928
 4161 0454 0E28     		cmp	r0, #14
 4162 0456 EAD9     		bls	.L268
 387:Core/Src/main.c ****                     //also, not beyond the boundary
 4163              		.loc 1 387 89 discriminator 3 view .LVU929
 4164 0458 FFF7FEFF 		bl	getCarPosY
 4165              	.LVL480:
 387:Core/Src/main.c ****                     //also, not beyond the boundary
 4166              		.loc 1 387 86 discriminator 3 view .LVU930
 4167 045c F028     		cmp	r0, #240
 4168 045e 40F25F81 		bls	.L245
 4169 0462 E4E7     		b	.L268
 4170              	.L282:
 392:Core/Src/main.c ****                         count_beacon++;
 4171              		.loc 1 392 29 is_stmt 1 view .LVU931
 4172 0464 0120     		movs	r0, #1
 4173 0466 FFF7FEFF 		bl	zigbeeSend
 4174              	.LVL481:
 4175 046a E5E7     		b	.L269
ARM GAS  C:\Users\wangw\AppData\Local\Temp\ccLETVy1.s 			page 100


 4176              	.L270:
 400:Core/Src/main.c ****                             count_beacon = 0;
 4177              		.loc 1 400 29 view .LVU932
 400:Core/Src/main.c ****                             count_beacon = 0;
 4178              		.loc 1 400 35 is_stmt 0 view .LVU933
 4179 046c 464B     		ldr	r3, .L292+4
 4180 046e 0522     		movs	r2, #5
 4181 0470 1A60     		str	r2, [r3]
 401:Core/Src/main.c ****                             beacon_Pos[2] = getCarPosX();
 4182              		.loc 1 401 29 is_stmt 1 view .LVU934
 401:Core/Src/main.c ****                             beacon_Pos[2] = getCarPosX();
 4183              		.loc 1 401 42 is_stmt 0 view .LVU935
 4184 0472 0024     		movs	r4, #0
 4185 0474 494B     		ldr	r3, .L292+24
 4186 0476 1C60     		str	r4, [r3]
 402:Core/Src/main.c ****                             beacon_Pos[3] = getCarPosY(); //Áªôbeacon_PosËµãÔøΩ?ÔøΩÔºåÁî®‰∫éÁ¨¨‰∫åÂ
 4187              		.loc 1 402 29 is_stmt 1 view .LVU936
 402:Core/Src/main.c ****                             beacon_Pos[3] = getCarPosY(); //Áªôbeacon_PosËµãÔøΩ?ÔøΩÔºåÁî®‰∫éÁ¨¨‰∫åÂ
 4188              		.loc 1 402 45 is_stmt 0 view .LVU937
 4189 0478 FFF7FEFF 		bl	getCarPosX
 4190              	.LVL482:
 402:Core/Src/main.c ****                             beacon_Pos[3] = getCarPosY(); //Áªôbeacon_PosËµãÔøΩ?ÔøΩÔºåÁî®‰∫éÁ¨¨‰∫åÂ
 4191              		.loc 1 402 43 view .LVU938
 4192 047c 494D     		ldr	r5, .L292+32
 4193 047e A860     		str	r0, [r5, #8]
 403:Core/Src/main.c ****                             HAL_GPIO_WritePin(GPIOC, GPIO_PIN_0, GPIO_PIN_RESET);
 4194              		.loc 1 403 29 is_stmt 1 view .LVU939
 403:Core/Src/main.c ****                             HAL_GPIO_WritePin(GPIOC, GPIO_PIN_0, GPIO_PIN_RESET);
 4195              		.loc 1 403 45 is_stmt 0 view .LVU940
 4196 0480 FFF7FEFF 		bl	getCarPosY
 4197              	.LVL483:
 403:Core/Src/main.c ****                             HAL_GPIO_WritePin(GPIOC, GPIO_PIN_0, GPIO_PIN_RESET);
 4198              		.loc 1 403 43 view .LVU941
 4199 0484 E860     		str	r0, [r5, #12]
 404:Core/Src/main.c ****                             goto_state = 0;
 4200              		.loc 1 404 29 is_stmt 1 view .LVU942
 4201 0486 2246     		mov	r2, r4
 4202 0488 0121     		movs	r1, #1
 4203 048a 4548     		ldr	r0, .L292+28
 4204 048c FFF7FEFF 		bl	HAL_GPIO_WritePin
 4205              	.LVL484:
 405:Core/Src/main.c ****                         }
 4206              		.loc 1 405 29 view .LVU943
 405:Core/Src/main.c ****                         }
 4207              		.loc 1 405 40 is_stmt 0 view .LVU944
 4208 0490 3E4B     		ldr	r3, .L292+8
 4209 0492 1C60     		str	r4, [r3]
 4210 0494 44E1     		b	.L245
 4211              	.L256:
 412:Core/Src/main.c ****                     if (getCarPosX() < 15 || getCarPosX() > 240 || getCarPosY() < 15 || getCarPosY(
 4212              		.loc 1 412 21 is_stmt 1 view .LVU945
 412:Core/Src/main.c ****                     if (getCarPosX() < 15 || getCarPosX() > 240 || getCarPosY() < 15 || getCarPosY(
 4213              		.loc 1 412 45 is_stmt 0 view .LVU946
 4214 0496 3E4B     		ldr	r3, .L292+12
 4215 0498 1A68     		ldr	r2, [r3]
 4216 049a 0232     		adds	r2, r2, #2
 412:Core/Src/main.c ****                     if (getCarPosX() < 15 || getCarPosX() > 240 || getCarPosY() < 15 || getCarPosY(
ARM GAS  C:\Users\wangw\AppData\Local\Temp\ccLETVy1.s 			page 101


 4217              		.loc 1 412 48 view .LVU947
 4218 049c 424B     		ldr	r3, .L292+36
 4219 049e 83FB0213 		smull	r1, r3, r3, r2
 4220 04a2 A3EBE273 		sub	r3, r3, r2, asr #31
 4221 04a6 03EB4303 		add	r3, r3, r3, lsl #1
 4222 04aa D31A     		subs	r3, r2, r3
 412:Core/Src/main.c ****                     if (getCarPosX() < 15 || getCarPosX() > 240 || getCarPosY() < 15 || getCarPosY(
 4223              		.loc 1 412 21 view .LVU948
 4224 04ac 394A     		ldr	r2, .L292+16
 4225 04ae 02EBC301 		add	r1, r2, r3, lsl #3
 4226 04b2 4968     		ldr	r1, [r1, #4]
 4227 04b4 52F83300 		ldr	r0, [r2, r3, lsl #3]
 4228 04b8 FFF7FEFF 		bl	Goto
 4229              	.LVL485:
 413:Core/Src/main.c ****                     {
 4230              		.loc 1 413 21 is_stmt 1 view .LVU949
 413:Core/Src/main.c ****                     {
 4231              		.loc 1 413 25 is_stmt 0 view .LVU950
 4232 04bc FFF7FEFF 		bl	getCarPosX
 4233              	.LVL486:
 413:Core/Src/main.c ****                     {
 4234              		.loc 1 413 24 view .LVU951
 4235 04c0 0E28     		cmp	r0, #14
 4236 04c2 03D9     		bls	.L271
 413:Core/Src/main.c ****                     {
 4237              		.loc 1 413 46 discriminator 1 view .LVU952
 4238 04c4 FFF7FEFF 		bl	getCarPosX
 4239              	.LVL487:
 413:Core/Src/main.c ****                     {
 4240              		.loc 1 413 43 discriminator 1 view .LVU953
 4241 04c8 F028     		cmp	r0, #240
 4242 04ca 10D9     		bls	.L283
 4243              	.L271:
 415:Core/Src/main.c ****                         if (count_beacon == 0)
 4244              		.loc 1 415 25 is_stmt 1 view .LVU954
 4245 04cc FFF7FEFF 		bl	brake
 4246              	.LVL488:
 416:Core/Src/main.c ****                             zigbeeSend(0x02);
 4247              		.loc 1 416 25 view .LVU955
 416:Core/Src/main.c ****                             zigbeeSend(0x02);
 4248              		.loc 1 416 42 is_stmt 0 view .LVU956
 4249 04d0 324B     		ldr	r3, .L292+24
 4250 04d2 1B68     		ldr	r3, [r3]
 416:Core/Src/main.c ****                             zigbeeSend(0x02);
 4251              		.loc 1 416 28 view .LVU957
 4252 04d4 ABB1     		cbz	r3, .L284
 4253              	.L272:
 418:Core/Src/main.c ****                         if (count_beacon <= 20)
 4254              		.loc 1 418 25 is_stmt 1 view .LVU958
 418:Core/Src/main.c ****                         if (count_beacon <= 20)
 4255              		.loc 1 418 37 is_stmt 0 view .LVU959
 4256 04d6 314A     		ldr	r2, .L292+24
 4257 04d8 1368     		ldr	r3, [r2]
 4258 04da 0133     		adds	r3, r3, #1
 4259 04dc 1360     		str	r3, [r2]
 419:Core/Src/main.c ****                         {
 4260              		.loc 1 419 25 is_stmt 1 view .LVU960
ARM GAS  C:\Users\wangw\AppData\Local\Temp\ccLETVy1.s 			page 102


 419:Core/Src/main.c ****                         {
 4261              		.loc 1 419 28 is_stmt 0 view .LVU961
 4262 04de 142B     		cmp	r3, #20
 4263 04e0 13DC     		bgt	.L273
 421:Core/Src/main.c ****                         }
 4264              		.loc 1 421 29 is_stmt 1 view .LVU962
 4265 04e2 0122     		movs	r2, #1
 4266 04e4 1146     		mov	r1, r2
 4267 04e6 2E48     		ldr	r0, .L292+28
 4268 04e8 FFF7FEFF 		bl	HAL_GPIO_WritePin
 4269              	.LVL489:
 4270 04ec 18E1     		b	.L245
 4271              	.L283:
 413:Core/Src/main.c ****                     {
 4272              		.loc 1 413 68 is_stmt 0 discriminator 2 view .LVU963
 4273 04ee FFF7FEFF 		bl	getCarPosY
 4274              	.LVL490:
 413:Core/Src/main.c ****                     {
 4275              		.loc 1 413 65 discriminator 2 view .LVU964
 4276 04f2 0E28     		cmp	r0, #14
 4277 04f4 EAD9     		bls	.L271
 413:Core/Src/main.c ****                     {
 4278              		.loc 1 413 89 discriminator 3 view .LVU965
 4279 04f6 FFF7FEFF 		bl	getCarPosY
 4280              	.LVL491:
 413:Core/Src/main.c ****                     {
 4281              		.loc 1 413 86 discriminator 3 view .LVU966
 4282 04fa F028     		cmp	r0, #240
 4283 04fc 40F21081 		bls	.L245
 4284 0500 E4E7     		b	.L271
 4285              	.L284:
 417:Core/Src/main.c ****                         count_beacon++;
 4286              		.loc 1 417 29 is_stmt 1 view .LVU967
 4287 0502 0220     		movs	r0, #2
 4288 0504 FFF7FEFF 		bl	zigbeeSend
 4289              	.LVL492:
 4290 0508 E5E7     		b	.L272
 4291              	.L273:
 425:Core/Src/main.c ****                             count_beacon = 0;
 4292              		.loc 1 425 29 view .LVU968
 425:Core/Src/main.c ****                             count_beacon = 0;
 4293              		.loc 1 425 35 is_stmt 0 view .LVU969
 4294 050a 1F4B     		ldr	r3, .L292+4
 4295 050c 0622     		movs	r2, #6
 4296 050e 1A60     		str	r2, [r3]
 426:Core/Src/main.c ****                             beacon_Pos[4] = getCarPosX();
 4297              		.loc 1 426 29 is_stmt 1 view .LVU970
 426:Core/Src/main.c ****                             beacon_Pos[4] = getCarPosX();
 4298              		.loc 1 426 42 is_stmt 0 view .LVU971
 4299 0510 0024     		movs	r4, #0
 4300 0512 224B     		ldr	r3, .L292+24
 4301 0514 1C60     		str	r4, [r3]
 427:Core/Src/main.c ****                             beacon_Pos[5] = getCarPosY(); //Áªôbeacon_PosËµãÔøΩ?ÔøΩÔºåÁî®‰∫éÁ¨¨‰∫åÂ
 4302              		.loc 1 427 29 is_stmt 1 view .LVU972
 427:Core/Src/main.c ****                             beacon_Pos[5] = getCarPosY(); //Áªôbeacon_PosËµãÔøΩ?ÔøΩÔºåÁî®‰∫éÁ¨¨‰∫åÂ
 4303              		.loc 1 427 45 is_stmt 0 view .LVU973
 4304 0516 FFF7FEFF 		bl	getCarPosX
ARM GAS  C:\Users\wangw\AppData\Local\Temp\ccLETVy1.s 			page 103


 4305              	.LVL493:
 427:Core/Src/main.c ****                             beacon_Pos[5] = getCarPosY(); //Áªôbeacon_PosËµãÔøΩ?ÔøΩÔºåÁî®‰∫éÁ¨¨‰∫åÂ
 4306              		.loc 1 427 43 view .LVU974
 4307 051a 224D     		ldr	r5, .L292+32
 4308 051c 2861     		str	r0, [r5, #16]
 428:Core/Src/main.c ****                             HAL_GPIO_WritePin(GPIOC, GPIO_PIN_0, GPIO_PIN_RESET);
 4309              		.loc 1 428 29 is_stmt 1 view .LVU975
 428:Core/Src/main.c ****                             HAL_GPIO_WritePin(GPIOC, GPIO_PIN_0, GPIO_PIN_RESET);
 4310              		.loc 1 428 45 is_stmt 0 view .LVU976
 4311 051e FFF7FEFF 		bl	getCarPosY
 4312              	.LVL494:
 428:Core/Src/main.c ****                             HAL_GPIO_WritePin(GPIOC, GPIO_PIN_0, GPIO_PIN_RESET);
 4313              		.loc 1 428 43 view .LVU977
 4314 0522 6861     		str	r0, [r5, #20]
 429:Core/Src/main.c ****                             goto_state = 0;
 4315              		.loc 1 429 29 is_stmt 1 view .LVU978
 4316 0524 2246     		mov	r2, r4
 4317 0526 0121     		movs	r1, #1
 4318 0528 1D48     		ldr	r0, .L292+28
 4319 052a FFF7FEFF 		bl	HAL_GPIO_WritePin
 4320              	.LVL495:
 430:Core/Src/main.c ****                         }
 4321              		.loc 1 430 29 view .LVU979
 430:Core/Src/main.c ****                         }
 4322              		.loc 1 430 40 is_stmt 0 view .LVU980
 4323 052e 174B     		ldr	r3, .L292+8
 4324 0530 1C60     		str	r4, [r3]
 4325 0532 F5E0     		b	.L245
 4326              	.L255:
 438:Core/Src/main.c ****                     if ((car_Pos[0] < 5) || (car_Pos[0] > 250) || (car_Pos[1] < 5) || (car_Pos[1] >
 4327              		.loc 1 438 21 is_stmt 1 view .LVU981
 4328 0534 7F21     		movs	r1, #127
 4329 0536 0F20     		movs	r0, #15
 4330 0538 FFF7FEFF 		bl	Goto
 4331              	.LVL496:
 439:Core/Src/main.c ****                     {
 4332              		.loc 1 439 21 view .LVU982
 439:Core/Src/main.c ****                     {
 4333              		.loc 1 439 33 is_stmt 0 view .LVU983
 4334 053c 164B     		ldr	r3, .L292+20
 4335 053e 1B68     		ldr	r3, [r3]
 439:Core/Src/main.c ****                     {
 4336              		.loc 1 439 42 view .LVU984
 4337 0540 5A1F     		subs	r2, r3, #5
 439:Core/Src/main.c ****                     {
 4338              		.loc 1 439 24 view .LVU985
 4339 0542 F52A     		cmp	r2, #245
 4340 0544 05D8     		bhi	.L274
 439:Core/Src/main.c ****                     {
 4341              		.loc 1 439 75 discriminator 1 view .LVU986
 4342 0546 144A     		ldr	r2, .L292+20
 4343 0548 5268     		ldr	r2, [r2, #4]
 439:Core/Src/main.c ****                     {
 4344              		.loc 1 439 64 discriminator 1 view .LVU987
 4345 054a 042A     		cmp	r2, #4
 4346 054c 01DD     		ble	.L274
 439:Core/Src/main.c ****                     {
ARM GAS  C:\Users\wangw\AppData\Local\Temp\ccLETVy1.s 			page 104


 4347              		.loc 1 439 84 discriminator 2 view .LVU988
 4348 054e FA2A     		cmp	r2, #250
 4349 0550 05DD     		ble	.L275
 4350              	.L274:
 442:Core/Src/main.c ****                         goto_state = 0;
 4351              		.loc 1 442 25 is_stmt 1 view .LVU989
 4352 0552 FFF7FEFF 		bl	brake
 4353              	.LVL497:
 443:Core/Src/main.c ****                         break;
 4354              		.loc 1 443 25 view .LVU990
 443:Core/Src/main.c ****                         break;
 4355              		.loc 1 443 36 is_stmt 0 view .LVU991
 4356 0556 0D4B     		ldr	r3, .L292+8
 4357 0558 0022     		movs	r2, #0
 4358 055a 1A60     		str	r2, [r3]
 444:Core/Src/main.c ****                     }
 4359              		.loc 1 444 25 is_stmt 1 view .LVU992
 4360 055c E0E0     		b	.L245
 4361              	.L275:
 446:Core/Src/main.c ****                     {
 4362              		.loc 1 446 21 view .LVU993
 446:Core/Src/main.c ****                     {
 4363              		.loc 1 446 37 is_stmt 0 view .LVU994
 4364 055e 0F3B     		subs	r3, r3, #15
 446:Core/Src/main.c ****                     {
 4365              		.loc 1 446 77 view .LVU995
 4366 0560 7F3A     		subs	r2, r2, #127
 446:Core/Src/main.c ****                     {
 4367              		.loc 1 446 84 view .LVU996
 4368 0562 02FB02F2 		mul	r2, r2, r2
 446:Core/Src/main.c ****                     {
 4369              		.loc 1 446 63 view .LVU997
 4370 0566 03FB0323 		mla	r3, r3, r3, r2
 446:Core/Src/main.c ****                     {
 4371              		.loc 1 446 24 view .LVU998
 4372 056a 132B     		cmp	r3, #19
 4373 056c 00F3D880 		bgt	.L245
 448:Core/Src/main.c ****                         State = -1; //Á¨¨‰∏ÄÂõûÂêàÁªìÊùü
 4374              		.loc 1 448 25 is_stmt 1 view .LVU999
 4375 0570 FFF7FEFF 		bl	brake
 4376              	.LVL498:
 449:Core/Src/main.c ****                         goto_state = 0;
 4377              		.loc 1 449 25 view .LVU1000
 449:Core/Src/main.c ****                         goto_state = 0;
 4378              		.loc 1 449 31 is_stmt 0 view .LVU1001
 4379 0574 044B     		ldr	r3, .L292+4
 4380 0576 4FF0FF32 		mov	r2, #-1
 4381 057a 1A60     		str	r2, [r3]
 450:Core/Src/main.c ****                     }
 4382              		.loc 1 450 25 is_stmt 1 view .LVU1002
 450:Core/Src/main.c ****                     }
 4383              		.loc 1 450 36 is_stmt 0 view .LVU1003
 4384 057c 034B     		ldr	r3, .L292+8
 4385 057e 0022     		movs	r2, #0
 4386 0580 1A60     		str	r2, [r3]
 4387 0582 CDE0     		b	.L245
 4388              	.L293:
ARM GAS  C:\Users\wangw\AppData\Local\Temp\ccLETVy1.s 			page 105


 4389              		.align	2
 4390              	.L292:
 4391 0584 00000000 		.word	.LANCHOR12
 4392 0588 00000000 		.word	.LANCHOR18
 4393 058c 00000000 		.word	.LANCHOR10
 4394 0590 00000000 		.word	.LANCHOR21
 4395 0594 00000000 		.word	.LANCHOR11
 4396 0598 00000000 		.word	.LANCHOR4
 4397 059c 00000000 		.word	.LANCHOR22
 4398 05a0 00100140 		.word	1073811456
 4399 05a4 00000000 		.word	.LANCHOR2
 4400 05a8 56555555 		.word	1431655766
 4401              	.L254:
 456:Core/Src/main.c **** 
 4402              		.loc 1 456 21 is_stmt 1 view .LVU1004
 4403 05ac 4FF44860 		mov	r0, #3200
 4404 05b0 FFF7FEFF 		bl	rotate_clockwise_plus_forward
 4405              	.LVL499:
 459:Core/Src/main.c ****                     {
 4406              		.loc 1 459 21 view .LVU1005
 459:Core/Src/main.c ****                     {
 4407              		.loc 1 459 25 is_stmt 0 view .LVU1006
 4408 05b4 8048     		ldr	r0, .L294
 4409 05b6 814B     		ldr	r3, .L294+4
 4410 05b8 03F10802 		add	r2, r3, #8
 4411 05bc 0692     		str	r2, [sp, #24]
 4412 05be 0593     		str	r3, [sp, #20]
 4413 05c0 C369     		ldr	r3, [r0, #28]
 4414 05c2 0493     		str	r3, [sp, #16]
 4415 05c4 438B     		ldrh	r3, [r0, #26]
 4416 05c6 0393     		str	r3, [sp, #12]
 4417 05c8 038B     		ldrh	r3, [r0, #24]
 4418 05ca 0293     		str	r3, [sp, #8]
 4419 05cc 0369     		ldr	r3, [r0, #16]
 4420 05ce 0193     		str	r3, [sp, #4]
 4421 05d0 C389     		ldrh	r3, [r0, #14]
 4422 05d2 0093     		str	r3, [sp]
 4423 05d4 8389     		ldrh	r3, [r0, #12]
 4424 05d6 4268     		ldr	r2, [r0, #4]
 4425 05d8 4188     		ldrh	r1, [r0, #2]
 4426 05da 0088     		ldrh	r0, [r0]
 4427 05dc FFF7FEFF 		bl	Solve_Mine_Pos
 4428              	.LVL500:
 459:Core/Src/main.c ****                     {
 4429              		.loc 1 459 24 view .LVU1007
 4430 05e0 B8B1     		cbz	r0, .L276
 459:Core/Src/main.c ****                     {
 4431              		.loc 1 459 226 discriminator 1 view .LVU1008
 4432 05e2 7548     		ldr	r0, .L294
 4433 05e4 754B     		ldr	r3, .L294+4
 4434 05e6 03F10C02 		add	r2, r3, #12
 4435 05ea 0692     		str	r2, [sp, #24]
 4436 05ec 0433     		adds	r3, r3, #4
 4437 05ee 0593     		str	r3, [sp, #20]
 4438 05f0 036A     		ldr	r3, [r0, #32]
 4439 05f2 0493     		str	r3, [sp, #16]
 4440 05f4 438B     		ldrh	r3, [r0, #26]
ARM GAS  C:\Users\wangw\AppData\Local\Temp\ccLETVy1.s 			page 106


 4441 05f6 0393     		str	r3, [sp, #12]
 4442 05f8 038B     		ldrh	r3, [r0, #24]
 4443 05fa 0293     		str	r3, [sp, #8]
 4444 05fc 4369     		ldr	r3, [r0, #20]
 4445 05fe 0193     		str	r3, [sp, #4]
 4446 0600 C389     		ldrh	r3, [r0, #14]
 4447 0602 0093     		str	r3, [sp]
 4448 0604 8389     		ldrh	r3, [r0, #12]
 4449 0606 8268     		ldr	r2, [r0, #8]
 4450 0608 4188     		ldrh	r1, [r0, #2]
 4451 060a 0088     		ldrh	r0, [r0]
 4452 060c FFF7FEFF 		bl	Solve_Mine_Pos
 4453              	.LVL501:
 459:Core/Src/main.c ****                     {
 4454              		.loc 1 459 223 discriminator 1 view .LVU1009
 4455 0610 98BB     		cbnz	r0, .L285
 4456              	.L276:
 470:Core/Src/main.c ****                         Prev_Pos[Prev_Pos_head].y = getCarPosY();          //Âêå‰∏ä
 4457              		.loc 1 470 25 is_stmt 1 view .LVU1010
 470:Core/Src/main.c ****                         Prev_Pos[Prev_Pos_head].y = getCarPosY();          //Âêå‰∏ä
 4458              		.loc 1 470 48 is_stmt 0 view .LVU1011
 4459 0612 6B4C     		ldr	r4, .L294+8
 4460 0614 B4F90060 		ldrsh	r6, [r4]
 470:Core/Src/main.c ****                         Prev_Pos[Prev_Pos_head].y = getCarPosY();          //Âêå‰∏ä
 4461              		.loc 1 470 53 view .LVU1012
 4462 0618 FFF7FEFF 		bl	getCarPosX
 4463              	.LVL502:
 470:Core/Src/main.c ****                         Prev_Pos[Prev_Pos_head].y = getCarPosY();          //Âêå‰∏ä
 4464              		.loc 1 470 51 view .LVU1013
 4465 061c 664D     		ldr	r5, .L294
 4466 061e 06EB4606 		add	r6, r6, r6, lsl #1
 4467 0622 25F82600 		strh	r0, [r5, r6, lsl #2]	@ movhi
 471:Core/Src/main.c ****                         Prev_Pos[Prev_Pos_head].E_1 = getMineIntensity(0); //Âà©Áî®getMineIntensity
 4468              		.loc 1 471 25 is_stmt 1 view .LVU1014
 471:Core/Src/main.c ****                         Prev_Pos[Prev_Pos_head].E_1 = getMineIntensity(0); //Âà©Áî®getMineIntensity
 4469              		.loc 1 471 48 is_stmt 0 view .LVU1015
 4470 0626 B4F90060 		ldrsh	r6, [r4]
 471:Core/Src/main.c ****                         Prev_Pos[Prev_Pos_head].E_1 = getMineIntensity(0); //Âà©Áî®getMineIntensity
 4471              		.loc 1 471 53 view .LVU1016
 4472 062a FFF7FEFF 		bl	getCarPosY
 4473              	.LVL503:
 471:Core/Src/main.c ****                         Prev_Pos[Prev_Pos_head].E_1 = getMineIntensity(0); //Âà©Áî®getMineIntensity
 4474              		.loc 1 471 51 view .LVU1017
 4475 062e 06EB4606 		add	r6, r6, r6, lsl #1
 4476 0632 05EB8603 		add	r3, r5, r6, lsl #2
 4477 0636 5880     		strh	r0, [r3, #2]	@ movhi
 472:Core/Src/main.c ****                         Prev_Pos[Prev_Pos_head].E_1 = getMineIntensity(1); //Âêå‰∏ä
 4478              		.loc 1 472 25 is_stmt 1 view .LVU1018
 472:Core/Src/main.c ****                         Prev_Pos[Prev_Pos_head].E_1 = getMineIntensity(1); //Âêå‰∏ä
 4479              		.loc 1 472 48 is_stmt 0 view .LVU1019
 4480 0638 B4F90060 		ldrsh	r6, [r4]
 472:Core/Src/main.c ****                         Prev_Pos[Prev_Pos_head].E_1 = getMineIntensity(1); //Âêå‰∏ä
 4481              		.loc 1 472 55 view .LVU1020
 4482 063c 0020     		movs	r0, #0
 4483 063e FFF7FEFF 		bl	getMineIntensity
 4484              	.LVL504:
 472:Core/Src/main.c ****                         Prev_Pos[Prev_Pos_head].E_1 = getMineIntensity(1); //Âêå‰∏ä
ARM GAS  C:\Users\wangw\AppData\Local\Temp\ccLETVy1.s 			page 107


 4485              		.loc 1 472 53 view .LVU1021
 4486 0642 06EB4606 		add	r6, r6, r6, lsl #1
 4487 0646 05EB8603 		add	r3, r5, r6, lsl #2
 4488 064a 5860     		str	r0, [r3, #4]
 473:Core/Src/main.c ****                         Prev_Pos_head = (Prev_Pos_head + 1) % 3;           //Â§¥ÊåáÈíàÂæ™ÁéØÂú∞ÂêéÁ
 4489              		.loc 1 473 25 is_stmt 1 view .LVU1022
 473:Core/Src/main.c ****                         Prev_Pos_head = (Prev_Pos_head + 1) % 3;           //Â§¥ÊåáÈíàÂæ™ÁéØÂú∞ÂêéÁ
 4490              		.loc 1 473 48 is_stmt 0 view .LVU1023
 4491 064c B4F90060 		ldrsh	r6, [r4]
 473:Core/Src/main.c ****                         Prev_Pos_head = (Prev_Pos_head + 1) % 3;           //Â§¥ÊåáÈíàÂæ™ÁéØÂú∞ÂêéÁ
 4492              		.loc 1 473 55 view .LVU1024
 4493 0650 0120     		movs	r0, #1
 4494 0652 FFF7FEFF 		bl	getMineIntensity
 4495              	.LVL505:
 473:Core/Src/main.c ****                         Prev_Pos_head = (Prev_Pos_head + 1) % 3;           //Â§¥ÊåáÈíàÂæ™ÁéØÂú∞ÂêéÁ
 4496              		.loc 1 473 53 view .LVU1025
 4497 0656 06EB4606 		add	r6, r6, r6, lsl #1
 4498 065a 05EB8605 		add	r5, r5, r6, lsl #2
 4499 065e 6860     		str	r0, [r5, #4]
 474:Core/Src/main.c ****                     }
 4500              		.loc 1 474 25 is_stmt 1 view .LVU1026
 474:Core/Src/main.c ****                     }
 4501              		.loc 1 474 56 is_stmt 0 view .LVU1027
 4502 0660 B4F90020 		ldrsh	r2, [r4]
 4503 0664 0132     		adds	r2, r2, #1
 474:Core/Src/main.c ****                     }
 4504              		.loc 1 474 61 view .LVU1028
 4505 0666 574B     		ldr	r3, .L294+12
 4506 0668 83FB0213 		smull	r1, r3, r3, r2
 4507 066c A3EBE273 		sub	r3, r3, r2, asr #31
 4508 0670 03EB4303 		add	r3, r3, r3, lsl #1
 4509 0674 D31A     		subs	r3, r2, r3
 474:Core/Src/main.c ****                     }
 4510              		.loc 1 474 39 view .LVU1029
 4511 0676 2380     		strh	r3, [r4]	@ movhi
 4512 0678 52E0     		b	.L245
 4513              	.L285:
 462:Core/Src/main.c ****                         //Á°ÆÂÆöÁ¶ªËΩ¶ÊúÄËøëÁöÑËµÑÊ∫ê
 4514              		.loc 1 462 25 is_stmt 1 view .LVU1030
 462:Core/Src/main.c ****                         //Á°ÆÂÆöÁ¶ªËΩ¶ÊúÄËøëÁöÑËµÑÊ∫ê
 4515              		.loc 1 462 31 is_stmt 0 view .LVU1031
 4516 067a 534B     		ldr	r3, .L294+16
 4517 067c 0B22     		movs	r2, #11
 4518 067e 1A60     		str	r2, [r3]
 464:Core/Src/main.c ****                         resource_location.priority = (resource_location.x[0] * resource_location.x[
 4519              		.loc 1 464 25 is_stmt 1 view .LVU1032
 464:Core/Src/main.c ****                         resource_location.priority = (resource_location.x[0] * resource_location.x[
 4520              		.loc 1 464 39 is_stmt 0 view .LVU1033
 4521 0680 FFF7FEFF 		bl	getCarMineSumNum
 4522              	.LVL506:
 464:Core/Src/main.c ****                         resource_location.priority = (resource_location.x[0] * resource_location.x[
 4523              		.loc 1 464 37 view .LVU1034
 4524 0684 514B     		ldr	r3, .L294+20
 4525 0686 1860     		str	r0, [r3]
 465:Core/Src/main.c ****                     }
 4526              		.loc 1 465 25 is_stmt 1 view .LVU1035
 465:Core/Src/main.c ****                     }
ARM GAS  C:\Users\wangw\AppData\Local\Temp\ccLETVy1.s 			page 108


 4527              		.loc 1 465 74 is_stmt 0 view .LVU1036
 4528 0688 4C4A     		ldr	r2, .L294+4
 4529 068a 1368     		ldr	r3, [r2]
 465:Core/Src/main.c ****                     }
 4530              		.loc 1 465 124 view .LVU1037
 4531 068c 9168     		ldr	r1, [r2, #8]
 465:Core/Src/main.c ****                     }
 4532              		.loc 1 465 128 view .LVU1038
 4533 068e 01FB01F1 		mul	r1, r1, r1
 465:Core/Src/main.c ****                     }
 4534              		.loc 1 465 103 view .LVU1039
 4535 0692 03FB0313 		mla	r3, r3, r3, r1
 465:Core/Src/main.c ****                     }
 4536              		.loc 1 465 176 view .LVU1040
 4537 0696 5168     		ldr	r1, [r2, #4]
 465:Core/Src/main.c ****                     }
 4538              		.loc 1 465 226 view .LVU1041
 4539 0698 D068     		ldr	r0, [r2, #12]
 465:Core/Src/main.c ****                     }
 4540              		.loc 1 465 230 view .LVU1042
 4541 069a 00FB00F0 		mul	r0, r0, r0
 465:Core/Src/main.c ****                     }
 4542              		.loc 1 465 205 view .LVU1043
 4543 069e 01FB0101 		mla	r1, r1, r1, r0
 465:Core/Src/main.c ****                     }
 4544              		.loc 1 465 260 view .LVU1044
 4545 06a2 8B42     		cmp	r3, r1
 4546 06a4 B4BF     		ite	lt
 4547 06a6 0023     		movlt	r3, #0
 4548 06a8 0123     		movge	r3, #1
 465:Core/Src/main.c ****                     }
 4549              		.loc 1 465 52 view .LVU1045
 4550 06aa 5361     		str	r3, [r2, #20]
 4551 06ac 38E0     		b	.L245
 4552              	.L253:
 479:Core/Src/main.c ****                     if (getCarMineSumNum() > current_Res)
 4553              		.loc 1 479 21 is_stmt 1 view .LVU1046
 479:Core/Src/main.c ****                     if (getCarMineSumNum() > current_Res)
 4554              		.loc 1 479 64 is_stmt 0 view .LVU1047
 4555 06ae 434A     		ldr	r2, .L294+4
 4556 06b0 5369     		ldr	r3, [r2, #20]
 479:Core/Src/main.c ****                     if (getCarMineSumNum() > current_Res)
 4557              		.loc 1 479 46 view .LVU1048
 4558 06b2 B3FA83F3 		clz	r3, r3
 4559 06b6 5B09     		lsrs	r3, r3, #5
 479:Core/Src/main.c ****                     if (getCarMineSumNum() > current_Res)
 4560              		.loc 1 479 21 view .LVU1049
 4561 06b8 991C     		adds	r1, r3, #2
 4562 06ba 52F82110 		ldr	r1, [r2, r1, lsl #2]
 4563 06be 52F82300 		ldr	r0, [r2, r3, lsl #2]
 4564 06c2 FFF7FEFF 		bl	Goto
 4565              	.LVL507:
 480:Core/Src/main.c ****                     {
 4566              		.loc 1 480 21 is_stmt 1 view .LVU1050
 480:Core/Src/main.c ****                     {
 4567              		.loc 1 480 25 is_stmt 0 view .LVU1051
 4568 06c6 FFF7FEFF 		bl	getCarMineSumNum
ARM GAS  C:\Users\wangw\AppData\Local\Temp\ccLETVy1.s 			page 109


 4569              	.LVL508:
 480:Core/Src/main.c ****                     {
 4570              		.loc 1 480 44 view .LVU1052
 4571 06ca 404B     		ldr	r3, .L294+20
 4572 06cc 1B68     		ldr	r3, [r3]
 480:Core/Src/main.c ****                     {
 4573              		.loc 1 480 24 view .LVU1053
 4574 06ce 9842     		cmp	r0, r3
 4575 06d0 26DD     		ble	.L245
 482:Core/Src/main.c ****                         if (getCarMineSumNum() == 10) //Êª°ËΩΩ
 4576              		.loc 1 482 25 is_stmt 1 view .LVU1054
 482:Core/Src/main.c ****                         if (getCarMineSumNum() == 10) //Êª°ËΩΩ
 4577              		.loc 1 482 31 is_stmt 0 view .LVU1055
 4578 06d2 3D4B     		ldr	r3, .L294+16
 4579 06d4 0A22     		movs	r2, #10
 4580 06d6 1A60     		str	r2, [r3]
 483:Core/Src/main.c ****                             State = 12;               //ËÄåÂΩí
 4581              		.loc 1 483 25 is_stmt 1 view .LVU1056
 483:Core/Src/main.c ****                             State = 12;               //ËÄåÂΩí
 4582              		.loc 1 483 29 is_stmt 0 view .LVU1057
 4583 06d8 FFF7FEFF 		bl	getCarMineSumNum
 4584              	.LVL509:
 483:Core/Src/main.c ****                             State = 12;               //ËÄåÂΩí
 4585              		.loc 1 483 28 view .LVU1058
 4586 06dc 0A28     		cmp	r0, #10
 4587 06de 1FD1     		bne	.L245
 484:Core/Src/main.c ****                     }
 4588              		.loc 1 484 29 is_stmt 1 view .LVU1059
 484:Core/Src/main.c ****                     }
 4589              		.loc 1 484 35 is_stmt 0 view .LVU1060
 4590 06e0 394B     		ldr	r3, .L294+16
 4591 06e2 0C22     		movs	r2, #12
 4592 06e4 1A60     		str	r2, [r3]
 4593 06e6 1BE0     		b	.L245
 4594              	.L252:
 490:Core/Src/main.c ****                     State = 13;
 4595              		.loc 1 490 21 is_stmt 1 view .LVU1061
 4596 06e8 394B     		ldr	r3, .L294+24
 4597 06ea 5968     		ldr	r1, [r3, #4]
 4598 06ec 1868     		ldr	r0, [r3]
 4599 06ee FFF7FEFF 		bl	Get_Rep_opt
 4600              	.LVL510:
 491:Core/Src/main.c ****                     // break;
 4601              		.loc 1 491 21 view .LVU1062
 491:Core/Src/main.c ****                     // break;
 4602              		.loc 1 491 27 is_stmt 0 view .LVU1063
 4603 06f2 354B     		ldr	r3, .L294+16
 4604 06f4 0D22     		movs	r2, #13
 4605 06f6 1A60     		str	r2, [r3]
 4606              	.L250:
 495:Core/Src/main.c ****                     {
 4607              		.loc 1 495 21 is_stmt 1 view .LVU1064
 495:Core/Src/main.c ****                     {
 4608              		.loc 1 495 33 is_stmt 0 view .LVU1065
 4609 06f8 354A     		ldr	r2, .L294+24
 4610 06fa 1368     		ldr	r3, [r2]
 495:Core/Src/main.c ****                     {
ARM GAS  C:\Users\wangw\AppData\Local\Temp\ccLETVy1.s 			page 110


 4611              		.loc 1 495 50 view .LVU1066
 4612 06fc 3549     		ldr	r1, .L294+28
 4613 06fe 0868     		ldr	r0, [r1]
 495:Core/Src/main.c ****                     {
 4614              		.loc 1 495 37 view .LVU1067
 4615 0700 1B1A     		subs	r3, r3, r0
 495:Core/Src/main.c ****                     {
 4616              		.loc 1 495 95 view .LVU1068
 4617 0702 5268     		ldr	r2, [r2, #4]
 495:Core/Src/main.c ****                     {
 4618              		.loc 1 495 112 view .LVU1069
 4619 0704 4968     		ldr	r1, [r1, #4]
 495:Core/Src/main.c ****                     {
 4620              		.loc 1 495 99 view .LVU1070
 4621 0706 521A     		subs	r2, r2, r1
 495:Core/Src/main.c ****                     {
 4622              		.loc 1 495 117 view .LVU1071
 4623 0708 02FB02F2 		mul	r2, r2, r2
 495:Core/Src/main.c ****                     {
 4624              		.loc 1 495 86 view .LVU1072
 4625 070c 03FB0323 		mla	r3, r3, r3, r2
 495:Core/Src/main.c ****                     {
 4626              		.loc 1 495 24 view .LVU1073
 4627 0710 132B     		cmp	r3, #19
 4628 0712 4DDC     		bgt	.L277
 497:Core/Src/main.c ****                         if (count_rep > 20)
 4629              		.loc 1 497 25 is_stmt 1 view .LVU1074
 497:Core/Src/main.c ****                         if (count_rep > 20)
 4630              		.loc 1 497 34 is_stmt 0 view .LVU1075
 4631 0714 304A     		ldr	r2, .L294+32
 4632 0716 1368     		ldr	r3, [r2]
 4633 0718 0133     		adds	r3, r3, #1
 4634 071a 1360     		str	r3, [r2]
 498:Core/Src/main.c ****                         {
 4635              		.loc 1 498 25 is_stmt 1 view .LVU1076
 498:Core/Src/main.c ****                         {
 4636              		.loc 1 498 28 is_stmt 0 view .LVU1077
 4637 071c 142B     		cmp	r3, #20
 4638 071e 39DC     		bgt	.L286
 4639              	.L245:
 284:Core/Src/main.c ****     {
 4640              		.loc 1 284 5 is_stmt 1 view .LVU1078
 289:Core/Src/main.c ****             trigger=0;          //ÈáçÁΩÆËß¶ÂèëÊ†áÂøóÈáè
 4641              		.loc 1 289 9 view .LVU1079
 289:Core/Src/main.c ****             trigger=0;          //ÈáçÁΩÆËß¶ÂèëÊ†áÂøóÈáè
 4642              		.loc 1 289 13 is_stmt 0 view .LVU1080
 4643 0720 2E4B     		ldr	r3, .L294+36
 4644 0722 B3F90030 		ldrsh	r3, [r3]
 289:Core/Src/main.c ****             trigger=0;          //ÈáçÁΩÆËß¶ÂèëÊ†áÂøóÈáè
 4645              		.loc 1 289 12 view .LVU1081
 4646 0726 002B     		cmp	r3, #0
 4647 0728 FAD0     		beq	.L245
 290:Core/Src/main.c ****             ///////////////////////////////////Âà§Êñ≠ÊØîËµõÁä∂ÊÄÅ//////////////////////////////////
 4648              		.loc 1 290 13 is_stmt 1 view .LVU1082
 290:Core/Src/main.c ****             ///////////////////////////////////Âà§Êñ≠ÊØîËµõÁä∂ÊÄÅ//////////////////////////////////
 4649              		.loc 1 290 20 is_stmt 0 view .LVU1083
 4650 072a 2C4B     		ldr	r3, .L294+36
ARM GAS  C:\Users\wangw\AppData\Local\Temp\ccLETVy1.s 			page 111


 4651 072c 0022     		movs	r2, #0
 4652 072e 1A80     		strh	r2, [r3]	@ movhi
 292:Core/Src/main.c ****                 State = -1;
 4653              		.loc 1 292 13 is_stmt 1 view .LVU1084
 292:Core/Src/main.c ****                 State = -1;
 4654              		.loc 1 292 17 is_stmt 0 view .LVU1085
 4655 0730 FFF7FEFF 		bl	getGameState
 4656              	.LVL511:
 292:Core/Src/main.c ****                 State = -1;
 4657              		.loc 1 292 16 view .LVU1086
 4658 0734 0328     		cmp	r0, #3
 4659 0736 3FF4FAAC 		beq	.L287
 4660              	.L246:
 295:Core/Src/main.c ****                 State = 0;
 4661              		.loc 1 295 13 is_stmt 1 view .LVU1087
 295:Core/Src/main.c ****                 State = 0;
 4662              		.loc 1 295 18 is_stmt 0 view .LVU1088
 4663 073a FFF7FEFF 		bl	getGameState
 4664              	.LVL512:
 295:Core/Src/main.c ****                 State = 0;
 4665              		.loc 1 295 16 view .LVU1089
 4666 073e 0128     		cmp	r0, #1
 4667 0740 3FF4FAAC 		beq	.L288
 4668              	.L247:
 298:Core/Src/main.c ****                 Round=1;
 4669              		.loc 1 298 13 is_stmt 1 view .LVU1090
 298:Core/Src/main.c ****                 Round=1;
 4670              		.loc 1 298 18 is_stmt 0 view .LVU1091
 4671 0744 FFF7FEFF 		bl	getGameState
 4672              	.LVL513:
 298:Core/Src/main.c ****                 Round=1;
 4673              		.loc 1 298 16 view .LVU1092
 4674 0748 0128     		cmp	r0, #1
 4675 074a 3FF403AD 		beq	.L289
 4676              	.L248:
 309:Core/Src/main.c ****                 case (0): //ÂàùÂßãÁä∂ÊÄÅ??
 4677              		.loc 1 309 13 is_stmt 1 view .LVU1093
 4678 074e 1E4B     		ldr	r3, .L294+16
 4679 0750 1B68     		ldr	r3, [r3]
 4680 0752 0D2B     		cmp	r3, #13
 4681 0754 E4D8     		bhi	.L245
 4682 0756 01A2     		adr	r2, .L251
 4683 0758 52F823F0 		ldr	pc, [r2, r3, lsl #2]
 4684              		.p2align 2
 4685              	.L251:
 4686 075c C1010000 		.word	.L261+1
 4687 0760 BD020000 		.word	.L260+1
 4688 0764 31030000 		.word	.L259+1
 4689 0768 61030000 		.word	.L258+1
 4690 076c F9030000 		.word	.L257+1
 4691 0770 97040000 		.word	.L256+1
 4692 0774 35050000 		.word	.L255+1
 4693 0778 21070000 		.word	.L245+1
 4694 077c 21070000 		.word	.L245+1
 4695 0780 21070000 		.word	.L245+1
 4696 0784 AD050000 		.word	.L254+1
 4697 0788 AF060000 		.word	.L253+1
ARM GAS  C:\Users\wangw\AppData\Local\Temp\ccLETVy1.s 			page 112


 4698 078c E9060000 		.word	.L252+1
 4699 0790 F9060000 		.word	.L250+1
 4700              		.p2align 1
 4701              	.L286:
 500:Core/Src/main.c ****                             count_rep = 0;
 4702              		.loc 1 500 29 view .LVU1094
 500:Core/Src/main.c ****                             count_rep = 0;
 4703              		.loc 1 500 35 is_stmt 0 view .LVU1095
 4704 0794 0C4B     		ldr	r3, .L294+16
 4705 0796 0C22     		movs	r2, #12
 4706 0798 1A60     		str	r2, [r3]
 501:Core/Src/main.c ****                             if (getCarMineSumNum() == 0) //ÂÖ®ÈÉ®Âç∏ËΩΩ
 4707              		.loc 1 501 29 is_stmt 1 view .LVU1096
 501:Core/Src/main.c ****                             if (getCarMineSumNum() == 0) //ÂÖ®ÈÉ®Âç∏ËΩΩ
 4708              		.loc 1 501 39 is_stmt 0 view .LVU1097
 4709 079a 0F4B     		ldr	r3, .L294+32
 4710 079c 0022     		movs	r2, #0
 4711 079e 1A60     		str	r2, [r3]
 502:Core/Src/main.c ****                                 State = 10;
 4712              		.loc 1 502 29 is_stmt 1 view .LVU1098
 502:Core/Src/main.c ****                                 State = 10;
 4713              		.loc 1 502 33 is_stmt 0 view .LVU1099
 4714 07a0 FFF7FEFF 		bl	getCarMineSumNum
 4715              	.LVL514:
 502:Core/Src/main.c ****                                 State = 10;
 4716              		.loc 1 502 32 view .LVU1100
 4717 07a4 0028     		cmp	r0, #0
 4718 07a6 BBD1     		bne	.L245
 503:Core/Src/main.c ****                         }
 4719              		.loc 1 503 33 is_stmt 1 view .LVU1101
 503:Core/Src/main.c ****                         }
 4720              		.loc 1 503 39 is_stmt 0 view .LVU1102
 4721 07a8 074B     		ldr	r3, .L294+16
 4722 07aa 0A22     		movs	r2, #10
 4723 07ac 1A60     		str	r2, [r3]
 4724 07ae B7E7     		b	.L245
 4725              	.L277:
 507:Core/Src/main.c ****                     break;
 4726              		.loc 1 507 25 is_stmt 1 view .LVU1103
 4727 07b0 FFF7FEFF 		bl	Goto
 4728              	.LVL515:
 4729 07b4 B4E7     		b	.L245
 4730              	.L295:
 4731 07b6 00BF     		.align	2
 4732              	.L294:
 4733 07b8 00000000 		.word	.LANCHOR19
 4734 07bc 00000000 		.word	.LANCHOR12
 4735 07c0 00000000 		.word	.LANCHOR20
 4736 07c4 56555555 		.word	1431655766
 4737 07c8 00000000 		.word	.LANCHOR18
 4738 07cc 00000000 		.word	.LANCHOR23
 4739 07d0 00000000 		.word	.LANCHOR4
 4740 07d4 00000000 		.word	.LANCHOR17
 4741 07d8 00000000 		.word	.LANCHOR24
 4742 07dc 00000000 		.word	.LANCHOR6
 4743              		.cfi_endproc
 4744              	.LFE66:
ARM GAS  C:\Users\wangw\AppData\Local\Temp\ccLETVy1.s 			page 113


 4746              		.global	state
 4747              		.global	Kd
 4748              		.global	Ki
 4749              		.global	Kp
 4750              		.global	ATAN_LUT
 4751              		.global	current_Res
 4752              		.global	count_rep
 4753              		.global	prev_type
 4754              		.global	destination
 4755              		.global	State
 4756              		.global	beacon_idx
 4757              		.global	beacons
 4758              		.global	rep
 4759              		.global	dis_pre
 4760              		.global	dis_cur
 4761              		.global	goto_state
 4762              		.global	trigger
 4763              		.global	Round
 4764              		.global	now
 4765              		.global	count_storehouse
 4766              		.global	count_beacon
 4767              		.global	count_pos
 4768              		.global	score
 4769              		.global	resource_location
 4770              		.global	Prev_Pos_head
 4771              		.global	Prev_Pos
 4772              		.global	beacon_determinant
 4773              		.global	car_Pos
 4774              		.global	beacon_Pos
 4775              		.global	distance4
 4776              		.global	distance3
 4777              		.global	distance2
 4778              		.global	distance1
 4779              		.section	.bss.Prev_Pos,"aw",%nobits
 4780              		.align	2
 4781              		.set	.LANCHOR19,. + 0
 4784              	Prev_Pos:
 4785 0000 00000000 		.space	36
 4785      00000000 
 4785      00000000 
 4785      00000000 
 4785      00000000 
 4786              		.section	.bss.Prev_Pos_head,"aw",%nobits
 4787              		.align	1
 4788              		.set	.LANCHOR20,. + 0
 4791              	Prev_Pos_head:
 4792 0000 0000     		.space	2
 4793              		.section	.bss.beacon_Pos,"aw",%nobits
 4794              		.align	2
 4795              		.set	.LANCHOR2,. + 0
 4798              	beacon_Pos:
 4799 0000 00000000 		.space	24
 4799      00000000 
 4799      00000000 
 4799      00000000 
 4799      00000000 
 4800              		.section	.bss.beacon_determinant,"aw",%nobits
ARM GAS  C:\Users\wangw\AppData\Local\Temp\ccLETVy1.s 			page 114


 4801              		.align	3
 4802              		.set	.LANCHOR3,. + 0
 4805              	beacon_determinant:
 4806 0000 00000000 		.space	8
 4806      00000000 
 4807              		.section	.bss.car_Pos,"aw",%nobits
 4808              		.align	2
 4809              		.set	.LANCHOR4,. + 0
 4812              	car_Pos:
 4813 0000 00000000 		.space	8
 4813      00000000 
 4814              		.section	.bss.count_beacon,"aw",%nobits
 4815              		.align	2
 4816              		.set	.LANCHOR22,. + 0
 4819              	count_beacon:
 4820 0000 00000000 		.space	4
 4821              		.section	.bss.count_pos,"aw",%nobits
 4822              		.align	2
 4823              		.set	.LANCHOR5,. + 0
 4826              	count_pos:
 4827 0000 00000000 		.space	4
 4828              		.section	.bss.count_rep,"aw",%nobits
 4829              		.align	2
 4830              		.set	.LANCHOR24,. + 0
 4833              	count_rep:
 4834 0000 00000000 		.space	4
 4835              		.section	.bss.count_storehouse,"aw",%nobits
 4836              		.align	2
 4839              	count_storehouse:
 4840 0000 00000000 		.space	4
 4841              		.section	.bss.curr_err.1,"aw",%nobits
 4842              		.align	3
 4843              		.set	.LANCHOR8,. + 0
 4846              	curr_err.1:
 4847 0000 00000000 		.space	8
 4847      00000000 
 4848              		.section	.bss.current_Res,"aw",%nobits
 4849              		.align	2
 4850              		.set	.LANCHOR23,. + 0
 4853              	current_Res:
 4854 0000 00000000 		.space	4
 4855              		.section	.bss.destination,"aw",%nobits
 4856              		.align	2
 4857              		.set	.LANCHOR17,. + 0
 4860              	destination:
 4861 0000 00000000 		.space	8
 4861      00000000 
 4862              		.section	.bss.dis_cur,"aw",%nobits
 4863              		.align	2
 4864              		.set	.LANCHOR13,. + 0
 4867              	dis_cur:
 4868 0000 00000000 		.space	4
 4869              		.section	.bss.dis_pre,"aw",%nobits
 4870              		.align	2
 4871              		.set	.LANCHOR14,. + 0
 4874              	dis_pre:
 4875 0000 00000000 		.space	4
ARM GAS  C:\Users\wangw\AppData\Local\Temp\ccLETVy1.s 			page 115


 4876              		.section	.bss.distance1,"aw",%nobits
 4877              		.align	2
 4880              	distance1:
 4881 0000 00000000 		.space	4
 4882              		.section	.bss.distance2,"aw",%nobits
 4883              		.align	2
 4886              	distance2:
 4887 0000 00000000 		.space	4
 4888              		.section	.bss.distance3,"aw",%nobits
 4889              		.align	2
 4892              	distance3:
 4893 0000 00000000 		.space	4
 4894              		.section	.bss.distance4,"aw",%nobits
 4895              		.align	2
 4898              	distance4:
 4899 0000 00000000 		.space	4
 4900              		.section	.bss.goto_state,"aw",%nobits
 4901              		.align	2
 4902              		.set	.LANCHOR10,. + 0
 4905              	goto_state:
 4906 0000 00000000 		.space	4
 4907              		.section	.bss.now,"aw",%nobits
 4908              		.align	1
 4911              	now:
 4912 0000 0000     		.space	2
 4913              		.section	.bss.prev_err.0,"aw",%nobits
 4914              		.align	3
 4915              		.set	.LANCHOR9,. + 0
 4918              	prev_err.0:
 4919 0000 00000000 		.space	8
 4919      00000000 
 4920              		.section	.bss.prev_type,"aw",%nobits
 4921              		.align	2
 4922              		.set	.LANCHOR15,. + 0
 4925              	prev_type:
 4926 0000 00000000 		.space	4
 4927              		.section	.bss.score,"aw",%nobits
 4928              		.align	2
 4931              	score:
 4932 0000 00000000 		.space	4
 4933              		.section	.bss.state,"aw",%nobits
 4934              		.align	2
 4935              		.set	.LANCHOR0,. + 0
 4938              	state:
 4939 0000 00000000 		.space	12
 4939      00000000 
 4939      00000000 
 4940              		.section	.bss.trigger,"aw",%nobits
 4941              		.align	1
 4942              		.set	.LANCHOR6,. + 0
 4945              	trigger:
 4946 0000 0000     		.space	2
 4947              		.section	.data.Round,"aw"
 4948              		.align	1
 4949              		.set	.LANCHOR7,. + 0
 4952              	Round:
 4953 0000 0100     		.short	1
ARM GAS  C:\Users\wangw\AppData\Local\Temp\ccLETVy1.s 			page 116


 4954              		.section	.data.State,"aw"
 4955              		.align	2
 4956              		.set	.LANCHOR18,. + 0
 4959              	State:
 4960 0000 FFFFFFFF 		.word	-1
 4961              		.section	.data.beacon_idx,"aw"
 4962              		.align	2
 4963              		.set	.LANCHOR21,. + 0
 4966              	beacon_idx:
 4967 0000 FFFFFFFF 		.word	-1
 4968              		.section	.data.beacons,"aw"
 4969              		.align	2
 4970              		.set	.LANCHOR11,. + 0
 4973              	beacons:
 4974 0000 7F000000 		.word	127
 4975 0004 1E000000 		.word	30
 4976 0008 7F000000 		.word	127
 4977 000c 7F000000 		.word	127
 4978 0010 3C000000 		.word	60
 4979 0014 7F000000 		.word	127
 4980              		.section	.data.rep,"aw"
 4981              		.align	2
 4982              		.set	.LANCHOR16,. + 0
 4985              	rep:
 4986 0000 0F000000 		.word	15
 4987 0004 0F000000 		.word	15
 4988 0008 7F000000 		.word	127
 4989 000c 0F000000 		.word	15
 4990 0010 EF000000 		.word	239
 4991 0014 7F000000 		.word	127
 4992 0018 EF000000 		.word	239
 4993 001c EF000000 		.word	239
 4994 0020 7F000000 		.word	127
 4995 0024 EF000000 		.word	239
 4996 0028 0F000000 		.word	15
 4997 002c EF000000 		.word	239
 4998 0030 0F000000 		.word	15
 4999 0034 7F000000 		.word	127
 5000 0038 00000000 		.space	8
 5000      00000000 
 5001              		.section	.data.resource_location,"aw"
 5002              		.align	2
 5003              		.set	.LANCHOR12,. + 0
 5006              	resource_location:
 5007 0000 FFFFFFFF 		.word	-1
 5008 0004 FFFFFFFF 		.word	-1
 5009 0008 FFFFFFFF 		.word	-1
 5010 000c FFFFFFFF 		.word	-1
 5011 0010 00000000 		.word	0
 5012 0014 FFFFFFFF 		.word	-1
 5013              		.section	.rodata.ATAN_LUT,"a"
 5014              		.align	3
 5015              		.set	.LANCHOR1,. + 0
 5018              	ATAN_LUT:
 5019 0000 00000000 		.word	0
 5020 0004 00000000 		.word	0
 5021 0008 5433EAA8 		.word	-1461046444
ARM GAS  C:\Users\wangw\AppData\Local\Temp\ccLETVy1.s 			page 117


 5022 000c 0A10703F 		.word	1064308746
 5023 0010 CC612179 		.word	2032230860
 5024 0014 FA0F803F 		.word	1065357306
 5025 0018 DF063C3E 		.word	1044121311
 5026 001c CF17883F 		.word	1065883599
 5027 0020 AAE9B5BB 		.word	-1145706070
 5028 0024 B90F903F 		.word	1066405817
 5029 0028 D1C82B7C 		.word	2083244241
 5030 002c 6B13943F 		.word	1066668907
 5031 0030 1E0653CA 		.word	-900528610
 5032 0034 F416983F 		.word	1066931956
 5033 0038 C2702695 		.word	-1792642878
 5034 003c 4D1A9C3F 		.word	1067194957
 5035 0040 F752ACE6 		.word	-424914185
 5036 0044 B60EA03F 		.word	1067454134
 5037 0048 6808AAB2 		.word	-1297479576
 5038 004c 2610A23F 		.word	1067585574
 5039 0050 4A759D28 		.word	681407818
 5040 0054 7211A43F 		.word	1067716978
 5041 0058 2D520746 		.word	1174884909
 5042 005c 9512A63F 		.word	1067848341
 5043 0060 A3576808 		.word	141055907
 5044 0064 8C13A83F 		.word	1067979660
 5045 0068 36C18C71 		.word	1905049910
 5046 006c 5214AA3F 		.word	1068110930
 5047 0070 73E36482 		.word	-2107317389
 5048 0074 E414AC3F 		.word	1068242148
 5049 0078 DE63E441 		.word	1105486814
 5050 007c 3E15AE3F 		.word	1068373310
 5051 0080 FD737FDB 		.word	-612404227
 5052 0084 AD0AB03F 		.word	1068501677
 5053 0088 22CC7976 		.word	1987693602
 5054 008c 9C0AB13F 		.word	1068567196
 5055 0090 9DB55CF8 		.word	-128141923
 5056 0094 680AB23F 		.word	1068632680
 5057 0098 286DC969 		.word	1774808360
 5058 009c 110AB33F 		.word	1068698129
 5059 00a0 FC09ABD4 		.word	-726988292
 5060 00a4 9309B43F 		.word	1068763539
 5061 00a8 4E588045 		.word	1166039118
 5062 00ac EE08B53F 		.word	1068828910
 5063 00b0 D41736C9 		.word	-919201836
 5064 00b4 1E08B63F 		.word	1068894238
 5065 00b8 BDB0BA6F 		.word	1874505917
 5066 00bc 2307B73F 		.word	1068959523
 5067 00c0 B84C224B 		.word	1260539064
 5068 00c4 FA05B83F 		.word	1069024762
 5069 00c8 6FE3386F 		.word	1865999215
 5070 00cc A104B93F 		.word	1069089953
 5071 00d0 0D4714F1 		.word	-250329331
 5072 00d4 1603BA3F 		.word	1069155094
 5073 00d8 B5CC15EA 		.word	-367670091
 5074 00dc 5801BB3F 		.word	1069220184
 5075 00e0 88B07A74 		.word	1954197640
 5076 00e4 65FFBB3F 		.word	1069285221
 5077 00e8 A6E313AD 		.word	-1391205466
 5078 00ec 3AFDBC3F 		.word	1069350202
ARM GAS  C:\Users\wangw\AppData\Local\Temp\ccLETVy1.s 			page 118


 5079 00f0 29F321B4 		.word	-1272843479
 5080 00f4 D6FABD3F 		.word	1069415126
 5081 00f8 A9462FAB 		.word	-1422965079
 5082 00fc 37F8BE3F 		.word	1069479991
 5083 0100 1832D5CE 		.word	-824888808
 5084 0104 5BF5BF3F 		.word	1069544795
 5085 0108 34B81880 		.word	-2145863628
 5086 010c 2079C03F 		.word	1069578528
 5087 0110 22B021D8 		.word	-668880862
 5088 0114 72F7C03F 		.word	1069610866
 5089 0118 695D7EFA 		.word	-92381847
 5090 011c A375C13F 		.word	1069643171
 5091 0120 4C1F41FF 		.word	-12509364
 5092 0124 B2F3C13F 		.word	1069675442
 5093 0128 CA1C6B00 		.word	7019722
 5094 012c 9F71C23F 		.word	1069707679
 5095 0130 216AA218 		.word	413297185
 5096 0134 67EFC23F 		.word	1069739879
 5097 0138 4CCA5765 		.word	1700252236
 5098 013c 0A6DC33F 		.word	1069772042
 5099 0140 43E7D704 		.word	81258307
 5100 0144 88EAC33F 		.word	1069804168
 5101 0148 3F3FF016 		.word	384843583
 5102 014c DF67C43F 		.word	1069836255
 5103 0150 730502BE 		.word	-1107163789
 5104 0154 0EE5C43F 		.word	1069868302
 5105 0158 525A131D 		.word	487807570
 5106 015c 1662C53F 		.word	1069900310
 5107 0160 4A13BE59 		.word	1505629002
 5108 0164 F4DEC53F 		.word	1069932276
 5109 0168 09DA1C9B 		.word	-1692607991
 5110 016c A85BC63F 		.word	1069964200
 5111 0170 3A26020A 		.word	167913018
 5112 0174 32D8C63F 		.word	1069996082
 5113 0178 843DF8D0 		.word	-789037692
 5114 017c 8F54C73F 		.word	1070027919
 5115 0180 CE20E61C 		.word	484843726
 5116 0184 C1D0C73F 		.word	1070059713
 5117 0188 F99E6A1C 		.word	476749561
 5118 018c C54CC83F 		.word	1070091461
 5119 0190 275BA5FF 		.word	-5940441
 5120 0194 9AC8C83F 		.word	1070123162
 5121 0198 F4B9DBF8 		.word	-119817740
 5122 019c 4144C93F 		.word	1070154817
 5123 01a0 FBD4E63C 		.word	1021760763
 5124 01a4 B9BFC93F 		.word	1070186425
 5125 01a8 53A0E901 		.word	32088147
 5126 01ac 003BCA3F 		.word	1070217984
 5127 01b0 93D12C80 		.word	-2144546413
 5128 01b4 15B6CA3F 		.word	1070249493
 5129 01b8 8DD955F2 		.word	-229254771
 5130 01bc F830CB3F 		.word	1070280952
 5131 01c0 0EF7C194 		.word	-1799227634
 5132 01c4 A9ABCB3F 		.word	1070312361
 5133 01c8 662AF4A5 		.word	-1510725018
 5134 01cc 2626CC3F 		.word	1070343718
 5135 01d0 DB280367 		.word	1728260315
ARM GAS  C:\Users\wangw\AppData\Local\Temp\ccLETVy1.s 			page 119


 5136 01d4 6FA0CC3F 		.word	1070375023
 5137 01d8 36824F1A 		.word	441418294
 5138 01dc 831ACD3F 		.word	1070406275
 5139 01e0 FA740405 		.word	84178170
 5140 01e4 6194CD3F 		.word	1070437473
 5141 01e8 68073C6E 		.word	1849427816
 5142 01ec 080ECE3F 		.word	1070468616
 5143 01f0 BCF4A39F 		.word	-1616644932
 5144 01f4 7887CE3F 		.word	1070499704
 5145 01f8 B3D233E4 		.word	-466365773
 5146 01fc B000CF3F 		.word	1070530736
 5147 0200 42D91B8A 		.word	-1977886398
 5148 0204 B079CF3F 		.word	1070561712
 5149 0208 9E140DE1 		.word	-519236450
 5150 020c 76F2CF3F 		.word	1070592630
 5151 0210 DD9FC19D 		.word	-1648255011
 5152 0214 8135D03F 		.word	1070609793
 5153 0218 A06EF476 		.word	1995730592
 5154 021c AA71D03F 		.word	1070625194
 5155 0220 B01867A7 		.word	-1486415696
 5156 0224 B5ADD03F 		.word	1070640565
 5157 0228 7F17C7DB 		.word	-607709313
 5158 022c A2E9D03F 		.word	1070655906
 5159 0230 81CB9DC1 		.word	-1046623359
 5160 0234 7125D13F 		.word	1070671217
 5161 0238 85ECD907 		.word	131722373
 5162 023c 2261D13F 		.word	1070686498
 5163 0240 5A19465E 		.word	1581652314
 5164 0244 B39CD13F 		.word	1070701747
 5165 0248 0FC52D76 		.word	1982711055
 5166 024c 25D8D13F 		.word	1070716965
 5167 0250 6F43EF01 		.word	32457583
 5168 0254 7813D23F 		.word	1070732152
 5169 0258 45CFC4B4 		.word	-1262170299
 5170 025c AA4ED23F 		.word	1070747306
 5171 0260 78F48443 		.word	1132786808
 5172 0264 BD89D23F 		.word	1070762429
 5173 0268 D0A2FD63 		.word	1677566672
 5174 026c AFC4D23F 		.word	1070777519
 5175 0270 D2AA0FCD 		.word	-854611246
 5176 0274 80FFD23F 		.word	1070792576
 5177 0278 63340137 		.word	922825827
 5178 027c 313AD33F 		.word	1070807601
 5179 0280 43CB0F5B 		.word	1527761731
 5180 0284 C074D33F 		.word	1070822592
 5181 0288 74CFF9F3 		.word	-201732236
 5182 028c 2DAFD33F 		.word	1070837549
 5183 0290 F48759BD 		.word	-1118205964
 5184 0294 79E9D33F 		.word	1070852473
 5185 0298 2E5F21AF 		.word	-1356767442
 5186 029c A323D43F 		.word	1070867363
 5187 02a0 74F938D6 		.word	-700909196
 5188 02a4 AA5DD43F 		.word	1070882218
 5189 02a8 2A8B27A3 		.word	-1557689558
 5190 02ac 8F97D43F 		.word	1070897039
 5191 02b0 BA054E9B 		.word	-1689385542
 5192 02b4 51D1D43F 		.word	1070911825
ARM GAS  C:\Users\wangw\AppData\Local\Temp\ccLETVy1.s 			page 120


 5193 02b8 1A014A80 		.word	-2142633702
 5194 02bc F00AD53F 		.word	1070926576
 5195 02c0 BFEF0215 		.word	352513983
 5196 02c4 6C44D53F 		.word	1070941292
 5197 02c8 DD24731D 		.word	494085341
 5198 02cc C47DD53F 		.word	1070955972
 5199 02d0 4551C35E 		.word	1589858629
 5200 02d4 F8B6D53F 		.word	1070970616
 5201 02d8 68834A9F 		.word	-1622506648
 5202 02dc 08F0D53F 		.word	1070985224
 5203 02e0 1321C5A6 		.word	-1497030381
 5204 02e4 F428D63F 		.word	1070999796
 5205 02e8 1377CB3D 		.word	1036744467
 5206 02ec BC61D63F 		.word	1071014332
 5207 02f0 B4AC3F2E 		.word	775924916
 5208 02f4 5F9AD63F 		.word	1071028831
 5209 02f8 BEC34D43 		.word	1129169854
 5210 02fc DDD2D63F 		.word	1071043293
 5211 0300 DB211949 		.word	1226383835
 5212 0304 360BD73F 		.word	1071057718
 5213 0308 2F070F0D 		.word	219088687
 5214 030c 6A43D73F 		.word	1071072106
 5215 0310 A094AF5D 		.word	1571787936
 5216 0314 787BD73F 		.word	1071086456
 5217 0318 7042E00A 		.word	182469232
 5218 031c 61B3D73F 		.word	1071100769
 5219 0320 FA434AEB 		.word	-347454470
 5220 0324 23EBD73F 		.word	1071115043
 5221 0328 D4D925BF 		.word	-1088038444
 5222 032c C022D83F 		.word	1071129280
 5223 0330 A617646B 		.word	1801721766
 5224 0334 375AD83F 		.word	1071143479
 5225 0338 73A169BE 		.word	-1100373645
 5226 033c 8791D83F 		.word	1071157639
 5227 0340 17D0958D 		.word	-1919561705
 5228 0344 B1C8D83F 		.word	1071171761
 5229 0348 ECD691AF 		.word	-1349396756
 5230 034c B4FFD83F 		.word	1071185844
 5231 0350 49D0E2FB 		.word	-69021623
 5232 0354 9036D93F 		.word	1071199888
 5233 0358 06B1574B 		.word	1264038150
 5234 035c 466DD93F 		.word	1071213894
 5235 0360 96CBED77 		.word	2012072854
 5236 0364 D4A3D93F 		.word	1071227860
 5237 0368 6D597E5C 		.word	1551784301
 5238 036c 3BDAD93F 		.word	1071241787
 5239 0370 7D6E2CD5 		.word	-718508419
 5240 0374 7A10DA3F 		.word	1071255674
 5241 0378 978212BF 		.word	-1089305961
 5242 037c 9246DA3F 		.word	1071269522
 5243 0380 09E894F8 		.word	-124458999
 5244 0384 827CDA3F 		.word	1071283330
 5245 0388 21D8F360 		.word	1626593313
 5246 038c 4BB2DA3F 		.word	1071297099
 5247 0390 CAE99DD8 		.word	-660739638
 5248 0394 EBE7DA3F 		.word	1071310827
 5249 0398 CF17F940 		.word	1090066383
ARM GAS  C:\Users\wangw\AppData\Local\Temp\ccLETVy1.s 			page 121


 5250 039c 641DDB3F 		.word	1071324516
 5251 03a0 B93D7E7C 		.word	2088648121
 5252 03a4 B452DB3F 		.word	1071338164
 5253 03a8 AF94D46E 		.word	1859425455
 5254 03ac DC87DB3F 		.word	1071351772
 5255 03b0 F8BF63FC 		.word	-60571656
 5256 03b4 DBBCDB3F 		.word	1071365339
 5257 03b8 38BAF80A 		.word	184072760
 5258 03bc B3F1DB3F 		.word	1071378867
 5259 03c0 32E82081 		.word	-2128549838
 5260 03c4 6126DC3F 		.word	1071392353
 5261 03c8 688F7C46 		.word	1182568296
 5262 03cc E75ADC3F 		.word	1071405799
 5263 03d0 1BD6BE43 		.word	1136580123
 5264 03d4 448FDC3F 		.word	1071419204
 5265 03d8 69469262 		.word	1653753449
 5266 03dc 78C3DC3F 		.word	1071432568
 5267 03e0 70517D8D 		.word	-1921166992
 5268 03e4 83F7DC3F 		.word	1071445891
 5269 03e8 0D4919B0 		.word	-1340520179
 5270 03ec 652BDD3F 		.word	1071459173
 5271 03f0 DB5F12B7 		.word	-1223532581
 5272 03f4 1E5FDD3F 		.word	1071472414
 5273 03f8 9232D58F 		.word	-1881853294
 5274 03fc AE92DD3F 		.word	1071485614
 5275 0400 AD3EE128 		.word	685850285
 5276 0404 15C6DD3F 		.word	1071498773
 5277 0408 60E2C871 		.word	1908990560
 5278 040c 52F9DD3F 		.word	1071511890
 5279 0410 2369C35A 		.word	1522755875
 5280 0414 662CDE3F 		.word	1071524966
 5281 0418 4982FFD4 		.word	-721452471
 5282 041c 505FDE3F 		.word	1071538000
 5283 0420 A6B7F5D2 		.word	-755648602
 5284 0424 1192DE3F 		.word	1071550993
 5285 0428 AC097147 		.word	1198590380
 5286 042c A9C4DE3F 		.word	1071563945
 5287 0430 2BD0A126 		.word	648138795
 5288 0434 17F7DE3F 		.word	1071576855
 5289 0438 53D34165 		.word	1698812755
 5290 043c 5B29DF3F 		.word	1071589723
 5291 0440 F23839F9 		.word	-113690382
 5292 0444 755BDF3F 		.word	1071602549
 5293 0448 3597F9D8 		.word	-654731467
 5294 044c 668DDF3F 		.word	1071615334
 5295 0450 096507FC 		.word	-66624247
 5296 0454 2DBFDF3F 		.word	1071628077
 5297 0458 7783A75A 		.word	1520927607
 5298 045c CBF0DF3F 		.word	1071640779
 5299 0460 B41B0B77 		.word	1997216692
 5300 0464 1F11E03F 		.word	1071649055
 5301 0468 F4172858 		.word	1479022580
 5302 046c C429E03F 		.word	1071655364
 5303 0470 9D84FB4D 		.word	1308329117
 5304 0474 5442E03F 		.word	1071661652
 5305 0478 C3E15156 		.word	1448206787
 5306 047c CF5AE03F 		.word	1071667919
ARM GAS  C:\Users\wangw\AppData\Local\Temp\ccLETVy1.s 			page 122


 5307 0480 6961736F 		.word	1869832553
 5308 0484 3573E03F 		.word	1071674165
 5309 0488 502FDF97 		.word	-1746981040
 5310 048c 868BE03F 		.word	1071680390
 5311 0490 2A2990CE 		.word	-829413078
 5312 0494 C2A3E03F 		.word	1071686594
 5313 0498 2820EF12 		.word	317661224
 5314 049c EABBE03F 		.word	1071692778
 5315 04a0 3ADF9B64 		.word	1687936826
 5316 04a4 FCD3E03F 		.word	1071698940
 5317 04a8 2060CDC3 		.word	-1009950688
 5318 04ac F9EBE03F 		.word	1071705081
 5319 04b0 5996F130 		.word	821139033
 5320 04b4 E203E13F 		.word	1071711202
 5321 04b8 05ECC8AC 		.word	-1396118523
 5322 04bc B51BE13F 		.word	1071717301
 5323 04c0 A13B9D38 		.word	949828513
 5324 04c4 7433E13F 		.word	1071723380
 5325 04c8 DB17FDD5 		.word	-704833573
 5326 04cc 1D4BE13F 		.word	1071729437
 5327 04d0 220DAE86 		.word	-2035413726
 5328 04d4 B262E13F 		.word	1071735474
 5329 04d8 4118FF4C 		.word	1291786305
 5330 04dc 327AE13F 		.word	1071741490
 5331 04e0 35EE832B 		.word	730066485
 5332 04e4 9D91E13F 		.word	1071747485
 5333 04e8 2AFC1425 		.word	622132266
 5334 04ec F3A8E13F 		.word	1071753459
 5335 04f0 CCA2F83C 		.word	1022927564
 5336 04f4 34C0E13F 		.word	1071759412
 5337 04f8 F6FAB976 		.word	1991899894
 5338 04fc 60D7E13F 		.word	1071765344
 5339 0500 B2D528D6 		.word	-701966926
 5340 0504 77EEE13F 		.word	1071771255
 5341 0508 8BF7825F 		.word	1602418571
 5342 050c 7A05E23F 		.word	1071777146
 5343 0510 5A602F17 		.word	388980826
 5344 0514 681CE23F 		.word	1071783016
 5345 0518 E8C11002 		.word	34652648
 5346 051c 4133E23F 		.word	1071788865
 5347 0520 50093325 		.word	624101712
 5348 0524 054AE23F 		.word	1071794693
 5349 0528 489AF485 		.word	-2047567288
 5350 052c B460E23F 		.word	1071800500
 5351 0530 BA90F829 		.word	704155834
 5352 0534 4F77E23F 		.word	1071806287
 5353 0538 2D7F3417 		.word	389316397
 5354 053c D58DE23F 		.word	1071812053
 5355 0540 C86EF053 		.word	1408265928
 5356 0544 46A4E23F 		.word	1071817798
 5357 0548 02A49DE6 		.word	-425876478
 5358 054c A2BAE23F 		.word	1071823522
 5359 0550 F3D9FFD5 		.word	-704652813
 5360 0554 EAD0E23F 		.word	1071829226
 5361 0558 50422D29 		.word	690831952
 5362 055c 1EE7E23F 		.word	1071834910
 5363 0560 1F4A65E7 		.word	-412792289
ARM GAS  C:\Users\wangw\AppData\Local\Temp\ccLETVy1.s 			page 123


 5364 0564 3CFDE23F 		.word	1071840572
 5365 0568 95162C18 		.word	405542549
 5366 056c 4713E33F 		.word	1071846215
 5367 0570 F90166C3 		.word	-1016724999
 5368 0574 3C29E33F 		.word	1071851836
 5369 0578 FE2405F1 		.word	-251321090
 5370 057c 1D3FE33F 		.word	1071857437
 5371 0580 F90E4EA9 		.word	-1454502151
 5372 0584 EA54E33F 		.word	1071863018
 5373 0588 4F84E5F4 		.word	-186284977
 5374 058c A26AE33F 		.word	1071868578
 5375 0590 624970DC 		.word	-596620958
 5376 0594 4680E33F 		.word	1071874118
 5377 0598 3899E568 		.word	1759877432
 5378 059c D695E33F 		.word	1071879638
 5379 05a0 72258FA3 		.word	-1550899854
 5380 05a4 51ABE33F 		.word	1071885137
 5381 05a8 941CD295 		.word	-1781392236
 5382 05ac B8C0E33F 		.word	1071890616
 5383 05b0 71E83C49 		.word	1228728433
 5384 05b4 0BD6E33F 		.word	1071896075
 5385 05b8 7B69B0C7 		.word	-944739973
 5386 05bc 49EBE33F 		.word	1071901513
 5387 05c0 5338521B 		.word	458373203
 5388 05c4 7400E43F 		.word	1071906932
 5389 05c8 2D2F3A4E 		.word	1312436013
 5390 05cc 8A15E43F 		.word	1071912330
 5391 05d0 B81BEE6A 		.word	1793989560
 5392 05d4 8C2AE43F 		.word	1071917708
 5393 05d8 F7061D7C 		.word	2082277111
 5394 05dc 7A3FE43F 		.word	1071923066
 5395 05e0 5AB8838C 		.word	-1937524646
 5396 05e4 5454E43F 		.word	1071928404
 5397 05e8 622C3FA7 		.word	-1489032094
 5398 05ec 1A69E43F 		.word	1071933722
 5399 05f0 905F6CD7 		.word	-680763504
 5400 05f4 CC7DE43F 		.word	1071939020
 5401 05f8 94066D28 		.word	678233748
 5402 05fc 6B92E43F 		.word	1071944299
 5403 0600 6D11CCA5 		.word	-1513352851
 5404 0604 F5A6E43F 		.word	1071949557
 5405 0608 DC694B5B 		.word	1531668956
 5406 060c 6CBBE43F 		.word	1071954796
 5407 0610 7F76C854 		.word	1422423679
 5408 0614 CFCFE43F 		.word	1071960015
 5409 0618 D71A3C9E 		.word	-1640228137
 5410 061c 1EE4E43F 		.word	1071965214
 5411 0620 93F2E343 		.word	1139012243
 5412 0624 5AF8E43F 		.word	1071970394
 5413 0628 B0D42652 		.word	1378276528
 5414 062c 820CE53F 		.word	1071975554
 5415 0630 2F986BD5 		.word	-714368977
 5416 0634 9620E53F 		.word	1071980694
 5417 0638 AC8A6BDA 		.word	-630486356
 5418 063c 9734E53F 		.word	1071985815
 5419 0640 C8F9DF6D 		.word	1843395016
 5420 0644 8548E53F 		.word	1071990917
ARM GAS  C:\Users\wangw\AppData\Local\Temp\ccLETVy1.s 			page 124


 5421 0648 DF2CB99C 		.word	-1665585953
 5422 064c 5F5CE53F 		.word	1071995999
 5423 0650 9FA61074 		.word	1947248287
 5424 0654 2670E53F 		.word	1072001062
 5425 0658 26A80D01 		.word	17672230
 5426 065c DA83E53F 		.word	1072006106
 5427 0660 E3AD0051 		.word	1358999011
 5428 0664 7A97E53F 		.word	1072011130
 5429 0668 916F6371 		.word	1902342033
 5430 066c 07ABE53F 		.word	1072016135
 5431 0670 CE21CB6F 		.word	1875583438
 5432 0674 81BEE53F 		.word	1072021121
 5433 0678 A8B7DA59 		.word	1507506088
 5434 067c E8D1E53F 		.word	1072026088
 5435 0680 7B5F5E3D 		.word	1029595003
 5436 0684 3CE5E53F 		.word	1072031036
 5437 0688 F3824B28 		.word	676037363
 5438 068c 7DF8E53F 		.word	1072035965
 5439 0690 BE8B9728 		.word	681020350
 5440 0694 AB0BE63F 		.word	1072040875
 5441 0698 47DD6E4C 		.word	1282334023
 5442 069c C61EE63F 		.word	1072045766
 5443 06a0 6B990BA2 		.word	-1576298133
 5444 06a4 CE31E63F 		.word	1072050638
 5445 06a8 07E2A737 		.word	933749255
 5446 06ac C444E63F 		.word	1072055492
 5447 06b0 954FD01B 		.word	466636693
 5448 06b4 A757E63F 		.word	1072060327
 5449 06b8 B2FDF55C 		.word	1559625138
 5450 06bc 776AE63F 		.word	1072065143
 5451 06c0 BA01C109 		.word	163643834
 5452 06c4 357DE63F 		.word	1072069941
 5453 06c8 98B2CB30 		.word	818655896
 5454 06cc E08FE63F 		.word	1072074720
 5455 06d0 F860E7E0 		.word	-521707272
 5456 06d4 78A2E63F 		.word	1072079480
 5457 06d8 F51BF328 		.word	687021045
 5458 06dc FFB4E63F 		.word	1072084223
 5459 06e0 1AB1DB17 		.word	400273690
 5460 06e4 73C7E63F 		.word	1072088947
 5461 06e8 62AC9BBC 		.word	-1130648478
 5462 06ec D4D9E63F 		.word	1072093652
 5463 06f0 AA164926 		.word	642324138
 5464 06f4 24ECE63F 		.word	1072098340
 5465 06f8 AA751564 		.word	1679127978
 5466 06fc 61FEE63F 		.word	1072103009
 5467 0700 B0902485 		.word	-2061201232
 5468 0704 8C10E73F 		.word	1072107660
 5469 0708 C428D198 		.word	-1731123004
 5470 070c A522E73F 		.word	1072112293
 5471 0710 834068AE 		.word	-1368899453
 5472 0714 AC34E73F 		.word	1072116908
 5473 0718 665752D5 		.word	-716023962
 5474 071c A146E73F 		.word	1072121505
 5475 0720 58AB051D 		.word	486910808
 5476 0724 8558E73F 		.word	1072126085
 5477 0728 B4380695 		.word	-1794754380
ARM GAS  C:\Users\wangw\AppData\Local\Temp\ccLETVy1.s 			page 125


 5478 072c 566AE73F 		.word	1072130646
 5479 0730 43BAE54C 		.word	1290123843
 5480 0734 167CE73F 		.word	1072135190
 5481 0738 41A94354 		.word	1413720385
 5482 073c C48DE73F 		.word	1072139716
 5483 0740 573DCDBA 		.word	-1160954537
 5484 0744 609FE73F 		.word	1072144224
 5485 0748 31AE2F90 		.word	-1875923407
 5486 074c EBB0E73F 		.word	1072148715
 5487 0750 E7F125E4 		.word	-467275289
 5488 0754 64C2E73F 		.word	1072153188
 5489 0758 747B86C6 		.word	-964265100
 5490 075c CCD3E73F 		.word	1072157644
 5491 0760 D1BD2747 		.word	1193786833
 5492 0764 23E5E73F 		.word	1072162083
 5493 0768 FA2BE075 		.word	1977625594
 5494 076c 68F6E73F 		.word	1072166504
 5495 0770 58F79362 		.word	1653864280
 5496 0774 9C07E83F 		.word	1072170908
 5497 0778 C40F351D 		.word	490016708
 5498 077c BF18E83F 		.word	1072175295
 5499 0780 8923C3B5 		.word	-1245502583
 5500 0784 D029E83F 		.word	1072179664
 5501 0788 8122303C 		.word	1009787521
 5502 078c D13AE83F 		.word	1072184017
 5503 0790 F4BA7BC0 		.word	-1065633036
 5504 0794 C04BE83F 		.word	1072188352
 5505 0798 0E18C152 		.word	1388386318
 5506 079c 9F5CE83F 		.word	1072192671
 5507 07a0 17E8FF02 		.word	50325527
 5508 07a4 6D6DE83F 		.word	1072196973
 5509 07a8 395653E1 		.word	-514632135
 5510 07ac 297EE83F 		.word	1072201257
 5511 07b0 9E8DD6FD 		.word	-36270690
 5512 07b4 D58EE83F 		.word	1072205525
 5513 07b8 E077B268 		.word	1756526560
 5514 07bc 719FE83F 		.word	1072209777
 5515 07c0 B881F431 		.word	838107576
 5516 07c4 FCAFE83F 		.word	1072214012
 5517 07c8 C094C569 		.word	1774556352
 5518 07cc 76C0E83F 		.word	1072218230
 5519 07d0 01595C20 		.word	542923009
 5520 07d4 E0D0E83F 		.word	1072222432
 5521 07d8 A5F9D365 		.word	1708390821
 5522 07dc 39E1E83F 		.word	1072226617
 5523 07e0 B51E634A 		.word	1248009909
 5524 07e4 82F1E83F 		.word	1072230786
 5525 07e8 CBB132DE 		.word	-567103029
 5526 07ec BA01E93F 		.word	1072234938
 5527 07f0 819C6B31 		.word	829136001
 5528 07f4 E311E93F 		.word	1072239075
 5529 07f8 E0864454 		.word	1413777120
 5530 07fc FB21E93F 		.word	1072243195
 5531              		.section	.rodata.Kd,"a"
 5532              		.align	2
 5535              	Kd:
 5536 0000 00004842 		.word	1112014848
ARM GAS  C:\Users\wangw\AppData\Local\Temp\ccLETVy1.s 			page 126


 5537              		.section	.rodata.Ki,"a"
 5538              		.align	2
 5541              	Ki:
 5542 0000 0000ECC2 		.word	-1024720896
 5543              		.section	.rodata.Kp,"a"
 5544              		.align	2
 5547              	Kp:
 5548 0000 00009643 		.word	1133903872
 5549              		.text
 5550              	.Letext0:
 5551              		.file 3 "c:\\program files (x86)\\gnu arm embedded toolchain\\10 2021.07\\arm-none-eabi\\include\\
 5552              		.file 4 "c:\\program files (x86)\\gnu arm embedded toolchain\\10 2021.07\\arm-none-eabi\\include\\
 5553              		.file 5 "Drivers/CMSIS/Device/ST/STM32F1xx/Include/stm32f103xe.h"
 5554              		.file 6 "Drivers/STM32F1xx_HAL_Driver/Inc/stm32f1xx_hal_def.h"
 5555              		.file 7 "Drivers/STM32F1xx_HAL_Driver/Inc/stm32f1xx_hal_rcc.h"
 5556              		.file 8 "Drivers/STM32F1xx_HAL_Driver/Inc/stm32f1xx_hal_rcc_ex.h"
 5557              		.file 9 "Drivers/STM32F1xx_HAL_Driver/Inc/stm32f1xx_hal_gpio.h"
 5558              		.file 10 "Drivers/STM32F1xx_HAL_Driver/Inc/stm32f1xx_hal_dma.h"
 5559              		.file 11 "Drivers/STM32F1xx_HAL_Driver/Inc/stm32f1xx_hal_tim.h"
 5560              		.file 12 "Drivers/STM32F1xx_HAL_Driver/Inc/stm32f1xx_hal_uart.h"
 5561              		.file 13 "Core/Inc/tim.h"
 5562              		.file 14 "Core/Inc/usart.h"
 5563              		.file 15 "Core/Inc/zigbee.h"
 5564              		.file 16 "Core/Inc/jy62.h"
 5565              		.file 17 "Drivers/STM32F1xx_HAL_Driver/Inc/stm32f1xx_hal.h"
 5566              		.file 18 "Core/Inc/gpio.h"
 5567              		.file 19 "Core/Inc/dma.h"
 5568              		.file 20 "<built-in>"
ARM GAS  C:\Users\wangw\AppData\Local\Temp\ccLETVy1.s 			page 127


DEFINED SYMBOLS
                            *ABS*:00000000 main.c
C:\Users\wangw\AppData\Local\Temp\ccLETVy1.s:20     .text.pid:00000000 $t
C:\Users\wangw\AppData\Local\Temp\ccLETVy1.s:28     .text.pid:00000000 pid
C:\Users\wangw\AppData\Local\Temp\ccLETVy1.s:128    .text.pid:00000064 $d
C:\Users\wangw\AppData\Local\Temp\ccLETVy1.s:137    .text.Abs:00000000 $t
C:\Users\wangw\AppData\Local\Temp\ccLETVy1.s:144    .text.Abs:00000000 Abs
C:\Users\wangw\AppData\Local\Temp\ccLETVy1.s:169    .text.qiuyu360:00000000 $t
C:\Users\wangw\AppData\Local\Temp\ccLETVy1.s:176    .text.qiuyu360:00000000 qiuyu360
C:\Users\wangw\AppData\Local\Temp\ccLETVy1.s:243    .text.qiuyu360:00000048 $d
C:\Users\wangw\AppData\Local\Temp\ccLETVy1.s:248    .text.forward:00000000 $t
C:\Users\wangw\AppData\Local\Temp\ccLETVy1.s:255    .text.forward:00000000 forward
C:\Users\wangw\AppData\Local\Temp\ccLETVy1.s:346    .text.forward:00000074 $d
C:\Users\wangw\AppData\Local\Temp\ccLETVy1.s:352    .text.backward:00000000 $t
C:\Users\wangw\AppData\Local\Temp\ccLETVy1.s:359    .text.backward:00000000 backward
C:\Users\wangw\AppData\Local\Temp\ccLETVy1.s:443    .text.backward:00000070 $d
C:\Users\wangw\AppData\Local\Temp\ccLETVy1.s:449    .text.rotate_counterclockwise:00000000 $t
C:\Users\wangw\AppData\Local\Temp\ccLETVy1.s:456    .text.rotate_counterclockwise:00000000 rotate_counterclockwise
C:\Users\wangw\AppData\Local\Temp\ccLETVy1.s:540    .text.rotate_counterclockwise:00000070 $d
C:\Users\wangw\AppData\Local\Temp\ccLETVy1.s:546    .text.rotate_clockwise:00000000 $t
C:\Users\wangw\AppData\Local\Temp\ccLETVy1.s:553    .text.rotate_clockwise:00000000 rotate_clockwise
C:\Users\wangw\AppData\Local\Temp\ccLETVy1.s:637    .text.rotate_clockwise:00000070 $d
C:\Users\wangw\AppData\Local\Temp\ccLETVy1.s:643    .text.rotate_clockwise_plus_forward:00000000 $t
C:\Users\wangw\AppData\Local\Temp\ccLETVy1.s:650    .text.rotate_clockwise_plus_forward:00000000 rotate_clockwise_plus_forward
C:\Users\wangw\AppData\Local\Temp\ccLETVy1.s:731    .text.rotate_clockwise_plus_forward:00000074 $d
C:\Users\wangw\AppData\Local\Temp\ccLETVy1.s:737    .text.brake:00000000 $t
C:\Users\wangw\AppData\Local\Temp\ccLETVy1.s:744    .text.brake:00000000 brake
C:\Users\wangw\AppData\Local\Temp\ccLETVy1.s:820    .text.brake:00000070 $d
C:\Users\wangw\AppData\Local\Temp\ccLETVy1.s:826    .text.fabs:00000000 $t
C:\Users\wangw\AppData\Local\Temp\ccLETVy1.s:833    .text.fabs:00000000 fabs
C:\Users\wangw\AppData\Local\Temp\ccLETVy1.s:878    .text.atan2LUTif:00000000 $t
C:\Users\wangw\AppData\Local\Temp\ccLETVy1.s:885    .text.atan2LUTif:00000000 atan2LUTif
C:\Users\wangw\AppData\Local\Temp\ccLETVy1.s:1249   .text.atan2LUTif:000001f8 $d
C:\Users\wangw\AppData\Local\Temp\ccLETVy1.s:1268   .text.Solve_Mine_Pos:00000000 $t
C:\Users\wangw\AppData\Local\Temp\ccLETVy1.s:1275   .text.Solve_Mine_Pos:00000000 Solve_Mine_Pos
C:\Users\wangw\AppData\Local\Temp\ccLETVy1.s:1737   .text.Solve_Mine_Pos:00000308 $d
C:\Users\wangw\AppData\Local\Temp\ccLETVy1.s:1747   .text.Sol_Car_Pos:00000000 $t
C:\Users\wangw\AppData\Local\Temp\ccLETVy1.s:1754   .text.Sol_Car_Pos:00000000 Sol_Car_Pos
C:\Users\wangw\AppData\Local\Temp\ccLETVy1.s:2016   .text.Sol_Car_Pos:000001cc $d
C:\Users\wangw\AppData\Local\Temp\ccLETVy1.s:2024   .text.HAL_TIM_PeriodElapsedCallback:00000000 $t
C:\Users\wangw\AppData\Local\Temp\ccLETVy1.s:2031   .text.HAL_TIM_PeriodElapsedCallback:00000000 HAL_TIM_PeriodElapsedCallback
C:\Users\wangw\AppData\Local\Temp\ccLETVy1.s:2168   .text.HAL_TIM_PeriodElapsedCallback:00000098 $d
C:\Users\wangw\AppData\Local\Temp\ccLETVy1.s:2186   .text.find:00000000 $t
C:\Users\wangw\AppData\Local\Temp\ccLETVy1.s:2193   .text.find:00000000 find
C:\Users\wangw\AppData\Local\Temp\ccLETVy1.s:2638   .text.find:000002a8 $d
C:\Users\wangw\AppData\Local\Temp\ccLETVy1.s:2651   .text.find:000002d0 $t
C:\Users\wangw\AppData\Local\Temp\ccLETVy1.s:2845   .text.find:00000410 $d
C:\Users\wangw\AppData\Local\Temp\ccLETVy1.s:2858   .text.sort_beacons:00000000 $t
C:\Users\wangw\AppData\Local\Temp\ccLETVy1.s:2865   .text.sort_beacons:00000000 sort_beacons
C:\Users\wangw\AppData\Local\Temp\ccLETVy1.s:2968   .text.sort_beacons:00000054 $d
C:\Users\wangw\AppData\Local\Temp\ccLETVy1.s:2974   .text.Goto:00000000 $t
C:\Users\wangw\AppData\Local\Temp\ccLETVy1.s:2981   .text.Goto:00000000 Goto
C:\Users\wangw\AppData\Local\Temp\ccLETVy1.s:3074   .text.Goto:00000068 $d
C:\Users\wangw\AppData\Local\Temp\ccLETVy1.s:3084   .text.Get_Rep_opt:00000000 $t
C:\Users\wangw\AppData\Local\Temp\ccLETVy1.s:3091   .text.Get_Rep_opt:00000000 Get_Rep_opt
C:\Users\wangw\AppData\Local\Temp\ccLETVy1.s:3286   .text.Get_Rep_opt:000000cc $d
C:\Users\wangw\AppData\Local\Temp\ccLETVy1.s:3294   .text.Error_Handler:00000000 $t
ARM GAS  C:\Users\wangw\AppData\Local\Temp\ccLETVy1.s 			page 128


C:\Users\wangw\AppData\Local\Temp\ccLETVy1.s:3301   .text.Error_Handler:00000000 Error_Handler
C:\Users\wangw\AppData\Local\Temp\ccLETVy1.s:3333   .text.SystemClock_Config:00000000 $t
C:\Users\wangw\AppData\Local\Temp\ccLETVy1.s:3340   .text.SystemClock_Config:00000000 SystemClock_Config
C:\Users\wangw\AppData\Local\Temp\ccLETVy1.s:3445   .text.main:00000000 $t
C:\Users\wangw\AppData\Local\Temp\ccLETVy1.s:3452   .text.main:00000000 main
C:\Users\wangw\AppData\Local\Temp\ccLETVy1.s:3929   .text.main:000002e8 $d
C:\Users\wangw\AppData\Local\Temp\ccLETVy1.s:3950   .text.main:00000330 $t
C:\Users\wangw\AppData\Local\Temp\ccLETVy1.s:4391   .text.main:00000584 $d
C:\Users\wangw\AppData\Local\Temp\ccLETVy1.s:4403   .text.main:000005ac $t
C:\Users\wangw\AppData\Local\Temp\ccLETVy1.s:4686   .text.main:0000075c $d
C:\Users\wangw\AppData\Local\Temp\ccLETVy1.s:4700   .text.main:00000794 $t
C:\Users\wangw\AppData\Local\Temp\ccLETVy1.s:4733   .text.main:000007b8 $d
C:\Users\wangw\AppData\Local\Temp\ccLETVy1.s:4938   .bss.state:00000000 state
C:\Users\wangw\AppData\Local\Temp\ccLETVy1.s:5535   .rodata.Kd:00000000 Kd
C:\Users\wangw\AppData\Local\Temp\ccLETVy1.s:5541   .rodata.Ki:00000000 Ki
C:\Users\wangw\AppData\Local\Temp\ccLETVy1.s:5547   .rodata.Kp:00000000 Kp
C:\Users\wangw\AppData\Local\Temp\ccLETVy1.s:5018   .rodata.ATAN_LUT:00000000 ATAN_LUT
C:\Users\wangw\AppData\Local\Temp\ccLETVy1.s:4853   .bss.current_Res:00000000 current_Res
C:\Users\wangw\AppData\Local\Temp\ccLETVy1.s:4833   .bss.count_rep:00000000 count_rep
C:\Users\wangw\AppData\Local\Temp\ccLETVy1.s:4925   .bss.prev_type:00000000 prev_type
C:\Users\wangw\AppData\Local\Temp\ccLETVy1.s:4860   .bss.destination:00000000 destination
C:\Users\wangw\AppData\Local\Temp\ccLETVy1.s:4959   .data.State:00000000 State
C:\Users\wangw\AppData\Local\Temp\ccLETVy1.s:4966   .data.beacon_idx:00000000 beacon_idx
C:\Users\wangw\AppData\Local\Temp\ccLETVy1.s:4973   .data.beacons:00000000 beacons
C:\Users\wangw\AppData\Local\Temp\ccLETVy1.s:4985   .data.rep:00000000 rep
C:\Users\wangw\AppData\Local\Temp\ccLETVy1.s:4874   .bss.dis_pre:00000000 dis_pre
C:\Users\wangw\AppData\Local\Temp\ccLETVy1.s:4867   .bss.dis_cur:00000000 dis_cur
C:\Users\wangw\AppData\Local\Temp\ccLETVy1.s:4905   .bss.goto_state:00000000 goto_state
C:\Users\wangw\AppData\Local\Temp\ccLETVy1.s:4945   .bss.trigger:00000000 trigger
C:\Users\wangw\AppData\Local\Temp\ccLETVy1.s:4952   .data.Round:00000000 Round
C:\Users\wangw\AppData\Local\Temp\ccLETVy1.s:4911   .bss.now:00000000 now
C:\Users\wangw\AppData\Local\Temp\ccLETVy1.s:4839   .bss.count_storehouse:00000000 count_storehouse
C:\Users\wangw\AppData\Local\Temp\ccLETVy1.s:4819   .bss.count_beacon:00000000 count_beacon
C:\Users\wangw\AppData\Local\Temp\ccLETVy1.s:4826   .bss.count_pos:00000000 count_pos
C:\Users\wangw\AppData\Local\Temp\ccLETVy1.s:4931   .bss.score:00000000 score
C:\Users\wangw\AppData\Local\Temp\ccLETVy1.s:5006   .data.resource_location:00000000 resource_location
C:\Users\wangw\AppData\Local\Temp\ccLETVy1.s:4791   .bss.Prev_Pos_head:00000000 Prev_Pos_head
C:\Users\wangw\AppData\Local\Temp\ccLETVy1.s:4784   .bss.Prev_Pos:00000000 Prev_Pos
C:\Users\wangw\AppData\Local\Temp\ccLETVy1.s:4805   .bss.beacon_determinant:00000000 beacon_determinant
C:\Users\wangw\AppData\Local\Temp\ccLETVy1.s:4812   .bss.car_Pos:00000000 car_Pos
C:\Users\wangw\AppData\Local\Temp\ccLETVy1.s:4798   .bss.beacon_Pos:00000000 beacon_Pos
C:\Users\wangw\AppData\Local\Temp\ccLETVy1.s:4898   .bss.distance4:00000000 distance4
C:\Users\wangw\AppData\Local\Temp\ccLETVy1.s:4892   .bss.distance3:00000000 distance3
C:\Users\wangw\AppData\Local\Temp\ccLETVy1.s:4886   .bss.distance2:00000000 distance2
C:\Users\wangw\AppData\Local\Temp\ccLETVy1.s:4880   .bss.distance1:00000000 distance1
C:\Users\wangw\AppData\Local\Temp\ccLETVy1.s:4780   .bss.Prev_Pos:00000000 $d
C:\Users\wangw\AppData\Local\Temp\ccLETVy1.s:4787   .bss.Prev_Pos_head:00000000 $d
C:\Users\wangw\AppData\Local\Temp\ccLETVy1.s:4794   .bss.beacon_Pos:00000000 $d
C:\Users\wangw\AppData\Local\Temp\ccLETVy1.s:4801   .bss.beacon_determinant:00000000 $d
C:\Users\wangw\AppData\Local\Temp\ccLETVy1.s:4808   .bss.car_Pos:00000000 $d
C:\Users\wangw\AppData\Local\Temp\ccLETVy1.s:4815   .bss.count_beacon:00000000 $d
C:\Users\wangw\AppData\Local\Temp\ccLETVy1.s:4822   .bss.count_pos:00000000 $d
C:\Users\wangw\AppData\Local\Temp\ccLETVy1.s:4829   .bss.count_rep:00000000 $d
C:\Users\wangw\AppData\Local\Temp\ccLETVy1.s:4836   .bss.count_storehouse:00000000 $d
C:\Users\wangw\AppData\Local\Temp\ccLETVy1.s:4842   .bss.curr_err.1:00000000 $d
C:\Users\wangw\AppData\Local\Temp\ccLETVy1.s:4846   .bss.curr_err.1:00000000 curr_err.1
C:\Users\wangw\AppData\Local\Temp\ccLETVy1.s:4849   .bss.current_Res:00000000 $d
ARM GAS  C:\Users\wangw\AppData\Local\Temp\ccLETVy1.s 			page 129


C:\Users\wangw\AppData\Local\Temp\ccLETVy1.s:4856   .bss.destination:00000000 $d
C:\Users\wangw\AppData\Local\Temp\ccLETVy1.s:4863   .bss.dis_cur:00000000 $d
C:\Users\wangw\AppData\Local\Temp\ccLETVy1.s:4870   .bss.dis_pre:00000000 $d
C:\Users\wangw\AppData\Local\Temp\ccLETVy1.s:4877   .bss.distance1:00000000 $d
C:\Users\wangw\AppData\Local\Temp\ccLETVy1.s:4883   .bss.distance2:00000000 $d
C:\Users\wangw\AppData\Local\Temp\ccLETVy1.s:4889   .bss.distance3:00000000 $d
C:\Users\wangw\AppData\Local\Temp\ccLETVy1.s:4895   .bss.distance4:00000000 $d
C:\Users\wangw\AppData\Local\Temp\ccLETVy1.s:4901   .bss.goto_state:00000000 $d
C:\Users\wangw\AppData\Local\Temp\ccLETVy1.s:4908   .bss.now:00000000 $d
C:\Users\wangw\AppData\Local\Temp\ccLETVy1.s:4914   .bss.prev_err.0:00000000 $d
C:\Users\wangw\AppData\Local\Temp\ccLETVy1.s:4918   .bss.prev_err.0:00000000 prev_err.0
C:\Users\wangw\AppData\Local\Temp\ccLETVy1.s:4921   .bss.prev_type:00000000 $d
C:\Users\wangw\AppData\Local\Temp\ccLETVy1.s:4928   .bss.score:00000000 $d
C:\Users\wangw\AppData\Local\Temp\ccLETVy1.s:4934   .bss.state:00000000 $d
C:\Users\wangw\AppData\Local\Temp\ccLETVy1.s:4941   .bss.trigger:00000000 $d
C:\Users\wangw\AppData\Local\Temp\ccLETVy1.s:4948   .data.Round:00000000 $d
C:\Users\wangw\AppData\Local\Temp\ccLETVy1.s:4955   .data.State:00000000 $d
C:\Users\wangw\AppData\Local\Temp\ccLETVy1.s:4962   .data.beacon_idx:00000000 $d
C:\Users\wangw\AppData\Local\Temp\ccLETVy1.s:4969   .data.beacons:00000000 $d
C:\Users\wangw\AppData\Local\Temp\ccLETVy1.s:4981   .data.rep:00000000 $d
C:\Users\wangw\AppData\Local\Temp\ccLETVy1.s:5002   .data.resource_location:00000000 $d
C:\Users\wangw\AppData\Local\Temp\ccLETVy1.s:5014   .rodata.ATAN_LUT:00000000 $d
C:\Users\wangw\AppData\Local\Temp\ccLETVy1.s:5532   .rodata.Kd:00000000 $d
C:\Users\wangw\AppData\Local\Temp\ccLETVy1.s:5538   .rodata.Ki:00000000 $d
C:\Users\wangw\AppData\Local\Temp\ccLETVy1.s:5544   .rodata.Kp:00000000 $d

UNDEFINED SYMBOLS
__aeabi_fmul
__aeabi_fadd
__aeabi_fcmpge
__aeabi_fcmple
__aeabi_dcmplt
__aeabi_dadd
__aeabi_dcmpgt
__aeabi_dsub
HAL_GPIO_WritePin
htim8
__aeabi_dcmpeq
__aeabi_dmul
__aeabi_ddiv
__aeabi_d2iz
__aeabi_i2d
__aeabi_ui2d
HAL_UART_Receive_DMA
getDistanceOfMyBeacon
getCarPosX
getCarPosY
jy62Receive
huart2
__aeabi_d2f
__aeabi_fsub
__aeabi_f2d
__aeabi_fcmplt
__aeabi_dcmpge
__aeabi_fcmpgt
__aeabi_dcmple
GetYaw
ARM GAS  C:\Users\wangw\AppData\Local\Temp\ccLETVy1.s 			page 130


__aeabi_i2f
getParkDotMineType
getMyBeaconMineType
memset
HAL_RCC_OscConfig
HAL_RCC_ClockConfig
HAL_Init
jy62_Init
SetBaud
SetHorizontal
InitAngle
Calibrate
SleepOrAwake
MX_GPIO_Init
MX_TIM1_Init
MX_TIM2_Init
MX_TIM8_Init
MX_TIM3_Init
MX_TIM4_Init
MX_DMA_Init
MX_USART2_UART_Init
MX_USART1_UART_Init
MX_TIM5_Init
zigbee_Init
HAL_TIM_Base_Start_IT
HAL_TIM_PWM_Start
HAL_TIM_Encoder_Start
getCarTask
getGameTime
getMineIntensity
getCarMineSumNum
huart1
htim1
htim2
htim3
htim4
htim5
zigbeeSend
getGameState
