ARM GAS  C:\Users\30592\AppData\Local\Temp\cca1UH8z.s 			page 1


   1              		.cpu cortex-m3
   2              		.eabi_attribute 20, 1
   3              		.eabi_attribute 21, 1
   4              		.eabi_attribute 23, 3
   5              		.eabi_attribute 24, 1
   6              		.eabi_attribute 25, 1
   7              		.eabi_attribute 26, 1
   8              		.eabi_attribute 30, 1
   9              		.eabi_attribute 34, 1
  10              		.eabi_attribute 18, 4
  11              		.file	"main.c"
  12              		.text
  13              	.Ltext0:
  14              		.cfi_sections	.debug_frame
  15              		.global	__aeabi_fmul
  16              		.global	__aeabi_fadd
  17              		.global	__aeabi_fcmpge
  18              		.global	__aeabi_fcmple
  19              		.section	.text.pid,"ax",%progbits
  20              		.align	1
  21              		.global	pid
  22              		.arch armv7-m
  23              		.syntax unified
  24              		.thumb
  25              		.thumb_func
  26              		.fpu softvfp
  28              	pid:
  29              	.LVL0:
  30              	.LFB68:
  31              		.file 1 "Core/Src/main.c"
   1:Core/Src/main.c **** /* USER CODE BEGIN Header */
   2:Core/Src/main.c **** /**
   3:Core/Src/main.c ****   ******************************************************************************
   4:Core/Src/main.c ****   * @file           : main.c
   5:Core/Src/main.c ****   * @brief          : Main program body
   6:Core/Src/main.c ****   ******************************************************************************
   7:Core/Src/main.c ****   * @attention
   8:Core/Src/main.c ****   *
   9:Core/Src/main.c ****   * <h2><center>&copy; Copyright (c) 2021 STMicroelectronics.
  10:Core/Src/main.c ****   * All rights reserved.</center></h2>
  11:Core/Src/main.c ****   *
  12:Core/Src/main.c ****   * This software component is licensed by ST under BSD 3-Clause license,
  13:Core/Src/main.c ****   * the "License"; You may not use this file except in compliance with the
  14:Core/Src/main.c ****   * License. You may obtain a copy of the License at:
  15:Core/Src/main.c ****   *                        opensource.org/licenses/BSD-3-Clause
  16:Core/Src/main.c ****   *
  17:Core/Src/main.c ****   ******************************************************************************
  18:Core/Src/main.c ****   */
  19:Core/Src/main.c **** /* USER CODE END Header */
  20:Core/Src/main.c **** /* Includes ------------------------------------------------------------------*/
  21:Core/Src/main.c **** #include "main.h"
  22:Core/Src/main.c **** #include "dma.h"
  23:Core/Src/main.c **** #include "tim.h"
  24:Core/Src/main.c **** #include "usart.h"
  25:Core/Src/main.c **** #include "gpio.h"
  26:Core/Src/main.c **** 
  27:Core/Src/main.c **** /* Private includes ----------------------------------------------------------*/
ARM GAS  C:\Users\30592\AppData\Local\Temp\cca1UH8z.s 			page 2


  28:Core/Src/main.c **** /* USER CODE BEGIN Includes */
  29:Core/Src/main.c **** #include "jy62.h"
  30:Core/Src/main.c **** #include "zigbee.h"
  31:Core/Src/main.c **** /* USER CODE END Includes */
  32:Core/Src/main.c **** 
  33:Core/Src/main.c **** /* Private typedef -----------------------------------------------------------*/
  34:Core/Src/main.c **** /* USER CODE BEGIN PTD */
  35:Core/Src/main.c **** 
  36:Core/Src/main.c **** float set_speed = 10.0;
  37:Core/Src/main.c **** int count_to_ten = 0;
  38:Core/Src/main.c **** volatile float distance1 = 0.0, distance2 = 0.0, distance3 = 0.0, distance4 = 0.0;
  39:Core/Src/main.c **** extern uint8_t jy62Receive[JY62_MESSAGE_LENGTH];
  40:Core/Src/main.c **** extern uint8_t jy62Message[JY62_MESSAGE_LENGTH];
  41:Core/Src/main.c **** 
  42:Core/Src/main.c **** float angle_obj, dis_obj;
  43:Core/Src/main.c **** float obj_x, obj_y, car_x, car_y;
  44:Core/Src/main.c **** 
  45:Core/Src/main.c **** //////////////////////////////////////Sol_Car_PosÂáΩÊï∞ÂèòÈáèÂÆö‰πâ////////////////////////////////
  46:Core/Src/main.c **** int beacon_Pos[6];               //‰∏â‰∏™‰ø°Ê†áÂùêÊ†áÔºå‰æùÊ¨°Â≠òÊîæx_1„ÄÅy_1„ÄÅx_2„ÄÅy_2„ÄÅx_3„ÄÅy
  47:Core/Src/main.c **** int car_Pos[2];                  //Â∞èËΩ¶ÂΩìÂâçÂùêÊ†á
  48:Core/Src/main.c **** double beacon_determinant = 0.0; //ËÆ°ÁÆó‰∏≠Èó¥ÂèòÈáè
  49:Core/Src/main.c **** //////////////////////////////////////Sol_Car_PosÂáΩÊï∞ÂÆö‰πâÁªìÊùü////////////////////////////////
  50:Core/Src/main.c **** //////////////////////////////////////Ê±ÇËß£ÈáëÁüø‰ΩçÁΩÆ‰∏≠Èó¥ÂèòÈáèÂÆπÂô®/////////////////////////
  51:Core/Src/main.c **** //Ê±ÇËß£ÈáëÁüø‰ΩçÁΩÆÔøΩ?Ë¶ÅÁî®Âà∞ÂΩìÂâçÊó∂ÂàªÔøΩ?ÔøΩ‰∏äÔøΩ?Êó∂Âàª„ÄÅ‰∏ä‰∏ä‰∏™Êó∂ÂàªÁöÑÂ∞èËΩ¶‰ΩçÁΩÆ‰
  52:Core/Src/main.c **** struct Sol_Mine_Pos_Temp
  53:Core/Src/main.c **** {
  54:Core/Src/main.c ****     uint16_t x;   //Â∞èËΩ¶xÂùêÊ†á
  55:Core/Src/main.c ****     uint16_t y;   //Â∞èËΩ¶yÂùêÊ†á
  56:Core/Src/main.c ****     uint32_t E_1; //Âú∫Âº∫1
  57:Core/Src/main.c ****     uint32_t E_2; //Âú∫Âº∫2
  58:Core/Src/main.c **** } Prev_Pos[3] = {{0, 0, 0}, {0, 0, 0}, {0, 0, 0}};
  59:Core/Src/main.c **** short Prev_Pos_head = 0;
  60:Core/Src/main.c **** ////////////////////////////////////Ê±ÇËß£ÈáëÁüø‰ΩçÁΩÆ‰∏≠Èó¥ÂèòÈáèÂÆπÂô®ÁªìÊùü/////////////////////
  61:Core/Src/main.c **** 
  62:Core/Src/main.c **** struct A //ËµÑÊ∫êÂùêÊ†á
  63:Core/Src/main.c **** {
  64:Core/Src/main.c ****     int x[2];         //(x[0],y[0])ÊòØÁ¨¨ÔøΩ?‰∏™ËµÑÊ∫êÁöÑÂùêÊ†á
  65:Core/Src/main.c ****     int y[2];         //(x[1],y[1])ÊòØÁ¨¨‰∫å‰∏™ËµÑÊ∫êÁöÑÂùêÔøΩ?
  66:Core/Src/main.c ****     int iscalculated; //ÊòØÂê¶Ë¢´ËÆ°ÁÆóÂá∫ÔøΩ? 0-false
  67:Core/Src/main.c ****     int priority;     //ÔøΩ?ËøëËµÑÊ∫êÁöÑ‰∏ãÊ†á
  68:Core/Src/main.c **** } resource_location = {{-1, -1}, {-1, -1}, 0, -1};
  69:Core/Src/main.c **** int score;            //ÂæóÂàÜÔøΩ?
  70:Core/Src/main.c **** int count_beacon = 0; //‰ø°Ê†áËÆ°Êï∞ÔøΩ?
  71:Core/Src/main.c **** uint16_t now;         //ËÆ∞ÂΩïÂΩìÂâçÊó∂Èó¥
  72:Core/Src/main.c **** 
  73:Core/Src/main.c **** //‰ªìÂ∫ìÂùêÊ†á
  74:Core/Src/main.c **** int rep[8][2] = {{15, 15},
  75:Core/Src/main.c ****                  {127, 15},
  76:Core/Src/main.c ****                  {239, 127},
  77:Core/Src/main.c ****                  {239, 239},
  78:Core/Src/main.c ****                  {127, 239},
  79:Core/Src/main.c ****                  {15, 239},
  80:Core/Src/main.c ****                  {15, 127}};
  81:Core/Src/main.c **** 
  82:Core/Src/main.c **** int State = -1;
  83:Core/Src/main.c **** //Áä∂ÊÄÅÂèòÈáèÂØπÂ∫îË°®
  84:Core/Src/main.c **** // -1-ÊØîËµõÊú™ÂºÄÂßãÊàñÂ∑≤ÁªìÊùü
ARM GAS  C:\Users\30592\AppData\Local\Temp\cca1UH8z.s 			page 3


  85:Core/Src/main.c **** // 0-ÂàùÂßã/ÈöèÊÑèÊ∏∏Ëµ∞Ëß£ËµÑÊ∫êÂùêÊ†á
  86:Core/Src/main.c **** // 1-Â∑≤Ëé∑ÂæóËµÑÊ∫êÂùêÊ†áÔºåÂéªÁ¨¨‰∏Ä‰∏™ËµÑÊ∫ê
  87:Core/Src/main.c **** // 2-Â∑≤Êç°Ëµ∑Á¨¨‰∏Ä‰∏™ËµÑÊ∫êÔºåÂéªÁ¨¨‰∫å‰∏™
  88:Core/Src/main.c **** // 3-ËµÑÊ∫êÂÖ®ÈÉ®Êç°Âà∞ÔºåÂéªÊîæÁ¨¨‰∏Ä‰∏™‰ø°Ê†á(beacon)
  89:Core/Src/main.c **** // 4-ÂéªÊîæÁ¨¨‰∫å‰∏™‰ø°Ê†á
  90:Core/Src/main.c **** // 5-ÂéªÊîæÁ¨¨‰∏â‰∏™‰ø°Ê†á
  91:Core/Src/main.c **** // 6-Âéª‰ªìÂ∫ì
  92:Core/Src/main.c **** 
  93:Core/Src/main.c **** #define forward_speed 1500
  94:Core/Src/main.c **** #define rotate_speed 800
  95:Core/Src/main.c **** #define angle_err 5
  96:Core/Src/main.c **** /* USER CODE END PTD */
  97:Core/Src/main.c **** 
  98:Core/Src/main.c **** /* Private define ------------------------------------------------------------*/
  99:Core/Src/main.c **** /* USER CODE BEGIN PD */
 100:Core/Src/main.c **** //////////////////////////////////////Solve_Mine_PosÂáΩÊï∞ÂÆèÂÆöÔøΩ??//////////////////////////////
 101:Core/Src/main.c **** #define A_COFFIENT 1000000000.0 //ÈáëÁüøÂº∫Â∫¶Á≥ªÊï∞A
 102:Core/Src/main.c **** #define POS_ERR_TOL 4           //ÈáëÁüø‰ΩçÁΩÆËÆ°ÁÆóÁªìÊûúÂÅèÁ¶ªÂú∫Âú∞ÁöÑÊúÄÂ§ßËØØÔøΩ??
 103:Core/Src/main.c **** //////////////////////////////////////Solve_Mine_PosÂÆèÂÆö‰πâÁªìÔøΩ??//////////////////////////////
 104:Core/Src/main.c **** ////////////////////////////////////////atan2LUTifÂáΩÊï∞ÂÆèÂÆöÔøΩ??////////////////////////////////
 105:Core/Src/main.c **** #define M_PI_2 1.5707963
 106:Core/Src/main.c **** #define M_PI 3.141592654
 107:Core/Src/main.c **** #define M_PI_4_P_0273 1.05839816339744830962 //M_PI/4 + 0.273
 108:Core/Src/main.c **** const double ATAN_LUT[256] = {0.0000000000, 0.0039215485, 0.0078429764, 0.0117641631, 0.0156849881,
 109:Core/Src/main.c ****                               0.0235250710, 0.0274440882, 0.0313622624, 0.0352794736, 0.0391956019,
 110:Core/Src/main.c ****                               0.0470241318, 0.0509362949, 0.0548468980, 0.0587558227, 0.0626629506,
 111:Core/Src/main.c ****                               0.0704713446, 0.0743723758, 0.0782711405, 0.0821675224, 0.0860614053,
 112:Core/Src/main.c ****                               0.0938412126, 0.0977269074, 0.1016096438, 0.1054893085, 0.1093657884,
 113:Core/Src/main.c ****                               0.1171087446, 0.1209749978, 0.1248376255, 0.1286965013, 0.1325515323,
 114:Core/Src/main.c ****                               0.1402496096, 0.1440924408, 0.1479309912, 0.1517651553, 0.1555948280,
 115:Core/Src/main.c ****                               0.1632402828, 0.1670558588, 0.1708665312, 0.1746721990, 0.1784727620,
 116:Core/Src/main.c ****                               0.1860581771, 0.1898428334, 0.1936219929, 0.1973955598, 0.2011634395,
 117:Core/Src/main.c ****                               0.2086817623, 0.2124320205, 0.2161762215, 0.2199142752, 0.2236460927,
 118:Core/Src/main.c ****                               0.2310906672, 0.2348032511, 0.2385092525, 0.2422085871, 0.2459011721,
 119:Core/Src/main.c ****                               0.2532657662, 0.2569376146, 0.2606023917, 0.2642600199, 0.2679104224,
 120:Core/Src/main.c ****                               0.2751892491, 0.2788175253, 0.2824382800, 0.2860514417, 0.2896569404,
 121:Core/Src/main.c ****                               0.2968446734, 0.3004267728, 0.3040009393, 0.3075671084, 0.3111252164,
 122:Core/Src/main.c ****                               0.3182170002, 0.3217505544, 0.3252758042, 0.3287926915, 0.3323011594,
 123:Core/Src/main.c ****                               0.3392926145, 0.3427754932, 0.3462497357, 0.3497152904, 0.3531721069,
 124:Core/Src/main.c ****                               0.3600593294, 0.3634896400, 0.3669110217, 0.3703234297, 0.3737268255,
 125:Core/Src/main.c ****                               0.3805063771, 0.3838824615, 0.3872493632, 0.3906070437, 0.3939554653,
 126:Core/Src/main.c ****                               0.4006243869, 0.4039448169, 0.4072558481, 0.4105574480, 0.4138495853,
 127:Core/Src/main.c ****                               0.4204053512, 0.4236689219, 0.4269229141, 0.4301673014, 0.4334020581,
 128:Core/Src/main.c ****                               0.4398425828, 0.4430483044, 0.4462443029, 0.4494305575, 0.4526070482,
 129:Core/Src/main.c ****                               0.4589306629, 0.4620777516, 0.4652150058, 0.4683424102, 0.4714599501,
 130:Core/Src/main.c ****                               0.4776653824, 0.4807532499, 0.4838312032, 0.4868992318, 0.4899573263,
 131:Core/Src/main.c ****                               0.4960436784, 0.4990719209, 0.5020901990, 0.5050985071, 0.5080968402,
 132:Core/Src/main.c ****                               0.5140635659, 0.5170319525, 0.5199903521, 0.5229387636, 0.5258771863,
 133:Core/Src/main.c ****                               0.5317240673, 0.5346325278, 0.5375310045, 0.5404195003, 0.5432980185,
 134:Core/Src/main.c ****                               0.5490251398, 0.5518737530, 0.5547124091, 0.5575411147, 0.5603598769,
 135:Core/Src/main.c ****                               0.5659676030, 0.5687565842, 0.5715356566, 0.5743048302, 0.5770641155,
 136:Core/Src/main.c ****                               0.5825530662, 0.5852827553, 0.5880026035, 0.5907126240, 0.5934128303,
 137:Core/Src/main.c ****                               0.5987838570, 0.6014547069, 0.6041158015, 0.6067671569, 0.6094087892,
 138:Core/Src/main.c ****                               0.6146629519, 0.6172755171, 0.6198784285, 0.6224717045, 0.6250553640,
 139:Core/Src/main.c ****                               0.6301939095, 0.6327488350, 0.6352942223, 0.6378300921, 0.6403564651,
 140:Core/Src/main.c ****                               0.6453808058, 0.6478788169, 0.6503674179, 0.6528466311, 0.6553164793,
 141:Core/Src/main.c ****                               0.6602281731, 0.6626700655, 0.6651026865, 0.6675260602, 0.6699402110,
ARM GAS  C:\Users\30592\AppData\Local\Temp\cca1UH8z.s 			page 4


 142:Core/Src/main.c ****                               0.6747409422, 0.6771275725, 0.6795050796, 0.6818734889, 0.6842328261,
 143:Core/Src/main.c ****                               0.6889243882, 0.6912566655, 0.6935799756, 0.6958943450, 0.6981998008,
 144:Core/Src/main.c ****                               0.7027840796, 0.7050629571, 0.7073330300, 0.7095943260, 0.7118468729,
 145:Core/Src/main.c ****                               0.7163258312, 0.7185522990, 0.7207701302, 0.7229793534, 0.7251799971,
 146:Core/Src/main.c ****                               0.7295556609, 0.7317307387, 0.7338973524, 0.7360555311, 0.7382053040,
 147:Core/Src/main.c ****                               0.7424797493, 0.7446044805, 0.7467209234, 0.7488291075, 0.7509290624,
 148:Core/Src/main.c ****                               0.7551044035, 0.7571798492, 0.7592471847, 0.7613064400, 0.7633576449,
 149:Core/Src/main.c ****                               0.7674360235, 0.7694632573, 0.7714825607, 0.7734939638, 0.7754974968,
 150:Core/Src/main.c ****                               0.7794810727, 0.7814611759, 0.7834335294, 0.7853981634};
 151:Core/Src/main.c **** ////////////////////////////////////////atan2LUTifÂÆèÂÆö‰πâÁªìÔøΩ??////////////////////////////////
 152:Core/Src/main.c **** 
 153:Core/Src/main.c **** /* USER CODE END PD */
 154:Core/Src/main.c **** 
 155:Core/Src/main.c **** /* Private macro -------------------------------------------------------------*/
 156:Core/Src/main.c **** /* USER CODE BEGIN PM */
 157:Core/Src/main.c **** 
 158:Core/Src/main.c **** /* USER CODE END PM */
 159:Core/Src/main.c **** 
 160:Core/Src/main.c **** /* Private variables ---------------------------------------------------------*/
 161:Core/Src/main.c **** 
 162:Core/Src/main.c **** /* USER CODE BEGIN PV */
 163:Core/Src/main.c **** const float Kp = 300.0;
 164:Core/Src/main.c **** const float Ki = -118;
 165:Core/Src/main.c **** const float Kd = 50;
 166:Core/Src/main.c **** float state[3] = {0.0};
 167:Core/Src/main.c **** /* USER CODE END PV */
 168:Core/Src/main.c **** 
 169:Core/Src/main.c **** /* Private function prototypes -----------------------------------------------*/
 170:Core/Src/main.c **** void SystemClock_Config(void);
 171:Core/Src/main.c **** /* USER CODE BEGIN PFP */
 172:Core/Src/main.c **** 
 173:Core/Src/main.c **** /* USER CODE END PFP */
 174:Core/Src/main.c **** 
 175:Core/Src/main.c **** /* Private user code ---------------------------------------------------------*/
 176:Core/Src/main.c **** /* USER CODE BEGIN 0 */
 177:Core/Src/main.c **** 
 178:Core/Src/main.c **** void HAL_TIM_PeriodElapsedCallback(TIM_HandleTypeDef *htim)
 179:Core/Src/main.c **** {
 180:Core/Src/main.c ****     HAL_UART_Receive_DMA(&huart2, jy62Receive, JY62_MESSAGE_LENGTH);
 181:Core/Src/main.c ****     if (htim->Instance == TIM1)
 182:Core/Src/main.c ****     {
 183:Core/Src/main.c ****         car_Pos[0] = getCarPosX();
 184:Core/Src/main.c ****         car_Pos[1] = getCarPosY(); ///Êõ¥Êñ∞Â∞èËΩ¶xyÂùêÊ†á
 185:Core/Src/main.c ****         switch (State)
 186:Core/Src/main.c ****         {
 187:Core/Src/main.c ****         case (0): //ÂàùÂßãÁä∂ÔøΩ??
 188:Core/Src/main.c ****         {
 189:Core/Src/main.c ****             ////////////////////////Ëøô‰∏ÄÈÉ®ÂàÜÂ∫îÂΩì‰ªîÁªÜÔøΩ?ÔøΩ?///////////////////////////////
 190:Core/Src/main.c ****             ////////////////////////Ëøô‰∏ÄÈÉ®ÂàÜÂ∫îÂΩì‰ªîÁªÜÔøΩ?ÔøΩ?///////////////////////////////
 191:Core/Src/main.c ****             ////////////////////////Ëøô‰∏ÄÈÉ®ÂàÜÂ∫îÂΩì‰ªîÁªÜÔøΩ?ÔøΩ?///////////////////////////////
 192:Core/Src/main.c ****             //Ê≠•È™§1ÔºöÈöèÊÑèËµ∞ÔøΩ?
 193:Core/Src/main.c ****             rotate_clockwise(rotate_speed); ///ÂàùÂßãÊó∂ËΩ¨ÂúàÔºåÁ°ÆÂÆöËµÑÊ∫êÂùêÊ†á
 194:Core/Src/main.c ****             //Ê≠•È™§2ÔºöËß£ÁÆó‰∏§‰∏™ËµÑÊ∫êÂùêÔøΩ? =====ÂæÖÂÆûÔøΩ?=====
 195:Core/Src/main.c ****             // if (resource_location.iscalculated == 1) //Â¶ÇÊûúÊµãÁÆóÂá∫ÂùêÔøΩ?
 196:Core/Src/main.c ****             // {
 197:Core/Src/main.c ****             //     State = 1; //ËøõÂÖ•‰∏ã‰∏ÄÁä∂ÔøΩ??
 198:Core/Src/main.c ****             //     //Ê≠•È™§3ÔºöÁ°ÆÂÆöÁ¶ªËΩ¶ÊúÄËøëÁöÑÔøΩ?ÔøΩ?
ARM GAS  C:\Users\30592\AppData\Local\Temp\cca1UH8z.s 			page 5


 199:Core/Src/main.c ****             //     resource_location.priority = (resource_location.x[0]*resource_location.x[0]+reso
 200:Core/Src/main.c ****             // }
 201:Core/Src/main.c ****             // break;
 202:Core/Src/main.c ****             if (Solve_Mine_Pos(Prev_Pos[0].x, Prev_Pos[0].y, Prev_Pos[0].E_1, Prev_Pos[1].x, Prev_P
 203:Core/Src/main.c ****             {
 204:Core/Src/main.c ****                 //Âà©Áî®Solve_Mine_PosÂáΩÊï∞ËøîÂõûÂÄºÁõ¥Êé•Âà§Êñ≠ËÆ°ÁÆóÊòØÂê¶ÊàêÔøΩ?
 205:Core/Src/main.c ****                 State = 1; //ËøõÂÖ•‰∏ã‰∏ÄÁä∂ÔøΩ??
 206:Core/Src/main.c ****                 //Ê≠•È™§3ÔºöÁ°ÆÂÆöÁ¶ªËΩ¶ÊúÄËøëÁöÑÔøΩ?ÔøΩ?
 207:Core/Src/main.c ****                 resource_location.priority = (resource_location.x[0] * resource_location.x[0] + res
 208:Core/Src/main.c ****                 break;
 209:Core/Src/main.c ****             }
 210:Core/Src/main.c ****             else
 211:Core/Src/main.c ****             {
 212:Core/Src/main.c ****                 //caseËÆ°ÁÆó‰∏çÊàêÂäüÔºåÔøΩ?Ë¶ÅÊõ¥Êñ∞‰ΩçÁΩÆ‰∏éÂú∫Âº∫‰ø°ÊÅØÔºåÈáçÊñ∞ËÆ°ÁÆóÔøΩ??
 213:Core/Src/main.c ****                 Prev_Pos[Prev_Pos_head].x = getCarPosX();          //Âà©Áî®getCarPosXÂáΩÊï∞Ëé∑ÂèñÂ∞
 214:Core/Src/main.c ****                 Prev_Pos[Prev_Pos_head].y = getCarPosY();          //Âêå‰∏ä
 215:Core/Src/main.c ****                 Prev_Pos[Prev_Pos_head].E_1 = getMineIntensity(0); //Âà©Áî®getMineIntensityÂáΩÊï∞Êõ
 216:Core/Src/main.c ****                 Prev_Pos[Prev_Pos_head].E_1 = getMineIntensity(1); //Âêå‰∏ä
 217:Core/Src/main.c ****                 Prev_Pos_head = (Prev_Pos_head + 1) % 3;           //Â§¥ÊåáÈíàÂæ™ÁéØÂú∞ÂêéÁßª
 218:Core/Src/main.c ****                 break;
 219:Core/Src/main.c ****             }
 220:Core/Src/main.c ****         }
 221:Core/Src/main.c ****         case (1):
 222:Core/Src/main.c ****         {
 223:Core/Src/main.c ****             //ÂéªÊúÄËøëÁöÑËµÑÊ∫ê
 224:Core/Src/main.c ****             Goto(resource_location.x[resource_location.priority], resource_location.y[resource_loca
 225:Core/Src/main.c ****             if (getCarScore() > 0)
 226:Core/Src/main.c ****             {
 227:Core/Src/main.c ****                 State = 2;             //ËøõÂÖ•‰∏ã‰∏ÄÁä∂ÊÄÅ
 228:Core/Src/main.c ****                 score = getCarScore(); //Êõ¥Êñ∞ÂΩìÂâçÂàÜÊï∞
 229:Core/Src/main.c ****             }
 230:Core/Src/main.c ****             break;
 231:Core/Src/main.c ****         }
 232:Core/Src/main.c ****         case (2):
 233:Core/Src/main.c ****         {
 234:Core/Src/main.c ****             //ÂéªÁ¨¨‰∫å‰∏™ËµÑÊ∫ê
 235:Core/Src/main.c ****             Goto(resource_location.x[!resource_location.priority], resource_location.y[!resource_lo
 236:Core/Src/main.c ****             if (getCarScore() > score)
 237:Core/Src/main.c ****             {
 238:Core/Src/main.c ****                 State = 3;             //ËøõÂÖ•‰∏ã‰∏ÄÁä∂ÊÄÅ
 239:Core/Src/main.c ****                 score = getCarScore(); //Êõ¥Êñ∞ÂΩìÂâçÂàÜÊï∞
 240:Core/Src/main.c ****             }
 241:Core/Src/main.c ****             break;
 242:Core/Src/main.c ****         }
 243:Core/Src/main.c ****         case (3):
 244:Core/Src/main.c ****         {
 245:Core/Src/main.c ****             //ÊîæÁΩÆÁ¨¨‰∏Ä‰∏™‰ø°Ê†á (127,60Ôºâ‰∏≠ÂÅè‰∏ä
 246:Core/Src/main.c ****             if ((car_Pos[0] - 127) * (car_Pos[0] - 127) + (car_Pos[1] - 30) * (car_Pos[1] - 30) < 1
 247:Core/Src/main.c ****             {
 248:Core/Src/main.c ****                 count_beacon++;
 249:Core/Src/main.c ****                 if (count_beacon <= 100)
 250:Core/Src/main.c ****                 {
 251:Core/Src/main.c ****                     HAL_GPIO_WritePin(GPIOC, GPIO_PIN_0, GPIO_PIN_SET);
 252:Core/Src/main.c ****                 }
 253:Core/Src/main.c ****                 else
 254:Core/Src/main.c ****                 {
 255:Core/Src/main.c ****                     State = 4;
ARM GAS  C:\Users\30592\AppData\Local\Temp\cca1UH8z.s 			page 6


 256:Core/Src/main.c ****                     count_beacon = 0;
 257:Core/Src/main.c ****                 }
 258:Core/Src/main.c ****             }
 259:Core/Src/main.c ****             else
 260:Core/Src/main.c ****                 Goto(127, 30);
 261:Core/Src/main.c ****             break;
 262:Core/Src/main.c ****         }
 263:Core/Src/main.c ****         case (4):
 264:Core/Src/main.c ****         {
 265:Core/Src/main.c ****             //ÊîæÁΩÆÁ¨¨‰∫å‰∏™‰ø°ÔøΩ? (127,127)Ê≠£‰∏≠ÔøΩ?
 266:Core/Src/main.c ****             if ((car_Pos[0] - 127) * (car_Pos[0] - 127) + (car_Pos[1] - 127) * (car_Pos[1] - 127) <
 267:Core/Src/main.c ****             {
 268:Core/Src/main.c ****                 count_beacon++;
 269:Core/Src/main.c ****                 if (count_beacon <= 100)
 270:Core/Src/main.c ****                 {
 271:Core/Src/main.c ****                     HAL_GPIO_WritePin(GPIOC, GPIO_PIN_0, GPIO_PIN_SET);
 272:Core/Src/main.c ****                 }
 273:Core/Src/main.c ****                 else
 274:Core/Src/main.c ****                 {
 275:Core/Src/main.c ****                     State = 5;
 276:Core/Src/main.c ****                     count_beacon = 0;
 277:Core/Src/main.c ****                 }
 278:Core/Src/main.c ****             }
 279:Core/Src/main.c ****             else
 280:Core/Src/main.c ****                 Goto(127, 60);
 281:Core/Src/main.c ****             break;
 282:Core/Src/main.c ****         }
 283:Core/Src/main.c ****         case (5):
 284:Core/Src/main.c ****         {
 285:Core/Src/main.c ****             //ÊîæÁΩÆÁ¨¨‰∏â‰∏™‰ø°ÔøΩ? (60,127)‰∏≠ÂÅèÔøΩ?
 286:Core/Src/main.c ****             if ((car_Pos[0] - 60) * (car_Pos[0] - 60) + (car_Pos[1] - 127) * (car_Pos[1] - 127) < 1
 287:Core/Src/main.c ****             {
 288:Core/Src/main.c ****                 count_beacon++;
 289:Core/Src/main.c ****                 if (count_beacon <= 100)
 290:Core/Src/main.c ****                 {
 291:Core/Src/main.c ****                     HAL_GPIO_WritePin(GPIOC, GPIO_PIN_0, GPIO_PIN_SET);
 292:Core/Src/main.c ****                 }
 293:Core/Src/main.c ****                 else
 294:Core/Src/main.c ****                 {
 295:Core/Src/main.c ****                     State = 6;
 296:Core/Src/main.c ****                     count_beacon = 0;
 297:Core/Src/main.c ****                 }
 298:Core/Src/main.c ****             }
 299:Core/Src/main.c ****             else
 300:Core/Src/main.c ****                 Goto(127, 30);
 301:Core/Src/main.c ****             break;
 302:Core/Src/main.c ****         }
 303:Core/Src/main.c ****         case (6):
 304:Core/Src/main.c ****         {
 305:Core/Src/main.c ****             //ÂéªÊúÄËøë‰ªìÂ∫ì7Âè∑Ôºå‰∏çÂà§Êñ≠ÊòØÂê¶Âà∞Ëææ?
 306:Core/Src/main.c ****             Goto(15, 127);
 307:Core/Src/main.c ****             break;
 308:Core/Src/main.c ****         }
 309:Core/Src/main.c ****         }
 310:Core/Src/main.c ****     }
 311:Core/Src/main.c **** }
 312:Core/Src/main.c **** /* USER CODE END 0 */
ARM GAS  C:\Users\30592\AppData\Local\Temp\cca1UH8z.s 			page 7


 313:Core/Src/main.c **** 
 314:Core/Src/main.c **** /**
 315:Core/Src/main.c ****   * @brief  The application entry point.
 316:Core/Src/main.c ****   * @retval int
 317:Core/Src/main.c ****   */
 318:Core/Src/main.c **** int main(void)
 319:Core/Src/main.c **** {
 320:Core/Src/main.c ****     /* USER CODE BEGIN 1 */
 321:Core/Src/main.c ****     /* USER CODE END 1 */
 322:Core/Src/main.c **** 
 323:Core/Src/main.c ****     /* MCU Configuration--------------------------------------------------------*/
 324:Core/Src/main.c **** 
 325:Core/Src/main.c ****     /* Reset of all peripherals, Initializes the Flash interface and the Systick. */
 326:Core/Src/main.c ****     HAL_Init();
 327:Core/Src/main.c **** 
 328:Core/Src/main.c ****     /* USER CODE BEGIN Init */
 329:Core/Src/main.c ****     jy62_Init(&huart2);
 330:Core/Src/main.c ****     SetBaud(115200);
 331:Core/Src/main.c ****     SetHorizontal();
 332:Core/Src/main.c ****     InitAngle();
 333:Core/Src/main.c ****     Calibrate();
 334:Core/Src/main.c ****     SleepOrAwake();
 335:Core/Src/main.c ****     /* USER CODE END Init */
 336:Core/Src/main.c **** 
 337:Core/Src/main.c ****     /* Configure the system clock */
 338:Core/Src/main.c ****     SystemClock_Config();
 339:Core/Src/main.c **** 
 340:Core/Src/main.c ****     /* USER CODE BEGIN SysInit */
 341:Core/Src/main.c **** 
 342:Core/Src/main.c ****     /* USER CODE END SysInit */
 343:Core/Src/main.c **** 
 344:Core/Src/main.c ****     /* Initialize all configured peripherals */
 345:Core/Src/main.c ****     MX_GPIO_Init();
 346:Core/Src/main.c ****     MX_TIM1_Init();
 347:Core/Src/main.c ****     MX_TIM2_Init();
 348:Core/Src/main.c ****     MX_TIM8_Init();
 349:Core/Src/main.c ****     MX_TIM3_Init();
 350:Core/Src/main.c ****     MX_TIM4_Init();
 351:Core/Src/main.c ****     MX_DMA_Init();
 352:Core/Src/main.c ****     MX_USART2_UART_Init();
 353:Core/Src/main.c ****     MX_USART1_UART_Init();
 354:Core/Src/main.c ****     MX_TIM5_Init();
 355:Core/Src/main.c ****     /* USER CODE BEGIN 2 */
 356:Core/Src/main.c ****     zigbee_Init(&huart1);
 357:Core/Src/main.c ****     HAL_TIM_Base_Start_IT(&htim1);
 358:Core/Src/main.c ****     HAL_TIM_PWM_Start(&htim8, TIM_CHANNEL_1);
 359:Core/Src/main.c ****     HAL_TIM_PWM_Start(&htim8, TIM_CHANNEL_2);
 360:Core/Src/main.c ****     HAL_TIM_PWM_Start(&htim8, TIM_CHANNEL_3);
 361:Core/Src/main.c ****     HAL_TIM_PWM_Start(&htim8, TIM_CHANNEL_4);
 362:Core/Src/main.c ****     HAL_TIM_Encoder_Start(&htim2, TIM_CHANNEL_1);
 363:Core/Src/main.c ****     HAL_TIM_Encoder_Start(&htim2, TIM_CHANNEL_2);
 364:Core/Src/main.c ****     HAL_TIM_Encoder_Start(&htim3, TIM_CHANNEL_1);
 365:Core/Src/main.c ****     HAL_TIM_Encoder_Start(&htim3, TIM_CHANNEL_2);
 366:Core/Src/main.c ****     HAL_TIM_Encoder_Start(&htim4, TIM_CHANNEL_1);
 367:Core/Src/main.c ****     HAL_TIM_Encoder_Start(&htim4, TIM_CHANNEL_2);
 368:Core/Src/main.c ****     HAL_TIM_Encoder_Start(&htim5, TIM_CHANNEL_1);
 369:Core/Src/main.c ****     HAL_TIM_Encoder_Start(&htim5, TIM_CHANNEL_2);
ARM GAS  C:\Users\30592\AppData\Local\Temp\cca1UH8z.s 			page 8


 370:Core/Src/main.c ****     jy62_Init(&huart2);
 371:Core/Src/main.c ****     void jy62_Init(UART_HandleTypeDef * huart);
 372:Core/Src/main.c **** 
 373:Core/Src/main.c ****     HAL_GPIO_WritePin(GPIOB, GPIO_PIN_0, GPIO_PIN_SET);
 374:Core/Src/main.c ****     HAL_GPIO_WritePin(GPIOB, GPIO_PIN_1, GPIO_PIN_RESET);
 375:Core/Src/main.c ****     HAL_GPIO_WritePin(GPIOB, GPIO_PIN_2, GPIO_PIN_RESET);
 376:Core/Src/main.c ****     HAL_GPIO_WritePin(GPIOB, GPIO_PIN_10, GPIO_PIN_SET);
 377:Core/Src/main.c ****     HAL_GPIO_WritePin(GPIOB, GPIO_PIN_11, GPIO_PIN_SET);
 378:Core/Src/main.c ****     HAL_GPIO_WritePin(GPIOB, GPIO_PIN_12, GPIO_PIN_RESET);
 379:Core/Src/main.c ****     HAL_GPIO_WritePin(GPIOB, GPIO_PIN_13, GPIO_PIN_RESET);
 380:Core/Src/main.c ****     HAL_GPIO_WritePin(GPIOB, GPIO_PIN_14, GPIO_PIN_SET);
 381:Core/Src/main.c ****     /* USER CODE END 2 */
 382:Core/Src/main.c **** 
 383:Core/Src/main.c ****     /* Infinite loop */
 384:Core/Src/main.c ****     /* USER CODE BEGIN WHILE */
 385:Core/Src/main.c ****     while (1)
 386:Core/Src/main.c ****     {
 387:Core/Src/main.c ****         /* USER CODE END WHILE */
 388:Core/Src/main.c **** 
 389:Core/Src/main.c ****         /* USER CODE BEGIN 3 */
 390:Core/Src/main.c ****         if (getGameState() == 1)
 391:Core/Src/main.c ****         {
 392:Core/Src/main.c ****             State = 0;
 393:Core/Src/main.c ****         }
 394:Core/Src/main.c ****     }
 395:Core/Src/main.c ****     /* USER CODE END 3 */
 396:Core/Src/main.c **** }
 397:Core/Src/main.c **** 
 398:Core/Src/main.c **** /**
 399:Core/Src/main.c ****   * @brief System Clock Configuration
 400:Core/Src/main.c ****   * @retval None
 401:Core/Src/main.c ****   */
 402:Core/Src/main.c **** void SystemClock_Config(void)
 403:Core/Src/main.c **** {
 404:Core/Src/main.c ****     RCC_OscInitTypeDef RCC_OscInitStruct = {0};
 405:Core/Src/main.c ****     RCC_ClkInitTypeDef RCC_ClkInitStruct = {0};
 406:Core/Src/main.c **** 
 407:Core/Src/main.c ****     /** Initializes the RCC Oscillators according to the specified parameters
 408:Core/Src/main.c ****   * in the RCC_OscInitTypeDef structure.
 409:Core/Src/main.c ****   */
 410:Core/Src/main.c ****     RCC_OscInitStruct.OscillatorType = RCC_OSCILLATORTYPE_HSE;
 411:Core/Src/main.c ****     RCC_OscInitStruct.HSEState = RCC_HSE_ON;
 412:Core/Src/main.c ****     RCC_OscInitStruct.HSEPredivValue = RCC_HSE_PREDIV_DIV1;
 413:Core/Src/main.c ****     RCC_OscInitStruct.HSIState = RCC_HSI_ON;
 414:Core/Src/main.c ****     RCC_OscInitStruct.PLL.PLLState = RCC_PLL_ON;
 415:Core/Src/main.c ****     RCC_OscInitStruct.PLL.PLLSource = RCC_PLLSOURCE_HSE;
 416:Core/Src/main.c ****     RCC_OscInitStruct.PLL.PLLMUL = RCC_PLL_MUL9;
 417:Core/Src/main.c ****     if (HAL_RCC_OscConfig(&RCC_OscInitStruct) != HAL_OK)
 418:Core/Src/main.c ****     {
 419:Core/Src/main.c ****         Error_Handler();
 420:Core/Src/main.c ****     }
 421:Core/Src/main.c ****     /** Initializes the CPU, AHB and APB buses clocks
 422:Core/Src/main.c ****   */
 423:Core/Src/main.c ****     RCC_ClkInitStruct.ClockType = RCC_CLOCKTYPE_HCLK | RCC_CLOCKTYPE_SYSCLK | RCC_CLOCKTYPE_PCLK1 |
 424:Core/Src/main.c ****     RCC_ClkInitStruct.SYSCLKSource = RCC_SYSCLKSOURCE_PLLCLK;
 425:Core/Src/main.c ****     RCC_ClkInitStruct.AHBCLKDivider = RCC_SYSCLK_DIV1;
 426:Core/Src/main.c ****     RCC_ClkInitStruct.APB1CLKDivider = RCC_HCLK_DIV2;
ARM GAS  C:\Users\30592\AppData\Local\Temp\cca1UH8z.s 			page 9


 427:Core/Src/main.c ****     RCC_ClkInitStruct.APB2CLKDivider = RCC_HCLK_DIV1;
 428:Core/Src/main.c **** 
 429:Core/Src/main.c ****     if (HAL_RCC_ClockConfig(&RCC_ClkInitStruct, FLASH_LATENCY_2) != HAL_OK)
 430:Core/Src/main.c ****     {
 431:Core/Src/main.c ****         Error_Handler();
 432:Core/Src/main.c ****     }
 433:Core/Src/main.c **** }
 434:Core/Src/main.c **** 
 435:Core/Src/main.c **** /* USER CODE BEGIN 4 */
 436:Core/Src/main.c **** float pid(float in)
 437:Core/Src/main.c **** {
  32              		.loc 1 437 1 view -0
  33              		.cfi_startproc
  34              		@ args = 0, pretend = 0, frame = 0
  35              		@ frame_needed = 0, uses_anonymous_args = 0
  36              		.loc 1 437 1 is_stmt 0 view .LVU1
  37 0000 F8B5     		push	{r3, r4, r5, r6, r7, lr}
  38              	.LCFI0:
  39              		.cfi_def_cfa_offset 24
  40              		.cfi_offset 3, -24
  41              		.cfi_offset 4, -20
  42              		.cfi_offset 5, -16
  43              		.cfi_offset 6, -12
  44              		.cfi_offset 7, -8
  45              		.cfi_offset 14, -4
  46 0002 0546     		mov	r5, r0
 438:Core/Src/main.c ****     float out;
  47              		.loc 1 438 5 is_stmt 1 view .LVU2
 439:Core/Src/main.c ****     // y[n] = A0 * x[n] + A1 * x[n-1] + A2 * x[n-2]
 440:Core/Src/main.c ****     out = ((Kp + Ki + Kd) * in) + ((-Ki - 2 * Kd) * state[0]) + (Kd * state[1]);
  48              		.loc 1 440 5 view .LVU3
  49              		.loc 1 440 27 is_stmt 0 view .LVU4
  50 0004 1749     		ldr	r1, .L13
  51 0006 FFF7FEFF 		bl	__aeabi_fmul
  52              	.LVL1:
  53              		.loc 1 440 27 view .LVU5
  54 000a 0646     		mov	r6, r0
  55              		.loc 1 440 58 view .LVU6
  56 000c 164C     		ldr	r4, .L13+4
  57 000e 2768     		ldr	r7, [r4]	@ float
  58              		.loc 1 440 51 view .LVU7
  59 0010 1649     		ldr	r1, .L13+8
  60 0012 3846     		mov	r0, r7
  61 0014 FFF7FEFF 		bl	__aeabi_fmul
  62              	.LVL2:
  63 0018 0146     		mov	r1, r0
  64              		.loc 1 440 33 view .LVU8
  65 001a 3046     		mov	r0, r6
  66 001c FFF7FEFF 		bl	__aeabi_fadd
  67              	.LVL3:
  68 0020 0646     		mov	r6, r0
  69              		.loc 1 440 69 view .LVU9
  70 0022 1349     		ldr	r1, .L13+12
  71 0024 6068     		ldr	r0, [r4, #4]	@ float
  72 0026 FFF7FEFF 		bl	__aeabi_fmul
  73              	.LVL4:
  74 002a 0146     		mov	r1, r0
ARM GAS  C:\Users\30592\AppData\Local\Temp\cca1UH8z.s 			page 10


  75              		.loc 1 440 9 view .LVU10
  76 002c 3046     		mov	r0, r6
  77 002e FFF7FEFF 		bl	__aeabi_fadd
  78              	.LVL5:
  79 0032 0646     		mov	r6, r0
  80              	.LVL6:
 441:Core/Src/main.c ****     state[1] = state[0];
  81              		.loc 1 441 5 is_stmt 1 view .LVU11
  82              		.loc 1 441 14 is_stmt 0 view .LVU12
  83 0034 6760     		str	r7, [r4, #4]	@ float
 442:Core/Src/main.c ****     state[0] = in;
  84              		.loc 1 442 5 is_stmt 1 view .LVU13
  85              		.loc 1 442 14 is_stmt 0 view .LVU14
  86 0036 2560     		str	r5, [r4]	@ float
 443:Core/Src/main.c ****     if (out >= PID_MAX)
  87              		.loc 1 443 5 is_stmt 1 view .LVU15
  88              		.loc 1 443 8 is_stmt 0 view .LVU16
  89 0038 0E49     		ldr	r1, .L13+16
  90 003a FFF7FEFF 		bl	__aeabi_fcmpge
  91              	.LVL7:
  92              		.loc 1 443 8 view .LVU17
  93 003e 20B1     		cbz	r0, .L9
 444:Core/Src/main.c ****         state[2] = PID_MAX;
  94              		.loc 1 444 9 is_stmt 1 view .LVU18
  95              		.loc 1 444 18 is_stmt 0 view .LVU19
  96 0040 0C4A     		ldr	r2, .L13+16
  97 0042 A260     		str	r2, [r4, #8]	@ float
  98              	.L4:
 445:Core/Src/main.c ****     else if (out <= PID_MIN)
 446:Core/Src/main.c ****         state[2] = PID_MIN;
 447:Core/Src/main.c ****     else
 448:Core/Src/main.c ****         state[2] = out;
 449:Core/Src/main.c ****     return (state[2]);
  99              		.loc 1 449 5 is_stmt 1 view .LVU20
 450:Core/Src/main.c **** }
 100              		.loc 1 450 1 is_stmt 0 view .LVU21
 101 0044 084B     		ldr	r3, .L13+4
 102 0046 9868     		ldr	r0, [r3, #8]	@ float
 103 0048 F8BD     		pop	{r3, r4, r5, r6, r7, pc}
 104              	.LVL8:
 105              	.L9:
 445:Core/Src/main.c ****     else if (out <= PID_MIN)
 106              		.loc 1 445 10 is_stmt 1 view .LVU22
 445:Core/Src/main.c ****     else if (out <= PID_MIN)
 107              		.loc 1 445 13 is_stmt 0 view .LVU23
 108 004a 0021     		movs	r1, #0
 109 004c 3046     		mov	r0, r6
 110 004e FFF7FEFF 		bl	__aeabi_fcmple
 111              	.LVL9:
 112 0052 10B9     		cbnz	r0, .L12
 448:Core/Src/main.c ****     return (state[2]);
 113              		.loc 1 448 9 is_stmt 1 view .LVU24
 448:Core/Src/main.c ****     return (state[2]);
 114              		.loc 1 448 18 is_stmt 0 view .LVU25
 115 0054 044B     		ldr	r3, .L13+4
 116 0056 9E60     		str	r6, [r3, #8]	@ float
 117 0058 F4E7     		b	.L4
ARM GAS  C:\Users\30592\AppData\Local\Temp\cca1UH8z.s 			page 11


 118              	.L12:
 446:Core/Src/main.c ****     else
 119              		.loc 1 446 9 is_stmt 1 view .LVU26
 446:Core/Src/main.c ****     else
 120              		.loc 1 446 18 is_stmt 0 view .LVU27
 121 005a 034B     		ldr	r3, .L13+4
 122 005c 0022     		movs	r2, #0
 123 005e 9A60     		str	r2, [r3, #8]	@ float
 124 0060 F0E7     		b	.L4
 125              	.L14:
 126 0062 00BF     		.align	2
 127              	.L13:
 128 0064 00006843 		.word	1130889216
 129 0068 00000000 		.word	.LANCHOR0
 130 006c 00009041 		.word	1099956224
 131 0070 00004842 		.word	1112014848
 132 0074 00803B45 		.word	1161527296
 133              		.cfi_endproc
 134              	.LFE68:
 136              		.section	.text.Abs,"ax",%progbits
 137              		.align	1
 138              		.global	Abs
 139              		.syntax unified
 140              		.thumb
 141              		.thumb_func
 142              		.fpu softvfp
 144              	Abs:
 145              	.LVL10:
 146              	.LFB69:
 451:Core/Src/main.c **** 
 452:Core/Src/main.c **** short Abs(short in)
 453:Core/Src/main.c **** {
 147              		.loc 1 453 1 is_stmt 1 view -0
 148              		.cfi_startproc
 149              		@ args = 0, pretend = 0, frame = 0
 150              		@ frame_needed = 0, uses_anonymous_args = 0
 151              		@ link register save eliminated.
 454:Core/Src/main.c ****     return in >= 0 ? in : -in;
 152              		.loc 1 454 5 view .LVU29
 153              		.loc 1 454 25 is_stmt 0 view .LVU30
 154 0000 0028     		cmp	r0, #0
 155 0002 B8BF     		it	lt
 156 0004 4042     		rsblt	r0, r0, #0
 157              	.LVL11:
 455:Core/Src/main.c **** }
 158              		.loc 1 455 1 view .LVU31
 159 0006 00B2     		sxth	r0, r0
 160 0008 7047     		bx	lr
 161              		.cfi_endproc
 162              	.LFE69:
 164              		.global	__aeabi_fsub
 165              		.global	__aeabi_fcmpgt
 166              		.global	__aeabi_fcmplt
 167              		.section	.text.qiuyu360,"ax",%progbits
 168              		.align	1
 169              		.global	qiuyu360
 170              		.syntax unified
ARM GAS  C:\Users\30592\AppData\Local\Temp\cca1UH8z.s 			page 12


 171              		.thumb
 172              		.thumb_func
 173              		.fpu softvfp
 175              	qiuyu360:
 176              	.LVL12:
 177              	.LFB70:
 456:Core/Src/main.c **** 
 457:Core/Src/main.c **** float qiuyu360(float in)
 458:Core/Src/main.c **** {
 178              		.loc 1 458 1 is_stmt 1 view -0
 179              		.cfi_startproc
 180              		@ args = 0, pretend = 0, frame = 0
 181              		@ frame_needed = 0, uses_anonymous_args = 0
 182              		.loc 1 458 1 is_stmt 0 view .LVU33
 183 0000 10B5     		push	{r4, lr}
 184              	.LCFI1:
 185              		.cfi_def_cfa_offset 8
 186              		.cfi_offset 4, -8
 187              		.cfi_offset 14, -4
 188 0002 0446     		mov	r4, r0
 459:Core/Src/main.c ****     while (in > 360)
 189              		.loc 1 459 5 is_stmt 1 view .LVU34
 190              		.loc 1 459 11 is_stmt 0 view .LVU35
 191 0004 04E0     		b	.L17
 192              	.LVL13:
 193              	.L18:
 460:Core/Src/main.c ****         in -= 360.0;
 194              		.loc 1 460 9 is_stmt 1 view .LVU36
 195              		.loc 1 460 12 is_stmt 0 view .LVU37
 196 0006 0C49     		ldr	r1, .L22
 197 0008 2046     		mov	r0, r4
 198 000a FFF7FEFF 		bl	__aeabi_fsub
 199              	.LVL14:
 200 000e 0446     		mov	r4, r0
 201              	.LVL15:
 202              	.L17:
 459:Core/Src/main.c ****     while (in > 360)
 203              		.loc 1 459 11 is_stmt 1 view .LVU38
 204 0010 0949     		ldr	r1, .L22
 205 0012 2046     		mov	r0, r4
 459:Core/Src/main.c ****     while (in > 360)
 206              		.loc 1 459 11 is_stmt 0 view .LVU39
 207 0014 FFF7FEFF 		bl	__aeabi_fcmpgt
 208              	.LVL16:
 459:Core/Src/main.c ****     while (in > 360)
 209              		.loc 1 459 11 view .LVU40
 210 0018 0028     		cmp	r0, #0
 211 001a F4D1     		bne	.L18
 459:Core/Src/main.c ****     while (in > 360)
 212              		.loc 1 459 11 view .LVU41
 213 001c 04E0     		b	.L19
 214              	.L20:
 461:Core/Src/main.c ****     while (in < 0)
 462:Core/Src/main.c ****         in += 360.0;
 215              		.loc 1 462 9 is_stmt 1 view .LVU42
 216              		.loc 1 462 12 is_stmt 0 view .LVU43
 217 001e 0649     		ldr	r1, .L22
ARM GAS  C:\Users\30592\AppData\Local\Temp\cca1UH8z.s 			page 13


 218 0020 2046     		mov	r0, r4
 219 0022 FFF7FEFF 		bl	__aeabi_fadd
 220              	.LVL17:
 221 0026 0446     		mov	r4, r0
 222              	.LVL18:
 223              	.L19:
 461:Core/Src/main.c ****     while (in < 0)
 224              		.loc 1 461 11 is_stmt 1 view .LVU44
 225 0028 0021     		movs	r1, #0
 226 002a 2046     		mov	r0, r4
 227 002c FFF7FEFF 		bl	__aeabi_fcmplt
 228              	.LVL19:
 229 0030 0028     		cmp	r0, #0
 230 0032 F4D1     		bne	.L20
 463:Core/Src/main.c ****     return in;
 231              		.loc 1 463 5 view .LVU45
 464:Core/Src/main.c **** }
 232              		.loc 1 464 1 is_stmt 0 view .LVU46
 233 0034 2046     		mov	r0, r4
 234 0036 10BD     		pop	{r4, pc}
 235              	.LVL20:
 236              	.L23:
 237              		.loc 1 464 1 view .LVU47
 238              		.align	2
 239              	.L22:
 240 0038 0000B443 		.word	1135869952
 241              		.cfi_endproc
 242              	.LFE70:
 244              		.section	.text.forward,"ax",%progbits
 245              		.align	1
 246              		.global	forward
 247              		.syntax unified
 248              		.thumb
 249              		.thumb_func
 250              		.fpu softvfp
 252              	forward:
 253              	.LVL21:
 254              	.LFB71:
 465:Core/Src/main.c **** 
 466:Core/Src/main.c **** void forward(int pwm)
 467:Core/Src/main.c **** {
 255              		.loc 1 467 1 is_stmt 1 view -0
 256              		.cfi_startproc
 257              		@ args = 0, pretend = 0, frame = 0
 258              		@ frame_needed = 0, uses_anonymous_args = 0
 259              		.loc 1 467 1 is_stmt 0 view .LVU49
 260 0000 38B5     		push	{r3, r4, r5, lr}
 261              	.LCFI2:
 262              		.cfi_def_cfa_offset 16
 263              		.cfi_offset 3, -16
 264              		.cfi_offset 4, -12
 265              		.cfi_offset 5, -8
 266              		.cfi_offset 14, -4
 267 0002 0546     		mov	r5, r0
 468:Core/Src/main.c ****     //change rotate direction of wheel
 469:Core/Src/main.c ****     HAL_GPIO_WritePin(GPIOB, GPIO_PIN_0, GPIO_PIN_SET);
 268              		.loc 1 469 5 is_stmt 1 view .LVU50
ARM GAS  C:\Users\30592\AppData\Local\Temp\cca1UH8z.s 			page 14


 269 0004 1A4C     		ldr	r4, .L26
 270 0006 0122     		movs	r2, #1
 271 0008 1146     		mov	r1, r2
 272 000a 2046     		mov	r0, r4
 273              	.LVL22:
 274              		.loc 1 469 5 is_stmt 0 view .LVU51
 275 000c FFF7FEFF 		bl	HAL_GPIO_WritePin
 276              	.LVL23:
 470:Core/Src/main.c ****     HAL_GPIO_WritePin(GPIOB, GPIO_PIN_1, GPIO_PIN_RESET);
 277              		.loc 1 470 5 is_stmt 1 view .LVU52
 278 0010 0022     		movs	r2, #0
 279 0012 0221     		movs	r1, #2
 280 0014 2046     		mov	r0, r4
 281 0016 FFF7FEFF 		bl	HAL_GPIO_WritePin
 282              	.LVL24:
 471:Core/Src/main.c ****     HAL_GPIO_WritePin(GPIOB, GPIO_PIN_2, GPIO_PIN_RESET);
 283              		.loc 1 471 5 view .LVU53
 284 001a 0022     		movs	r2, #0
 285 001c 0421     		movs	r1, #4
 286 001e 2046     		mov	r0, r4
 287 0020 FFF7FEFF 		bl	HAL_GPIO_WritePin
 288              	.LVL25:
 472:Core/Src/main.c ****     HAL_GPIO_WritePin(GPIOB, GPIO_PIN_10, GPIO_PIN_SET);
 289              		.loc 1 472 5 view .LVU54
 290 0024 0122     		movs	r2, #1
 291 0026 4FF48061 		mov	r1, #1024
 292 002a 2046     		mov	r0, r4
 293 002c FFF7FEFF 		bl	HAL_GPIO_WritePin
 294              	.LVL26:
 473:Core/Src/main.c ****     HAL_GPIO_WritePin(GPIOB, GPIO_PIN_11, GPIO_PIN_SET);
 295              		.loc 1 473 5 view .LVU55
 296 0030 0122     		movs	r2, #1
 297 0032 4FF40061 		mov	r1, #2048
 298 0036 2046     		mov	r0, r4
 299 0038 FFF7FEFF 		bl	HAL_GPIO_WritePin
 300              	.LVL27:
 474:Core/Src/main.c ****     HAL_GPIO_WritePin(GPIOB, GPIO_PIN_12, GPIO_PIN_RESET);
 301              		.loc 1 474 5 view .LVU56
 302 003c 0022     		movs	r2, #0
 303 003e 4FF48051 		mov	r1, #4096
 304 0042 2046     		mov	r0, r4
 305 0044 FFF7FEFF 		bl	HAL_GPIO_WritePin
 306              	.LVL28:
 475:Core/Src/main.c ****     HAL_GPIO_WritePin(GPIOB, GPIO_PIN_13, GPIO_PIN_RESET);
 307              		.loc 1 475 5 view .LVU57
 308 0048 0022     		movs	r2, #0
 309 004a 4FF40051 		mov	r1, #8192
 310 004e 2046     		mov	r0, r4
 311 0050 FFF7FEFF 		bl	HAL_GPIO_WritePin
 312              	.LVL29:
 476:Core/Src/main.c ****     HAL_GPIO_WritePin(GPIOB, GPIO_PIN_14, GPIO_PIN_SET);
 313              		.loc 1 476 5 view .LVU58
 314 0054 0122     		movs	r2, #1
 315 0056 4FF48041 		mov	r1, #16384
 316 005a 2046     		mov	r0, r4
 317 005c FFF7FEFF 		bl	HAL_GPIO_WritePin
 318              	.LVL30:
ARM GAS  C:\Users\30592\AppData\Local\Temp\cca1UH8z.s 			page 15


 477:Core/Src/main.c ****     //give pwm output
 478:Core/Src/main.c ****     __HAL_TIM_SetCompare(&htim8, TIM_CHANNEL_1, pwm);
 319              		.loc 1 478 5 view .LVU59
 320 0060 044B     		ldr	r3, .L26+4
 321 0062 1B68     		ldr	r3, [r3]
 322 0064 5D63     		str	r5, [r3, #52]
 479:Core/Src/main.c ****     __HAL_TIM_SetCompare(&htim8, TIM_CHANNEL_2, pwm);
 323              		.loc 1 479 5 view .LVU60
 324 0066 9D63     		str	r5, [r3, #56]
 480:Core/Src/main.c ****     __HAL_TIM_SetCompare(&htim8, TIM_CHANNEL_3, pwm);
 325              		.loc 1 480 5 view .LVU61
 326 0068 DD63     		str	r5, [r3, #60]
 481:Core/Src/main.c ****     __HAL_TIM_SetCompare(&htim8, TIM_CHANNEL_4, pwm);
 327              		.loc 1 481 5 view .LVU62
 328 006a 1D64     		str	r5, [r3, #64]
 482:Core/Src/main.c **** }
 329              		.loc 1 482 1 is_stmt 0 view .LVU63
 330 006c 38BD     		pop	{r3, r4, r5, pc}
 331              	.LVL31:
 332              	.L27:
 333              		.loc 1 482 1 view .LVU64
 334 006e 00BF     		.align	2
 335              	.L26:
 336 0070 000C0140 		.word	1073810432
 337 0074 00000000 		.word	htim8
 338              		.cfi_endproc
 339              	.LFE71:
 341              		.section	.text.backward,"ax",%progbits
 342              		.align	1
 343              		.global	backward
 344              		.syntax unified
 345              		.thumb
 346              		.thumb_func
 347              		.fpu softvfp
 349              	backward:
 350              	.LVL32:
 351              	.LFB72:
 483:Core/Src/main.c **** 
 484:Core/Src/main.c **** void backward(int pwm)
 485:Core/Src/main.c **** {
 352              		.loc 1 485 1 is_stmt 1 view -0
 353              		.cfi_startproc
 354              		@ args = 0, pretend = 0, frame = 0
 355              		@ frame_needed = 0, uses_anonymous_args = 0
 356              		.loc 1 485 1 is_stmt 0 view .LVU66
 357 0000 38B5     		push	{r3, r4, r5, lr}
 358              	.LCFI3:
 359              		.cfi_def_cfa_offset 16
 360              		.cfi_offset 3, -16
 361              		.cfi_offset 4, -12
 362              		.cfi_offset 5, -8
 363              		.cfi_offset 14, -4
 364 0002 0546     		mov	r5, r0
 486:Core/Src/main.c ****     //change rotate direction of wheel
 487:Core/Src/main.c ****     HAL_GPIO_WritePin(GPIOB, GPIO_PIN_0, GPIO_PIN_RESET);
 365              		.loc 1 487 5 is_stmt 1 view .LVU67
 366 0004 1A4C     		ldr	r4, .L30
ARM GAS  C:\Users\30592\AppData\Local\Temp\cca1UH8z.s 			page 16


 367 0006 0022     		movs	r2, #0
 368 0008 0121     		movs	r1, #1
 369 000a 2046     		mov	r0, r4
 370              	.LVL33:
 371              		.loc 1 487 5 is_stmt 0 view .LVU68
 372 000c FFF7FEFF 		bl	HAL_GPIO_WritePin
 373              	.LVL34:
 488:Core/Src/main.c ****     HAL_GPIO_WritePin(GPIOB, GPIO_PIN_1, GPIO_PIN_SET);
 374              		.loc 1 488 5 is_stmt 1 view .LVU69
 375 0010 0122     		movs	r2, #1
 376 0012 0221     		movs	r1, #2
 377 0014 2046     		mov	r0, r4
 378 0016 FFF7FEFF 		bl	HAL_GPIO_WritePin
 379              	.LVL35:
 489:Core/Src/main.c ****     HAL_GPIO_WritePin(GPIOB, GPIO_PIN_2, GPIO_PIN_SET);
 380              		.loc 1 489 5 view .LVU70
 381 001a 0122     		movs	r2, #1
 382 001c 0421     		movs	r1, #4
 383 001e 2046     		mov	r0, r4
 384 0020 FFF7FEFF 		bl	HAL_GPIO_WritePin
 385              	.LVL36:
 490:Core/Src/main.c ****     HAL_GPIO_WritePin(GPIOB, GPIO_PIN_10, GPIO_PIN_RESET);
 386              		.loc 1 490 5 view .LVU71
 387 0024 0022     		movs	r2, #0
 388 0026 4FF48061 		mov	r1, #1024
 389 002a 2046     		mov	r0, r4
 390 002c FFF7FEFF 		bl	HAL_GPIO_WritePin
 391              	.LVL37:
 491:Core/Src/main.c ****     HAL_GPIO_WritePin(GPIOB, GPIO_PIN_11, GPIO_PIN_RESET);
 392              		.loc 1 491 5 view .LVU72
 393 0030 0022     		movs	r2, #0
 394 0032 4FF40061 		mov	r1, #2048
 395 0036 2046     		mov	r0, r4
 396 0038 FFF7FEFF 		bl	HAL_GPIO_WritePin
 397              	.LVL38:
 492:Core/Src/main.c ****     HAL_GPIO_WritePin(GPIOB, GPIO_PIN_12, GPIO_PIN_SET);
 398              		.loc 1 492 5 view .LVU73
 399 003c 0122     		movs	r2, #1
 400 003e 4FF48051 		mov	r1, #4096
 401 0042 2046     		mov	r0, r4
 402 0044 FFF7FEFF 		bl	HAL_GPIO_WritePin
 403              	.LVL39:
 493:Core/Src/main.c ****     HAL_GPIO_WritePin(GPIOB, GPIO_PIN_13, GPIO_PIN_SET);
 404              		.loc 1 493 5 view .LVU74
 405 0048 0122     		movs	r2, #1
 406 004a 4FF40051 		mov	r1, #8192
 407 004e 2046     		mov	r0, r4
 408 0050 FFF7FEFF 		bl	HAL_GPIO_WritePin
 409              	.LVL40:
 494:Core/Src/main.c ****     HAL_GPIO_WritePin(GPIOB, GPIO_PIN_14, GPIO_PIN_RESET);
 410              		.loc 1 494 5 view .LVU75
 411 0054 0022     		movs	r2, #0
 412 0056 4FF48041 		mov	r1, #16384
 413 005a 2046     		mov	r0, r4
 414 005c FFF7FEFF 		bl	HAL_GPIO_WritePin
 415              	.LVL41:
 495:Core/Src/main.c ****     //give pwm output
ARM GAS  C:\Users\30592\AppData\Local\Temp\cca1UH8z.s 			page 17


 496:Core/Src/main.c ****     __HAL_TIM_SetCompare(&htim8, TIM_CHANNEL_1, pwm);
 416              		.loc 1 496 5 view .LVU76
 417 0060 044B     		ldr	r3, .L30+4
 418 0062 1B68     		ldr	r3, [r3]
 419 0064 5D63     		str	r5, [r3, #52]
 497:Core/Src/main.c ****     __HAL_TIM_SetCompare(&htim8, TIM_CHANNEL_2, pwm);
 420              		.loc 1 497 5 view .LVU77
 421 0066 9D63     		str	r5, [r3, #56]
 498:Core/Src/main.c ****     __HAL_TIM_SetCompare(&htim8, TIM_CHANNEL_3, pwm);
 422              		.loc 1 498 5 view .LVU78
 423 0068 DD63     		str	r5, [r3, #60]
 499:Core/Src/main.c ****     __HAL_TIM_SetCompare(&htim8, TIM_CHANNEL_4, pwm);
 424              		.loc 1 499 5 view .LVU79
 425 006a 1D64     		str	r5, [r3, #64]
 500:Core/Src/main.c **** }
 426              		.loc 1 500 1 is_stmt 0 view .LVU80
 427 006c 38BD     		pop	{r3, r4, r5, pc}
 428              	.LVL42:
 429              	.L31:
 430              		.loc 1 500 1 view .LVU81
 431 006e 00BF     		.align	2
 432              	.L30:
 433 0070 000C0140 		.word	1073810432
 434 0074 00000000 		.word	htim8
 435              		.cfi_endproc
 436              	.LFE72:
 438              		.section	.text.rotate_counterclockwise,"ax",%progbits
 439              		.align	1
 440              		.global	rotate_counterclockwise
 441              		.syntax unified
 442              		.thumb
 443              		.thumb_func
 444              		.fpu softvfp
 446              	rotate_counterclockwise:
 447              	.LVL43:
 448              	.LFB73:
 501:Core/Src/main.c **** 
 502:Core/Src/main.c **** void rotate_counterclockwise(int pwm)
 503:Core/Src/main.c **** {
 449              		.loc 1 503 1 is_stmt 1 view -0
 450              		.cfi_startproc
 451              		@ args = 0, pretend = 0, frame = 0
 452              		@ frame_needed = 0, uses_anonymous_args = 0
 453              		.loc 1 503 1 is_stmt 0 view .LVU83
 454 0000 38B5     		push	{r3, r4, r5, lr}
 455              	.LCFI4:
 456              		.cfi_def_cfa_offset 16
 457              		.cfi_offset 3, -16
 458              		.cfi_offset 4, -12
 459              		.cfi_offset 5, -8
 460              		.cfi_offset 14, -4
 461 0002 0546     		mov	r5, r0
 504:Core/Src/main.c ****     //change rotate direction of wheel
 505:Core/Src/main.c ****     HAL_GPIO_WritePin(GPIOB, GPIO_PIN_0, GPIO_PIN_SET);
 462              		.loc 1 505 5 is_stmt 1 view .LVU84
 463 0004 1A4C     		ldr	r4, .L34
 464 0006 0122     		movs	r2, #1
ARM GAS  C:\Users\30592\AppData\Local\Temp\cca1UH8z.s 			page 18


 465 0008 1146     		mov	r1, r2
 466 000a 2046     		mov	r0, r4
 467              	.LVL44:
 468              		.loc 1 505 5 is_stmt 0 view .LVU85
 469 000c FFF7FEFF 		bl	HAL_GPIO_WritePin
 470              	.LVL45:
 506:Core/Src/main.c ****     HAL_GPIO_WritePin(GPIOB, GPIO_PIN_1, GPIO_PIN_RESET);
 471              		.loc 1 506 5 is_stmt 1 view .LVU86
 472 0010 0022     		movs	r2, #0
 473 0012 0221     		movs	r1, #2
 474 0014 2046     		mov	r0, r4
 475 0016 FFF7FEFF 		bl	HAL_GPIO_WritePin
 476              	.LVL46:
 507:Core/Src/main.c ****     HAL_GPIO_WritePin(GPIOB, GPIO_PIN_2, GPIO_PIN_RESET);
 477              		.loc 1 507 5 view .LVU87
 478 001a 0022     		movs	r2, #0
 479 001c 0421     		movs	r1, #4
 480 001e 2046     		mov	r0, r4
 481 0020 FFF7FEFF 		bl	HAL_GPIO_WritePin
 482              	.LVL47:
 508:Core/Src/main.c ****     HAL_GPIO_WritePin(GPIOB, GPIO_PIN_10, GPIO_PIN_SET);
 483              		.loc 1 508 5 view .LVU88
 484 0024 0122     		movs	r2, #1
 485 0026 4FF48061 		mov	r1, #1024
 486 002a 2046     		mov	r0, r4
 487 002c FFF7FEFF 		bl	HAL_GPIO_WritePin
 488              	.LVL48:
 509:Core/Src/main.c ****     HAL_GPIO_WritePin(GPIOB, GPIO_PIN_11, GPIO_PIN_RESET);
 489              		.loc 1 509 5 view .LVU89
 490 0030 0022     		movs	r2, #0
 491 0032 4FF40061 		mov	r1, #2048
 492 0036 2046     		mov	r0, r4
 493 0038 FFF7FEFF 		bl	HAL_GPIO_WritePin
 494              	.LVL49:
 510:Core/Src/main.c ****     HAL_GPIO_WritePin(GPIOB, GPIO_PIN_12, GPIO_PIN_SET);
 495              		.loc 1 510 5 view .LVU90
 496 003c 0122     		movs	r2, #1
 497 003e 4FF48051 		mov	r1, #4096
 498 0042 2046     		mov	r0, r4
 499 0044 FFF7FEFF 		bl	HAL_GPIO_WritePin
 500              	.LVL50:
 511:Core/Src/main.c ****     HAL_GPIO_WritePin(GPIOB, GPIO_PIN_13, GPIO_PIN_SET);
 501              		.loc 1 511 5 view .LVU91
 502 0048 0122     		movs	r2, #1
 503 004a 4FF40051 		mov	r1, #8192
 504 004e 2046     		mov	r0, r4
 505 0050 FFF7FEFF 		bl	HAL_GPIO_WritePin
 506              	.LVL51:
 512:Core/Src/main.c ****     HAL_GPIO_WritePin(GPIOB, GPIO_PIN_14, GPIO_PIN_RESET);
 507              		.loc 1 512 5 view .LVU92
 508 0054 0022     		movs	r2, #0
 509 0056 4FF48041 		mov	r1, #16384
 510 005a 2046     		mov	r0, r4
 511 005c FFF7FEFF 		bl	HAL_GPIO_WritePin
 512              	.LVL52:
 513:Core/Src/main.c ****     //give pwm output
 514:Core/Src/main.c ****     __HAL_TIM_SetCompare(&htim8, TIM_CHANNEL_1, pwm);
ARM GAS  C:\Users\30592\AppData\Local\Temp\cca1UH8z.s 			page 19


 513              		.loc 1 514 5 view .LVU93
 514 0060 044B     		ldr	r3, .L34+4
 515 0062 1B68     		ldr	r3, [r3]
 516 0064 5D63     		str	r5, [r3, #52]
 515:Core/Src/main.c ****     __HAL_TIM_SetCompare(&htim8, TIM_CHANNEL_2, pwm);
 517              		.loc 1 515 5 view .LVU94
 518 0066 9D63     		str	r5, [r3, #56]
 516:Core/Src/main.c ****     __HAL_TIM_SetCompare(&htim8, TIM_CHANNEL_3, pwm);
 519              		.loc 1 516 5 view .LVU95
 520 0068 DD63     		str	r5, [r3, #60]
 517:Core/Src/main.c ****     __HAL_TIM_SetCompare(&htim8, TIM_CHANNEL_4, pwm);
 521              		.loc 1 517 5 view .LVU96
 522 006a 1D64     		str	r5, [r3, #64]
 518:Core/Src/main.c **** }
 523              		.loc 1 518 1 is_stmt 0 view .LVU97
 524 006c 38BD     		pop	{r3, r4, r5, pc}
 525              	.LVL53:
 526              	.L35:
 527              		.loc 1 518 1 view .LVU98
 528 006e 00BF     		.align	2
 529              	.L34:
 530 0070 000C0140 		.word	1073810432
 531 0074 00000000 		.word	htim8
 532              		.cfi_endproc
 533              	.LFE73:
 535              		.section	.text.rotate_clockwise,"ax",%progbits
 536              		.align	1
 537              		.global	rotate_clockwise
 538              		.syntax unified
 539              		.thumb
 540              		.thumb_func
 541              		.fpu softvfp
 543              	rotate_clockwise:
 544              	.LVL54:
 545              	.LFB74:
 519:Core/Src/main.c **** 
 520:Core/Src/main.c **** void rotate_clockwise(int pwm)
 521:Core/Src/main.c **** {
 546              		.loc 1 521 1 is_stmt 1 view -0
 547              		.cfi_startproc
 548              		@ args = 0, pretend = 0, frame = 0
 549              		@ frame_needed = 0, uses_anonymous_args = 0
 550              		.loc 1 521 1 is_stmt 0 view .LVU100
 551 0000 38B5     		push	{r3, r4, r5, lr}
 552              	.LCFI5:
 553              		.cfi_def_cfa_offset 16
 554              		.cfi_offset 3, -16
 555              		.cfi_offset 4, -12
 556              		.cfi_offset 5, -8
 557              		.cfi_offset 14, -4
 558 0002 0546     		mov	r5, r0
 522:Core/Src/main.c ****     //change rotate direction of wheel
 523:Core/Src/main.c ****     HAL_GPIO_WritePin(GPIOB, GPIO_PIN_0, GPIO_PIN_RESET);
 559              		.loc 1 523 5 is_stmt 1 view .LVU101
 560 0004 1A4C     		ldr	r4, .L38
 561 0006 0022     		movs	r2, #0
 562 0008 0121     		movs	r1, #1
ARM GAS  C:\Users\30592\AppData\Local\Temp\cca1UH8z.s 			page 20


 563 000a 2046     		mov	r0, r4
 564              	.LVL55:
 565              		.loc 1 523 5 is_stmt 0 view .LVU102
 566 000c FFF7FEFF 		bl	HAL_GPIO_WritePin
 567              	.LVL56:
 524:Core/Src/main.c ****     HAL_GPIO_WritePin(GPIOB, GPIO_PIN_1, GPIO_PIN_SET);
 568              		.loc 1 524 5 is_stmt 1 view .LVU103
 569 0010 0122     		movs	r2, #1
 570 0012 0221     		movs	r1, #2
 571 0014 2046     		mov	r0, r4
 572 0016 FFF7FEFF 		bl	HAL_GPIO_WritePin
 573              	.LVL57:
 525:Core/Src/main.c ****     HAL_GPIO_WritePin(GPIOB, GPIO_PIN_2, GPIO_PIN_SET);
 574              		.loc 1 525 5 view .LVU104
 575 001a 0122     		movs	r2, #1
 576 001c 0421     		movs	r1, #4
 577 001e 2046     		mov	r0, r4
 578 0020 FFF7FEFF 		bl	HAL_GPIO_WritePin
 579              	.LVL58:
 526:Core/Src/main.c ****     HAL_GPIO_WritePin(GPIOB, GPIO_PIN_10, GPIO_PIN_RESET);
 580              		.loc 1 526 5 view .LVU105
 581 0024 0022     		movs	r2, #0
 582 0026 4FF48061 		mov	r1, #1024
 583 002a 2046     		mov	r0, r4
 584 002c FFF7FEFF 		bl	HAL_GPIO_WritePin
 585              	.LVL59:
 527:Core/Src/main.c ****     HAL_GPIO_WritePin(GPIOB, GPIO_PIN_11, GPIO_PIN_SET);
 586              		.loc 1 527 5 view .LVU106
 587 0030 0122     		movs	r2, #1
 588 0032 4FF40061 		mov	r1, #2048
 589 0036 2046     		mov	r0, r4
 590 0038 FFF7FEFF 		bl	HAL_GPIO_WritePin
 591              	.LVL60:
 528:Core/Src/main.c ****     HAL_GPIO_WritePin(GPIOB, GPIO_PIN_12, GPIO_PIN_RESET);
 592              		.loc 1 528 5 view .LVU107
 593 003c 0022     		movs	r2, #0
 594 003e 4FF48051 		mov	r1, #4096
 595 0042 2046     		mov	r0, r4
 596 0044 FFF7FEFF 		bl	HAL_GPIO_WritePin
 597              	.LVL61:
 529:Core/Src/main.c ****     HAL_GPIO_WritePin(GPIOB, GPIO_PIN_13, GPIO_PIN_RESET);
 598              		.loc 1 529 5 view .LVU108
 599 0048 0022     		movs	r2, #0
 600 004a 4FF40051 		mov	r1, #8192
 601 004e 2046     		mov	r0, r4
 602 0050 FFF7FEFF 		bl	HAL_GPIO_WritePin
 603              	.LVL62:
 530:Core/Src/main.c ****     HAL_GPIO_WritePin(GPIOB, GPIO_PIN_14, GPIO_PIN_SET);
 604              		.loc 1 530 5 view .LVU109
 605 0054 0122     		movs	r2, #1
 606 0056 4FF48041 		mov	r1, #16384
 607 005a 2046     		mov	r0, r4
 608 005c FFF7FEFF 		bl	HAL_GPIO_WritePin
 609              	.LVL63:
 531:Core/Src/main.c ****     //give pwm output
 532:Core/Src/main.c ****     __HAL_TIM_SetCompare(&htim8, TIM_CHANNEL_1, pwm);
 610              		.loc 1 532 5 view .LVU110
ARM GAS  C:\Users\30592\AppData\Local\Temp\cca1UH8z.s 			page 21


 611 0060 044B     		ldr	r3, .L38+4
 612 0062 1B68     		ldr	r3, [r3]
 613 0064 5D63     		str	r5, [r3, #52]
 533:Core/Src/main.c ****     __HAL_TIM_SetCompare(&htim8, TIM_CHANNEL_2, pwm);
 614              		.loc 1 533 5 view .LVU111
 615 0066 9D63     		str	r5, [r3, #56]
 534:Core/Src/main.c ****     __HAL_TIM_SetCompare(&htim8, TIM_CHANNEL_3, pwm);
 616              		.loc 1 534 5 view .LVU112
 617 0068 DD63     		str	r5, [r3, #60]
 535:Core/Src/main.c ****     __HAL_TIM_SetCompare(&htim8, TIM_CHANNEL_4, pwm);
 618              		.loc 1 535 5 view .LVU113
 619 006a 1D64     		str	r5, [r3, #64]
 536:Core/Src/main.c **** }
 620              		.loc 1 536 1 is_stmt 0 view .LVU114
 621 006c 38BD     		pop	{r3, r4, r5, pc}
 622              	.LVL64:
 623              	.L39:
 624              		.loc 1 536 1 view .LVU115
 625 006e 00BF     		.align	2
 626              	.L38:
 627 0070 000C0140 		.word	1073810432
 628 0074 00000000 		.word	htim8
 629              		.cfi_endproc
 630              	.LFE74:
 632              		.section	.text.rotate_clockwise_plus_forward,"ax",%progbits
 633              		.align	1
 634              		.global	rotate_clockwise_plus_forward
 635              		.syntax unified
 636              		.thumb
 637              		.thumb_func
 638              		.fpu softvfp
 640              	rotate_clockwise_plus_forward:
 641              	.LVL65:
 642              	.LFB75:
 537:Core/Src/main.c **** 
 538:Core/Src/main.c **** void rotate_clockwise_plus_forward(int pwm)
 539:Core/Src/main.c **** {
 643              		.loc 1 539 1 is_stmt 1 view -0
 644              		.cfi_startproc
 645              		@ args = 0, pretend = 0, frame = 0
 646              		@ frame_needed = 0, uses_anonymous_args = 0
 647              		.loc 1 539 1 is_stmt 0 view .LVU117
 648 0000 38B5     		push	{r3, r4, r5, lr}
 649              	.LCFI6:
 650              		.cfi_def_cfa_offset 16
 651              		.cfi_offset 3, -16
 652              		.cfi_offset 4, -12
 653              		.cfi_offset 5, -8
 654              		.cfi_offset 14, -4
 655 0002 0546     		mov	r5, r0
 540:Core/Src/main.c ****     //change rotate direction of wheel
 541:Core/Src/main.c ****     HAL_GPIO_WritePin(GPIOB, GPIO_PIN_0, GPIO_PIN_RESET);
 656              		.loc 1 541 5 is_stmt 1 view .LVU118
 657 0004 1A4C     		ldr	r4, .L42
 658 0006 0022     		movs	r2, #0
 659 0008 0121     		movs	r1, #1
 660 000a 2046     		mov	r0, r4
ARM GAS  C:\Users\30592\AppData\Local\Temp\cca1UH8z.s 			page 22


 661              	.LVL66:
 662              		.loc 1 541 5 is_stmt 0 view .LVU119
 663 000c FFF7FEFF 		bl	HAL_GPIO_WritePin
 664              	.LVL67:
 542:Core/Src/main.c ****     HAL_GPIO_WritePin(GPIOB, GPIO_PIN_1, GPIO_PIN_SET);
 665              		.loc 1 542 5 is_stmt 1 view .LVU120
 666 0010 0122     		movs	r2, #1
 667 0012 0221     		movs	r1, #2
 668 0014 2046     		mov	r0, r4
 669 0016 FFF7FEFF 		bl	HAL_GPIO_WritePin
 670              	.LVL68:
 543:Core/Src/main.c ****     HAL_GPIO_WritePin(GPIOB, GPIO_PIN_2, GPIO_PIN_SET);
 671              		.loc 1 543 5 view .LVU121
 672 001a 0122     		movs	r2, #1
 673 001c 0421     		movs	r1, #4
 674 001e 2046     		mov	r0, r4
 675 0020 FFF7FEFF 		bl	HAL_GPIO_WritePin
 676              	.LVL69:
 544:Core/Src/main.c ****     HAL_GPIO_WritePin(GPIOB, GPIO_PIN_10, GPIO_PIN_RESET);
 677              		.loc 1 544 5 view .LVU122
 678 0024 0022     		movs	r2, #0
 679 0026 4FF48061 		mov	r1, #1024
 680 002a 2046     		mov	r0, r4
 681 002c FFF7FEFF 		bl	HAL_GPIO_WritePin
 682              	.LVL70:
 545:Core/Src/main.c ****     HAL_GPIO_WritePin(GPIOB, GPIO_PIN_11, GPIO_PIN_RESET);
 683              		.loc 1 545 5 view .LVU123
 684 0030 0022     		movs	r2, #0
 685 0032 4FF40061 		mov	r1, #2048
 686 0036 2046     		mov	r0, r4
 687 0038 FFF7FEFF 		bl	HAL_GPIO_WritePin
 688              	.LVL71:
 546:Core/Src/main.c ****     HAL_GPIO_WritePin(GPIOB, GPIO_PIN_12, GPIO_PIN_SET);
 689              		.loc 1 546 5 view .LVU124
 690 003c 0122     		movs	r2, #1
 691 003e 4FF48051 		mov	r1, #4096
 692 0042 2046     		mov	r0, r4
 693 0044 FFF7FEFF 		bl	HAL_GPIO_WritePin
 694              	.LVL72:
 547:Core/Src/main.c ****     HAL_GPIO_WritePin(GPIOB, GPIO_PIN_13, GPIO_PIN_SET);
 695              		.loc 1 547 5 view .LVU125
 696 0048 0122     		movs	r2, #1
 697 004a 4FF40051 		mov	r1, #8192
 698 004e 2046     		mov	r0, r4
 699 0050 FFF7FEFF 		bl	HAL_GPIO_WritePin
 700              	.LVL73:
 548:Core/Src/main.c ****     HAL_GPIO_WritePin(GPIOB, GPIO_PIN_14, GPIO_PIN_RESET);
 701              		.loc 1 548 5 view .LVU126
 702 0054 0022     		movs	r2, #0
 703 0056 4FF48041 		mov	r1, #16384
 704 005a 2046     		mov	r0, r4
 705 005c FFF7FEFF 		bl	HAL_GPIO_WritePin
 706              	.LVL74:
 549:Core/Src/main.c ****     //give pwm output
 550:Core/Src/main.c ****     __HAL_TIM_SetCompare(&htim8, TIM_CHANNEL_1, pwm);
 707              		.loc 1 550 5 view .LVU127
 708 0060 044B     		ldr	r3, .L42+4
ARM GAS  C:\Users\30592\AppData\Local\Temp\cca1UH8z.s 			page 23


 709 0062 1B68     		ldr	r3, [r3]
 710 0064 5D63     		str	r5, [r3, #52]
 551:Core/Src/main.c ****     __HAL_TIM_SetCompare(&htim8, TIM_CHANNEL_2, pwm);
 711              		.loc 1 551 5 view .LVU128
 712 0066 9D63     		str	r5, [r3, #56]
 552:Core/Src/main.c ****     __HAL_TIM_SetCompare(&htim8, TIM_CHANNEL_3, 0);
 713              		.loc 1 552 5 view .LVU129
 714 0068 0022     		movs	r2, #0
 715 006a DA63     		str	r2, [r3, #60]
 553:Core/Src/main.c ****     __HAL_TIM_SetCompare(&htim8, TIM_CHANNEL_4, 0);
 716              		.loc 1 553 5 view .LVU130
 717 006c 1A64     		str	r2, [r3, #64]
 554:Core/Src/main.c **** }
 718              		.loc 1 554 1 is_stmt 0 view .LVU131
 719 006e 38BD     		pop	{r3, r4, r5, pc}
 720              	.LVL75:
 721              	.L43:
 722              		.loc 1 554 1 view .LVU132
 723              		.align	2
 724              	.L42:
 725 0070 000C0140 		.word	1073810432
 726 0074 00000000 		.word	htim8
 727              		.cfi_endproc
 728              	.LFE75:
 730              		.global	__aeabi_dcmpgt
 731              		.section	.text.fabs,"ax",%progbits
 732              		.align	1
 733              		.global	fabs
 734              		.syntax unified
 735              		.thumb
 736              		.thumb_func
 737              		.fpu softvfp
 739              	fabs:
 740              	.LVL76:
 741              	.LFB76:
 555:Core/Src/main.c **** // double off_set_angle(uint16_t car_x,uint16_t car_y,double des_x,double des_y,double yaw){
 556:Core/Src/main.c **** //     /*
 557:Core/Src/main.c **** //     ÂÖ•Âè£ÂèÇÊï∞ÔºöÂ∞èËΩ¶xyÂùêÊ†áÔºåÁõÆÊ†áÁÇπxyÂùêÊ†áÔºåÈôÄËû∫‰ª™ÂÅèËà™Ëßíyaw
 558:Core/Src/main.c **** //     ËÆ°ÁÆóÂÅèÂ∑ÆÔøΩ?? ÂáΩÊï∞ÔøΩ??
 559:Core/Src/main.c **** //     ËøîÂõûÂÄº‰∏∫ÂÅèÂ∑ÆËßíÂ∫¶ÁöÑÁªùÂØπÔøΩ?ÔøΩÔºåÂçï‰Ωç‰∏∫Â∫¶ÔøΩ??
 560:Core/Src/main.c **** //     */
 561:Core/Src/main.c **** //     double angle=atan2(des_y-car_y,des_x-car_x);
 562:Core/Src/main.c **** //     double ans=yaw-angle;
 563:Core/Src/main.c **** //     ans=(ans<0)?(ans+360):ans;
 564:Core/Src/main.c **** //     ans=(ans>360)?(ans-360):ans;
 565:Core/Src/main.c **** //     return ans*180/pi;
 566:Core/Src/main.c **** // }
 567:Core/Src/main.c **** double fabs(double x)
 568:Core/Src/main.c **** {
 742              		.loc 1 568 1 is_stmt 1 view -0
 743              		.cfi_startproc
 744              		@ args = 0, pretend = 0, frame = 0
 745              		@ frame_needed = 0, uses_anonymous_args = 0
 746              		.loc 1 568 1 is_stmt 0 view .LVU134
 747 0000 38B5     		push	{r3, r4, r5, lr}
 748              	.LCFI7:
 749              		.cfi_def_cfa_offset 16
ARM GAS  C:\Users\30592\AppData\Local\Temp\cca1UH8z.s 			page 24


 750              		.cfi_offset 3, -16
 751              		.cfi_offset 4, -12
 752              		.cfi_offset 5, -8
 753              		.cfi_offset 14, -4
 754 0002 0546     		mov	r5, r0
 755 0004 0C46     		mov	r4, r1
 569:Core/Src/main.c ****     //ÂèåÁ≤æÂ∫¶ÊµÆÁÇπÊï∞Ê±ÇÁªùÂØπÔøΩ?ÔøΩÂáΩÔøΩ?
 570:Core/Src/main.c ****     return (x > 0) ? x : (-x);
 756              		.loc 1 570 5 is_stmt 1 view .LVU135
 757              		.loc 1 570 24 is_stmt 0 view .LVU136
 758 0006 0022     		movs	r2, #0
 759 0008 0023     		movs	r3, #0
 760 000a 2846     		mov	r0, r5
 761              	.LVL77:
 762              		.loc 1 570 24 view .LVU137
 763 000c 2146     		mov	r1, r4
 764 000e FFF7FEFF 		bl	__aeabi_dcmpgt
 765              	.LVL78:
 766 0012 10B1     		cbz	r0, .L47
 767              	.L45:
 571:Core/Src/main.c **** }
 768              		.loc 1 571 1 discriminator 4 view .LVU138
 769 0014 2846     		mov	r0, r5
 770 0016 2146     		mov	r1, r4
 771 0018 38BD     		pop	{r3, r4, r5, pc}
 772              	.L47:
 570:Core/Src/main.c **** }
 773              		.loc 1 570 24 discriminator 2 view .LVU139
 774 001a 04F10044 		add	r4, r4, #-2147483648
 775 001e F9E7     		b	.L45
 776              		.cfi_endproc
 777              	.LFE76:
 779              		.global	__aeabi_dcmpeq
 780              		.global	__aeabi_dsub
 781              		.global	__aeabi_dcmplt
 782              		.global	__aeabi_dmul
 783              		.global	__aeabi_ddiv
 784              		.global	__aeabi_d2iz
 785              		.global	__aeabi_dadd
 786              		.section	.text.atan2LUTif,"ax",%progbits
 787              		.align	1
 788              		.global	atan2LUTif
 789              		.syntax unified
 790              		.thumb
 791              		.thumb_func
 792              		.fpu softvfp
 794              	atan2LUTif:
 795              	.LVL79:
 796              	.LFB77:
 572:Core/Src/main.c **** double atan2LUTif(double y, double x)
 573:Core/Src/main.c **** {
 797              		.loc 1 573 1 is_stmt 1 view -0
 798              		.cfi_startproc
 799              		@ args = 0, pretend = 0, frame = 0
 800              		@ frame_needed = 0, uses_anonymous_args = 0
 801              		.loc 1 573 1 is_stmt 0 view .LVU141
 802 0000 2DE9F843 		push	{r3, r4, r5, r6, r7, r8, r9, lr}
ARM GAS  C:\Users\30592\AppData\Local\Temp\cca1UH8z.s 			page 25


 803              	.LCFI8:
 804              		.cfi_def_cfa_offset 32
 805              		.cfi_offset 3, -32
 806              		.cfi_offset 4, -28
 807              		.cfi_offset 5, -24
 808              		.cfi_offset 6, -20
 809              		.cfi_offset 7, -16
 810              		.cfi_offset 8, -12
 811              		.cfi_offset 9, -8
 812              		.cfi_offset 14, -4
 813 0004 0446     		mov	r4, r0
 814 0006 0F46     		mov	r7, r1
 815 0008 1546     		mov	r5, r2
 816 000a 1E46     		mov	r6, r3
 574:Core/Src/main.c ****     //ÂèçÊ≠£ÂàáÂáΩÊï∞ÂÆûÔøΩ?.ËØØÂ∑Æ‰∏çÂ§ßÔøΩ?0.5¬∞.ÂÖ•Âè£ÂèÇÊï∞Ôºö‰∏§ÁÇπÈó¥y„ÄÅxÂùêÊ†áÁöÑÂ∑ÆÔøΩ?
 575:Core/Src/main.c ****     double absx, absy, val;
 817              		.loc 1 575 5 is_stmt 1 view .LVU142
 576:Core/Src/main.c ****     if (x == 0 && y == 0)
 818              		.loc 1 576 5 view .LVU143
 819              		.loc 1 576 8 is_stmt 0 view .LVU144
 820 000c 0022     		movs	r2, #0
 821              	.LVL80:
 822              		.loc 1 576 8 view .LVU145
 823 000e 0023     		movs	r3, #0
 824 0010 2846     		mov	r0, r5
 825              	.LVL81:
 826              		.loc 1 576 8 view .LVU146
 827 0012 3146     		mov	r1, r6
 828 0014 FFF7FEFF 		bl	__aeabi_dcmpeq
 829              	.LVL82:
 830 0018 40B1     		cbz	r0, .L49
 831              		.loc 1 576 16 discriminator 1 view .LVU147
 832 001a 0022     		movs	r2, #0
 833 001c 0023     		movs	r3, #0
 834 001e 2046     		mov	r0, r4
 835 0020 3946     		mov	r1, r7
 836 0022 FFF7FEFF 		bl	__aeabi_dcmpeq
 837              	.LVL83:
 838 0026 0028     		cmp	r0, #0
 839 0028 40F0E180 		bne	.L68
 840              	.L49:
 577:Core/Src/main.c ****     {
 578:Core/Src/main.c ****         return 0;
 579:Core/Src/main.c ****     }
 580:Core/Src/main.c ****     absy = fabs(y);
 841              		.loc 1 580 5 is_stmt 1 view .LVU148
 842              		.loc 1 580 10 is_stmt 0 view .LVU149
 843 002c 27F00048 		bic	r8, r7, #-2147483648
 844              	.LVL84:
 581:Core/Src/main.c ****     absx = fabs(x);
 845              		.loc 1 581 5 is_stmt 1 view .LVU150
 846              		.loc 1 581 10 is_stmt 0 view .LVU151
 847 0030 26F00049 		bic	r9, r6, #-2147483648
 848              	.LVL85:
 582:Core/Src/main.c ****     if (absy - absx == absy)
 849              		.loc 1 582 5 is_stmt 1 view .LVU152
 850              		.loc 1 582 14 is_stmt 0 view .LVU153
ARM GAS  C:\Users\30592\AppData\Local\Temp\cca1UH8z.s 			page 26


 851 0034 2A46     		mov	r2, r5
 852 0036 4B46     		mov	r3, r9
 853 0038 2046     		mov	r0, r4
 854 003a 4146     		mov	r1, r8
 855 003c FFF7FEFF 		bl	__aeabi_dsub
 856              	.LVL86:
 857              		.loc 1 582 8 view .LVU154
 858 0040 2246     		mov	r2, r4
 859 0042 4346     		mov	r3, r8
 860 0044 FFF7FEFF 		bl	__aeabi_dcmpeq
 861              	.LVL87:
 862 0048 0028     		cmp	r0, #0
 863 004a 40D1     		bne	.L86
 583:Core/Src/main.c ****     {
 584:Core/Src/main.c ****         return y < 0 ? -M_PI_2 : M_PI_2;
 585:Core/Src/main.c ****     }
 586:Core/Src/main.c ****     if (absx - absy == absx)
 864              		.loc 1 586 5 is_stmt 1 view .LVU155
 865              		.loc 1 586 14 is_stmt 0 view .LVU156
 866 004c 2246     		mov	r2, r4
 867 004e 4346     		mov	r3, r8
 868 0050 2846     		mov	r0, r5
 869 0052 4946     		mov	r1, r9
 870 0054 FFF7FEFF 		bl	__aeabi_dsub
 871              	.LVL88:
 872              		.loc 1 586 8 view .LVU157
 873 0058 2A46     		mov	r2, r5
 874 005a 4B46     		mov	r3, r9
 875 005c FFF7FEFF 		bl	__aeabi_dcmpeq
 876              	.LVL89:
 877 0060 0028     		cmp	r0, #0
 878 0062 40F0A380 		bne	.L70
 587:Core/Src/main.c ****     {
 588:Core/Src/main.c ****         val = 0.0;
 589:Core/Src/main.c ****     }
 590:Core/Src/main.c ****     else
 591:Core/Src/main.c ****     {
 592:Core/Src/main.c ****         if (y > 0)
 879              		.loc 1 592 9 is_stmt 1 view .LVU158
 880              		.loc 1 592 12 is_stmt 0 view .LVU159
 881 0066 0022     		movs	r2, #0
 882 0068 0023     		movs	r3, #0
 883 006a 2046     		mov	r0, r4
 884 006c 3946     		mov	r1, r7
 885 006e FFF7FEFF 		bl	__aeabi_dcmpgt
 886              	.LVL90:
 887 0072 0028     		cmp	r0, #0
 888 0074 54D0     		beq	.L82
 593:Core/Src/main.c ****         {
 594:Core/Src/main.c ****             if (absx > absy)
 889              		.loc 1 594 13 is_stmt 1 view .LVU160
 890              		.loc 1 594 16 is_stmt 0 view .LVU161
 891 0076 2A46     		mov	r2, r5
 892 0078 4B46     		mov	r3, r9
 893 007a 2046     		mov	r0, r4
 894 007c 4146     		mov	r1, r8
 895 007e FFF7FEFF 		bl	__aeabi_dcmplt
ARM GAS  C:\Users\30592\AppData\Local\Temp\cca1UH8z.s 			page 27


 896              	.LVL91:
 897 0082 98B3     		cbz	r0, .L83
 595:Core/Src/main.c ****                 val = ATAN_LUT[(int)(255 * absy / absx)]; //1st octant
 898              		.loc 1 595 17 is_stmt 1 view .LVU162
 899              		.loc 1 595 42 is_stmt 0 view .LVU163
 900 0084 5CA3     		adr	r3, .L89
 901 0086 D3E90023 		ldrd	r2, [r3]
 902 008a 2046     		mov	r0, r4
 903 008c 4146     		mov	r1, r8
 904 008e FFF7FEFF 		bl	__aeabi_dmul
 905              	.LVL92:
 906              		.loc 1 595 49 view .LVU164
 907 0092 2A46     		mov	r2, r5
 908 0094 4B46     		mov	r3, r9
 909 0096 FFF7FEFF 		bl	__aeabi_ddiv
 910              	.LVL93:
 911              		.loc 1 595 32 view .LVU165
 912 009a FFF7FEFF 		bl	__aeabi_d2iz
 913              	.LVL94:
 914              		.loc 1 595 21 view .LVU166
 915 009e 604B     		ldr	r3, .L89+40
 916 00a0 03EBC002 		add	r2, r3, r0, lsl #3
 917 00a4 53F83040 		ldr	r4, [r3, r0, lsl #3]
 918              	.LVL95:
 919              		.loc 1 595 21 view .LVU167
 920 00a8 5768     		ldr	r7, [r2, #4]
 921              	.LVL96:
 922              	.L61:
 596:Core/Src/main.c ****             else
 597:Core/Src/main.c ****                 val = M_PI_2 - ATAN_LUT[(int)(255 * absx / absy)]; //2nd octant
 598:Core/Src/main.c ****             val = x < 0 ? (M_PI - val) : val;                      //3-4th octants from 2-1
 923              		.loc 1 598 13 is_stmt 1 view .LVU168
 924              		.loc 1 598 40 is_stmt 0 view .LVU169
 925 00aa 0022     		movs	r2, #0
 926 00ac 0023     		movs	r3, #0
 927 00ae 2846     		mov	r0, r5
 928 00b0 3146     		mov	r1, r6
 929 00b2 FFF7FEFF 		bl	__aeabi_dcmplt
 930              	.LVL97:
 931 00b6 0028     		cmp	r0, #0
 932 00b8 7AD0     		beq	.L56
 933              		.loc 1 598 40 discriminator 1 view .LVU170
 934 00ba 2246     		mov	r2, r4
 935 00bc 3B46     		mov	r3, r7
 936 00be 50A1     		adr	r1, .L89+8
 937 00c0 D1E90001 		ldrd	r0, [r1]
 938 00c4 FFF7FEFF 		bl	__aeabi_dsub
 939              	.LVL98:
 940 00c8 0446     		mov	r4, r0
 941              	.LVL99:
 942              		.loc 1 598 40 discriminator 1 view .LVU171
 943 00ca 0F46     		mov	r7, r1
 944 00cc 70E0     		b	.L56
 945              	.LVL100:
 946              	.L86:
 584:Core/Src/main.c ****     }
 947              		.loc 1 584 9 is_stmt 1 view .LVU172
ARM GAS  C:\Users\30592\AppData\Local\Temp\cca1UH8z.s 			page 28


 584:Core/Src/main.c ****     }
 948              		.loc 1 584 32 is_stmt 0 view .LVU173
 949 00ce 0022     		movs	r2, #0
 950 00d0 0023     		movs	r3, #0
 951 00d2 2046     		mov	r0, r4
 952 00d4 3946     		mov	r1, r7
 953 00d6 FFF7FEFF 		bl	__aeabi_dcmplt
 954              	.LVL101:
 955 00da 18B9     		cbnz	r0, .L87
 956 00dc 4AA5     		adr	r5, .L89+16
 957 00de D5E90045 		ldrd	r4, [r5]
 958              	.LVL102:
 584:Core/Src/main.c ****     }
 959              		.loc 1 584 32 view .LVU174
 960 00e2 77E0     		b	.L48
 961              	.LVL103:
 962              	.L87:
 584:Core/Src/main.c ****     }
 963              		.loc 1 584 32 view .LVU175
 964 00e4 4AA5     		adr	r5, .L89+24
 965 00e6 D5E90045 		ldrd	r4, [r5]
 966              	.LVL104:
 584:Core/Src/main.c ****     }
 967              		.loc 1 584 32 view .LVU176
 968 00ea 73E0     		b	.L48
 969              	.LVL105:
 970              	.L83:
 597:Core/Src/main.c ****             val = x < 0 ? (M_PI - val) : val;                      //3-4th octants from 2-1
 971              		.loc 1 597 17 is_stmt 1 view .LVU177
 597:Core/Src/main.c ****             val = x < 0 ? (M_PI - val) : val;                      //3-4th octants from 2-1
 972              		.loc 1 597 51 is_stmt 0 view .LVU178
 973 00ec 42A3     		adr	r3, .L89
 974 00ee D3E90023 		ldrd	r2, [r3]
 975 00f2 2846     		mov	r0, r5
 976 00f4 4946     		mov	r1, r9
 977 00f6 FFF7FEFF 		bl	__aeabi_dmul
 978              	.LVL106:
 597:Core/Src/main.c ****             val = x < 0 ? (M_PI - val) : val;                      //3-4th octants from 2-1
 979              		.loc 1 597 58 view .LVU179
 980 00fa 2246     		mov	r2, r4
 981 00fc 4346     		mov	r3, r8
 982 00fe FFF7FEFF 		bl	__aeabi_ddiv
 983              	.LVL107:
 597:Core/Src/main.c ****             val = x < 0 ? (M_PI - val) : val;                      //3-4th octants from 2-1
 984              		.loc 1 597 41 view .LVU180
 985 0102 FFF7FEFF 		bl	__aeabi_d2iz
 986              	.LVL108:
 597:Core/Src/main.c ****             val = x < 0 ? (M_PI - val) : val;                      //3-4th octants from 2-1
 987              		.loc 1 597 40 view .LVU181
 988 0106 464B     		ldr	r3, .L89+40
 989 0108 03EBC003 		add	r3, r3, r0, lsl #3
 597:Core/Src/main.c ****             val = x < 0 ? (M_PI - val) : val;                      //3-4th octants from 2-1
 990              		.loc 1 597 21 view .LVU182
 991 010c D3E90023 		ldrd	r2, [r3]
 992 0110 3DA1     		adr	r1, .L89+16
 993 0112 D1E90001 		ldrd	r0, [r1]
 994 0116 FFF7FEFF 		bl	__aeabi_dsub
ARM GAS  C:\Users\30592\AppData\Local\Temp\cca1UH8z.s 			page 29


 995              	.LVL109:
 996 011a 0446     		mov	r4, r0
 997              	.LVL110:
 597:Core/Src/main.c ****             val = x < 0 ? (M_PI - val) : val;                      //3-4th octants from 2-1
 998              		.loc 1 597 21 view .LVU183
 999 011c 0F46     		mov	r7, r1
 1000              	.LVL111:
 597:Core/Src/main.c ****             val = x < 0 ? (M_PI - val) : val;                      //3-4th octants from 2-1
 1001              		.loc 1 597 21 view .LVU184
 1002 011e C4E7     		b	.L61
 1003              	.LVL112:
 1004              	.L82:
 599:Core/Src/main.c ****         }
 600:Core/Src/main.c ****         else
 601:Core/Src/main.c ****         {
 602:Core/Src/main.c ****             if (absx > absy)
 1005              		.loc 1 602 13 is_stmt 1 view .LVU185
 1006              		.loc 1 602 16 is_stmt 0 view .LVU186
 1007 0120 2A46     		mov	r2, r5
 1008 0122 4B46     		mov	r3, r9
 1009 0124 2046     		mov	r0, r4
 1010 0126 4146     		mov	r1, r8
 1011 0128 FFF7FEFF 		bl	__aeabi_dcmplt
 1012              	.LVL113:
 1013 012c 28B3     		cbz	r0, .L84
 603:Core/Src/main.c ****                 val = -ATAN_LUT[(int)(255 * absy / absx)]; //8th octant
 1014              		.loc 1 603 17 is_stmt 1 view .LVU187
 1015              		.loc 1 603 43 is_stmt 0 view .LVU188
 1016 012e 32A3     		adr	r3, .L89
 1017 0130 D3E90023 		ldrd	r2, [r3]
 1018 0134 2046     		mov	r0, r4
 1019 0136 4146     		mov	r1, r8
 1020 0138 FFF7FEFF 		bl	__aeabi_dmul
 1021              	.LVL114:
 1022              		.loc 1 603 50 view .LVU189
 1023 013c 2A46     		mov	r2, r5
 1024 013e 4B46     		mov	r3, r9
 1025 0140 FFF7FEFF 		bl	__aeabi_ddiv
 1026              	.LVL115:
 1027              		.loc 1 603 33 view .LVU190
 1028 0144 FFF7FEFF 		bl	__aeabi_d2iz
 1029              	.LVL116:
 1030              		.loc 1 603 32 view .LVU191
 1031 0148 354B     		ldr	r3, .L89+40
 1032 014a 03EBC002 		add	r2, r3, r0, lsl #3
 1033 014e 5768     		ldr	r7, [r2, #4]
 1034              		.loc 1 603 21 view .LVU192
 1035 0150 53F83040 		ldr	r4, [r3, r0, lsl #3]
 1036              	.LVL117:
 1037              		.loc 1 603 21 view .LVU193
 1038 0154 07F10047 		add	r7, r7, #-2147483648
 1039              	.LVL118:
 1040              	.L65:
 604:Core/Src/main.c ****             else
 605:Core/Src/main.c ****                 val = -M_PI_2 + ATAN_LUT[(int)(255 * absx / absy)]; //7th octant
 606:Core/Src/main.c ****             val = x < 0 ? -M_PI - val : val;                        //5-6th octants from 8-7
 1041              		.loc 1 606 13 is_stmt 1 view .LVU194
ARM GAS  C:\Users\30592\AppData\Local\Temp\cca1UH8z.s 			page 30


 1042              		.loc 1 606 39 is_stmt 0 view .LVU195
 1043 0158 0022     		movs	r2, #0
 1044 015a 0023     		movs	r3, #0
 1045 015c 2846     		mov	r0, r5
 1046 015e 3146     		mov	r1, r6
 1047 0160 FFF7FEFF 		bl	__aeabi_dcmplt
 1048              	.LVL119:
 1049 0164 20B3     		cbz	r0, .L56
 1050              		.loc 1 606 39 discriminator 1 view .LVU196
 1051 0166 2246     		mov	r2, r4
 1052 0168 3B46     		mov	r3, r7
 1053 016a 2BA1     		adr	r1, .L89+32
 1054 016c D1E90001 		ldrd	r0, [r1]
 1055 0170 FFF7FEFF 		bl	__aeabi_dsub
 1056              	.LVL120:
 1057 0174 0446     		mov	r4, r0
 1058              	.LVL121:
 1059              		.loc 1 606 39 discriminator 1 view .LVU197
 1060 0176 0F46     		mov	r7, r1
 1061 0178 1AE0     		b	.L56
 1062              	.LVL122:
 1063              	.L84:
 605:Core/Src/main.c ****             val = x < 0 ? -M_PI - val : val;                        //5-6th octants from 8-7
 1064              		.loc 1 605 17 is_stmt 1 view .LVU198
 605:Core/Src/main.c ****             val = x < 0 ? -M_PI - val : val;                        //5-6th octants from 8-7
 1065              		.loc 1 605 52 is_stmt 0 view .LVU199
 1066 017a 1FA3     		adr	r3, .L89
 1067 017c D3E90023 		ldrd	r2, [r3]
 1068 0180 2846     		mov	r0, r5
 1069 0182 4946     		mov	r1, r9
 1070 0184 FFF7FEFF 		bl	__aeabi_dmul
 1071              	.LVL123:
 605:Core/Src/main.c ****             val = x < 0 ? -M_PI - val : val;                        //5-6th octants from 8-7
 1072              		.loc 1 605 59 view .LVU200
 1073 0188 2246     		mov	r2, r4
 1074 018a 4346     		mov	r3, r8
 1075 018c FFF7FEFF 		bl	__aeabi_ddiv
 1076              	.LVL124:
 605:Core/Src/main.c ****             val = x < 0 ? -M_PI - val : val;                        //5-6th octants from 8-7
 1077              		.loc 1 605 42 view .LVU201
 1078 0190 FFF7FEFF 		bl	__aeabi_d2iz
 1079              	.LVL125:
 605:Core/Src/main.c ****             val = x < 0 ? -M_PI - val : val;                        //5-6th octants from 8-7
 1080              		.loc 1 605 41 view .LVU202
 1081 0194 224B     		ldr	r3, .L89+40
 1082 0196 03EBC000 		add	r0, r3, r0, lsl #3
 605:Core/Src/main.c ****             val = x < 0 ? -M_PI - val : val;                        //5-6th octants from 8-7
 1083              		.loc 1 605 21 view .LVU203
 1084 019a 1BA3     		adr	r3, .L89+16
 1085 019c D3E90023 		ldrd	r2, [r3]
 1086 01a0 03C8     		ldmia	r0, {r0-r1}
 1087 01a2 FFF7FEFF 		bl	__aeabi_dsub
 1088              	.LVL126:
 1089 01a6 0446     		mov	r4, r0
 1090              	.LVL127:
 605:Core/Src/main.c ****             val = x < 0 ? -M_PI - val : val;                        //5-6th octants from 8-7
 1091              		.loc 1 605 21 view .LVU204
ARM GAS  C:\Users\30592\AppData\Local\Temp\cca1UH8z.s 			page 31


 1092 01a8 0F46     		mov	r7, r1
 1093              	.LVL128:
 605:Core/Src/main.c ****             val = x < 0 ? -M_PI - val : val;                        //5-6th octants from 8-7
 1094              		.loc 1 605 21 view .LVU205
 1095 01aa D5E7     		b	.L65
 1096              	.LVL129:
 1097              	.L70:
 588:Core/Src/main.c ****     }
 1098              		.loc 1 588 13 view .LVU206
 1099 01ac 0024     		movs	r4, #0
 1100              	.LVL130:
 588:Core/Src/main.c ****     }
 1101              		.loc 1 588 13 view .LVU207
 1102 01ae 2746     		mov	r7, r4
 1103              	.L56:
 1104              	.LVL131:
 607:Core/Src/main.c ****         }
 608:Core/Src/main.c ****     }
 609:Core/Src/main.c ****     val = val * 180 / M_PI;
 1105              		.loc 1 609 5 is_stmt 1 view .LVU208
 1106              		.loc 1 609 15 is_stmt 0 view .LVU209
 1107 01b0 0022     		movs	r2, #0
 1108 01b2 1C4B     		ldr	r3, .L89+44
 1109 01b4 2046     		mov	r0, r4
 1110 01b6 3946     		mov	r1, r7
 1111 01b8 FFF7FEFF 		bl	__aeabi_dmul
 1112              	.LVL132:
 1113              		.loc 1 609 9 view .LVU210
 1114 01bc 10A3     		adr	r3, .L89+8
 1115 01be D3E90023 		ldrd	r2, [r3]
 1116 01c2 FFF7FEFF 		bl	__aeabi_ddiv
 1117              	.LVL133:
 1118 01c6 0446     		mov	r4, r0
 1119              	.LVL134:
 1120              		.loc 1 609 9 view .LVU211
 1121 01c8 0D46     		mov	r5, r1
 1122              	.LVL135:
 610:Core/Src/main.c ****     return (val < 0) ? (val + 360) : val;
 1123              		.loc 1 610 5 is_stmt 1 view .LVU212
 1124              		.loc 1 610 36 is_stmt 0 view .LVU213
 1125 01ca 0022     		movs	r2, #0
 1126 01cc 0023     		movs	r3, #0
 1127 01ce FFF7FEFF 		bl	__aeabi_dcmplt
 1128              	.LVL136:
 1129 01d2 18B9     		cbnz	r0, .L88
 1130              	.LVL137:
 1131              	.L48:
 611:Core/Src/main.c **** }
 1132              		.loc 1 611 1 view .LVU214
 1133 01d4 2046     		mov	r0, r4
 1134 01d6 2946     		mov	r1, r5
 1135 01d8 BDE8F883 		pop	{r3, r4, r5, r6, r7, r8, r9, pc}
 1136              	.LVL138:
 1137              	.L88:
 610:Core/Src/main.c ****     return (val < 0) ? (val + 360) : val;
 1138              		.loc 1 610 36 discriminator 1 view .LVU215
 1139 01dc 0022     		movs	r2, #0
ARM GAS  C:\Users\30592\AppData\Local\Temp\cca1UH8z.s 			page 32


 1140 01de 124B     		ldr	r3, .L89+48
 1141 01e0 2046     		mov	r0, r4
 1142 01e2 2946     		mov	r1, r5
 1143 01e4 FFF7FEFF 		bl	__aeabi_dadd
 1144              	.LVL139:
 1145 01e8 0446     		mov	r4, r0
 1146              	.LVL140:
 610:Core/Src/main.c ****     return (val < 0) ? (val + 360) : val;
 1147              		.loc 1 610 36 discriminator 1 view .LVU216
 1148 01ea 0D46     		mov	r5, r1
 1149 01ec F2E7     		b	.L48
 1150              	.L68:
 578:Core/Src/main.c ****     }
 1151              		.loc 1 578 16 view .LVU217
 1152 01ee 0024     		movs	r4, #0
 1153 01f0 0025     		movs	r5, #0
 1154 01f2 EFE7     		b	.L48
 1155              	.L90:
 1156 01f4 AFF30080 		.align	3
 1157              	.L89:
 1158 01f8 00000000 		.word	0
 1159 01fc 00E06F40 		.word	1081073664
 1160 0200 50455254 		.word	1414677840
 1161 0204 FB210940 		.word	1074340347
 1162 0208 4AD8124D 		.word	1293080650
 1163 020c FB21F93F 		.word	1073291771
 1164 0210 4AD8124D 		.word	1293080650
 1165 0214 FB21F9BF 		.word	-1074191877
 1166 0218 50455254 		.word	1414677840
 1167 021c FB2109C0 		.word	-1073143301
 1168 0220 00000000 		.word	.LANCHOR1
 1169 0224 00806640 		.word	1080459264
 1170 0228 00807640 		.word	1081507840
 1171              		.cfi_endproc
 1172              	.LFE77:
 1174              		.global	__aeabi_i2d
 1175              		.global	__aeabi_ui2d
 1176              		.section	.text.Solve_Mine_Pos,"ax",%progbits
 1177              		.align	1
 1178              		.global	Solve_Mine_Pos
 1179              		.syntax unified
 1180              		.thumb
 1181              		.thumb_func
 1182              		.fpu softvfp
 1184              	Solve_Mine_Pos:
 1185              	.LVL141:
 1186              	.LFB78:
 612:Core/Src/main.c **** int Solve_Mine_Pos(uint16_t xx_1, uint16_t yy_1, uint32_t EE_1, uint16_t xx_2, uint16_t yy_2, uint3
 613:Core/Src/main.c **** {
 1187              		.loc 1 613 1 is_stmt 1 view -0
 1188              		.cfi_startproc
 1189              		@ args = 28, pretend = 0, frame = 56
 1190              		@ frame_needed = 0, uses_anonymous_args = 0
 1191              		.loc 1 613 1 is_stmt 0 view .LVU219
 1192 0000 2DE9F04F 		push	{r4, r5, r6, r7, r8, r9, r10, fp, lr}
 1193              	.LCFI9:
 1194              		.cfi_def_cfa_offset 36
ARM GAS  C:\Users\30592\AppData\Local\Temp\cca1UH8z.s 			page 33


 1195              		.cfi_offset 4, -36
 1196              		.cfi_offset 5, -32
 1197              		.cfi_offset 6, -28
 1198              		.cfi_offset 7, -24
 1199              		.cfi_offset 8, -20
 1200              		.cfi_offset 9, -16
 1201              		.cfi_offset 10, -12
 1202              		.cfi_offset 11, -8
 1203              		.cfi_offset 14, -4
 1204 0004 8FB0     		sub	sp, sp, #60
 1205              	.LCFI10:
 1206              		.cfi_def_cfa_offset 96
 1207 0006 8046     		mov	r8, r0
 1208 0008 8946     		mov	r9, r1
 1209 000a 1746     		mov	r7, r2
 1210 000c 1D46     		mov	r5, r3
 1211 000e BDF860A0 		ldrh	r10, [sp, #96]
 1212 0012 BDF86840 		ldrh	r4, [sp, #104]
 1213 0016 BDF86C30 		ldrh	r3, [sp, #108]
 1214              	.LVL142:
 614:Core/Src/main.c ****     /*
 615:Core/Src/main.c ****     ÂÖ•Âè£ÂèÇÊï∞Ôºöxx_i,yy_i,EE_i,(i=1,2,3)‰∏∫‰∏â‰∏™‰∏çÂêåÁÇπÁöÑÂùêÊ†á‰∏éÂú∫Âº∫„ÄÇdouble *coordinat
 616:Core/Src/main.c ****     Ê≠§ÂáΩÊï∞Ê†πÊçÆ‰∏âÁªÑÂùêÔøΩ?&Âú∫Âº∫Êï∞ÊçÆËøõË°åËß£ÁÆóÔºåÂ∞ÜÂæóÂà∞ÁöÑÁªìÊûúÂ≠òÂÇ®Âú®coordinateÊï
 617:Core/Src/main.c ****     ËøîÂõûÂÄº‰∏∫0or1„ÄÇcase 1ÔºöËÆ°ÁÆóÊó†ÊòéÊòæÂºÇÂ∏∏;case 0Ôºö‰∏â‰∏™ÁÇπÊï∞ÊçÆÈáè‰∏çÂ§üÔºåÊàñÊòØËÆ°
 618:Core/Src/main.c ****     */
 619:Core/Src/main.c ****     /*
 620:Core/Src/main.c ****     ËÆ°ÁÆóÂÖ¨Âºè‰∏∫Ôºö
 621:Core/Src/main.c ****     y=(A*((xx_2-xx_3)/EE_1+(xx_3-xx_1)/EE_2+(xx_1-xx_2)/EE_3)+(xx_1-xx_2)*(xx_2-xx_3)*(xx_3-xx_1)+y
 622:Core/Src/main.c ****     x=(xx_1+xx_2-((xx_2-xx_3)*(A/EE_1-A/EE_2)-(yy_1-yy_2)*(xx_2-xx_3)*(yy_1+yy_2-2*y))/(xx_1-xx_2)/
 623:Core/Src/main.c ****     Ê≠§ÂÖ¨ÂºèÂú®matlab‰∏äËøêÁÆóÊ≠£Â∏∏ÔºåÁ≤æÂ∫¶Êª°Ë∂≥Ë¶ÅÊ±Ç
 624:Core/Src/main.c ****     */
 625:Core/Src/main.c ****     double determinant = xx_1 * yy_2 - xx_2 * yy_1 + xx_3 * yy_1 - xx_1 * yy_3 + xx_2 * yy_3 - xx_3
 1215              		.loc 1 625 5 is_stmt 1 view .LVU220
 1216              		.loc 1 625 31 is_stmt 0 view .LVU221
 1217 001a 0AFB00F6 		mul	r6, r10, r0
 1218              		.loc 1 625 38 view .LVU222
 1219 001e 01FB1566 		mls	r6, r1, r5, r6
 1220              		.loc 1 625 52 view .LVU223
 1221 0022 04FB0166 		mla	r6, r4, r1, r6
 1222              		.loc 1 625 66 view .LVU224
 1223 0026 03FB1066 		mls	r6, r3, r0, r6
 1224              		.loc 1 625 80 view .LVU225
 1225 002a 0993     		str	r3, [sp, #36]
 1226 002c 03FB0566 		mla	r6, r3, r5, r6
 1227              		.loc 1 625 101 view .LVU226
 1228 0030 04FB0AFB 		mul	fp, r4, r10
 1229              		.loc 1 625 12 view .LVU227
 1230 0034 A6EB0B00 		sub	r0, r6, fp
 1231              	.LVL143:
 1232              		.loc 1 625 12 view .LVU228
 1233 0038 FFF7FEFF 		bl	__aeabi_i2d
 1234              	.LVL144:
 1235              		.loc 1 625 12 view .LVU229
 1236 003c CDE90001 		strd	r0, [sp]
 1237              	.LVL145:
 626:Core/Src/main.c ****     if (!determinant) //??????
 1238              		.loc 1 626 5 is_stmt 1 view .LVU230
ARM GAS  C:\Users\30592\AppData\Local\Temp\cca1UH8z.s 			page 34


 1239              		.loc 1 626 8 is_stmt 0 view .LVU231
 1240 0040 5E45     		cmp	r6, fp
 1241 0042 00F04D81 		beq	.L93
 627:Core/Src/main.c ****         return 0;
 628:Core/Src/main.c ****     double y = (((double)(xx_2 - xx_3) * (A_COFFIENT / (double)EE_1) + (double)(xx_3 - xx_1) * (A_C
 1242              		.loc 1 628 5 is_stmt 1 view .LVU232
 1243              		.loc 1 628 32 is_stmt 0 view .LVU233
 1244 0046 A5EB040B 		sub	fp, r5, r4
 1245              		.loc 1 628 18 view .LVU234
 1246 004a 5846     		mov	r0, fp
 1247              	.LVL146:
 1248              		.loc 1 628 18 view .LVU235
 1249 004c FFF7FEFF 		bl	__aeabi_i2d
 1250              	.LVL147:
 1251 0050 CDE90201 		strd	r0, [sp, #8]
 1252              		.loc 1 628 56 view .LVU236
 1253 0054 3846     		mov	r0, r7
 1254 0056 FFF7FEFF 		bl	__aeabi_ui2d
 1255              	.LVL148:
 1256 005a 0246     		mov	r2, r0
 1257 005c 0B46     		mov	r3, r1
 1258              		.loc 1 628 54 view .LVU237
 1259 005e A6A1     		adr	r1, .L99
 1260 0060 D1E90001 		ldrd	r0, [r1]
 1261 0064 FFF7FEFF 		bl	__aeabi_ddiv
 1262              	.LVL149:
 1263 0068 0246     		mov	r2, r0
 1264 006a 0B46     		mov	r3, r1
 1265              		.loc 1 628 40 view .LVU238
 1266 006c CDE90A23 		strd	r2, [sp, #40]
 1267 0070 DDE90201 		ldrd	r0, [sp, #8]
 1268 0074 FFF7FEFF 		bl	__aeabi_dmul
 1269              	.LVL150:
 1270 0078 0646     		mov	r6, r0
 1271 007a 0F46     		mov	r7, r1
 1272              	.LVL151:
 1273              		.loc 1 628 72 view .LVU239
 1274 007c A4EB0800 		sub	r0, r4, r8
 1275 0080 FFF7FEFF 		bl	__aeabi_i2d
 1276              	.LVL152:
 1277 0084 CDE90601 		strd	r0, [sp, #24]
 1278              		.loc 1 628 110 view .LVU240
 1279 0088 1998     		ldr	r0, [sp, #100]
 1280 008a FFF7FEFF 		bl	__aeabi_ui2d
 1281              	.LVL153:
 1282 008e 0246     		mov	r2, r0
 1283 0090 0B46     		mov	r3, r1
 1284              		.loc 1 628 108 view .LVU241
 1285 0092 99A1     		adr	r1, .L99
 1286 0094 D1E90001 		ldrd	r0, [r1]
 1287 0098 FFF7FEFF 		bl	__aeabi_ddiv
 1288              	.LVL154:
 1289 009c 0246     		mov	r2, r0
 1290 009e 0B46     		mov	r3, r1
 1291              		.loc 1 628 94 view .LVU242
 1292 00a0 CDE90C23 		strd	r2, [sp, #48]
 1293 00a4 DDE90601 		ldrd	r0, [sp, #24]
ARM GAS  C:\Users\30592\AppData\Local\Temp\cca1UH8z.s 			page 35


 1294 00a8 FFF7FEFF 		bl	__aeabi_dmul
 1295              	.LVL155:
 1296 00ac 0246     		mov	r2, r0
 1297 00ae 0B46     		mov	r3, r1
 1298              		.loc 1 628 70 view .LVU243
 1299 00b0 3046     		mov	r0, r6
 1300 00b2 3946     		mov	r1, r7
 1301 00b4 FFF7FEFF 		bl	__aeabi_dadd
 1302              	.LVL156:
 1303 00b8 0646     		mov	r6, r0
 1304 00ba 0F46     		mov	r7, r1
 1305              		.loc 1 628 126 view .LVU244
 1306 00bc A8EB0500 		sub	r0, r8, r5
 1307 00c0 FFF7FEFF 		bl	__aeabi_i2d
 1308              	.LVL157:
 1309 00c4 CDE90401 		strd	r0, [sp, #16]
 1310              		.loc 1 628 172 view .LVU245
 1311 00c8 1C98     		ldr	r0, [sp, #112]
 1312 00ca FFF7FEFF 		bl	__aeabi_ui2d
 1313              	.LVL158:
 1314 00ce 0246     		mov	r2, r0
 1315 00d0 0B46     		mov	r3, r1
 1316              		.loc 1 628 150 view .LVU246
 1317 00d2 89A1     		adr	r1, .L99
 1318 00d4 D1E90001 		ldrd	r0, [r1]
 1319 00d8 FFF7FEFF 		bl	__aeabi_ddiv
 1320              	.LVL159:
 1321 00dc 0246     		mov	r2, r0
 1322 00de 0B46     		mov	r3, r1
 1323              		.loc 1 628 148 view .LVU247
 1324 00e0 DDE90401 		ldrd	r0, [sp, #16]
 1325 00e4 FFF7FEFF 		bl	__aeabi_dmul
 1326              	.LVL160:
 1327 00e8 0246     		mov	r2, r0
 1328 00ea 0B46     		mov	r3, r1
 1329              		.loc 1 628 124 view .LVU248
 1330 00ec 3046     		mov	r0, r6
 1331 00ee 3946     		mov	r1, r7
 1332 00f0 FFF7FEFF 		bl	__aeabi_dadd
 1333              	.LVL161:
 1334              		.loc 1 628 187 view .LVU249
 1335 00f4 DDE90023 		ldrd	r2, [sp]
 1336 00f8 FFF7FEFF 		bl	__aeabi_ddiv
 1337              	.LVL162:
 1338 00fc 0646     		mov	r6, r0
 1339 00fe 0F46     		mov	r7, r1
 1340              		.loc 1 628 217 view .LVU250
 1341 0100 DDE90423 		ldrd	r2, [sp, #16]
 1342 0104 DDE90201 		ldrd	r0, [sp, #8]
 1343 0108 FFF7FEFF 		bl	__aeabi_dmul
 1344              	.LVL163:
 1345              		.loc 1 628 241 view .LVU251
 1346 010c DDE90023 		ldrd	r2, [sp]
 1347 0110 FFF7FEFF 		bl	__aeabi_ddiv
 1348              	.LVL164:
 1349 0114 0246     		mov	r2, r0
 1350 0116 0B46     		mov	r3, r1
ARM GAS  C:\Users\30592\AppData\Local\Temp\cca1UH8z.s 			page 36


 1351              		.loc 1 628 255 view .LVU252
 1352 0118 DDE90601 		ldrd	r0, [sp, #24]
 1353 011c FFF7FEFF 		bl	__aeabi_dmul
 1354              	.LVL165:
 1355 0120 0246     		mov	r2, r0
 1356 0122 0B46     		mov	r3, r1
 1357              		.loc 1 628 201 view .LVU253
 1358 0124 3046     		mov	r0, r6
 1359 0126 3946     		mov	r1, r7
 1360 0128 FFF7FEFF 		bl	__aeabi_dadd
 1361              	.LVL166:
 1362 012c CDE90601 		strd	r0, [sp, #24]
 1363              		.loc 1 628 273 view .LVU254
 1364 0130 4846     		mov	r0, r9
 1365 0132 FFF7FEFF 		bl	__aeabi_ui2d
 1366              	.LVL167:
 1367              		.loc 1 628 286 view .LVU255
 1368 0136 DDE90023 		ldrd	r2, [sp]
 1369 013a FFF7FEFF 		bl	__aeabi_ddiv
 1370              	.LVL168:
 1371 013e 0646     		mov	r6, r0
 1372 0140 0F46     		mov	r7, r1
 1373              		.loc 1 628 300 view .LVU256
 1374 0142 4846     		mov	r0, r9
 1375 0144 FFF7FEFF 		bl	__aeabi_i2d
 1376              	.LVL169:
 1377 0148 3246     		mov	r2, r6
 1378 014a 3B46     		mov	r3, r7
 1379 014c FFF7FEFF 		bl	__aeabi_dmul
 1380              	.LVL170:
 1381 0150 0646     		mov	r6, r0
 1382 0152 0F46     		mov	r7, r1
 1383              		.loc 1 628 307 view .LVU257
 1384 0154 601B     		subs	r0, r4, r5
 1385 0156 FFF7FEFF 		bl	__aeabi_i2d
 1386              	.LVL171:
 1387 015a 3246     		mov	r2, r6
 1388 015c 3B46     		mov	r3, r7
 1389 015e FFF7FEFF 		bl	__aeabi_dmul
 1390              	.LVL172:
 1391 0162 0246     		mov	r2, r0
 1392 0164 0B46     		mov	r3, r1
 1393              		.loc 1 628 271 view .LVU258
 1394 0166 DDE90601 		ldrd	r0, [sp, #24]
 1395 016a FFF7FEFF 		bl	__aeabi_dadd
 1396              	.LVL173:
 1397 016e CDE90601 		strd	r0, [sp, #24]
 1398              		.loc 1 628 325 view .LVU259
 1399 0172 5046     		mov	r0, r10
 1400 0174 FFF7FEFF 		bl	__aeabi_ui2d
 1401              	.LVL174:
 1402 0178 0646     		mov	r6, r0
 1403 017a 0F46     		mov	r7, r1
 1404              		.loc 1 628 338 view .LVU260
 1405 017c 5046     		mov	r0, r10
 1406 017e FFF7FEFF 		bl	__aeabi_i2d
 1407              	.LVL175:
ARM GAS  C:\Users\30592\AppData\Local\Temp\cca1UH8z.s 			page 37


 1408 0182 3246     		mov	r2, r6
 1409 0184 3B46     		mov	r3, r7
 1410 0186 FFF7FEFF 		bl	__aeabi_dmul
 1411              	.LVL176:
 1412              		.loc 1 628 345 view .LVU261
 1413 018a DDE90023 		ldrd	r2, [sp]
 1414 018e FFF7FEFF 		bl	__aeabi_ddiv
 1415              	.LVL177:
 1416 0192 0646     		mov	r6, r0
 1417 0194 0F46     		mov	r7, r1
 1418              		.loc 1 628 359 view .LVU262
 1419 0196 A8EB0400 		sub	r0, r8, r4
 1420 019a FFF7FEFF 		bl	__aeabi_i2d
 1421              	.LVL178:
 1422 019e 3246     		mov	r2, r6
 1423 01a0 3B46     		mov	r3, r7
 1424 01a2 FFF7FEFF 		bl	__aeabi_dmul
 1425              	.LVL179:
 1426 01a6 0246     		mov	r2, r0
 1427 01a8 0B46     		mov	r3, r1
 1428              		.loc 1 628 323 view .LVU263
 1429 01aa DDE90601 		ldrd	r0, [sp, #24]
 1430 01ae FFF7FEFF 		bl	__aeabi_dadd
 1431              	.LVL180:
 1432 01b2 CDE90601 		strd	r0, [sp, #24]
 1433              		.loc 1 628 377 view .LVU264
 1434 01b6 099C     		ldr	r4, [sp, #36]
 1435 01b8 2046     		mov	r0, r4
 1436 01ba FFF7FEFF 		bl	__aeabi_ui2d
 1437              	.LVL181:
 1438 01be 0646     		mov	r6, r0
 1439 01c0 0F46     		mov	r7, r1
 1440              		.loc 1 628 390 view .LVU265
 1441 01c2 2046     		mov	r0, r4
 1442 01c4 FFF7FEFF 		bl	__aeabi_i2d
 1443              	.LVL182:
 1444 01c8 3246     		mov	r2, r6
 1445 01ca 3B46     		mov	r3, r7
 1446 01cc FFF7FEFF 		bl	__aeabi_dmul
 1447              	.LVL183:
 1448              		.loc 1 628 397 view .LVU266
 1449 01d0 DDE90023 		ldrd	r2, [sp]
 1450 01d4 FFF7FEFF 		bl	__aeabi_ddiv
 1451              	.LVL184:
 1452 01d8 0646     		mov	r6, r0
 1453 01da 0F46     		mov	r7, r1
 1454              		.loc 1 628 411 view .LVU267
 1455 01dc A5EB0800 		sub	r0, r5, r8
 1456 01e0 FFF7FEFF 		bl	__aeabi_i2d
 1457              	.LVL185:
 1458 01e4 3246     		mov	r2, r6
 1459 01e6 3B46     		mov	r3, r7
 1460 01e8 FFF7FEFF 		bl	__aeabi_dmul
 1461              	.LVL186:
 1462 01ec 0246     		mov	r2, r0
 1463 01ee 0B46     		mov	r3, r1
 1464              		.loc 1 628 375 view .LVU268
ARM GAS  C:\Users\30592\AppData\Local\Temp\cca1UH8z.s 			page 38


 1465 01f0 DDE90601 		ldrd	r0, [sp, #24]
 1466 01f4 FFF7FEFF 		bl	__aeabi_dadd
 1467              	.LVL187:
 1468              		.loc 1 628 12 view .LVU269
 1469 01f8 0022     		movs	r2, #0
 1470 01fa 434B     		ldr	r3, .L99+16
 1471 01fc FFF7FEFF 		bl	__aeabi_dmul
 1472              	.LVL188:
 1473 0200 0646     		mov	r6, r0
 1474 0202 0F46     		mov	r7, r1
 1475              	.LVL189:
 629:Core/Src/main.c ****     double x = (xx_1 + xx_2 - ((xx_2 - xx_3) * (A_COFFIENT / (double)EE_1 - A_COFFIENT / (double)EE
 1476              		.loc 1 629 5 is_stmt 1 view .LVU270
 1477              		.loc 1 629 22 is_stmt 0 view .LVU271
 1478 0204 08EB0504 		add	r4, r8, r5
 1479              		.loc 1 629 75 view .LVU272
 1480 0208 DDE90C23 		ldrd	r2, [sp, #48]
 1481 020c DDE90A01 		ldrd	r0, [sp, #40]
 1482 0210 FFF7FEFF 		bl	__aeabi_dsub
 1483              	.LVL190:
 1484 0214 0246     		mov	r2, r0
 1485 0216 0B46     		mov	r3, r1
 1486              		.loc 1 629 46 view .LVU273
 1487 0218 DDE90201 		ldrd	r0, [sp, #8]
 1488 021c FFF7FEFF 		bl	__aeabi_dmul
 1489              	.LVL191:
 1490 0220 CDE90001 		strd	r0, [sp]
 1491              	.LVL192:
 1492              		.loc 1 629 112 view .LVU274
 1493 0224 A9EB0A05 		sub	r5, r9, r10
 1494              		.loc 1 629 120 view .LVU275
 1495 0228 05FB0BF5 		mul	r5, r5, fp
 1496              		.loc 1 629 152 view .LVU276
 1497 022c CA44     		add	r10, r10, r9
 1498              		.loc 1 629 163 view .LVU277
 1499 022e 3246     		mov	r2, r6
 1500 0230 3B46     		mov	r3, r7
 1501 0232 3046     		mov	r0, r6
 1502 0234 3946     		mov	r1, r7
 1503 0236 FFF7FEFF 		bl	__aeabi_dadd
 1504              	.LVL193:
 1505 023a 8046     		mov	r8, r0
 1506 023c 8946     		mov	r9, r1
 1507              		.loc 1 629 138 view .LVU278
 1508 023e 5046     		mov	r0, r10
 1509 0240 FFF7FEFF 		bl	__aeabi_i2d
 1510              	.LVL194:
 1511 0244 4246     		mov	r2, r8
 1512 0246 4B46     		mov	r3, r9
 1513 0248 FFF7FEFF 		bl	__aeabi_dsub
 1514              	.LVL195:
 1515 024c 8046     		mov	r8, r0
 1516 024e 8946     		mov	r9, r1
 1517              		.loc 1 629 136 view .LVU279
 1518 0250 2846     		mov	r0, r5
 1519 0252 FFF7FEFF 		bl	__aeabi_i2d
 1520              	.LVL196:
ARM GAS  C:\Users\30592\AppData\Local\Temp\cca1UH8z.s 			page 39


 1521 0256 4246     		mov	r2, r8
 1522 0258 4B46     		mov	r3, r9
 1523 025a FFF7FEFF 		bl	__aeabi_dmul
 1524              	.LVL197:
 1525 025e 0246     		mov	r2, r0
 1526 0260 0B46     		mov	r3, r1
 1527              		.loc 1 629 104 view .LVU280
 1528 0262 DDE90001 		ldrd	r0, [sp]
 1529 0266 FFF7FEFF 		bl	__aeabi_dsub
 1530              	.LVL198:
 1531              		.loc 1 629 169 view .LVU281
 1532 026a DDE90423 		ldrd	r2, [sp, #16]
 1533 026e FFF7FEFF 		bl	__aeabi_ddiv
 1534              	.LVL199:
 1535              		.loc 1 629 185 view .LVU282
 1536 0272 DDE90223 		ldrd	r2, [sp, #8]
 1537 0276 FFF7FEFF 		bl	__aeabi_ddiv
 1538              	.LVL200:
 1539 027a 8046     		mov	r8, r0
 1540 027c 8946     		mov	r9, r1
 1541              		.loc 1 629 29 view .LVU283
 1542 027e 2046     		mov	r0, r4
 1543 0280 FFF7FEFF 		bl	__aeabi_i2d
 1544              	.LVL201:
 1545 0284 4246     		mov	r2, r8
 1546 0286 4B46     		mov	r3, r9
 1547 0288 FFF7FEFF 		bl	__aeabi_dsub
 1548              	.LVL202:
 1549              		.loc 1 629 12 view .LVU284
 1550 028c 0022     		movs	r2, #0
 1551 028e 1E4B     		ldr	r3, .L99+16
 1552 0290 FFF7FEFF 		bl	__aeabi_dmul
 1553              	.LVL203:
 1554 0294 0446     		mov	r4, r0
 1555 0296 0D46     		mov	r5, r1
 1556              	.LVL204:
 630:Core/Src/main.c **** 
 631:Core/Src/main.c ****     if (x < -POS_ERR_TOL || x > 254 + POS_ERR_TOL || y < -POS_ERR_TOL || y > 254 + POS_ERR_TOL) //?
 1557              		.loc 1 631 5 is_stmt 1 view .LVU285
 1558              		.loc 1 631 8 is_stmt 0 view .LVU286
 1559 0298 0022     		movs	r2, #0
 1560 029a 1C4B     		ldr	r3, .L99+20
 1561 029c FFF7FEFF 		bl	__aeabi_dcmplt
 1562              	.LVL205:
 1563 02a0 00BB     		cbnz	r0, .L94
 1564              		.loc 1 631 26 discriminator 1 view .LVU287
 1565 02a2 17A3     		adr	r3, .L99+8
 1566 02a4 D3E90023 		ldrd	r2, [r3]
 1567 02a8 2046     		mov	r0, r4
 1568 02aa 2946     		mov	r1, r5
 1569 02ac FFF7FEFF 		bl	__aeabi_dcmpgt
 1570              	.LVL206:
 1571 02b0 E0B9     		cbnz	r0, .L95
 1572              		.loc 1 631 51 discriminator 2 view .LVU288
 1573 02b2 0022     		movs	r2, #0
 1574 02b4 154B     		ldr	r3, .L99+20
 1575 02b6 3046     		mov	r0, r6
ARM GAS  C:\Users\30592\AppData\Local\Temp\cca1UH8z.s 			page 40


 1576 02b8 3946     		mov	r1, r7
 1577 02ba FFF7FEFF 		bl	__aeabi_dcmplt
 1578              	.LVL207:
 1579 02be B8B9     		cbnz	r0, .L96
 1580              		.loc 1 631 71 discriminator 3 view .LVU289
 1581 02c0 0FA3     		adr	r3, .L99+8
 1582 02c2 D3E90023 		ldrd	r2, [r3]
 1583 02c6 3046     		mov	r0, r6
 1584 02c8 3946     		mov	r1, r7
 1585 02ca FFF7FEFF 		bl	__aeabi_dcmpgt
 1586              	.LVL208:
 1587 02ce 88B9     		cbnz	r0, .L97
 632:Core/Src/main.c ****         return 0;
 633:Core/Src/main.c **** 
 634:Core/Src/main.c ****     *coordinate_x = x;
 1588              		.loc 1 634 5 is_stmt 1 view .LVU290
 1589              		.loc 1 634 19 is_stmt 0 view .LVU291
 1590 02d0 1D9B     		ldr	r3, [sp, #116]
 1591 02d2 C3E90045 		strd	r4, [r3]
 635:Core/Src/main.c ****     *coordinate_y = y;
 1592              		.loc 1 635 5 is_stmt 1 view .LVU292
 1593              		.loc 1 635 19 is_stmt 0 view .LVU293
 1594 02d6 1E9B     		ldr	r3, [sp, #120]
 1595 02d8 C3E90067 		strd	r6, [r3]
 636:Core/Src/main.c ****     return 1;
 1596              		.loc 1 636 5 is_stmt 1 view .LVU294
 1597              		.loc 1 636 12 is_stmt 0 view .LVU295
 1598 02dc 0120     		movs	r0, #1
 1599 02de 02E0     		b	.L91
 1600              	.LVL209:
 1601              	.L93:
 627:Core/Src/main.c ****     double y = (((double)(xx_2 - xx_3) * (A_COFFIENT / (double)EE_1) + (double)(xx_3 - xx_1) * (A_C
 1602              		.loc 1 627 16 view .LVU296
 1603 02e0 0020     		movs	r0, #0
 1604              	.LVL210:
 627:Core/Src/main.c ****     double y = (((double)(xx_2 - xx_3) * (A_COFFIENT / (double)EE_1) + (double)(xx_3 - xx_1) * (A_C
 1605              		.loc 1 627 16 view .LVU297
 1606 02e2 00E0     		b	.L91
 1607              	.LVL211:
 1608              	.L94:
 632:Core/Src/main.c **** 
 1609              		.loc 1 632 16 view .LVU298
 1610 02e4 0020     		movs	r0, #0
 1611              	.LVL212:
 1612              	.L91:
 637:Core/Src/main.c **** }
 1613              		.loc 1 637 1 view .LVU299
 1614 02e6 0FB0     		add	sp, sp, #60
 1615              	.LCFI11:
 1616              		.cfi_remember_state
 1617              		.cfi_def_cfa_offset 36
 1618              		@ sp needed
 1619 02e8 BDE8F08F 		pop	{r4, r5, r6, r7, r8, r9, r10, fp, pc}
 1620              	.LVL213:
 1621              	.L95:
 1622              	.LCFI12:
 1623              		.cfi_restore_state
ARM GAS  C:\Users\30592\AppData\Local\Temp\cca1UH8z.s 			page 41


 632:Core/Src/main.c **** 
 1624              		.loc 1 632 16 view .LVU300
 1625 02ec 0020     		movs	r0, #0
 1626 02ee FAE7     		b	.L91
 1627              	.L96:
 1628 02f0 0020     		movs	r0, #0
 1629 02f2 F8E7     		b	.L91
 1630              	.L97:
 1631 02f4 0020     		movs	r0, #0
 1632 02f6 F6E7     		b	.L91
 1633              	.L100:
 1634              		.align	3
 1635              	.L99:
 1636 02f8 00000000 		.word	0
 1637 02fc 65CDCD41 		.word	1104006501
 1638 0300 00000000 		.word	0
 1639 0304 00207040 		.word	1081090048
 1640 0308 0000E03F 		.word	1071644672
 1641 030c 000010C0 		.word	-1072693248
 1642              		.cfi_endproc
 1643              	.LFE78:
 1645              		.section	.text.Sol_Car_Pos_INIT,"ax",%progbits
 1646              		.align	1
 1647              		.global	Sol_Car_Pos_INIT
 1648              		.syntax unified
 1649              		.thumb
 1650              		.thumb_func
 1651              		.fpu softvfp
 1653              	Sol_Car_Pos_INIT:
 1654              	.LFB79:
 638:Core/Src/main.c **** void Sol_Car_Pos_INIT()
 639:Core/Src/main.c **** {
 1655              		.loc 1 639 1 is_stmt 1 view -0
 1656              		.cfi_startproc
 1657              		@ args = 0, pretend = 0, frame = 0
 1658              		@ frame_needed = 0, uses_anonymous_args = 0
 1659 0000 70B5     		push	{r4, r5, r6, lr}
 1660              	.LCFI13:
 1661              		.cfi_def_cfa_offset 16
 1662              		.cfi_offset 4, -16
 1663              		.cfi_offset 5, -12
 1664              		.cfi_offset 6, -8
 1665              		.cfi_offset 14, -4
 640:Core/Src/main.c ****     ///Sol_Car_Pos()ÂàùÂßãÂåñÔºåËµãÔøΩ?ÔøΩ‰∏≠Èó¥ÂèòÈáèbeacon_determinant
 641:Core/Src/main.c ****     ///ËøõÂÖ•Á¨¨‰∫åÂõûÂêàÊó∂Ë∞ÉÁî®Ê≠§ÂáΩÊï∞ËøõË°åËµãÔøΩ?ÔøΩÔºåÊàñÔøΩ?ÔøΩÊää‰∏ãÈù¢ÔøΩ?Ë°åÁ≤òËøáÂéª
 642:Core/Src/main.c ****     beacon_determinant = -beacon_Pos[0] * beacon_Pos[3] + beacon_Pos[2] * beacon_Pos[1] - beacon_Po
 1666              		.loc 1 642 5 view .LVU302
 1667              		.loc 1 642 37 is_stmt 0 view .LVU303
 1668 0002 0C4A     		ldr	r2, .L103
 1669 0004 1568     		ldr	r5, [r2]
 1670              		.loc 1 642 53 view .LVU304
 1671 0006 D168     		ldr	r1, [r2, #12]
 1672              		.loc 1 642 69 view .LVU305
 1673 0008 9468     		ldr	r4, [r2, #8]
 1674              		.loc 1 642 85 view .LVU306
 1675 000a 5668     		ldr	r6, [r2, #4]
 1676              		.loc 1 642 73 view .LVU307
ARM GAS  C:\Users\30592\AppData\Local\Temp\cca1UH8z.s 			page 42


 1677 000c 06FB04F3 		mul	r3, r6, r4
 1678              		.loc 1 642 57 view .LVU308
 1679 0010 05FB1133 		mls	r3, r5, r1, r3
 1680              		.loc 1 642 101 view .LVU309
 1681 0014 1069     		ldr	r0, [r2, #16]
 1682              		.loc 1 642 89 view .LVU310
 1683 0016 00FB1633 		mls	r3, r0, r6, r3
 1684              		.loc 1 642 149 view .LVU311
 1685 001a 5269     		ldr	r2, [r2, #20]
 1686              		.loc 1 642 121 view .LVU312
 1687 001c 02FB0533 		mla	r3, r2, r5, r3
 1688              		.loc 1 642 153 view .LVU313
 1689 0020 02FB1433 		mls	r3, r2, r4, r3
 1690              		.loc 1 642 24 view .LVU314
 1691 0024 00FB0130 		mla	r0, r0, r1, r3
 1692 0028 FFF7FEFF 		bl	__aeabi_i2d
 1693              	.LVL214:
 1694 002c 024B     		ldr	r3, .L103+4
 1695 002e C3E90001 		strd	r0, [r3]
 643:Core/Src/main.c **** }
 1696              		.loc 1 643 1 view .LVU315
 1697 0032 70BD     		pop	{r4, r5, r6, pc}
 1698              	.L104:
 1699              		.align	2
 1700              	.L103:
 1701 0034 00000000 		.word	.LANCHOR2
 1702 0038 00000000 		.word	.LANCHOR3
 1703              		.cfi_endproc
 1704              	.LFE79:
 1706              		.section	.text.Sol_Car_Pos,"ax",%progbits
 1707              		.align	1
 1708              		.global	Sol_Car_Pos
 1709              		.syntax unified
 1710              		.thumb
 1711              		.thumb_func
 1712              		.fpu softvfp
 1714              	Sol_Car_Pos:
 1715              	.LVL215:
 1716              	.LFB80:
 644:Core/Src/main.c **** void Sol_Car_Pos(double r_1, double r_2, double r_3)
 645:Core/Src/main.c **** {
 1717              		.loc 1 645 1 is_stmt 1 view -0
 1718              		.cfi_startproc
 1719              		@ args = 8, pretend = 0, frame = 32
 1720              		@ frame_needed = 0, uses_anonymous_args = 0
 1721              		.loc 1 645 1 is_stmt 0 view .LVU317
 1722 0000 2DE9F04F 		push	{r4, r5, r6, r7, r8, r9, r10, fp, lr}
 1723              	.LCFI14:
 1724              		.cfi_def_cfa_offset 36
 1725              		.cfi_offset 4, -36
 1726              		.cfi_offset 5, -32
 1727              		.cfi_offset 6, -28
 1728              		.cfi_offset 7, -24
 1729              		.cfi_offset 8, -20
 1730              		.cfi_offset 9, -16
 1731              		.cfi_offset 10, -12
 1732              		.cfi_offset 11, -8
ARM GAS  C:\Users\30592\AppData\Local\Temp\cca1UH8z.s 			page 43


 1733              		.cfi_offset 14, -4
 1734 0004 89B0     		sub	sp, sp, #36
 1735              	.LCFI15:
 1736              		.cfi_def_cfa_offset 72
 1737 0006 1646     		mov	r6, r2
 1738 0008 1F46     		mov	r7, r3
 1739 000a DDE91289 		ldrd	r8, [sp, #72]
 646:Core/Src/main.c ****     ///Á¨¨‰∫åÂõûÂêàËÆ°ÁÆóÂ∞èËΩ¶‰ΩçÁΩÆÂáΩÊï∞„ÄÇËÆ°ÁÆóÂá∫Â∞èËΩ¶ÂΩìÂâçÂùêÊ†áÔºåÂ≠òÂÇ®Âú®car_Pos[2]Êï∞Á
 647:Core/Src/main.c ****     ///ËøîÂõûÂÄºÔºöÔøΩ?
 648:Core/Src/main.c ****     car_Pos[1] = (r_1 * r_1 * (beacon_Pos[4] - beacon_Pos[2]) + r_3 * r_3 * (beacon_Pos[2] - beacon
 1740              		.loc 1 648 5 is_stmt 1 view .LVU318
 1741              		.loc 1 648 23 is_stmt 0 view .LVU319
 1742 000e 0246     		mov	r2, r0
 1743              	.LVL216:
 1744              		.loc 1 648 23 view .LVU320
 1745 0010 0B46     		mov	r3, r1
 1746 0012 FFF7FEFF 		bl	__aeabi_dmul
 1747              	.LVL217:
 1748              		.loc 1 648 23 view .LVU321
 1749 0016 CDE90201 		strd	r0, [sp, #8]
 1750              		.loc 1 648 42 view .LVU322
 1751 001a DFF8B0A1 		ldr	r10, .L107
 1752 001e DAF81040 		ldr	r4, [r10, #16]
 1753              		.loc 1 648 58 view .LVU323
 1754 0022 DAF80850 		ldr	r5, [r10, #8]
 1755              		.loc 1 648 29 view .LVU324
 1756 0026 601B     		subs	r0, r4, r5
 1757 0028 FFF7FEFF 		bl	__aeabi_i2d
 1758              	.LVL218:
 1759 002c DDE90223 		ldrd	r2, [sp, #8]
 1760 0030 FFF7FEFF 		bl	__aeabi_dmul
 1761              	.LVL219:
 1762 0034 CDE90001 		strd	r0, [sp]
 1763              		.loc 1 648 69 view .LVU325
 1764 0038 4246     		mov	r2, r8
 1765 003a 4B46     		mov	r3, r9
 1766 003c 4046     		mov	r0, r8
 1767 003e 4946     		mov	r1, r9
 1768 0040 FFF7FEFF 		bl	__aeabi_dmul
 1769              	.LVL220:
 1770 0044 CDE90401 		strd	r0, [sp, #16]
 1771              		.loc 1 648 104 view .LVU326
 1772 0048 DAF80080 		ldr	r8, [r10]
 1773              		.loc 1 648 75 view .LVU327
 1774 004c A5EB0800 		sub	r0, r5, r8
 1775 0050 FFF7FEFF 		bl	__aeabi_i2d
 1776              	.LVL221:
 1777 0054 DDE90423 		ldrd	r2, [sp, #16]
 1778 0058 FFF7FEFF 		bl	__aeabi_dmul
 1779              	.LVL222:
 1780 005c 0246     		mov	r2, r0
 1781 005e 0B46     		mov	r3, r1
 1782              		.loc 1 648 63 view .LVU328
 1783 0060 DDE90001 		ldrd	r0, [sp]
 1784 0064 FFF7FEFF 		bl	__aeabi_dadd
 1785              	.LVL223:
 1786 0068 CDE90001 		strd	r0, [sp]
ARM GAS  C:\Users\30592\AppData\Local\Temp\cca1UH8z.s 			page 44


 1787              		.loc 1 648 115 view .LVU329
 1788 006c 3246     		mov	r2, r6
 1789 006e 3B46     		mov	r3, r7
 1790 0070 3046     		mov	r0, r6
 1791 0072 3946     		mov	r1, r7
 1792 0074 FFF7FEFF 		bl	__aeabi_dmul
 1793              	.LVL224:
 1794 0078 0646     		mov	r6, r0
 1795 007a 0F46     		mov	r7, r1
 1796              		.loc 1 648 121 view .LVU330
 1797 007c A8EB0400 		sub	r0, r8, r4
 1798 0080 FFF7FEFF 		bl	__aeabi_i2d
 1799              	.LVL225:
 1800 0084 CDE90667 		strd	r6, [sp, #24]
 1801 0088 3246     		mov	r2, r6
 1802 008a 3B46     		mov	r3, r7
 1803 008c FFF7FEFF 		bl	__aeabi_dmul
 1804              	.LVL226:
 1805 0090 0246     		mov	r2, r0
 1806 0092 0B46     		mov	r3, r1
 1807              		.loc 1 648 109 view .LVU331
 1808 0094 DDE90001 		ldrd	r0, [sp]
 1809 0098 FFF7FEFF 		bl	__aeabi_dadd
 1810              	.LVL227:
 1811              		.loc 1 648 156 view .LVU332
 1812 009c 0022     		movs	r2, #0
 1813 009e 4C4B     		ldr	r3, .L107+4
 1814 00a0 FFF7FEFF 		bl	__aeabi_dmul
 1815              	.LVL228:
 1816              		.loc 1 648 160 view .LVU333
 1817 00a4 4B4B     		ldr	r3, .L107+8
 1818 00a6 D3E90067 		ldrd	r6, [r3]
 1819 00aa CDE90067 		strd	r6, [sp]
 1820 00ae 3246     		mov	r2, r6
 1821 00b0 3B46     		mov	r3, r7
 1822 00b2 FFF7FEFF 		bl	__aeabi_ddiv
 1823              	.LVL229:
 1824 00b6 0646     		mov	r6, r0
 1825 00b8 0F46     		mov	r7, r1
 1826              		.loc 1 648 199 view .LVU334
 1827 00ba 281B     		subs	r0, r5, r4
 1828              		.loc 1 648 228 view .LVU335
 1829 00bc DAF804B0 		ldr	fp, [r10, #4]
 1830              		.loc 1 648 216 view .LVU336
 1831 00c0 0BFB00F3 		mul	r3, fp, r0
 1832              		.loc 1 648 265 view .LVU337
 1833 00c4 A8EB0500 		sub	r0, r8, r5
 1834              		.loc 1 648 294 view .LVU338
 1835 00c8 DAF81490 		ldr	r9, [r10, #20]
 1836              		.loc 1 648 282 view .LVU339
 1837 00cc 09FB00F0 		mul	r0, r9, r0
 1838              		.loc 1 648 298 view .LVU340
 1839 00d0 00FB09F0 		mul	r0, r0, r9
 1840              		.loc 1 648 248 view .LVU341
 1841 00d4 03FB0B00 		mla	r0, r3, fp, r0
 1842              		.loc 1 648 331 view .LVU342
 1843 00d8 A4EB0803 		sub	r3, r4, r8
ARM GAS  C:\Users\30592\AppData\Local\Temp\cca1UH8z.s 			page 45


 1844              		.loc 1 648 360 view .LVU343
 1845 00dc DAF80CA0 		ldr	r10, [r10, #12]
 1846              		.loc 1 648 348 view .LVU344
 1847 00e0 0AFB03F3 		mul	r3, r10, r3
 1848              		.loc 1 648 314 view .LVU345
 1849 00e4 03FB0A00 		mla	r0, r3, r10, r0
 1850              		.loc 1 648 381 view .LVU346
 1851 00e8 00EBD070 		add	r0, r0, r0, lsr #31
 1852              		.loc 1 648 385 view .LVU347
 1853 00ec 4010     		asrs	r0, r0, #1
 1854 00ee FFF7FEFF 		bl	__aeabi_i2d
 1855              	.LVL230:
 1856 00f2 DDE90023 		ldrd	r2, [sp]
 1857 00f6 FFF7FEFF 		bl	__aeabi_ddiv
 1858              	.LVL231:
 1859 00fa 0246     		mov	r2, r0
 1860 00fc 0B46     		mov	r3, r1
 1861              		.loc 1 648 181 view .LVU348
 1862 00fe 3046     		mov	r0, r6
 1863 0100 3946     		mov	r1, r7
 1864 0102 FFF7FEFF 		bl	__aeabi_dadd
 1865              	.LVL232:
 1866              		.loc 1 648 16 view .LVU349
 1867 0106 FFF7FEFF 		bl	__aeabi_d2iz
 1868              	.LVL233:
 1869 010a 334B     		ldr	r3, .L107+12
 1870 010c 5860     		str	r0, [r3, #4]
 649:Core/Src/main.c ****     car_Pos[0] = -(r_1 * r_1 * (beacon_Pos[5] - beacon_Pos[3]) + r_3 * r_3 * (beacon_Pos[3] - beaco
 1871              		.loc 1 649 5 is_stmt 1 view .LVU350
 1872              		.loc 1 649 30 is_stmt 0 view .LVU351
 1873 010e A9EB0A00 		sub	r0, r9, r10
 1874 0112 FFF7FEFF 		bl	__aeabi_i2d
 1875              	.LVL234:
 1876 0116 DDE90223 		ldrd	r2, [sp, #8]
 1877 011a FFF7FEFF 		bl	__aeabi_dmul
 1878              	.LVL235:
 1879 011e 0646     		mov	r6, r0
 1880 0120 0F46     		mov	r7, r1
 1881              		.loc 1 649 76 view .LVU352
 1882 0122 AAEB0B00 		sub	r0, r10, fp
 1883 0126 FFF7FEFF 		bl	__aeabi_i2d
 1884              	.LVL236:
 1885 012a DDE90423 		ldrd	r2, [sp, #16]
 1886 012e FFF7FEFF 		bl	__aeabi_dmul
 1887              	.LVL237:
 1888 0132 0246     		mov	r2, r0
 1889 0134 0B46     		mov	r3, r1
 1890              		.loc 1 649 64 view .LVU353
 1891 0136 3046     		mov	r0, r6
 1892 0138 3946     		mov	r1, r7
 1893 013a FFF7FEFF 		bl	__aeabi_dadd
 1894              	.LVL238:
 1895 013e 0646     		mov	r6, r0
 1896 0140 0F46     		mov	r7, r1
 1897              		.loc 1 649 122 view .LVU354
 1898 0142 ABEB0900 		sub	r0, fp, r9
 1899 0146 FFF7FEFF 		bl	__aeabi_i2d
ARM GAS  C:\Users\30592\AppData\Local\Temp\cca1UH8z.s 			page 46


 1900              	.LVL239:
 1901 014a DDE90623 		ldrd	r2, [sp, #24]
 1902 014e FFF7FEFF 		bl	__aeabi_dmul
 1903              	.LVL240:
 1904 0152 0246     		mov	r2, r0
 1905 0154 0B46     		mov	r3, r1
 1906              		.loc 1 649 110 view .LVU355
 1907 0156 3046     		mov	r0, r6
 1908 0158 3946     		mov	r1, r7
 1909 015a FFF7FEFF 		bl	__aeabi_dadd
 1910              	.LVL241:
 1911 015e 0746     		mov	r7, r0
 1912 0160 0E46     		mov	r6, r1
 1913              		.loc 1 649 157 view .LVU356
 1914 0162 0022     		movs	r2, #0
 1915 0164 1A4B     		ldr	r3, .L107+4
 1916 0166 3846     		mov	r0, r7
 1917 0168 06F10041 		add	r1, r6, #-2147483648
 1918 016c FFF7FEFF 		bl	__aeabi_dmul
 1919              	.LVL242:
 1920              		.loc 1 649 161 view .LVU357
 1921 0170 DDE90023 		ldrd	r2, [sp]
 1922 0174 FFF7FEFF 		bl	__aeabi_ddiv
 1923              	.LVL243:
 1924 0178 0646     		mov	r6, r0
 1925 017a 0F46     		mov	r7, r1
 1926              		.loc 1 649 200 view .LVU358
 1927 017c AAEB0900 		sub	r0, r10, r9
 1928              		.loc 1 649 217 view .LVU359
 1929 0180 00FB08F0 		mul	r0, r0, r8
 1930              		.loc 1 649 266 view .LVU360
 1931 0184 ABEB0A0A 		sub	r10, fp, r10
 1932              		.loc 1 649 283 view .LVU361
 1933 0188 0AFB04FA 		mul	r10, r10, r4
 1934              		.loc 1 649 299 view .LVU362
 1935 018c 0AFB04F4 		mul	r4, r10, r4
 1936              		.loc 1 649 249 view .LVU363
 1937 0190 00FB0848 		mla	r8, r0, r8, r4
 1938              		.loc 1 649 332 view .LVU364
 1939 0194 A9EB0B09 		sub	r9, r9, fp
 1940              		.loc 1 649 349 view .LVU365
 1941 0198 09FB05F9 		mul	r9, r9, r5
 1942              		.loc 1 649 315 view .LVU366
 1943 019c 09FB0585 		mla	r5, r9, r5, r8
 1944              		.loc 1 649 382 view .LVU367
 1945 01a0 05EBD575 		add	r5, r5, r5, lsr #31
 1946              		.loc 1 649 386 view .LVU368
 1947 01a4 6810     		asrs	r0, r5, #1
 1948 01a6 FFF7FEFF 		bl	__aeabi_i2d
 1949              	.LVL244:
 1950 01aa DDE90023 		ldrd	r2, [sp]
 1951 01ae FFF7FEFF 		bl	__aeabi_ddiv
 1952              	.LVL245:
 1953 01b2 0246     		mov	r2, r0
 1954 01b4 0B46     		mov	r3, r1
 1955              		.loc 1 649 182 view .LVU369
 1956 01b6 3046     		mov	r0, r6
ARM GAS  C:\Users\30592\AppData\Local\Temp\cca1UH8z.s 			page 47


 1957 01b8 3946     		mov	r1, r7
 1958 01ba FFF7FEFF 		bl	__aeabi_dsub
 1959              	.LVL246:
 1960              		.loc 1 649 16 view .LVU370
 1961 01be FFF7FEFF 		bl	__aeabi_d2iz
 1962              	.LVL247:
 1963 01c2 054B     		ldr	r3, .L107+12
 1964 01c4 1860     		str	r0, [r3]
 650:Core/Src/main.c **** }
 1965              		.loc 1 650 1 view .LVU371
 1966 01c6 09B0     		add	sp, sp, #36
 1967              	.LCFI16:
 1968              		.cfi_def_cfa_offset 36
 1969              		@ sp needed
 1970 01c8 BDE8F08F 		pop	{r4, r5, r6, r7, r8, r9, r10, fp, pc}
 1971              	.LVL248:
 1972              	.L108:
 1973              		.loc 1 650 1 view .LVU372
 1974              		.align	2
 1975              	.L107:
 1976 01cc 00000000 		.word	.LANCHOR2
 1977 01d0 0000E03F 		.word	1071644672
 1978 01d4 00000000 		.word	.LANCHOR3
 1979 01d8 00000000 		.word	.LANCHOR4
 1980              		.cfi_endproc
 1981              	.LFE80:
 1983              		.global	__aeabi_d2f
 1984              		.global	__aeabi_f2d
 1985              		.global	__aeabi_dcmpge
 1986              		.global	__aeabi_dcmple
 1987              		.section	.text.Goto,"ax",%progbits
 1988              		.align	1
 1989              		.global	Goto
 1990              		.syntax unified
 1991              		.thumb
 1992              		.thumb_func
 1993              		.fpu softvfp
 1995              	Goto:
 1996              	.LVL249:
 1997              	.LFB81:
 651:Core/Src/main.c **** void Goto(int x, int y)
 652:Core/Src/main.c **** {
 1998              		.loc 1 652 1 is_stmt 1 view -0
 1999              		.cfi_startproc
 2000              		@ args = 0, pretend = 0, frame = 0
 2001              		@ frame_needed = 0, uses_anonymous_args = 0
 2002              		.loc 1 652 1 is_stmt 0 view .LVU374
 2003 0000 F8B5     		push	{r3, r4, r5, r6, r7, lr}
 2004              	.LCFI17:
 2005              		.cfi_def_cfa_offset 24
 2006              		.cfi_offset 3, -24
 2007              		.cfi_offset 4, -20
 2008              		.cfi_offset 5, -16
 2009              		.cfi_offset 6, -12
 2010              		.cfi_offset 7, -8
 2011              		.cfi_offset 14, -4
 653:Core/Src/main.c ****     float angle_obj, dis_obj;
ARM GAS  C:\Users\30592\AppData\Local\Temp\cca1UH8z.s 			page 48


 2012              		.loc 1 653 5 is_stmt 1 view .LVU375
 654:Core/Src/main.c ****     angle_obj = 360 - atan2LUTif(y - car_Pos[1], x - car_Pos[0]); ///ËÆ°ÁÆóÂà∞ÁõÆÊ†áÁÇπËøûÁ∫øÁöÑÂ§π
 2013              		.loc 1 654 5 view .LVU376
 2014              		.loc 1 654 45 is_stmt 0 view .LVU377
 2015 0002 4D4B     		ldr	r3, .L137
 2016 0004 5E68     		ldr	r6, [r3, #4]
 2017              		.loc 1 654 36 view .LVU378
 2018 0006 8E1B     		subs	r6, r1, r6
 2019              		.loc 1 654 61 view .LVU379
 2020 0008 1B68     		ldr	r3, [r3]
 2021              		.loc 1 654 23 view .LVU380
 2022 000a C01A     		subs	r0, r0, r3
 2023              	.LVL250:
 2024              		.loc 1 654 23 view .LVU381
 2025 000c FFF7FEFF 		bl	__aeabi_i2d
 2026              	.LVL251:
 2027              		.loc 1 654 23 view .LVU382
 2028 0010 0446     		mov	r4, r0
 2029 0012 0D46     		mov	r5, r1
 2030 0014 3046     		mov	r0, r6
 2031 0016 FFF7FEFF 		bl	__aeabi_i2d
 2032              	.LVL252:
 2033 001a 2246     		mov	r2, r4
 2034 001c 2B46     		mov	r3, r5
 2035 001e FFF7FEFF 		bl	atan2LUTif
 2036              	.LVL253:
 2037 0022 0246     		mov	r2, r0
 2038 0024 0B46     		mov	r3, r1
 2039              		.loc 1 654 21 view .LVU383
 2040 0026 0020     		movs	r0, #0
 2041 0028 4449     		ldr	r1, .L137+4
 2042 002a FFF7FEFF 		bl	__aeabi_dsub
 2043              	.LVL254:
 2044              		.loc 1 654 15 view .LVU384
 2045 002e FFF7FEFF 		bl	__aeabi_d2f
 2046              	.LVL255:
 2047 0032 0446     		mov	r4, r0
 2048              	.LVL256:
 655:Core/Src/main.c ****     float angle_car = GetYaw();
 2049              		.loc 1 655 5 is_stmt 1 view .LVU385
 2050              		.loc 1 655 23 is_stmt 0 view .LVU386
 2051 0034 FFF7FEFF 		bl	GetYaw
 2052              	.LVL257:
 2053              		.loc 1 655 23 view .LVU387
 2054 0038 0546     		mov	r5, r0
 2055              	.LVL258:
 656:Core/Src/main.c ****     if (angle_obj >= angle_err && angle_obj <= 360.0 - angle_err)
 2056              		.loc 1 656 5 is_stmt 1 view .LVU388
 2057              		.loc 1 656 8 is_stmt 0 view .LVU389
 2058 003a 4149     		ldr	r1, .L137+8
 2059 003c 2046     		mov	r0, r4
 2060              	.LVL259:
 2061              		.loc 1 656 8 view .LVU390
 2062 003e FFF7FEFF 		bl	__aeabi_fcmpge
 2063              	.LVL260:
 2064 0042 F0B1     		cbz	r0, .L110
 2065              		.loc 1 656 32 discriminator 1 view .LVU391
ARM GAS  C:\Users\30592\AppData\Local\Temp\cca1UH8z.s 			page 49


 2066 0044 3F49     		ldr	r1, .L137+12
 2067 0046 2046     		mov	r0, r4
 2068 0048 FFF7FEFF 		bl	__aeabi_fcmple
 2069              	.LVL261:
 2070 004c C8B1     		cbz	r0, .L110
 657:Core/Src/main.c ****     {
 658:Core/Src/main.c ****         if (angle_car >= angle_obj - angle_err && angle_car <= angle_obj + angle_err)
 2071              		.loc 1 658 9 is_stmt 1 view .LVU392
 2072              		.loc 1 658 36 is_stmt 0 view .LVU393
 2073 004e 3C49     		ldr	r1, .L137+8
 2074 0050 2046     		mov	r0, r4
 2075 0052 FFF7FEFF 		bl	__aeabi_fsub
 2076              	.LVL262:
 2077              		.loc 1 658 12 view .LVU394
 2078 0056 2946     		mov	r1, r5
 2079 0058 FFF7FEFF 		bl	__aeabi_fcmple
 2080              	.LVL263:
 2081 005c 38B1     		cbz	r0, .L113
 2082              		.loc 1 658 74 discriminator 1 view .LVU395
 2083 005e 3849     		ldr	r1, .L137+8
 2084 0060 2046     		mov	r0, r4
 2085 0062 FFF7FEFF 		bl	__aeabi_fadd
 2086              	.LVL264:
 2087              		.loc 1 658 48 discriminator 1 view .LVU396
 2088 0066 2946     		mov	r1, r5
 2089 0068 FFF7FEFF 		bl	__aeabi_fcmpge
 2090              	.LVL265:
 2091 006c 20B9     		cbnz	r0, .L136
 2092              	.L113:
 659:Core/Src/main.c ****         {
 660:Core/Src/main.c ****             forward(forward_speed);
 661:Core/Src/main.c ****         }
 662:Core/Src/main.c ****         else
 663:Core/Src/main.c ****         {
 664:Core/Src/main.c ****             rotate_clockwise(rotate_speed);
 2093              		.loc 1 664 13 is_stmt 1 view .LVU397
 2094 006e 4FF44870 		mov	r0, #800
 2095 0072 FFF7FEFF 		bl	rotate_clockwise
 2096              	.LVL266:
 2097 0076 2BE0     		b	.L109
 2098              	.L136:
 660:Core/Src/main.c ****         }
 2099              		.loc 1 660 13 view .LVU398
 2100 0078 40F2DC50 		movw	r0, #1500
 2101 007c FFF7FEFF 		bl	forward
 2102              	.LVL267:
 2103 0080 26E0     		b	.L109
 2104              	.L110:
 665:Core/Src/main.c ****         }
 666:Core/Src/main.c ****     }
 667:Core/Src/main.c ****     else
 668:Core/Src/main.c ****     {
 669:Core/Src/main.c ****         if (angle_obj < angle_err)
 2105              		.loc 1 669 9 view .LVU399
 2106              		.loc 1 669 12 is_stmt 0 view .LVU400
 2107 0082 2F49     		ldr	r1, .L137+8
 2108 0084 2046     		mov	r0, r4
ARM GAS  C:\Users\30592\AppData\Local\Temp\cca1UH8z.s 			page 50


 2109 0086 FFF7FEFF 		bl	__aeabi_fcmplt
 2110              	.LVL268:
 2111 008a 38B3     		cbz	r0, .L132
 670:Core/Src/main.c ****         {
 671:Core/Src/main.c ****             if ((angle_car >= angle_obj - angle_err + 360.0 || angle_car <= angle_obj + angle_err))
 2112              		.loc 1 671 13 is_stmt 1 view .LVU401
 2113              		.loc 1 671 28 is_stmt 0 view .LVU402
 2114 008c 2846     		mov	r0, r5
 2115 008e FFF7FEFF 		bl	__aeabi_f2d
 2116              	.LVL269:
 2117 0092 0646     		mov	r6, r0
 2118 0094 0F46     		mov	r7, r1
 2119              		.loc 1 671 41 view .LVU403
 2120 0096 2A49     		ldr	r1, .L137+8
 2121 0098 2046     		mov	r0, r4
 2122 009a FFF7FEFF 		bl	__aeabi_fsub
 2123              	.LVL270:
 2124 009e FFF7FEFF 		bl	__aeabi_f2d
 2125              	.LVL271:
 2126              		.loc 1 671 53 view .LVU404
 2127 00a2 0022     		movs	r2, #0
 2128 00a4 254B     		ldr	r3, .L137+4
 2129 00a6 FFF7FEFF 		bl	__aeabi_dadd
 2130              	.LVL272:
 2131 00aa 0246     		mov	r2, r0
 2132 00ac 0B46     		mov	r3, r1
 2133              		.loc 1 671 16 view .LVU405
 2134 00ae 3046     		mov	r0, r6
 2135 00b0 3946     		mov	r1, r7
 2136 00b2 FFF7FEFF 		bl	__aeabi_dcmpge
 2137              	.LVL273:
 2138 00b6 38B9     		cbnz	r0, .L119
 2139              		.loc 1 671 87 discriminator 1 view .LVU406
 2140 00b8 2149     		ldr	r1, .L137+8
 2141 00ba 2046     		mov	r0, r4
 2142 00bc FFF7FEFF 		bl	__aeabi_fadd
 2143              	.LVL274:
 2144              		.loc 1 671 61 discriminator 1 view .LVU407
 2145 00c0 2946     		mov	r1, r5
 2146 00c2 FFF7FEFF 		bl	__aeabi_fcmpge
 2147              	.LVL275:
 2148 00c6 20B1     		cbz	r0, .L133
 2149              	.L119:
 672:Core/Src/main.c ****             {
 673:Core/Src/main.c ****                 forward(forward_speed);
 2150              		.loc 1 673 17 is_stmt 1 view .LVU408
 2151 00c8 40F2DC50 		movw	r0, #1500
 2152 00cc FFF7FEFF 		bl	forward
 2153              	.LVL276:
 2154              	.L109:
 674:Core/Src/main.c ****             }
 675:Core/Src/main.c ****             else
 676:Core/Src/main.c ****             {
 677:Core/Src/main.c ****                 rotate_clockwise(rotate_speed);
 678:Core/Src/main.c ****             }
 679:Core/Src/main.c ****         }
 680:Core/Src/main.c ****         else if (angle_obj > 360 - angle_err)
ARM GAS  C:\Users\30592\AppData\Local\Temp\cca1UH8z.s 			page 51


 681:Core/Src/main.c ****         {
 682:Core/Src/main.c ****             if ((angle_car <= angle_obj + angle_err - 360.0 || angle_car >= angle_obj - angle_err))
 683:Core/Src/main.c ****             {
 684:Core/Src/main.c ****                 forward(forward_speed);
 685:Core/Src/main.c ****             }
 686:Core/Src/main.c ****             else
 687:Core/Src/main.c ****             {
 688:Core/Src/main.c ****                 rotate_clockwise(rotate_speed);
 689:Core/Src/main.c ****             }
 690:Core/Src/main.c ****         }
 691:Core/Src/main.c ****     }
 692:Core/Src/main.c **** }
 2155              		.loc 1 692 1 is_stmt 0 view .LVU409
 2156 00d0 F8BD     		pop	{r3, r4, r5, r6, r7, pc}
 2157              	.LVL277:
 2158              	.L133:
 677:Core/Src/main.c ****             }
 2159              		.loc 1 677 17 is_stmt 1 view .LVU410
 2160 00d2 4FF44870 		mov	r0, #800
 2161 00d6 FFF7FEFF 		bl	rotate_clockwise
 2162              	.LVL278:
 2163 00da F9E7     		b	.L109
 2164              	.L132:
 680:Core/Src/main.c ****         {
 2165              		.loc 1 680 14 view .LVU411
 680:Core/Src/main.c ****         {
 2166              		.loc 1 680 17 is_stmt 0 view .LVU412
 2167 00dc 1949     		ldr	r1, .L137+12
 2168 00de 2046     		mov	r0, r4
 2169 00e0 FFF7FEFF 		bl	__aeabi_fcmpgt
 2170              	.LVL279:
 2171 00e4 0028     		cmp	r0, #0
 2172 00e6 F3D0     		beq	.L109
 682:Core/Src/main.c ****             {
 2173              		.loc 1 682 13 is_stmt 1 view .LVU413
 682:Core/Src/main.c ****             {
 2174              		.loc 1 682 28 is_stmt 0 view .LVU414
 2175 00e8 2846     		mov	r0, r5
 2176 00ea FFF7FEFF 		bl	__aeabi_f2d
 2177              	.LVL280:
 2178 00ee 0646     		mov	r6, r0
 2179 00f0 0F46     		mov	r7, r1
 682:Core/Src/main.c ****             {
 2180              		.loc 1 682 41 view .LVU415
 2181 00f2 1349     		ldr	r1, .L137+8
 2182 00f4 2046     		mov	r0, r4
 2183 00f6 FFF7FEFF 		bl	__aeabi_fadd
 2184              	.LVL281:
 2185 00fa FFF7FEFF 		bl	__aeabi_f2d
 2186              	.LVL282:
 682:Core/Src/main.c ****             {
 2187              		.loc 1 682 53 view .LVU416
 2188 00fe 0022     		movs	r2, #0
 2189 0100 0E4B     		ldr	r3, .L137+4
 2190 0102 FFF7FEFF 		bl	__aeabi_dsub
 2191              	.LVL283:
 2192 0106 0246     		mov	r2, r0
ARM GAS  C:\Users\30592\AppData\Local\Temp\cca1UH8z.s 			page 52


 2193 0108 0B46     		mov	r3, r1
 682:Core/Src/main.c ****             {
 2194              		.loc 1 682 16 view .LVU417
 2195 010a 3046     		mov	r0, r6
 2196 010c 3946     		mov	r1, r7
 2197 010e FFF7FEFF 		bl	__aeabi_dcmple
 2198              	.LVL284:
 2199 0112 38B9     		cbnz	r0, .L123
 682:Core/Src/main.c ****             {
 2200              		.loc 1 682 87 discriminator 1 view .LVU418
 2201 0114 0A49     		ldr	r1, .L137+8
 2202 0116 2046     		mov	r0, r4
 2203 0118 FFF7FEFF 		bl	__aeabi_fsub
 2204              	.LVL285:
 682:Core/Src/main.c ****             {
 2205              		.loc 1 682 61 discriminator 1 view .LVU419
 2206 011c 2946     		mov	r1, r5
 2207 011e FFF7FEFF 		bl	__aeabi_fcmple
 2208              	.LVL286:
 2209 0122 20B1     		cbz	r0, .L134
 2210              	.L123:
 684:Core/Src/main.c ****             }
 2211              		.loc 1 684 17 is_stmt 1 view .LVU420
 2212 0124 40F2DC50 		movw	r0, #1500
 2213 0128 FFF7FEFF 		bl	forward
 2214              	.LVL287:
 2215 012c D0E7     		b	.L109
 2216              	.L134:
 688:Core/Src/main.c ****             }
 2217              		.loc 1 688 17 view .LVU421
 2218 012e 4FF44870 		mov	r0, #800
 2219 0132 FFF7FEFF 		bl	rotate_clockwise
 2220              	.LVL288:
 2221              		.loc 1 692 1 is_stmt 0 view .LVU422
 2222 0136 CBE7     		b	.L109
 2223              	.L138:
 2224              		.align	2
 2225              	.L137:
 2226 0138 00000000 		.word	.LANCHOR4
 2227 013c 00807640 		.word	1081507840
 2228 0140 0000A040 		.word	1084227584
 2229 0144 0080B143 		.word	1135706112
 2230              		.cfi_endproc
 2231              	.LFE81:
 2233              		.section	.text.HAL_TIM_PeriodElapsedCallback,"ax",%progbits
 2234              		.align	1
 2235              		.global	HAL_TIM_PeriodElapsedCallback
 2236              		.syntax unified
 2237              		.thumb
 2238              		.thumb_func
 2239              		.fpu softvfp
 2241              	HAL_TIM_PeriodElapsedCallback:
 2242              	.LVL289:
 2243              	.LFB65:
 179:Core/Src/main.c ****     HAL_UART_Receive_DMA(&huart2, jy62Receive, JY62_MESSAGE_LENGTH);
 2244              		.loc 1 179 1 is_stmt 1 view -0
 2245              		.cfi_startproc
ARM GAS  C:\Users\30592\AppData\Local\Temp\cca1UH8z.s 			page 53


 2246              		@ args = 0, pretend = 0, frame = 0
 2247              		@ frame_needed = 0, uses_anonymous_args = 0
 179:Core/Src/main.c ****     HAL_UART_Receive_DMA(&huart2, jy62Receive, JY62_MESSAGE_LENGTH);
 2248              		.loc 1 179 1 is_stmt 0 view .LVU424
 2249 0000 70B5     		push	{r4, r5, r6, lr}
 2250              	.LCFI18:
 2251              		.cfi_def_cfa_offset 16
 2252              		.cfi_offset 4, -16
 2253              		.cfi_offset 5, -12
 2254              		.cfi_offset 6, -8
 2255              		.cfi_offset 14, -4
 2256 0002 88B0     		sub	sp, sp, #32
 2257              	.LCFI19:
 2258              		.cfi_def_cfa_offset 48
 2259 0004 0446     		mov	r4, r0
 180:Core/Src/main.c ****     if (htim->Instance == TIM1)
 2260              		.loc 1 180 5 is_stmt 1 view .LVU425
 2261 0006 0B22     		movs	r2, #11
 2262 0008 9B49     		ldr	r1, .L161
 2263 000a 9C48     		ldr	r0, .L161+4
 2264              	.LVL290:
 180:Core/Src/main.c ****     if (htim->Instance == TIM1)
 2265              		.loc 1 180 5 is_stmt 0 view .LVU426
 2266 000c FFF7FEFF 		bl	HAL_UART_Receive_DMA
 2267              	.LVL291:
 181:Core/Src/main.c ****     {
 2268              		.loc 1 181 5 is_stmt 1 view .LVU427
 181:Core/Src/main.c ****     {
 2269              		.loc 1 181 13 is_stmt 0 view .LVU428
 2270 0010 2268     		ldr	r2, [r4]
 181:Core/Src/main.c ****     {
 2271              		.loc 1 181 8 view .LVU429
 2272 0012 9B4B     		ldr	r3, .L161+8
 2273 0014 9A42     		cmp	r2, r3
 2274 0016 01D0     		beq	.L157
 2275              	.LVL292:
 2276              	.L139:
 311:Core/Src/main.c **** /* USER CODE END 0 */
 2277              		.loc 1 311 1 view .LVU430
 2278 0018 08B0     		add	sp, sp, #32
 2279              	.LCFI20:
 2280              		.cfi_remember_state
 2281              		.cfi_def_cfa_offset 16
 2282              		@ sp needed
 2283 001a 70BD     		pop	{r4, r5, r6, pc}
 2284              	.LVL293:
 2285              	.L157:
 2286              	.LCFI21:
 2287              		.cfi_restore_state
 183:Core/Src/main.c ****         car_Pos[1] = getCarPosY(); ///Êõ¥Êñ∞Â∞èËΩ¶xyÂùêÊ†á
 2288              		.loc 1 183 9 is_stmt 1 view .LVU431
 183:Core/Src/main.c ****         car_Pos[1] = getCarPosY(); ///Êõ¥Êñ∞Â∞èËΩ¶xyÂùêÊ†á
 2289              		.loc 1 183 22 is_stmt 0 view .LVU432
 2290 001c FFF7FEFF 		bl	getCarPosX
 2291              	.LVL294:
 183:Core/Src/main.c ****         car_Pos[1] = getCarPosY(); ///Êõ¥Êñ∞Â∞èËΩ¶xyÂùêÊ†á
 2292              		.loc 1 183 20 view .LVU433
ARM GAS  C:\Users\30592\AppData\Local\Temp\cca1UH8z.s 			page 54


 2293 0020 984C     		ldr	r4, .L161+12
 2294              	.LVL295:
 183:Core/Src/main.c ****         car_Pos[1] = getCarPosY(); ///Êõ¥Êñ∞Â∞èËΩ¶xyÂùêÊ†á
 2295              		.loc 1 183 20 view .LVU434
 2296 0022 2060     		str	r0, [r4]
 184:Core/Src/main.c ****         switch (State)
 2297              		.loc 1 184 9 is_stmt 1 view .LVU435
 184:Core/Src/main.c ****         switch (State)
 2298              		.loc 1 184 22 is_stmt 0 view .LVU436
 2299 0024 FFF7FEFF 		bl	getCarPosY
 2300              	.LVL296:
 184:Core/Src/main.c ****         switch (State)
 2301              		.loc 1 184 20 view .LVU437
 2302 0028 6060     		str	r0, [r4, #4]
 185:Core/Src/main.c ****         {
 2303              		.loc 1 185 9 is_stmt 1 view .LVU438
 2304 002a 974B     		ldr	r3, .L161+16
 2305 002c 1B68     		ldr	r3, [r3]
 2306 002e 062B     		cmp	r3, #6
 2307 0030 F2D8     		bhi	.L139
 2308 0032 DFE813F0 		tbh	[pc, r3, lsl #1]
 2309              	.L142:
 2310 0036 0700     		.2byte	(.L148-.L142)/2
 2311 0038 8500     		.2byte	(.L147-.L142)/2
 2312 003a 9B00     		.2byte	(.L146-.L142)/2
 2313 003c B600     		.2byte	(.L145-.L142)/2
 2314 003e D800     		.2byte	(.L144-.L142)/2
 2315 0040 FA00     		.2byte	(.L143-.L142)/2
 2316 0042 1C01     		.2byte	(.L141-.L142)/2
 2317              		.p2align 1
 2318              	.L148:
 193:Core/Src/main.c ****             //Ê≠•È™§2ÔºöËß£ÁÆó‰∏§‰∏™ËµÑÊ∫êÂùêÔøΩ? =====ÂæÖÂÆûÔøΩ?=====
 2319              		.loc 1 193 13 view .LVU439
 2320 0044 4FF44870 		mov	r0, #800
 2321 0048 FFF7FEFF 		bl	rotate_clockwise
 2322              	.LVL297:
 202:Core/Src/main.c ****             {
 2323              		.loc 1 202 13 view .LVU440
 202:Core/Src/main.c ****             {
 2324              		.loc 1 202 17 is_stmt 0 view .LVU441
 2325 004c 8F48     		ldr	r0, .L161+20
 2326 004e 904B     		ldr	r3, .L161+24
 2327 0050 03F10802 		add	r2, r3, #8
 2328 0054 0692     		str	r2, [sp, #24]
 2329 0056 0593     		str	r3, [sp, #20]
 2330 0058 C369     		ldr	r3, [r0, #28]
 2331 005a 0493     		str	r3, [sp, #16]
 2332 005c 438B     		ldrh	r3, [r0, #26]
 2333 005e 0393     		str	r3, [sp, #12]
 2334 0060 038B     		ldrh	r3, [r0, #24]
 2335 0062 0293     		str	r3, [sp, #8]
 2336 0064 0369     		ldr	r3, [r0, #16]
 2337 0066 0193     		str	r3, [sp, #4]
 2338 0068 C389     		ldrh	r3, [r0, #14]
 2339 006a 0093     		str	r3, [sp]
 2340 006c 8389     		ldrh	r3, [r0, #12]
 2341 006e 4268     		ldr	r2, [r0, #4]
ARM GAS  C:\Users\30592\AppData\Local\Temp\cca1UH8z.s 			page 55


 2342 0070 4188     		ldrh	r1, [r0, #2]
 2343 0072 0088     		ldrh	r0, [r0]
 2344 0074 FFF7FEFF 		bl	Solve_Mine_Pos
 2345              	.LVL298:
 202:Core/Src/main.c ****             {
 2346              		.loc 1 202 16 view .LVU442
 2347 0078 0028     		cmp	r0, #0
 2348 007a 2DD0     		beq	.L149
 202:Core/Src/main.c ****             {
 2349              		.loc 1 202 218 discriminator 1 view .LVU443
 2350 007c 8348     		ldr	r0, .L161+20
 2351 007e 844B     		ldr	r3, .L161+24
 2352 0080 03F10C02 		add	r2, r3, #12
 2353 0084 0692     		str	r2, [sp, #24]
 2354 0086 0433     		adds	r3, r3, #4
 2355 0088 0593     		str	r3, [sp, #20]
 2356 008a 036A     		ldr	r3, [r0, #32]
 2357 008c 0493     		str	r3, [sp, #16]
 2358 008e 438B     		ldrh	r3, [r0, #26]
 2359 0090 0393     		str	r3, [sp, #12]
 2360 0092 038B     		ldrh	r3, [r0, #24]
 2361 0094 0293     		str	r3, [sp, #8]
 2362 0096 4369     		ldr	r3, [r0, #20]
 2363 0098 0193     		str	r3, [sp, #4]
 2364 009a C389     		ldrh	r3, [r0, #14]
 2365 009c 0093     		str	r3, [sp]
 2366 009e 8389     		ldrh	r3, [r0, #12]
 2367 00a0 8268     		ldr	r2, [r0, #8]
 2368 00a2 4188     		ldrh	r1, [r0, #2]
 2369 00a4 0088     		ldrh	r0, [r0]
 2370 00a6 FFF7FEFF 		bl	Solve_Mine_Pos
 2371              	.LVL299:
 202:Core/Src/main.c ****             {
 2372              		.loc 1 202 215 discriminator 1 view .LVU444
 2373 00aa A8B1     		cbz	r0, .L149
 205:Core/Src/main.c ****                 //Ê≠•È™§3ÔºöÁ°ÆÂÆöÁ¶ªËΩ¶ÊúÄËøëÁöÑÔøΩ?ÔøΩ?
 2374              		.loc 1 205 17 is_stmt 1 view .LVU445
 205:Core/Src/main.c ****                 //Ê≠•È™§3ÔºöÁ°ÆÂÆöÁ¶ªËΩ¶ÊúÄËøëÁöÑÔøΩ?ÔøΩ?
 2375              		.loc 1 205 23 is_stmt 0 view .LVU446
 2376 00ac 764B     		ldr	r3, .L161+16
 2377 00ae 0122     		movs	r2, #1
 2378 00b0 1A60     		str	r2, [r3]
 207:Core/Src/main.c ****                 break;
 2379              		.loc 1 207 17 is_stmt 1 view .LVU447
 207:Core/Src/main.c ****                 break;
 2380              		.loc 1 207 66 is_stmt 0 view .LVU448
 2381 00b2 774A     		ldr	r2, .L161+24
 2382 00b4 1368     		ldr	r3, [r2]
 207:Core/Src/main.c ****                 break;
 2383              		.loc 1 207 116 view .LVU449
 2384 00b6 9168     		ldr	r1, [r2, #8]
 207:Core/Src/main.c ****                 break;
 2385              		.loc 1 207 120 view .LVU450
 2386 00b8 01FB01F1 		mul	r1, r1, r1
 207:Core/Src/main.c ****                 break;
 2387              		.loc 1 207 95 view .LVU451
 2388 00bc 03FB0313 		mla	r3, r3, r3, r1
ARM GAS  C:\Users\30592\AppData\Local\Temp\cca1UH8z.s 			page 56


 207:Core/Src/main.c ****                 break;
 2389              		.loc 1 207 168 view .LVU452
 2390 00c0 5168     		ldr	r1, [r2, #4]
 207:Core/Src/main.c ****                 break;
 2391              		.loc 1 207 218 view .LVU453
 2392 00c2 D068     		ldr	r0, [r2, #12]
 207:Core/Src/main.c ****                 break;
 2393              		.loc 1 207 222 view .LVU454
 2394 00c4 00FB00F0 		mul	r0, r0, r0
 207:Core/Src/main.c ****                 break;
 2395              		.loc 1 207 197 view .LVU455
 2396 00c8 01FB0101 		mla	r1, r1, r1, r0
 207:Core/Src/main.c ****                 break;
 2397              		.loc 1 207 252 view .LVU456
 2398 00cc 8B42     		cmp	r3, r1
 2399 00ce B4BF     		ite	lt
 2400 00d0 0023     		movlt	r3, #0
 2401 00d2 0123     		movge	r3, #1
 207:Core/Src/main.c ****                 break;
 2402              		.loc 1 207 44 view .LVU457
 2403 00d4 5361     		str	r3, [r2, #20]
 208:Core/Src/main.c ****             }
 2404              		.loc 1 208 17 is_stmt 1 view .LVU458
 2405 00d6 9FE7     		b	.L139
 2406              	.L149:
 213:Core/Src/main.c ****                 Prev_Pos[Prev_Pos_head].y = getCarPosY();          //Âêå‰∏ä
 2407              		.loc 1 213 17 view .LVU459
 213:Core/Src/main.c ****                 Prev_Pos[Prev_Pos_head].y = getCarPosY();          //Âêå‰∏ä
 2408              		.loc 1 213 40 is_stmt 0 view .LVU460
 2409 00d8 6E4C     		ldr	r4, .L161+28
 2410 00da B4F90060 		ldrsh	r6, [r4]
 213:Core/Src/main.c ****                 Prev_Pos[Prev_Pos_head].y = getCarPosY();          //Âêå‰∏ä
 2411              		.loc 1 213 45 view .LVU461
 2412 00de FFF7FEFF 		bl	getCarPosX
 2413              	.LVL300:
 213:Core/Src/main.c ****                 Prev_Pos[Prev_Pos_head].y = getCarPosY();          //Âêå‰∏ä
 2414              		.loc 1 213 43 view .LVU462
 2415 00e2 6A4D     		ldr	r5, .L161+20
 2416 00e4 06EB4606 		add	r6, r6, r6, lsl #1
 2417 00e8 25F82600 		strh	r0, [r5, r6, lsl #2]	@ movhi
 214:Core/Src/main.c ****                 Prev_Pos[Prev_Pos_head].E_1 = getMineIntensity(0); //Âà©Áî®getMineIntensityÂáΩÊï∞Êõ
 2418              		.loc 1 214 17 is_stmt 1 view .LVU463
 214:Core/Src/main.c ****                 Prev_Pos[Prev_Pos_head].E_1 = getMineIntensity(0); //Âà©Áî®getMineIntensityÂáΩÊï∞Êõ
 2419              		.loc 1 214 40 is_stmt 0 view .LVU464
 2420 00ec B4F90060 		ldrsh	r6, [r4]
 214:Core/Src/main.c ****                 Prev_Pos[Prev_Pos_head].E_1 = getMineIntensity(0); //Âà©Áî®getMineIntensityÂáΩÊï∞Êõ
 2421              		.loc 1 214 45 view .LVU465
 2422 00f0 FFF7FEFF 		bl	getCarPosY
 2423              	.LVL301:
 214:Core/Src/main.c ****                 Prev_Pos[Prev_Pos_head].E_1 = getMineIntensity(0); //Âà©Áî®getMineIntensityÂáΩÊï∞Êõ
 2424              		.loc 1 214 43 view .LVU466
 2425 00f4 06EB4606 		add	r6, r6, r6, lsl #1
 2426 00f8 05EB8606 		add	r6, r5, r6, lsl #2
 2427 00fc 7080     		strh	r0, [r6, #2]	@ movhi
 215:Core/Src/main.c ****                 Prev_Pos[Prev_Pos_head].E_1 = getMineIntensity(1); //Âêå‰∏ä
 2428              		.loc 1 215 17 is_stmt 1 view .LVU467
 215:Core/Src/main.c ****                 Prev_Pos[Prev_Pos_head].E_1 = getMineIntensity(1); //Âêå‰∏ä
ARM GAS  C:\Users\30592\AppData\Local\Temp\cca1UH8z.s 			page 57


 2429              		.loc 1 215 40 is_stmt 0 view .LVU468
 2430 00fe B4F90060 		ldrsh	r6, [r4]
 215:Core/Src/main.c ****                 Prev_Pos[Prev_Pos_head].E_1 = getMineIntensity(1); //Âêå‰∏ä
 2431              		.loc 1 215 47 view .LVU469
 2432 0102 0020     		movs	r0, #0
 2433 0104 FFF7FEFF 		bl	getMineIntensity
 2434              	.LVL302:
 215:Core/Src/main.c ****                 Prev_Pos[Prev_Pos_head].E_1 = getMineIntensity(1); //Âêå‰∏ä
 2435              		.loc 1 215 45 view .LVU470
 2436 0108 06EB4606 		add	r6, r6, r6, lsl #1
 2437 010c 05EB8606 		add	r6, r5, r6, lsl #2
 2438 0110 7060     		str	r0, [r6, #4]
 216:Core/Src/main.c ****                 Prev_Pos_head = (Prev_Pos_head + 1) % 3;           //Â§¥ÊåáÈíàÂæ™ÁéØÂú∞ÂêéÁßª
 2439              		.loc 1 216 17 is_stmt 1 view .LVU471
 216:Core/Src/main.c ****                 Prev_Pos_head = (Prev_Pos_head + 1) % 3;           //Â§¥ÊåáÈíàÂæ™ÁéØÂú∞ÂêéÁßª
 2440              		.loc 1 216 40 is_stmt 0 view .LVU472
 2441 0112 B4F90060 		ldrsh	r6, [r4]
 216:Core/Src/main.c ****                 Prev_Pos_head = (Prev_Pos_head + 1) % 3;           //Â§¥ÊåáÈíàÂæ™ÁéØÂú∞ÂêéÁßª
 2442              		.loc 1 216 47 view .LVU473
 2443 0116 0120     		movs	r0, #1
 2444 0118 FFF7FEFF 		bl	getMineIntensity
 2445              	.LVL303:
 216:Core/Src/main.c ****                 Prev_Pos_head = (Prev_Pos_head + 1) % 3;           //Â§¥ÊåáÈíàÂæ™ÁéØÂú∞ÂêéÁßª
 2446              		.loc 1 216 45 view .LVU474
 2447 011c 06EB4606 		add	r6, r6, r6, lsl #1
 2448 0120 05EB8605 		add	r5, r5, r6, lsl #2
 2449 0124 6860     		str	r0, [r5, #4]
 217:Core/Src/main.c ****                 break;
 2450              		.loc 1 217 17 is_stmt 1 view .LVU475
 217:Core/Src/main.c ****                 break;
 2451              		.loc 1 217 48 is_stmt 0 view .LVU476
 2452 0126 B4F90020 		ldrsh	r2, [r4]
 2453 012a 0132     		adds	r2, r2, #1
 217:Core/Src/main.c ****                 break;
 2454              		.loc 1 217 53 view .LVU477
 2455 012c 5A4B     		ldr	r3, .L161+32
 2456 012e 83FB0213 		smull	r1, r3, r3, r2
 2457 0132 A3EBE273 		sub	r3, r3, r2, asr #31
 2458 0136 03EB4303 		add	r3, r3, r3, lsl #1
 2459 013a D31A     		subs	r3, r2, r3
 217:Core/Src/main.c ****                 break;
 2460              		.loc 1 217 31 view .LVU478
 2461 013c 2380     		strh	r3, [r4]	@ movhi
 218:Core/Src/main.c ****             }
 2462              		.loc 1 218 17 is_stmt 1 view .LVU479
 2463 013e 6BE7     		b	.L139
 2464              	.L147:
 224:Core/Src/main.c ****             if (getCarScore() > 0)
 2465              		.loc 1 224 13 view .LVU480
 224:Core/Src/main.c ****             if (getCarScore() > 0)
 2466              		.loc 1 224 55 is_stmt 0 view .LVU481
 2467 0140 534B     		ldr	r3, .L161+24
 2468 0142 5A69     		ldr	r2, [r3, #20]
 224:Core/Src/main.c ****             if (getCarScore() > 0)
 2469              		.loc 1 224 13 view .LVU482
 2470 0144 911C     		adds	r1, r2, #2
 2471 0146 53F82110 		ldr	r1, [r3, r1, lsl #2]
ARM GAS  C:\Users\30592\AppData\Local\Temp\cca1UH8z.s 			page 58


 2472 014a 53F82200 		ldr	r0, [r3, r2, lsl #2]
 2473 014e FFF7FEFF 		bl	Goto
 2474              	.LVL304:
 225:Core/Src/main.c ****             {
 2475              		.loc 1 225 13 is_stmt 1 view .LVU483
 225:Core/Src/main.c ****             {
 2476              		.loc 1 225 17 is_stmt 0 view .LVU484
 2477 0152 FFF7FEFF 		bl	getCarScore
 2478              	.LVL305:
 225:Core/Src/main.c ****             {
 2479              		.loc 1 225 16 view .LVU485
 2480 0156 0028     		cmp	r0, #0
 2481 0158 7FF75EAF 		ble	.L139
 227:Core/Src/main.c ****                 score = getCarScore(); //Êõ¥Êñ∞ÂΩìÂâçÂàÜÊï∞
 2482              		.loc 1 227 17 is_stmt 1 view .LVU486
 227:Core/Src/main.c ****                 score = getCarScore(); //Êõ¥Êñ∞ÂΩìÂâçÂàÜÊï∞
 2483              		.loc 1 227 23 is_stmt 0 view .LVU487
 2484 015c 4A4B     		ldr	r3, .L161+16
 2485 015e 0222     		movs	r2, #2
 2486 0160 1A60     		str	r2, [r3]
 228:Core/Src/main.c ****             }
 2487              		.loc 1 228 17 is_stmt 1 view .LVU488
 228:Core/Src/main.c ****             }
 2488              		.loc 1 228 25 is_stmt 0 view .LVU489
 2489 0162 FFF7FEFF 		bl	getCarScore
 2490              	.LVL306:
 228:Core/Src/main.c ****             }
 2491              		.loc 1 228 23 view .LVU490
 2492 0166 4D4B     		ldr	r3, .L161+36
 2493 0168 1860     		str	r0, [r3]
 2494 016a 55E7     		b	.L139
 2495              	.L146:
 235:Core/Src/main.c ****             if (getCarScore() > score)
 2496              		.loc 1 235 13 is_stmt 1 view .LVU491
 235:Core/Src/main.c ****             if (getCarScore() > score)
 2497              		.loc 1 235 56 is_stmt 0 view .LVU492
 2498 016c 484A     		ldr	r2, .L161+24
 2499 016e 5369     		ldr	r3, [r2, #20]
 235:Core/Src/main.c ****             if (getCarScore() > score)
 2500              		.loc 1 235 38 view .LVU493
 2501 0170 B3FA83F3 		clz	r3, r3
 2502 0174 5B09     		lsrs	r3, r3, #5
 235:Core/Src/main.c ****             if (getCarScore() > score)
 2503              		.loc 1 235 13 view .LVU494
 2504 0176 991C     		adds	r1, r3, #2
 2505 0178 52F82110 		ldr	r1, [r2, r1, lsl #2]
 2506 017c 52F82300 		ldr	r0, [r2, r3, lsl #2]
 2507 0180 FFF7FEFF 		bl	Goto
 2508              	.LVL307:
 236:Core/Src/main.c ****             {
 2509              		.loc 1 236 13 is_stmt 1 view .LVU495
 236:Core/Src/main.c ****             {
 2510              		.loc 1 236 17 is_stmt 0 view .LVU496
 2511 0184 FFF7FEFF 		bl	getCarScore
 2512              	.LVL308:
 236:Core/Src/main.c ****             {
 2513              		.loc 1 236 31 view .LVU497
ARM GAS  C:\Users\30592\AppData\Local\Temp\cca1UH8z.s 			page 59


 2514 0188 444B     		ldr	r3, .L161+36
 2515 018a 1B68     		ldr	r3, [r3]
 236:Core/Src/main.c ****             {
 2516              		.loc 1 236 16 view .LVU498
 2517 018c 9842     		cmp	r0, r3
 2518 018e 7FF743AF 		ble	.L139
 238:Core/Src/main.c ****                 score = getCarScore(); //Êõ¥Êñ∞ÂΩìÂâçÂàÜÊï∞
 2519              		.loc 1 238 17 is_stmt 1 view .LVU499
 238:Core/Src/main.c ****                 score = getCarScore(); //Êõ¥Êñ∞ÂΩìÂâçÂàÜÊï∞
 2520              		.loc 1 238 23 is_stmt 0 view .LVU500
 2521 0192 3D4B     		ldr	r3, .L161+16
 2522 0194 0322     		movs	r2, #3
 2523 0196 1A60     		str	r2, [r3]
 239:Core/Src/main.c ****             }
 2524              		.loc 1 239 17 is_stmt 1 view .LVU501
 239:Core/Src/main.c ****             }
 2525              		.loc 1 239 25 is_stmt 0 view .LVU502
 2526 0198 FFF7FEFF 		bl	getCarScore
 2527              	.LVL309:
 239:Core/Src/main.c ****             }
 2528              		.loc 1 239 23 view .LVU503
 2529 019c 3F4B     		ldr	r3, .L161+36
 2530 019e 1860     		str	r0, [r3]
 2531 01a0 3AE7     		b	.L139
 2532              	.L145:
 246:Core/Src/main.c ****             {
 2533              		.loc 1 246 13 is_stmt 1 view .LVU504
 246:Core/Src/main.c ****             {
 2534              		.loc 1 246 25 is_stmt 0 view .LVU505
 2535 01a2 384B     		ldr	r3, .L161+12
 2536 01a4 1B68     		ldr	r3, [r3]
 246:Core/Src/main.c ****             {
 2537              		.loc 1 246 29 view .LVU506
 2538 01a6 7F3B     		subs	r3, r3, #127
 246:Core/Src/main.c ****             {
 2539              		.loc 1 246 71 view .LVU507
 2540 01a8 1E38     		subs	r0, r0, #30
 246:Core/Src/main.c ****             {
 2541              		.loc 1 246 77 view .LVU508
 2542 01aa 00FB00F0 		mul	r0, r0, r0
 246:Core/Src/main.c ****             {
 2543              		.loc 1 246 57 view .LVU509
 2544 01ae 03FB0300 		mla	r0, r3, r3, r0
 246:Core/Src/main.c ****             {
 2545              		.loc 1 246 16 view .LVU510
 2546 01b2 0928     		cmp	r0, #9
 2547 01b4 12DC     		bgt	.L150
 248:Core/Src/main.c ****                 if (count_beacon <= 100)
 2548              		.loc 1 248 17 is_stmt 1 view .LVU511
 248:Core/Src/main.c ****                 if (count_beacon <= 100)
 2549              		.loc 1 248 29 is_stmt 0 view .LVU512
 2550 01b6 3A4A     		ldr	r2, .L161+40
 2551 01b8 1368     		ldr	r3, [r2]
 2552 01ba 0133     		adds	r3, r3, #1
 2553 01bc 1360     		str	r3, [r2]
 249:Core/Src/main.c ****                 {
 2554              		.loc 1 249 17 is_stmt 1 view .LVU513
ARM GAS  C:\Users\30592\AppData\Local\Temp\cca1UH8z.s 			page 60


 249:Core/Src/main.c ****                 {
 2555              		.loc 1 249 20 is_stmt 0 view .LVU514
 2556 01be 642B     		cmp	r3, #100
 2557 01c0 06DD     		ble	.L158
 255:Core/Src/main.c ****                     count_beacon = 0;
 2558              		.loc 1 255 21 is_stmt 1 view .LVU515
 255:Core/Src/main.c ****                     count_beacon = 0;
 2559              		.loc 1 255 27 is_stmt 0 view .LVU516
 2560 01c2 314B     		ldr	r3, .L161+16
 2561 01c4 0422     		movs	r2, #4
 2562 01c6 1A60     		str	r2, [r3]
 256:Core/Src/main.c ****                 }
 2563              		.loc 1 256 21 is_stmt 1 view .LVU517
 256:Core/Src/main.c ****                 }
 2564              		.loc 1 256 34 is_stmt 0 view .LVU518
 2565 01c8 354B     		ldr	r3, .L161+40
 2566 01ca 0022     		movs	r2, #0
 2567 01cc 1A60     		str	r2, [r3]
 2568 01ce 23E7     		b	.L139
 2569              	.L158:
 251:Core/Src/main.c ****                 }
 2570              		.loc 1 251 21 is_stmt 1 view .LVU519
 2571 01d0 0122     		movs	r2, #1
 2572 01d2 1146     		mov	r1, r2
 2573 01d4 3348     		ldr	r0, .L161+44
 2574 01d6 FFF7FEFF 		bl	HAL_GPIO_WritePin
 2575              	.LVL310:
 2576 01da 1DE7     		b	.L139
 2577              	.L150:
 260:Core/Src/main.c ****             break;
 2578              		.loc 1 260 17 view .LVU520
 2579 01dc 1E21     		movs	r1, #30
 2580 01de 7F20     		movs	r0, #127
 2581 01e0 FFF7FEFF 		bl	Goto
 2582              	.LVL311:
 2583 01e4 18E7     		b	.L139
 2584              	.L144:
 266:Core/Src/main.c ****             {
 2585              		.loc 1 266 13 view .LVU521
 266:Core/Src/main.c ****             {
 2586              		.loc 1 266 25 is_stmt 0 view .LVU522
 2587 01e6 274B     		ldr	r3, .L161+12
 2588 01e8 1B68     		ldr	r3, [r3]
 266:Core/Src/main.c ****             {
 2589              		.loc 1 266 29 view .LVU523
 2590 01ea 7F3B     		subs	r3, r3, #127
 266:Core/Src/main.c ****             {
 2591              		.loc 1 266 71 view .LVU524
 2592 01ec 7F38     		subs	r0, r0, #127
 266:Core/Src/main.c ****             {
 2593              		.loc 1 266 78 view .LVU525
 2594 01ee 00FB00F0 		mul	r0, r0, r0
 266:Core/Src/main.c ****             {
 2595              		.loc 1 266 57 view .LVU526
 2596 01f2 03FB0300 		mla	r0, r3, r3, r0
 266:Core/Src/main.c ****             {
 2597              		.loc 1 266 16 view .LVU527
ARM GAS  C:\Users\30592\AppData\Local\Temp\cca1UH8z.s 			page 61


 2598 01f6 0928     		cmp	r0, #9
 2599 01f8 12DC     		bgt	.L152
 268:Core/Src/main.c ****                 if (count_beacon <= 100)
 2600              		.loc 1 268 17 is_stmt 1 view .LVU528
 268:Core/Src/main.c ****                 if (count_beacon <= 100)
 2601              		.loc 1 268 29 is_stmt 0 view .LVU529
 2602 01fa 294A     		ldr	r2, .L161+40
 2603 01fc 1368     		ldr	r3, [r2]
 2604 01fe 0133     		adds	r3, r3, #1
 2605 0200 1360     		str	r3, [r2]
 269:Core/Src/main.c ****                 {
 2606              		.loc 1 269 17 is_stmt 1 view .LVU530
 269:Core/Src/main.c ****                 {
 2607              		.loc 1 269 20 is_stmt 0 view .LVU531
 2608 0202 642B     		cmp	r3, #100
 2609 0204 06DD     		ble	.L159
 275:Core/Src/main.c ****                     count_beacon = 0;
 2610              		.loc 1 275 21 is_stmt 1 view .LVU532
 275:Core/Src/main.c ****                     count_beacon = 0;
 2611              		.loc 1 275 27 is_stmt 0 view .LVU533
 2612 0206 204B     		ldr	r3, .L161+16
 2613 0208 0522     		movs	r2, #5
 2614 020a 1A60     		str	r2, [r3]
 276:Core/Src/main.c ****                 }
 2615              		.loc 1 276 21 is_stmt 1 view .LVU534
 276:Core/Src/main.c ****                 }
 2616              		.loc 1 276 34 is_stmt 0 view .LVU535
 2617 020c 244B     		ldr	r3, .L161+40
 2618 020e 0022     		movs	r2, #0
 2619 0210 1A60     		str	r2, [r3]
 2620 0212 01E7     		b	.L139
 2621              	.L159:
 271:Core/Src/main.c ****                 }
 2622              		.loc 1 271 21 is_stmt 1 view .LVU536
 2623 0214 0122     		movs	r2, #1
 2624 0216 1146     		mov	r1, r2
 2625 0218 2248     		ldr	r0, .L161+44
 2626 021a FFF7FEFF 		bl	HAL_GPIO_WritePin
 2627              	.LVL312:
 2628 021e FBE6     		b	.L139
 2629              	.L152:
 280:Core/Src/main.c ****             break;
 2630              		.loc 1 280 17 view .LVU537
 2631 0220 3C21     		movs	r1, #60
 2632 0222 7F20     		movs	r0, #127
 2633 0224 FFF7FEFF 		bl	Goto
 2634              	.LVL313:
 2635 0228 F6E6     		b	.L139
 2636              	.L143:
 286:Core/Src/main.c ****             {
 2637              		.loc 1 286 13 view .LVU538
 286:Core/Src/main.c ****             {
 2638              		.loc 1 286 25 is_stmt 0 view .LVU539
 2639 022a 164B     		ldr	r3, .L161+12
 2640 022c 1B68     		ldr	r3, [r3]
 286:Core/Src/main.c ****             {
 2641              		.loc 1 286 29 view .LVU540
ARM GAS  C:\Users\30592\AppData\Local\Temp\cca1UH8z.s 			page 62


 2642 022e 3C3B     		subs	r3, r3, #60
 286:Core/Src/main.c ****             {
 2643              		.loc 1 286 69 view .LVU541
 2644 0230 7F38     		subs	r0, r0, #127
 286:Core/Src/main.c ****             {
 2645              		.loc 1 286 76 view .LVU542
 2646 0232 00FB00F0 		mul	r0, r0, r0
 286:Core/Src/main.c ****             {
 2647              		.loc 1 286 55 view .LVU543
 2648 0236 03FB0300 		mla	r0, r3, r3, r0
 286:Core/Src/main.c ****             {
 2649              		.loc 1 286 16 view .LVU544
 2650 023a 0928     		cmp	r0, #9
 2651 023c 12DC     		bgt	.L154
 288:Core/Src/main.c ****                 if (count_beacon <= 100)
 2652              		.loc 1 288 17 is_stmt 1 view .LVU545
 288:Core/Src/main.c ****                 if (count_beacon <= 100)
 2653              		.loc 1 288 29 is_stmt 0 view .LVU546
 2654 023e 184A     		ldr	r2, .L161+40
 2655 0240 1368     		ldr	r3, [r2]
 2656 0242 0133     		adds	r3, r3, #1
 2657 0244 1360     		str	r3, [r2]
 289:Core/Src/main.c ****                 {
 2658              		.loc 1 289 17 is_stmt 1 view .LVU547
 289:Core/Src/main.c ****                 {
 2659              		.loc 1 289 20 is_stmt 0 view .LVU548
 2660 0246 642B     		cmp	r3, #100
 2661 0248 06DD     		ble	.L160
 295:Core/Src/main.c ****                     count_beacon = 0;
 2662              		.loc 1 295 21 is_stmt 1 view .LVU549
 295:Core/Src/main.c ****                     count_beacon = 0;
 2663              		.loc 1 295 27 is_stmt 0 view .LVU550
 2664 024a 0F4B     		ldr	r3, .L161+16
 2665 024c 0622     		movs	r2, #6
 2666 024e 1A60     		str	r2, [r3]
 296:Core/Src/main.c ****                 }
 2667              		.loc 1 296 21 is_stmt 1 view .LVU551
 296:Core/Src/main.c ****                 }
 2668              		.loc 1 296 34 is_stmt 0 view .LVU552
 2669 0250 134B     		ldr	r3, .L161+40
 2670 0252 0022     		movs	r2, #0
 2671 0254 1A60     		str	r2, [r3]
 2672 0256 DFE6     		b	.L139
 2673              	.L160:
 291:Core/Src/main.c ****                 }
 2674              		.loc 1 291 21 is_stmt 1 view .LVU553
 2675 0258 0122     		movs	r2, #1
 2676 025a 1146     		mov	r1, r2
 2677 025c 1148     		ldr	r0, .L161+44
 2678 025e FFF7FEFF 		bl	HAL_GPIO_WritePin
 2679              	.LVL314:
 2680 0262 D9E6     		b	.L139
 2681              	.L154:
 300:Core/Src/main.c ****             break;
 2682              		.loc 1 300 17 view .LVU554
 2683 0264 1E21     		movs	r1, #30
 2684 0266 7F20     		movs	r0, #127
ARM GAS  C:\Users\30592\AppData\Local\Temp\cca1UH8z.s 			page 63


 2685 0268 FFF7FEFF 		bl	Goto
 2686              	.LVL315:
 2687 026c D4E6     		b	.L139
 2688              	.L141:
 306:Core/Src/main.c ****             break;
 2689              		.loc 1 306 13 view .LVU555
 2690 026e 7F21     		movs	r1, #127
 2691 0270 0F20     		movs	r0, #15
 2692 0272 FFF7FEFF 		bl	Goto
 2693              	.LVL316:
 307:Core/Src/main.c ****         }
 2694              		.loc 1 307 13 view .LVU556
 311:Core/Src/main.c **** /* USER CODE END 0 */
 2695              		.loc 1 311 1 is_stmt 0 view .LVU557
 2696 0276 CFE6     		b	.L139
 2697              	.L162:
 2698              		.align	2
 2699              	.L161:
 2700 0278 00000000 		.word	jy62Receive
 2701 027c 00000000 		.word	huart2
 2702 0280 002C0140 		.word	1073818624
 2703 0284 00000000 		.word	.LANCHOR4
 2704 0288 00000000 		.word	.LANCHOR5
 2705 028c 00000000 		.word	.LANCHOR6
 2706 0290 00000000 		.word	.LANCHOR7
 2707 0294 00000000 		.word	.LANCHOR8
 2708 0298 56555555 		.word	1431655766
 2709 029c 00000000 		.word	.LANCHOR9
 2710 02a0 00000000 		.word	.LANCHOR10
 2711 02a4 00100140 		.word	1073811456
 2712              		.cfi_endproc
 2713              	.LFE65:
 2715              		.section	.text.Get_Rep_opt,"ax",%progbits
 2716              		.align	1
 2717              		.global	Get_Rep_opt
 2718              		.syntax unified
 2719              		.thumb
 2720              		.thumb_func
 2721              		.fpu softvfp
 2723              	Get_Rep_opt:
 2724              	.LVL317:
 2725              	.LFB82:
 693:Core/Src/main.c **** 
 694:Core/Src/main.c **** //ÂØªÊâæÔøΩ?ËøëÁöÑ‰ªìÂ∫ìÂùêÊ†á
 695:Core/Src/main.c **** // Parameters: Â∞èËΩ¶ÂùêÊ†á
 696:Core/Src/main.c **** // Return: ÔøΩ?ËøëÁöÑ‰ªìÂ∫ìÂùêÊ†áÁöÑÊï∞ÁªÑÊåáÔøΩ?
 697:Core/Src/main.c **** int *Get_Rep_opt(int x, int y)
 698:Core/Src/main.c **** {
 2726              		.loc 1 698 1 is_stmt 1 view -0
 2727              		.cfi_startproc
 2728              		@ args = 0, pretend = 0, frame = 0
 2729              		@ frame_needed = 0, uses_anonymous_args = 0
 2730              		.loc 1 698 1 is_stmt 0 view .LVU559
 2731 0000 10B5     		push	{r4, lr}
 2732              	.LCFI22:
 2733              		.cfi_def_cfa_offset 8
 2734              		.cfi_offset 4, -8
ARM GAS  C:\Users\30592\AppData\Local\Temp\cca1UH8z.s 			page 64


 2735              		.cfi_offset 14, -4
 699:Core/Src/main.c **** 
 700:Core/Src/main.c ****     int min;
 2736              		.loc 1 700 5 is_stmt 1 view .LVU560
 701:Core/Src/main.c ****     int min_rep;
 2737              		.loc 1 701 5 view .LVU561
 702:Core/Src/main.c ****     int i = 0;
 2738              		.loc 1 702 5 view .LVU562
 2739              	.LVL318:
 703:Core/Src/main.c ****     min = (x - 15) * (x - 15) + (y - 15) * (y - 15);
 2740              		.loc 1 703 5 view .LVU563
 2741              		.loc 1 703 14 is_stmt 0 view .LVU564
 2742 0002 A0F10F0E 		sub	lr, r0, #15
 2743              		.loc 1 703 36 view .LVU565
 2744 0006 A1F10F03 		sub	r3, r1, #15
 2745              		.loc 1 703 42 view .LVU566
 2746 000a 03FB03F3 		mul	r3, r3, r3
 2747              		.loc 1 703 9 view .LVU567
 2748 000e 0EFB0E3E 		mla	lr, lr, lr, r3
 2749              	.LVL319:
 704:Core/Src/main.c ****     min_rep = 0;
 2750              		.loc 1 704 5 is_stmt 1 view .LVU568
 705:Core/Src/main.c ****     for (i = 0; i < 8; ++i)
 2751              		.loc 1 705 5 view .LVU569
 2752              		.loc 1 705 12 is_stmt 0 view .LVU570
 2753 0012 4FF0000C 		mov	ip, #0
 704:Core/Src/main.c ****     min_rep = 0;
 2754              		.loc 1 704 13 view .LVU571
 2755 0016 6446     		mov	r4, ip
 2756              		.loc 1 705 5 view .LVU572
 2757 0018 01E0     		b	.L164
 2758              	.LVL320:
 2759              	.L165:
 2760              		.loc 1 705 24 is_stmt 1 discriminator 2 view .LVU573
 2761 001a 0CF1010C 		add	ip, ip, #1
 2762              	.LVL321:
 2763              	.L164:
 2764              		.loc 1 705 17 discriminator 1 view .LVU574
 2765              		.loc 1 705 5 is_stmt 0 discriminator 1 view .LVU575
 2766 001e BCF1070F 		cmp	ip, #7
 2767 0022 10DC     		bgt	.L169
 706:Core/Src/main.c ****     {
 707:Core/Src/main.c ****         if (((rep[i][0] - x) * (rep[i][0] - x) + (rep[i][1] - y) * (rep[i][1] - y)) < min)
 2768              		.loc 1 707 9 is_stmt 1 view .LVU576
 2769              		.loc 1 707 21 is_stmt 0 view .LVU577
 2770 0024 0A4A     		ldr	r2, .L170
 2771 0026 52F83C30 		ldr	r3, [r2, ip, lsl #3]
 2772              		.loc 1 707 25 view .LVU578
 2773 002a 1B1A     		subs	r3, r3, r0
 2774              		.loc 1 707 57 view .LVU579
 2775 002c 02EBCC02 		add	r2, r2, ip, lsl #3
 2776 0030 5268     		ldr	r2, [r2, #4]
 2777              		.loc 1 707 61 view .LVU580
 2778 0032 521A     		subs	r2, r2, r1
 2779              		.loc 1 707 66 view .LVU581
 2780 0034 02FB02F2 		mul	r2, r2, r2
 2781              		.loc 1 707 48 view .LVU582
ARM GAS  C:\Users\30592\AppData\Local\Temp\cca1UH8z.s 			page 65


 2782 0038 03FB0323 		mla	r3, r3, r3, r2
 2783              		.loc 1 707 12 view .LVU583
 2784 003c 7345     		cmp	r3, lr
 2785 003e ECDA     		bge	.L165
 708:Core/Src/main.c ****         {
 709:Core/Src/main.c ****             min_rep = i;
 2786              		.loc 1 709 21 view .LVU584
 2787 0040 6446     		mov	r4, ip
 2788              	.LVL322:
 710:Core/Src/main.c ****             min = (rep[i][0] - x) * (rep[i][0] - x) + (rep[i][1] - y) * (rep[i][1] - y);
 2789              		.loc 1 710 17 view .LVU585
 2790 0042 9E46     		mov	lr, r3
 2791              	.LVL323:
 2792              		.loc 1 710 17 view .LVU586
 2793 0044 E9E7     		b	.L165
 2794              	.LVL324:
 2795              	.L169:
 711:Core/Src/main.c ****         }
 712:Core/Src/main.c ****     }
 713:Core/Src/main.c ****     return rep[min_rep];
 2796              		.loc 1 713 5 is_stmt 1 view .LVU587
 714:Core/Src/main.c **** }
 2797              		.loc 1 714 1 is_stmt 0 view .LVU588
 2798 0046 0248     		ldr	r0, .L170
 2799              	.LVL325:
 2800              		.loc 1 714 1 view .LVU589
 2801 0048 00EBC400 		add	r0, r0, r4, lsl #3
 2802 004c 10BD     		pop	{r4, pc}
 2803              	.LVL326:
 2804              	.L171:
 2805              		.loc 1 714 1 view .LVU590
 2806 004e 00BF     		.align	2
 2807              	.L170:
 2808 0050 00000000 		.word	.LANCHOR11
 2809              		.cfi_endproc
 2810              	.LFE82:
 2812              		.section	.text.Error_Handler,"ax",%progbits
 2813              		.align	1
 2814              		.global	Error_Handler
 2815              		.syntax unified
 2816              		.thumb
 2817              		.thumb_func
 2818              		.fpu softvfp
 2820              	Error_Handler:
 2821              	.LFB83:
 715:Core/Src/main.c **** /* USER CODE END 4 */
 716:Core/Src/main.c **** 
 717:Core/Src/main.c **** /**
 718:Core/Src/main.c ****   * @brief  This function is executed in case of error occurrence.
 719:Core/Src/main.c ****   * @retval None
 720:Core/Src/main.c ****   */
 721:Core/Src/main.c **** void Error_Handler(void)
 722:Core/Src/main.c **** {
 2822              		.loc 1 722 1 is_stmt 1 view -0
 2823              		.cfi_startproc
 2824              		@ Volatile: function does not return.
 2825              		@ args = 0, pretend = 0, frame = 0
ARM GAS  C:\Users\30592\AppData\Local\Temp\cca1UH8z.s 			page 66


 2826              		@ frame_needed = 0, uses_anonymous_args = 0
 2827              		@ link register save eliminated.
 723:Core/Src/main.c ****     /* USER CODE BEGIN Error_Handler_Debug */
 724:Core/Src/main.c ****     /* User can add his own implementation to report the HAL error return state */
 725:Core/Src/main.c ****     __disable_irq();
 2828              		.loc 1 725 5 view .LVU592
 2829              	.LBB4:
 2830              	.LBI4:
 2831              		.file 2 "Drivers/CMSIS/Include/cmsis_gcc.h"
   1:Drivers/CMSIS/Include/cmsis_gcc.h **** /**************************************************************************//**
   2:Drivers/CMSIS/Include/cmsis_gcc.h ****  * @file     cmsis_gcc.h
   3:Drivers/CMSIS/Include/cmsis_gcc.h ****  * @brief    CMSIS compiler GCC header file
   4:Drivers/CMSIS/Include/cmsis_gcc.h ****  * @version  V5.0.4
   5:Drivers/CMSIS/Include/cmsis_gcc.h ****  * @date     09. April 2018
   6:Drivers/CMSIS/Include/cmsis_gcc.h ****  ******************************************************************************/
   7:Drivers/CMSIS/Include/cmsis_gcc.h **** /*
   8:Drivers/CMSIS/Include/cmsis_gcc.h ****  * Copyright (c) 2009-2018 Arm Limited. All rights reserved.
   9:Drivers/CMSIS/Include/cmsis_gcc.h ****  *
  10:Drivers/CMSIS/Include/cmsis_gcc.h ****  * SPDX-License-Identifier: Apache-2.0
  11:Drivers/CMSIS/Include/cmsis_gcc.h ****  *
  12:Drivers/CMSIS/Include/cmsis_gcc.h ****  * Licensed under the Apache License, Version 2.0 (the License); you may
  13:Drivers/CMSIS/Include/cmsis_gcc.h ****  * not use this file except in compliance with the License.
  14:Drivers/CMSIS/Include/cmsis_gcc.h ****  * You may obtain a copy of the License at
  15:Drivers/CMSIS/Include/cmsis_gcc.h ****  *
  16:Drivers/CMSIS/Include/cmsis_gcc.h ****  * www.apache.org/licenses/LICENSE-2.0
  17:Drivers/CMSIS/Include/cmsis_gcc.h ****  *
  18:Drivers/CMSIS/Include/cmsis_gcc.h ****  * Unless required by applicable law or agreed to in writing, software
  19:Drivers/CMSIS/Include/cmsis_gcc.h ****  * distributed under the License is distributed on an AS IS BASIS, WITHOUT
  20:Drivers/CMSIS/Include/cmsis_gcc.h ****  * WARRANTIES OR CONDITIONS OF ANY KIND, either express or implied.
  21:Drivers/CMSIS/Include/cmsis_gcc.h ****  * See the License for the specific language governing permissions and
  22:Drivers/CMSIS/Include/cmsis_gcc.h ****  * limitations under the License.
  23:Drivers/CMSIS/Include/cmsis_gcc.h ****  */
  24:Drivers/CMSIS/Include/cmsis_gcc.h **** 
  25:Drivers/CMSIS/Include/cmsis_gcc.h **** #ifndef __CMSIS_GCC_H
  26:Drivers/CMSIS/Include/cmsis_gcc.h **** #define __CMSIS_GCC_H
  27:Drivers/CMSIS/Include/cmsis_gcc.h **** 
  28:Drivers/CMSIS/Include/cmsis_gcc.h **** /* ignore some GCC warnings */
  29:Drivers/CMSIS/Include/cmsis_gcc.h **** #pragma GCC diagnostic push
  30:Drivers/CMSIS/Include/cmsis_gcc.h **** #pragma GCC diagnostic ignored "-Wsign-conversion"
  31:Drivers/CMSIS/Include/cmsis_gcc.h **** #pragma GCC diagnostic ignored "-Wconversion"
  32:Drivers/CMSIS/Include/cmsis_gcc.h **** #pragma GCC diagnostic ignored "-Wunused-parameter"
  33:Drivers/CMSIS/Include/cmsis_gcc.h **** 
  34:Drivers/CMSIS/Include/cmsis_gcc.h **** /* Fallback for __has_builtin */
  35:Drivers/CMSIS/Include/cmsis_gcc.h **** #ifndef __has_builtin
  36:Drivers/CMSIS/Include/cmsis_gcc.h ****   #define __has_builtin(x) (0)
  37:Drivers/CMSIS/Include/cmsis_gcc.h **** #endif
  38:Drivers/CMSIS/Include/cmsis_gcc.h **** 
  39:Drivers/CMSIS/Include/cmsis_gcc.h **** /* CMSIS compiler specific defines */
  40:Drivers/CMSIS/Include/cmsis_gcc.h **** #ifndef   __ASM
  41:Drivers/CMSIS/Include/cmsis_gcc.h ****   #define __ASM                                  __asm
  42:Drivers/CMSIS/Include/cmsis_gcc.h **** #endif
  43:Drivers/CMSIS/Include/cmsis_gcc.h **** #ifndef   __INLINE
  44:Drivers/CMSIS/Include/cmsis_gcc.h ****   #define __INLINE                               inline
  45:Drivers/CMSIS/Include/cmsis_gcc.h **** #endif
  46:Drivers/CMSIS/Include/cmsis_gcc.h **** #ifndef   __STATIC_INLINE
  47:Drivers/CMSIS/Include/cmsis_gcc.h ****   #define __STATIC_INLINE                        static inline
  48:Drivers/CMSIS/Include/cmsis_gcc.h **** #endif
ARM GAS  C:\Users\30592\AppData\Local\Temp\cca1UH8z.s 			page 67


  49:Drivers/CMSIS/Include/cmsis_gcc.h **** #ifndef   __STATIC_FORCEINLINE                 
  50:Drivers/CMSIS/Include/cmsis_gcc.h ****   #define __STATIC_FORCEINLINE                   __attribute__((always_inline)) static inline
  51:Drivers/CMSIS/Include/cmsis_gcc.h **** #endif                                           
  52:Drivers/CMSIS/Include/cmsis_gcc.h **** #ifndef   __NO_RETURN
  53:Drivers/CMSIS/Include/cmsis_gcc.h ****   #define __NO_RETURN                            __attribute__((__noreturn__))
  54:Drivers/CMSIS/Include/cmsis_gcc.h **** #endif
  55:Drivers/CMSIS/Include/cmsis_gcc.h **** #ifndef   __USED
  56:Drivers/CMSIS/Include/cmsis_gcc.h ****   #define __USED                                 __attribute__((used))
  57:Drivers/CMSIS/Include/cmsis_gcc.h **** #endif
  58:Drivers/CMSIS/Include/cmsis_gcc.h **** #ifndef   __WEAK
  59:Drivers/CMSIS/Include/cmsis_gcc.h ****   #define __WEAK                                 __attribute__((weak))
  60:Drivers/CMSIS/Include/cmsis_gcc.h **** #endif
  61:Drivers/CMSIS/Include/cmsis_gcc.h **** #ifndef   __PACKED
  62:Drivers/CMSIS/Include/cmsis_gcc.h ****   #define __PACKED                               __attribute__((packed, aligned(1)))
  63:Drivers/CMSIS/Include/cmsis_gcc.h **** #endif
  64:Drivers/CMSIS/Include/cmsis_gcc.h **** #ifndef   __PACKED_STRUCT
  65:Drivers/CMSIS/Include/cmsis_gcc.h ****   #define __PACKED_STRUCT                        struct __attribute__((packed, aligned(1)))
  66:Drivers/CMSIS/Include/cmsis_gcc.h **** #endif
  67:Drivers/CMSIS/Include/cmsis_gcc.h **** #ifndef   __PACKED_UNION
  68:Drivers/CMSIS/Include/cmsis_gcc.h ****   #define __PACKED_UNION                         union __attribute__((packed, aligned(1)))
  69:Drivers/CMSIS/Include/cmsis_gcc.h **** #endif
  70:Drivers/CMSIS/Include/cmsis_gcc.h **** #ifndef   __UNALIGNED_UINT32        /* deprecated */
  71:Drivers/CMSIS/Include/cmsis_gcc.h ****   #pragma GCC diagnostic push
  72:Drivers/CMSIS/Include/cmsis_gcc.h ****   #pragma GCC diagnostic ignored "-Wpacked"
  73:Drivers/CMSIS/Include/cmsis_gcc.h ****   #pragma GCC diagnostic ignored "-Wattributes"
  74:Drivers/CMSIS/Include/cmsis_gcc.h ****   struct __attribute__((packed)) T_UINT32 { uint32_t v; };
  75:Drivers/CMSIS/Include/cmsis_gcc.h ****   #pragma GCC diagnostic pop
  76:Drivers/CMSIS/Include/cmsis_gcc.h ****   #define __UNALIGNED_UINT32(x)                  (((struct T_UINT32 *)(x))->v)
  77:Drivers/CMSIS/Include/cmsis_gcc.h **** #endif
  78:Drivers/CMSIS/Include/cmsis_gcc.h **** #ifndef   __UNALIGNED_UINT16_WRITE
  79:Drivers/CMSIS/Include/cmsis_gcc.h ****   #pragma GCC diagnostic push
  80:Drivers/CMSIS/Include/cmsis_gcc.h ****   #pragma GCC diagnostic ignored "-Wpacked"
  81:Drivers/CMSIS/Include/cmsis_gcc.h ****   #pragma GCC diagnostic ignored "-Wattributes"
  82:Drivers/CMSIS/Include/cmsis_gcc.h ****   __PACKED_STRUCT T_UINT16_WRITE { uint16_t v; };
  83:Drivers/CMSIS/Include/cmsis_gcc.h ****   #pragma GCC diagnostic pop
  84:Drivers/CMSIS/Include/cmsis_gcc.h ****   #define __UNALIGNED_UINT16_WRITE(addr, val)    (void)((((struct T_UINT16_WRITE *)(void *)(addr))-
  85:Drivers/CMSIS/Include/cmsis_gcc.h **** #endif
  86:Drivers/CMSIS/Include/cmsis_gcc.h **** #ifndef   __UNALIGNED_UINT16_READ
  87:Drivers/CMSIS/Include/cmsis_gcc.h ****   #pragma GCC diagnostic push
  88:Drivers/CMSIS/Include/cmsis_gcc.h ****   #pragma GCC diagnostic ignored "-Wpacked"
  89:Drivers/CMSIS/Include/cmsis_gcc.h ****   #pragma GCC diagnostic ignored "-Wattributes"
  90:Drivers/CMSIS/Include/cmsis_gcc.h ****   __PACKED_STRUCT T_UINT16_READ { uint16_t v; };
  91:Drivers/CMSIS/Include/cmsis_gcc.h ****   #pragma GCC diagnostic pop
  92:Drivers/CMSIS/Include/cmsis_gcc.h ****   #define __UNALIGNED_UINT16_READ(addr)          (((const struct T_UINT16_READ *)(const void *)(add
  93:Drivers/CMSIS/Include/cmsis_gcc.h **** #endif
  94:Drivers/CMSIS/Include/cmsis_gcc.h **** #ifndef   __UNALIGNED_UINT32_WRITE
  95:Drivers/CMSIS/Include/cmsis_gcc.h ****   #pragma GCC diagnostic push
  96:Drivers/CMSIS/Include/cmsis_gcc.h ****   #pragma GCC diagnostic ignored "-Wpacked"
  97:Drivers/CMSIS/Include/cmsis_gcc.h ****   #pragma GCC diagnostic ignored "-Wattributes"
  98:Drivers/CMSIS/Include/cmsis_gcc.h ****   __PACKED_STRUCT T_UINT32_WRITE { uint32_t v; };
  99:Drivers/CMSIS/Include/cmsis_gcc.h ****   #pragma GCC diagnostic pop
 100:Drivers/CMSIS/Include/cmsis_gcc.h ****   #define __UNALIGNED_UINT32_WRITE(addr, val)    (void)((((struct T_UINT32_WRITE *)(void *)(addr))-
 101:Drivers/CMSIS/Include/cmsis_gcc.h **** #endif
 102:Drivers/CMSIS/Include/cmsis_gcc.h **** #ifndef   __UNALIGNED_UINT32_READ
 103:Drivers/CMSIS/Include/cmsis_gcc.h ****   #pragma GCC diagnostic push
 104:Drivers/CMSIS/Include/cmsis_gcc.h ****   #pragma GCC diagnostic ignored "-Wpacked"
 105:Drivers/CMSIS/Include/cmsis_gcc.h ****   #pragma GCC diagnostic ignored "-Wattributes"
ARM GAS  C:\Users\30592\AppData\Local\Temp\cca1UH8z.s 			page 68


 106:Drivers/CMSIS/Include/cmsis_gcc.h ****   __PACKED_STRUCT T_UINT32_READ { uint32_t v; };
 107:Drivers/CMSIS/Include/cmsis_gcc.h ****   #pragma GCC diagnostic pop
 108:Drivers/CMSIS/Include/cmsis_gcc.h ****   #define __UNALIGNED_UINT32_READ(addr)          (((const struct T_UINT32_READ *)(const void *)(add
 109:Drivers/CMSIS/Include/cmsis_gcc.h **** #endif
 110:Drivers/CMSIS/Include/cmsis_gcc.h **** #ifndef   __ALIGNED
 111:Drivers/CMSIS/Include/cmsis_gcc.h ****   #define __ALIGNED(x)                           __attribute__((aligned(x)))
 112:Drivers/CMSIS/Include/cmsis_gcc.h **** #endif
 113:Drivers/CMSIS/Include/cmsis_gcc.h **** #ifndef   __RESTRICT
 114:Drivers/CMSIS/Include/cmsis_gcc.h ****   #define __RESTRICT                             __restrict
 115:Drivers/CMSIS/Include/cmsis_gcc.h **** #endif
 116:Drivers/CMSIS/Include/cmsis_gcc.h **** 
 117:Drivers/CMSIS/Include/cmsis_gcc.h **** 
 118:Drivers/CMSIS/Include/cmsis_gcc.h **** /* ###########################  Core Function Access  ########################### */
 119:Drivers/CMSIS/Include/cmsis_gcc.h **** /** \ingroup  CMSIS_Core_FunctionInterface
 120:Drivers/CMSIS/Include/cmsis_gcc.h ****     \defgroup CMSIS_Core_RegAccFunctions CMSIS Core Register Access Functions
 121:Drivers/CMSIS/Include/cmsis_gcc.h ****   @{
 122:Drivers/CMSIS/Include/cmsis_gcc.h ****  */
 123:Drivers/CMSIS/Include/cmsis_gcc.h **** 
 124:Drivers/CMSIS/Include/cmsis_gcc.h **** /**
 125:Drivers/CMSIS/Include/cmsis_gcc.h ****   \brief   Enable IRQ Interrupts
 126:Drivers/CMSIS/Include/cmsis_gcc.h ****   \details Enables IRQ interrupts by clearing the I-bit in the CPSR.
 127:Drivers/CMSIS/Include/cmsis_gcc.h ****            Can only be executed in Privileged modes.
 128:Drivers/CMSIS/Include/cmsis_gcc.h ****  */
 129:Drivers/CMSIS/Include/cmsis_gcc.h **** __STATIC_FORCEINLINE void __enable_irq(void)
 130:Drivers/CMSIS/Include/cmsis_gcc.h **** {
 131:Drivers/CMSIS/Include/cmsis_gcc.h ****   __ASM volatile ("cpsie i" : : : "memory");
 132:Drivers/CMSIS/Include/cmsis_gcc.h **** }
 133:Drivers/CMSIS/Include/cmsis_gcc.h **** 
 134:Drivers/CMSIS/Include/cmsis_gcc.h **** 
 135:Drivers/CMSIS/Include/cmsis_gcc.h **** /**
 136:Drivers/CMSIS/Include/cmsis_gcc.h ****   \brief   Disable IRQ Interrupts
 137:Drivers/CMSIS/Include/cmsis_gcc.h ****   \details Disables IRQ interrupts by setting the I-bit in the CPSR.
 138:Drivers/CMSIS/Include/cmsis_gcc.h ****            Can only be executed in Privileged modes.
 139:Drivers/CMSIS/Include/cmsis_gcc.h ****  */
 140:Drivers/CMSIS/Include/cmsis_gcc.h **** __STATIC_FORCEINLINE void __disable_irq(void)
 2832              		.loc 2 140 27 view .LVU593
 2833              	.LBB5:
 141:Drivers/CMSIS/Include/cmsis_gcc.h **** {
 142:Drivers/CMSIS/Include/cmsis_gcc.h ****   __ASM volatile ("cpsid i" : : : "memory");
 2834              		.loc 2 142 3 view .LVU594
 2835              		.syntax unified
 2836              	@ 142 "Drivers/CMSIS/Include/cmsis_gcc.h" 1
 2837 0000 72B6     		cpsid i
 2838              	@ 0 "" 2
 2839              		.thumb
 2840              		.syntax unified
 2841              	.L173:
 2842              	.LBE5:
 2843              	.LBE4:
 726:Core/Src/main.c ****     while (1)
 2844              		.loc 1 726 5 discriminator 1 view .LVU595
 727:Core/Src/main.c ****     {
 728:Core/Src/main.c ****     }
 2845              		.loc 1 728 5 discriminator 1 view .LVU596
 726:Core/Src/main.c ****     while (1)
 2846              		.loc 1 726 11 discriminator 1 view .LVU597
 2847 0002 FEE7     		b	.L173
ARM GAS  C:\Users\30592\AppData\Local\Temp\cca1UH8z.s 			page 69


 2848              		.cfi_endproc
 2849              	.LFE83:
 2851              		.section	.text.SystemClock_Config,"ax",%progbits
 2852              		.align	1
 2853              		.global	SystemClock_Config
 2854              		.syntax unified
 2855              		.thumb
 2856              		.thumb_func
 2857              		.fpu softvfp
 2859              	SystemClock_Config:
 2860              	.LFB67:
 403:Core/Src/main.c ****     RCC_OscInitTypeDef RCC_OscInitStruct = {0};
 2861              		.loc 1 403 1 view -0
 2862              		.cfi_startproc
 2863              		@ args = 0, pretend = 0, frame = 64
 2864              		@ frame_needed = 0, uses_anonymous_args = 0
 2865 0000 00B5     		push	{lr}
 2866              	.LCFI23:
 2867              		.cfi_def_cfa_offset 4
 2868              		.cfi_offset 14, -4
 2869 0002 91B0     		sub	sp, sp, #68
 2870              	.LCFI24:
 2871              		.cfi_def_cfa_offset 72
 404:Core/Src/main.c ****     RCC_ClkInitTypeDef RCC_ClkInitStruct = {0};
 2872              		.loc 1 404 5 view .LVU599
 404:Core/Src/main.c ****     RCC_ClkInitTypeDef RCC_ClkInitStruct = {0};
 2873              		.loc 1 404 24 is_stmt 0 view .LVU600
 2874 0004 2822     		movs	r2, #40
 2875 0006 0021     		movs	r1, #0
 2876 0008 06A8     		add	r0, sp, #24
 2877 000a FFF7FEFF 		bl	memset
 2878              	.LVL327:
 405:Core/Src/main.c **** 
 2879              		.loc 1 405 5 is_stmt 1 view .LVU601
 405:Core/Src/main.c **** 
 2880              		.loc 1 405 24 is_stmt 0 view .LVU602
 2881 000e 0023     		movs	r3, #0
 2882 0010 0193     		str	r3, [sp, #4]
 2883 0012 0293     		str	r3, [sp, #8]
 2884 0014 0393     		str	r3, [sp, #12]
 2885 0016 0493     		str	r3, [sp, #16]
 2886 0018 0593     		str	r3, [sp, #20]
 410:Core/Src/main.c ****     RCC_OscInitStruct.HSEState = RCC_HSE_ON;
 2887              		.loc 1 410 5 is_stmt 1 view .LVU603
 410:Core/Src/main.c ****     RCC_OscInitStruct.HSEState = RCC_HSE_ON;
 2888              		.loc 1 410 38 is_stmt 0 view .LVU604
 2889 001a 0122     		movs	r2, #1
 2890 001c 0692     		str	r2, [sp, #24]
 411:Core/Src/main.c ****     RCC_OscInitStruct.HSEPredivValue = RCC_HSE_PREDIV_DIV1;
 2891              		.loc 1 411 5 is_stmt 1 view .LVU605
 411:Core/Src/main.c ****     RCC_OscInitStruct.HSEPredivValue = RCC_HSE_PREDIV_DIV1;
 2892              		.loc 1 411 32 is_stmt 0 view .LVU606
 2893 001e 4FF48033 		mov	r3, #65536
 2894 0022 0793     		str	r3, [sp, #28]
 412:Core/Src/main.c ****     RCC_OscInitStruct.HSIState = RCC_HSI_ON;
 2895              		.loc 1 412 5 is_stmt 1 view .LVU607
 413:Core/Src/main.c ****     RCC_OscInitStruct.PLL.PLLState = RCC_PLL_ON;
ARM GAS  C:\Users\30592\AppData\Local\Temp\cca1UH8z.s 			page 70


 2896              		.loc 1 413 5 view .LVU608
 413:Core/Src/main.c ****     RCC_OscInitStruct.PLL.PLLState = RCC_PLL_ON;
 2897              		.loc 1 413 32 is_stmt 0 view .LVU609
 2898 0024 0A92     		str	r2, [sp, #40]
 414:Core/Src/main.c ****     RCC_OscInitStruct.PLL.PLLSource = RCC_PLLSOURCE_HSE;
 2899              		.loc 1 414 5 is_stmt 1 view .LVU610
 414:Core/Src/main.c ****     RCC_OscInitStruct.PLL.PLLSource = RCC_PLLSOURCE_HSE;
 2900              		.loc 1 414 36 is_stmt 0 view .LVU611
 2901 0026 0222     		movs	r2, #2
 2902 0028 0D92     		str	r2, [sp, #52]
 415:Core/Src/main.c ****     RCC_OscInitStruct.PLL.PLLMUL = RCC_PLL_MUL9;
 2903              		.loc 1 415 5 is_stmt 1 view .LVU612
 415:Core/Src/main.c ****     RCC_OscInitStruct.PLL.PLLMUL = RCC_PLL_MUL9;
 2904              		.loc 1 415 37 is_stmt 0 view .LVU613
 2905 002a 0E93     		str	r3, [sp, #56]
 416:Core/Src/main.c ****     if (HAL_RCC_OscConfig(&RCC_OscInitStruct) != HAL_OK)
 2906              		.loc 1 416 5 is_stmt 1 view .LVU614
 416:Core/Src/main.c ****     if (HAL_RCC_OscConfig(&RCC_OscInitStruct) != HAL_OK)
 2907              		.loc 1 416 34 is_stmt 0 view .LVU615
 2908 002c 4FF4E013 		mov	r3, #1835008
 2909 0030 0F93     		str	r3, [sp, #60]
 417:Core/Src/main.c ****     {
 2910              		.loc 1 417 5 is_stmt 1 view .LVU616
 417:Core/Src/main.c ****     {
 2911              		.loc 1 417 9 is_stmt 0 view .LVU617
 2912 0032 06A8     		add	r0, sp, #24
 2913 0034 FFF7FEFF 		bl	HAL_RCC_OscConfig
 2914              	.LVL328:
 417:Core/Src/main.c ****     {
 2915              		.loc 1 417 8 view .LVU618
 2916 0038 80B9     		cbnz	r0, .L178
 423:Core/Src/main.c ****     RCC_ClkInitStruct.SYSCLKSource = RCC_SYSCLKSOURCE_PLLCLK;
 2917              		.loc 1 423 5 is_stmt 1 view .LVU619
 423:Core/Src/main.c ****     RCC_ClkInitStruct.SYSCLKSource = RCC_SYSCLKSOURCE_PLLCLK;
 2918              		.loc 1 423 33 is_stmt 0 view .LVU620
 2919 003a 0F23     		movs	r3, #15
 2920 003c 0193     		str	r3, [sp, #4]
 424:Core/Src/main.c ****     RCC_ClkInitStruct.AHBCLKDivider = RCC_SYSCLK_DIV1;
 2921              		.loc 1 424 5 is_stmt 1 view .LVU621
 424:Core/Src/main.c ****     RCC_ClkInitStruct.AHBCLKDivider = RCC_SYSCLK_DIV1;
 2922              		.loc 1 424 36 is_stmt 0 view .LVU622
 2923 003e 0221     		movs	r1, #2
 2924 0040 0291     		str	r1, [sp, #8]
 425:Core/Src/main.c ****     RCC_ClkInitStruct.APB1CLKDivider = RCC_HCLK_DIV2;
 2925              		.loc 1 425 5 is_stmt 1 view .LVU623
 425:Core/Src/main.c ****     RCC_ClkInitStruct.APB1CLKDivider = RCC_HCLK_DIV2;
 2926              		.loc 1 425 37 is_stmt 0 view .LVU624
 2927 0042 0023     		movs	r3, #0
 2928 0044 0393     		str	r3, [sp, #12]
 426:Core/Src/main.c ****     RCC_ClkInitStruct.APB2CLKDivider = RCC_HCLK_DIV1;
 2929              		.loc 1 426 5 is_stmt 1 view .LVU625
 426:Core/Src/main.c ****     RCC_ClkInitStruct.APB2CLKDivider = RCC_HCLK_DIV1;
 2930              		.loc 1 426 38 is_stmt 0 view .LVU626
 2931 0046 4FF48062 		mov	r2, #1024
 2932 004a 0492     		str	r2, [sp, #16]
 427:Core/Src/main.c **** 
 2933              		.loc 1 427 5 is_stmt 1 view .LVU627
ARM GAS  C:\Users\30592\AppData\Local\Temp\cca1UH8z.s 			page 71


 427:Core/Src/main.c **** 
 2934              		.loc 1 427 38 is_stmt 0 view .LVU628
 2935 004c 0593     		str	r3, [sp, #20]
 429:Core/Src/main.c ****     {
 2936              		.loc 1 429 5 is_stmt 1 view .LVU629
 429:Core/Src/main.c ****     {
 2937              		.loc 1 429 9 is_stmt 0 view .LVU630
 2938 004e 01A8     		add	r0, sp, #4
 2939 0050 FFF7FEFF 		bl	HAL_RCC_ClockConfig
 2940              	.LVL329:
 429:Core/Src/main.c ****     {
 2941              		.loc 1 429 8 view .LVU631
 2942 0054 20B9     		cbnz	r0, .L179
 433:Core/Src/main.c **** 
 2943              		.loc 1 433 1 view .LVU632
 2944 0056 11B0     		add	sp, sp, #68
 2945              	.LCFI25:
 2946              		.cfi_remember_state
 2947              		.cfi_def_cfa_offset 4
 2948              		@ sp needed
 2949 0058 5DF804FB 		ldr	pc, [sp], #4
 2950              	.L178:
 2951              	.LCFI26:
 2952              		.cfi_restore_state
 419:Core/Src/main.c ****     }
 2953              		.loc 1 419 9 is_stmt 1 view .LVU633
 2954 005c FFF7FEFF 		bl	Error_Handler
 2955              	.LVL330:
 2956              	.L179:
 431:Core/Src/main.c ****     }
 2957              		.loc 1 431 9 view .LVU634
 2958 0060 FFF7FEFF 		bl	Error_Handler
 2959              	.LVL331:
 2960              		.cfi_endproc
 2961              	.LFE67:
 2963              		.section	.text.main,"ax",%progbits
 2964              		.align	1
 2965              		.global	main
 2966              		.syntax unified
 2967              		.thumb
 2968              		.thumb_func
 2969              		.fpu softvfp
 2971              	main:
 2972              	.LFB66:
 319:Core/Src/main.c ****     /* USER CODE BEGIN 1 */
 2973              		.loc 1 319 1 view -0
 2974              		.cfi_startproc
 2975              		@ Volatile: function does not return.
 2976              		@ args = 0, pretend = 0, frame = 0
 2977              		@ frame_needed = 0, uses_anonymous_args = 0
 2978 0000 08B5     		push	{r3, lr}
 2979              	.LCFI27:
 2980              		.cfi_def_cfa_offset 8
 2981              		.cfi_offset 3, -8
 2982              		.cfi_offset 14, -4
 326:Core/Src/main.c **** 
 2983              		.loc 1 326 5 view .LVU636
ARM GAS  C:\Users\30592\AppData\Local\Temp\cca1UH8z.s 			page 72


 2984 0002 FFF7FEFF 		bl	HAL_Init
 2985              	.LVL332:
 329:Core/Src/main.c ****     SetBaud(115200);
 2986              		.loc 1 329 5 view .LVU637
 2987 0006 4D4D     		ldr	r5, .L184
 2988 0008 2846     		mov	r0, r5
 2989 000a FFF7FEFF 		bl	jy62_Init
 2990              	.LVL333:
 330:Core/Src/main.c ****     SetHorizontal();
 2991              		.loc 1 330 5 view .LVU638
 2992 000e 4FF4E130 		mov	r0, #115200
 2993 0012 FFF7FEFF 		bl	SetBaud
 2994              	.LVL334:
 331:Core/Src/main.c ****     InitAngle();
 2995              		.loc 1 331 5 view .LVU639
 2996 0016 FFF7FEFF 		bl	SetHorizontal
 2997              	.LVL335:
 332:Core/Src/main.c ****     Calibrate();
 2998              		.loc 1 332 5 view .LVU640
 2999 001a FFF7FEFF 		bl	InitAngle
 3000              	.LVL336:
 333:Core/Src/main.c ****     SleepOrAwake();
 3001              		.loc 1 333 5 view .LVU641
 3002 001e FFF7FEFF 		bl	Calibrate
 3003              	.LVL337:
 334:Core/Src/main.c ****     /* USER CODE END Init */
 3004              		.loc 1 334 5 view .LVU642
 3005 0022 FFF7FEFF 		bl	SleepOrAwake
 3006              	.LVL338:
 338:Core/Src/main.c **** 
 3007              		.loc 1 338 5 view .LVU643
 3008 0026 FFF7FEFF 		bl	SystemClock_Config
 3009              	.LVL339:
 345:Core/Src/main.c ****     MX_TIM1_Init();
 3010              		.loc 1 345 5 view .LVU644
 3011 002a FFF7FEFF 		bl	MX_GPIO_Init
 3012              	.LVL340:
 346:Core/Src/main.c ****     MX_TIM2_Init();
 3013              		.loc 1 346 5 view .LVU645
 3014 002e FFF7FEFF 		bl	MX_TIM1_Init
 3015              	.LVL341:
 347:Core/Src/main.c ****     MX_TIM8_Init();
 3016              		.loc 1 347 5 view .LVU646
 3017 0032 FFF7FEFF 		bl	MX_TIM2_Init
 3018              	.LVL342:
 348:Core/Src/main.c ****     MX_TIM3_Init();
 3019              		.loc 1 348 5 view .LVU647
 3020 0036 FFF7FEFF 		bl	MX_TIM8_Init
 3021              	.LVL343:
 349:Core/Src/main.c ****     MX_TIM4_Init();
 3022              		.loc 1 349 5 view .LVU648
 3023 003a FFF7FEFF 		bl	MX_TIM3_Init
 3024              	.LVL344:
 350:Core/Src/main.c ****     MX_DMA_Init();
 3025              		.loc 1 350 5 view .LVU649
 3026 003e FFF7FEFF 		bl	MX_TIM4_Init
 3027              	.LVL345:
ARM GAS  C:\Users\30592\AppData\Local\Temp\cca1UH8z.s 			page 73


 351:Core/Src/main.c ****     MX_USART2_UART_Init();
 3028              		.loc 1 351 5 view .LVU650
 3029 0042 FFF7FEFF 		bl	MX_DMA_Init
 3030              	.LVL346:
 352:Core/Src/main.c ****     MX_USART1_UART_Init();
 3031              		.loc 1 352 5 view .LVU651
 3032 0046 FFF7FEFF 		bl	MX_USART2_UART_Init
 3033              	.LVL347:
 353:Core/Src/main.c ****     MX_TIM5_Init();
 3034              		.loc 1 353 5 view .LVU652
 3035 004a FFF7FEFF 		bl	MX_USART1_UART_Init
 3036              	.LVL348:
 354:Core/Src/main.c ****     /* USER CODE BEGIN 2 */
 3037              		.loc 1 354 5 view .LVU653
 3038 004e FFF7FEFF 		bl	MX_TIM5_Init
 3039              	.LVL349:
 356:Core/Src/main.c ****     HAL_TIM_Base_Start_IT(&htim1);
 3040              		.loc 1 356 5 view .LVU654
 3041 0052 3B48     		ldr	r0, .L184+4
 3042 0054 FFF7FEFF 		bl	zigbee_Init
 3043              	.LVL350:
 357:Core/Src/main.c ****     HAL_TIM_PWM_Start(&htim8, TIM_CHANNEL_1);
 3044              		.loc 1 357 5 view .LVU655
 3045 0058 3A48     		ldr	r0, .L184+8
 3046 005a FFF7FEFF 		bl	HAL_TIM_Base_Start_IT
 3047              	.LVL351:
 358:Core/Src/main.c ****     HAL_TIM_PWM_Start(&htim8, TIM_CHANNEL_2);
 3048              		.loc 1 358 5 view .LVU656
 3049 005e 3A4C     		ldr	r4, .L184+12
 3050 0060 0021     		movs	r1, #0
 3051 0062 2046     		mov	r0, r4
 3052 0064 FFF7FEFF 		bl	HAL_TIM_PWM_Start
 3053              	.LVL352:
 359:Core/Src/main.c ****     HAL_TIM_PWM_Start(&htim8, TIM_CHANNEL_3);
 3054              		.loc 1 359 5 view .LVU657
 3055 0068 0421     		movs	r1, #4
 3056 006a 2046     		mov	r0, r4
 3057 006c FFF7FEFF 		bl	HAL_TIM_PWM_Start
 3058              	.LVL353:
 360:Core/Src/main.c ****     HAL_TIM_PWM_Start(&htim8, TIM_CHANNEL_4);
 3059              		.loc 1 360 5 view .LVU658
 3060 0070 0821     		movs	r1, #8
 3061 0072 2046     		mov	r0, r4
 3062 0074 FFF7FEFF 		bl	HAL_TIM_PWM_Start
 3063              	.LVL354:
 361:Core/Src/main.c ****     HAL_TIM_Encoder_Start(&htim2, TIM_CHANNEL_1);
 3064              		.loc 1 361 5 view .LVU659
 3065 0078 0C21     		movs	r1, #12
 3066 007a 2046     		mov	r0, r4
 3067 007c FFF7FEFF 		bl	HAL_TIM_PWM_Start
 3068              	.LVL355:
 362:Core/Src/main.c ****     HAL_TIM_Encoder_Start(&htim2, TIM_CHANNEL_2);
 3069              		.loc 1 362 5 view .LVU660
 3070 0080 324C     		ldr	r4, .L184+16
 3071 0082 0021     		movs	r1, #0
 3072 0084 2046     		mov	r0, r4
 3073 0086 FFF7FEFF 		bl	HAL_TIM_Encoder_Start
ARM GAS  C:\Users\30592\AppData\Local\Temp\cca1UH8z.s 			page 74


 3074              	.LVL356:
 363:Core/Src/main.c ****     HAL_TIM_Encoder_Start(&htim3, TIM_CHANNEL_1);
 3075              		.loc 1 363 5 view .LVU661
 3076 008a 0421     		movs	r1, #4
 3077 008c 2046     		mov	r0, r4
 3078 008e FFF7FEFF 		bl	HAL_TIM_Encoder_Start
 3079              	.LVL357:
 364:Core/Src/main.c ****     HAL_TIM_Encoder_Start(&htim3, TIM_CHANNEL_2);
 3080              		.loc 1 364 5 view .LVU662
 3081 0092 2F4C     		ldr	r4, .L184+20
 3082 0094 0021     		movs	r1, #0
 3083 0096 2046     		mov	r0, r4
 3084 0098 FFF7FEFF 		bl	HAL_TIM_Encoder_Start
 3085              	.LVL358:
 365:Core/Src/main.c ****     HAL_TIM_Encoder_Start(&htim4, TIM_CHANNEL_1);
 3086              		.loc 1 365 5 view .LVU663
 3087 009c 0421     		movs	r1, #4
 3088 009e 2046     		mov	r0, r4
 3089 00a0 FFF7FEFF 		bl	HAL_TIM_Encoder_Start
 3090              	.LVL359:
 366:Core/Src/main.c ****     HAL_TIM_Encoder_Start(&htim4, TIM_CHANNEL_2);
 3091              		.loc 1 366 5 view .LVU664
 3092 00a4 2B4C     		ldr	r4, .L184+24
 3093 00a6 0021     		movs	r1, #0
 3094 00a8 2046     		mov	r0, r4
 3095 00aa FFF7FEFF 		bl	HAL_TIM_Encoder_Start
 3096              	.LVL360:
 367:Core/Src/main.c ****     HAL_TIM_Encoder_Start(&htim5, TIM_CHANNEL_1);
 3097              		.loc 1 367 5 view .LVU665
 3098 00ae 0421     		movs	r1, #4
 3099 00b0 2046     		mov	r0, r4
 3100 00b2 FFF7FEFF 		bl	HAL_TIM_Encoder_Start
 3101              	.LVL361:
 368:Core/Src/main.c ****     HAL_TIM_Encoder_Start(&htim5, TIM_CHANNEL_2);
 3102              		.loc 1 368 5 view .LVU666
 3103 00b6 284C     		ldr	r4, .L184+28
 3104 00b8 0021     		movs	r1, #0
 3105 00ba 2046     		mov	r0, r4
 3106 00bc FFF7FEFF 		bl	HAL_TIM_Encoder_Start
 3107              	.LVL362:
 369:Core/Src/main.c ****     jy62_Init(&huart2);
 3108              		.loc 1 369 5 view .LVU667
 3109 00c0 0421     		movs	r1, #4
 3110 00c2 2046     		mov	r0, r4
 3111 00c4 FFF7FEFF 		bl	HAL_TIM_Encoder_Start
 3112              	.LVL363:
 370:Core/Src/main.c ****     void jy62_Init(UART_HandleTypeDef * huart);
 3113              		.loc 1 370 5 view .LVU668
 3114 00c8 2846     		mov	r0, r5
 3115 00ca FFF7FEFF 		bl	jy62_Init
 3116              	.LVL364:
 371:Core/Src/main.c **** 
 3117              		.loc 1 371 5 view .LVU669
 373:Core/Src/main.c ****     HAL_GPIO_WritePin(GPIOB, GPIO_PIN_1, GPIO_PIN_RESET);
 3118              		.loc 1 373 5 view .LVU670
 3119 00ce 234C     		ldr	r4, .L184+32
 3120 00d0 0122     		movs	r2, #1
ARM GAS  C:\Users\30592\AppData\Local\Temp\cca1UH8z.s 			page 75


 3121 00d2 1146     		mov	r1, r2
 3122 00d4 2046     		mov	r0, r4
 3123 00d6 FFF7FEFF 		bl	HAL_GPIO_WritePin
 3124              	.LVL365:
 374:Core/Src/main.c ****     HAL_GPIO_WritePin(GPIOB, GPIO_PIN_2, GPIO_PIN_RESET);
 3125              		.loc 1 374 5 view .LVU671
 3126 00da 0022     		movs	r2, #0
 3127 00dc 0221     		movs	r1, #2
 3128 00de 2046     		mov	r0, r4
 3129 00e0 FFF7FEFF 		bl	HAL_GPIO_WritePin
 3130              	.LVL366:
 375:Core/Src/main.c ****     HAL_GPIO_WritePin(GPIOB, GPIO_PIN_10, GPIO_PIN_SET);
 3131              		.loc 1 375 5 view .LVU672
 3132 00e4 0022     		movs	r2, #0
 3133 00e6 0421     		movs	r1, #4
 3134 00e8 2046     		mov	r0, r4
 3135 00ea FFF7FEFF 		bl	HAL_GPIO_WritePin
 3136              	.LVL367:
 376:Core/Src/main.c ****     HAL_GPIO_WritePin(GPIOB, GPIO_PIN_11, GPIO_PIN_SET);
 3137              		.loc 1 376 5 view .LVU673
 3138 00ee 0122     		movs	r2, #1
 3139 00f0 4FF48061 		mov	r1, #1024
 3140 00f4 2046     		mov	r0, r4
 3141 00f6 FFF7FEFF 		bl	HAL_GPIO_WritePin
 3142              	.LVL368:
 377:Core/Src/main.c ****     HAL_GPIO_WritePin(GPIOB, GPIO_PIN_12, GPIO_PIN_RESET);
 3143              		.loc 1 377 5 view .LVU674
 3144 00fa 0122     		movs	r2, #1
 3145 00fc 4FF40061 		mov	r1, #2048
 3146 0100 2046     		mov	r0, r4
 3147 0102 FFF7FEFF 		bl	HAL_GPIO_WritePin
 3148              	.LVL369:
 378:Core/Src/main.c ****     HAL_GPIO_WritePin(GPIOB, GPIO_PIN_13, GPIO_PIN_RESET);
 3149              		.loc 1 378 5 view .LVU675
 3150 0106 0022     		movs	r2, #0
 3151 0108 4FF48051 		mov	r1, #4096
 3152 010c 2046     		mov	r0, r4
 3153 010e FFF7FEFF 		bl	HAL_GPIO_WritePin
 3154              	.LVL370:
 379:Core/Src/main.c ****     HAL_GPIO_WritePin(GPIOB, GPIO_PIN_14, GPIO_PIN_SET);
 3155              		.loc 1 379 5 view .LVU676
 3156 0112 0022     		movs	r2, #0
 3157 0114 4FF40051 		mov	r1, #8192
 3158 0118 2046     		mov	r0, r4
 3159 011a FFF7FEFF 		bl	HAL_GPIO_WritePin
 3160              	.LVL371:
 380:Core/Src/main.c ****     /* USER CODE END 2 */
 3161              		.loc 1 380 5 view .LVU677
 3162 011e 0122     		movs	r2, #1
 3163 0120 4FF48041 		mov	r1, #16384
 3164 0124 2046     		mov	r0, r4
 3165 0126 FFF7FEFF 		bl	HAL_GPIO_WritePin
 3166              	.LVL372:
 3167              	.L181:
 385:Core/Src/main.c ****     {
 3168              		.loc 1 385 5 view .LVU678
 390:Core/Src/main.c ****         {
ARM GAS  C:\Users\30592\AppData\Local\Temp\cca1UH8z.s 			page 76


 3169              		.loc 1 390 9 view .LVU679
 390:Core/Src/main.c ****         {
 3170              		.loc 1 390 13 is_stmt 0 view .LVU680
 3171 012a FFF7FEFF 		bl	getGameState
 3172              	.LVL373:
 390:Core/Src/main.c ****         {
 3173              		.loc 1 390 12 view .LVU681
 3174 012e 0128     		cmp	r0, #1
 3175 0130 FBD1     		bne	.L181
 392:Core/Src/main.c ****         }
 3176              		.loc 1 392 13 is_stmt 1 view .LVU682
 392:Core/Src/main.c ****         }
 3177              		.loc 1 392 19 is_stmt 0 view .LVU683
 3178 0132 0B4B     		ldr	r3, .L184+36
 3179 0134 0022     		movs	r2, #0
 3180 0136 1A60     		str	r2, [r3]
 3181 0138 F7E7     		b	.L181
 3182              	.L185:
 3183 013a 00BF     		.align	2
 3184              	.L184:
 3185 013c 00000000 		.word	huart2
 3186 0140 00000000 		.word	huart1
 3187 0144 00000000 		.word	htim1
 3188 0148 00000000 		.word	htim8
 3189 014c 00000000 		.word	htim2
 3190 0150 00000000 		.word	htim3
 3191 0154 00000000 		.word	htim4
 3192 0158 00000000 		.word	htim5
 3193 015c 000C0140 		.word	1073810432
 3194 0160 00000000 		.word	.LANCHOR5
 3195              		.cfi_endproc
 3196              	.LFE66:
 3198              		.global	state
 3199              		.global	Kd
 3200              		.global	Ki
 3201              		.global	Kp
 3202              		.global	ATAN_LUT
 3203              		.global	State
 3204              		.global	rep
 3205              		.global	now
 3206              		.global	count_beacon
 3207              		.global	score
 3208              		.global	resource_location
 3209              		.global	Prev_Pos_head
 3210              		.global	Prev_Pos
 3211              		.global	beacon_determinant
 3212              		.global	car_Pos
 3213              		.global	beacon_Pos
 3214              		.global	car_y
 3215              		.global	car_x
 3216              		.global	obj_y
 3217              		.global	obj_x
 3218              		.global	dis_obj
 3219              		.global	angle_obj
 3220              		.global	distance4
 3221              		.global	distance3
 3222              		.global	distance2
ARM GAS  C:\Users\30592\AppData\Local\Temp\cca1UH8z.s 			page 77


 3223              		.global	distance1
 3224              		.global	count_to_ten
 3225              		.global	set_speed
 3226              		.section	.bss.Prev_Pos,"aw",%nobits
 3227              		.align	2
 3228              		.set	.LANCHOR6,. + 0
 3231              	Prev_Pos:
 3232 0000 00000000 		.space	36
 3232      00000000 
 3232      00000000 
 3232      00000000 
 3232      00000000 
 3233              		.section	.bss.Prev_Pos_head,"aw",%nobits
 3234              		.align	1
 3235              		.set	.LANCHOR8,. + 0
 3238              	Prev_Pos_head:
 3239 0000 0000     		.space	2
 3240              		.section	.bss.angle_obj,"aw",%nobits
 3241              		.align	2
 3244              	angle_obj:
 3245 0000 00000000 		.space	4
 3246              		.section	.bss.beacon_Pos,"aw",%nobits
 3247              		.align	2
 3248              		.set	.LANCHOR2,. + 0
 3251              	beacon_Pos:
 3252 0000 00000000 		.space	24
 3252      00000000 
 3252      00000000 
 3252      00000000 
 3252      00000000 
 3253              		.section	.bss.beacon_determinant,"aw",%nobits
 3254              		.align	3
 3255              		.set	.LANCHOR3,. + 0
 3258              	beacon_determinant:
 3259 0000 00000000 		.space	8
 3259      00000000 
 3260              		.section	.bss.car_Pos,"aw",%nobits
 3261              		.align	2
 3262              		.set	.LANCHOR4,. + 0
 3265              	car_Pos:
 3266 0000 00000000 		.space	8
 3266      00000000 
 3267              		.section	.bss.car_x,"aw",%nobits
 3268              		.align	2
 3271              	car_x:
 3272 0000 00000000 		.space	4
 3273              		.section	.bss.car_y,"aw",%nobits
 3274              		.align	2
 3277              	car_y:
 3278 0000 00000000 		.space	4
 3279              		.section	.bss.count_beacon,"aw",%nobits
 3280              		.align	2
 3281              		.set	.LANCHOR10,. + 0
 3284              	count_beacon:
 3285 0000 00000000 		.space	4
 3286              		.section	.bss.count_to_ten,"aw",%nobits
 3287              		.align	2
ARM GAS  C:\Users\30592\AppData\Local\Temp\cca1UH8z.s 			page 78


 3290              	count_to_ten:
 3291 0000 00000000 		.space	4
 3292              		.section	.bss.dis_obj,"aw",%nobits
 3293              		.align	2
 3296              	dis_obj:
 3297 0000 00000000 		.space	4
 3298              		.section	.bss.distance1,"aw",%nobits
 3299              		.align	2
 3302              	distance1:
 3303 0000 00000000 		.space	4
 3304              		.section	.bss.distance2,"aw",%nobits
 3305              		.align	2
 3308              	distance2:
 3309 0000 00000000 		.space	4
 3310              		.section	.bss.distance3,"aw",%nobits
 3311              		.align	2
 3314              	distance3:
 3315 0000 00000000 		.space	4
 3316              		.section	.bss.distance4,"aw",%nobits
 3317              		.align	2
 3320              	distance4:
 3321 0000 00000000 		.space	4
 3322              		.section	.bss.now,"aw",%nobits
 3323              		.align	1
 3326              	now:
 3327 0000 0000     		.space	2
 3328              		.section	.bss.obj_x,"aw",%nobits
 3329              		.align	2
 3332              	obj_x:
 3333 0000 00000000 		.space	4
 3334              		.section	.bss.obj_y,"aw",%nobits
 3335              		.align	2
 3338              	obj_y:
 3339 0000 00000000 		.space	4
 3340              		.section	.bss.score,"aw",%nobits
 3341              		.align	2
 3342              		.set	.LANCHOR9,. + 0
 3345              	score:
 3346 0000 00000000 		.space	4
 3347              		.section	.bss.state,"aw",%nobits
 3348              		.align	2
 3349              		.set	.LANCHOR0,. + 0
 3352              	state:
 3353 0000 00000000 		.space	12
 3353      00000000 
 3353      00000000 
 3354              		.section	.data.State,"aw"
 3355              		.align	2
 3356              		.set	.LANCHOR5,. + 0
 3359              	State:
 3360 0000 FFFFFFFF 		.word	-1
 3361              		.section	.data.rep,"aw"
 3362              		.align	2
 3363              		.set	.LANCHOR11,. + 0
 3366              	rep:
 3367 0000 0F000000 		.word	15
 3368 0004 0F000000 		.word	15
ARM GAS  C:\Users\30592\AppData\Local\Temp\cca1UH8z.s 			page 79


 3369 0008 7F000000 		.word	127
 3370 000c 0F000000 		.word	15
 3371 0010 EF000000 		.word	239
 3372 0014 7F000000 		.word	127
 3373 0018 EF000000 		.word	239
 3374 001c EF000000 		.word	239
 3375 0020 7F000000 		.word	127
 3376 0024 EF000000 		.word	239
 3377 0028 0F000000 		.word	15
 3378 002c EF000000 		.word	239
 3379 0030 0F000000 		.word	15
 3380 0034 7F000000 		.word	127
 3381 0038 00000000 		.space	8
 3381      00000000 
 3382              		.section	.data.resource_location,"aw"
 3383              		.align	2
 3384              		.set	.LANCHOR7,. + 0
 3387              	resource_location:
 3388 0000 FFFFFFFF 		.word	-1
 3389 0004 FFFFFFFF 		.word	-1
 3390 0008 FFFFFFFF 		.word	-1
 3391 000c FFFFFFFF 		.word	-1
 3392 0010 00000000 		.word	0
 3393 0014 FFFFFFFF 		.word	-1
 3394              		.section	.data.set_speed,"aw"
 3395              		.align	2
 3398              	set_speed:
 3399 0000 00002041 		.word	1092616192
 3400              		.section	.rodata.ATAN_LUT,"a"
 3401              		.align	3
 3402              		.set	.LANCHOR1,. + 0
 3405              	ATAN_LUT:
 3406 0000 00000000 		.word	0
 3407 0004 00000000 		.word	0
 3408 0008 5433EAA8 		.word	-1461046444
 3409 000c 0A10703F 		.word	1064308746
 3410 0010 CC612179 		.word	2032230860
 3411 0014 FA0F803F 		.word	1065357306
 3412 0018 DF063C3E 		.word	1044121311
 3413 001c CF17883F 		.word	1065883599
 3414 0020 AAE9B5BB 		.word	-1145706070
 3415 0024 B90F903F 		.word	1066405817
 3416 0028 D1C82B7C 		.word	2083244241
 3417 002c 6B13943F 		.word	1066668907
 3418 0030 1E0653CA 		.word	-900528610
 3419 0034 F416983F 		.word	1066931956
 3420 0038 C2702695 		.word	-1792642878
 3421 003c 4D1A9C3F 		.word	1067194957
 3422 0040 F752ACE6 		.word	-424914185
 3423 0044 B60EA03F 		.word	1067454134
 3424 0048 6808AAB2 		.word	-1297479576
 3425 004c 2610A23F 		.word	1067585574
 3426 0050 4A759D28 		.word	681407818
 3427 0054 7211A43F 		.word	1067716978
 3428 0058 2D520746 		.word	1174884909
 3429 005c 9512A63F 		.word	1067848341
 3430 0060 A3576808 		.word	141055907
ARM GAS  C:\Users\30592\AppData\Local\Temp\cca1UH8z.s 			page 80


 3431 0064 8C13A83F 		.word	1067979660
 3432 0068 36C18C71 		.word	1905049910
 3433 006c 5214AA3F 		.word	1068110930
 3434 0070 73E36482 		.word	-2107317389
 3435 0074 E414AC3F 		.word	1068242148
 3436 0078 DE63E441 		.word	1105486814
 3437 007c 3E15AE3F 		.word	1068373310
 3438 0080 FD737FDB 		.word	-612404227
 3439 0084 AD0AB03F 		.word	1068501677
 3440 0088 22CC7976 		.word	1987693602
 3441 008c 9C0AB13F 		.word	1068567196
 3442 0090 9DB55CF8 		.word	-128141923
 3443 0094 680AB23F 		.word	1068632680
 3444 0098 286DC969 		.word	1774808360
 3445 009c 110AB33F 		.word	1068698129
 3446 00a0 FC09ABD4 		.word	-726988292
 3447 00a4 9309B43F 		.word	1068763539
 3448 00a8 4E588045 		.word	1166039118
 3449 00ac EE08B53F 		.word	1068828910
 3450 00b0 D41736C9 		.word	-919201836
 3451 00b4 1E08B63F 		.word	1068894238
 3452 00b8 BDB0BA6F 		.word	1874505917
 3453 00bc 2307B73F 		.word	1068959523
 3454 00c0 B84C224B 		.word	1260539064
 3455 00c4 FA05B83F 		.word	1069024762
 3456 00c8 6FE3386F 		.word	1865999215
 3457 00cc A104B93F 		.word	1069089953
 3458 00d0 0D4714F1 		.word	-250329331
 3459 00d4 1603BA3F 		.word	1069155094
 3460 00d8 B5CC15EA 		.word	-367670091
 3461 00dc 5801BB3F 		.word	1069220184
 3462 00e0 88B07A74 		.word	1954197640
 3463 00e4 65FFBB3F 		.word	1069285221
 3464 00e8 A6E313AD 		.word	-1391205466
 3465 00ec 3AFDBC3F 		.word	1069350202
 3466 00f0 29F321B4 		.word	-1272843479
 3467 00f4 D6FABD3F 		.word	1069415126
 3468 00f8 A9462FAB 		.word	-1422965079
 3469 00fc 37F8BE3F 		.word	1069479991
 3470 0100 1832D5CE 		.word	-824888808
 3471 0104 5BF5BF3F 		.word	1069544795
 3472 0108 34B81880 		.word	-2145863628
 3473 010c 2079C03F 		.word	1069578528
 3474 0110 22B021D8 		.word	-668880862
 3475 0114 72F7C03F 		.word	1069610866
 3476 0118 695D7EFA 		.word	-92381847
 3477 011c A375C13F 		.word	1069643171
 3478 0120 4C1F41FF 		.word	-12509364
 3479 0124 B2F3C13F 		.word	1069675442
 3480 0128 CA1C6B00 		.word	7019722
 3481 012c 9F71C23F 		.word	1069707679
 3482 0130 216AA218 		.word	413297185
 3483 0134 67EFC23F 		.word	1069739879
 3484 0138 4CCA5765 		.word	1700252236
 3485 013c 0A6DC33F 		.word	1069772042
 3486 0140 43E7D704 		.word	81258307
 3487 0144 88EAC33F 		.word	1069804168
ARM GAS  C:\Users\30592\AppData\Local\Temp\cca1UH8z.s 			page 81


 3488 0148 3F3FF016 		.word	384843583
 3489 014c DF67C43F 		.word	1069836255
 3490 0150 730502BE 		.word	-1107163789
 3491 0154 0EE5C43F 		.word	1069868302
 3492 0158 525A131D 		.word	487807570
 3493 015c 1662C53F 		.word	1069900310
 3494 0160 4A13BE59 		.word	1505629002
 3495 0164 F4DEC53F 		.word	1069932276
 3496 0168 09DA1C9B 		.word	-1692607991
 3497 016c A85BC63F 		.word	1069964200
 3498 0170 3A26020A 		.word	167913018
 3499 0174 32D8C63F 		.word	1069996082
 3500 0178 843DF8D0 		.word	-789037692
 3501 017c 8F54C73F 		.word	1070027919
 3502 0180 CE20E61C 		.word	484843726
 3503 0184 C1D0C73F 		.word	1070059713
 3504 0188 F99E6A1C 		.word	476749561
 3505 018c C54CC83F 		.word	1070091461
 3506 0190 275BA5FF 		.word	-5940441
 3507 0194 9AC8C83F 		.word	1070123162
 3508 0198 F4B9DBF8 		.word	-119817740
 3509 019c 4144C93F 		.word	1070154817
 3510 01a0 FBD4E63C 		.word	1021760763
 3511 01a4 B9BFC93F 		.word	1070186425
 3512 01a8 53A0E901 		.word	32088147
 3513 01ac 003BCA3F 		.word	1070217984
 3514 01b0 93D12C80 		.word	-2144546413
 3515 01b4 15B6CA3F 		.word	1070249493
 3516 01b8 8DD955F2 		.word	-229254771
 3517 01bc F830CB3F 		.word	1070280952
 3518 01c0 0EF7C194 		.word	-1799227634
 3519 01c4 A9ABCB3F 		.word	1070312361
 3520 01c8 662AF4A5 		.word	-1510725018
 3521 01cc 2626CC3F 		.word	1070343718
 3522 01d0 DB280367 		.word	1728260315
 3523 01d4 6FA0CC3F 		.word	1070375023
 3524 01d8 36824F1A 		.word	441418294
 3525 01dc 831ACD3F 		.word	1070406275
 3526 01e0 FA740405 		.word	84178170
 3527 01e4 6194CD3F 		.word	1070437473
 3528 01e8 68073C6E 		.word	1849427816
 3529 01ec 080ECE3F 		.word	1070468616
 3530 01f0 BCF4A39F 		.word	-1616644932
 3531 01f4 7887CE3F 		.word	1070499704
 3532 01f8 B3D233E4 		.word	-466365773
 3533 01fc B000CF3F 		.word	1070530736
 3534 0200 42D91B8A 		.word	-1977886398
 3535 0204 B079CF3F 		.word	1070561712
 3536 0208 9E140DE1 		.word	-519236450
 3537 020c 76F2CF3F 		.word	1070592630
 3538 0210 DD9FC19D 		.word	-1648255011
 3539 0214 8135D03F 		.word	1070609793
 3540 0218 A06EF476 		.word	1995730592
 3541 021c AA71D03F 		.word	1070625194
 3542 0220 B01867A7 		.word	-1486415696
 3543 0224 B5ADD03F 		.word	1070640565
 3544 0228 7F17C7DB 		.word	-607709313
ARM GAS  C:\Users\30592\AppData\Local\Temp\cca1UH8z.s 			page 82


 3545 022c A2E9D03F 		.word	1070655906
 3546 0230 81CB9DC1 		.word	-1046623359
 3547 0234 7125D13F 		.word	1070671217
 3548 0238 85ECD907 		.word	131722373
 3549 023c 2261D13F 		.word	1070686498
 3550 0240 5A19465E 		.word	1581652314
 3551 0244 B39CD13F 		.word	1070701747
 3552 0248 0FC52D76 		.word	1982711055
 3553 024c 25D8D13F 		.word	1070716965
 3554 0250 6F43EF01 		.word	32457583
 3555 0254 7813D23F 		.word	1070732152
 3556 0258 45CFC4B4 		.word	-1262170299
 3557 025c AA4ED23F 		.word	1070747306
 3558 0260 78F48443 		.word	1132786808
 3559 0264 BD89D23F 		.word	1070762429
 3560 0268 D0A2FD63 		.word	1677566672
 3561 026c AFC4D23F 		.word	1070777519
 3562 0270 D2AA0FCD 		.word	-854611246
 3563 0274 80FFD23F 		.word	1070792576
 3564 0278 63340137 		.word	922825827
 3565 027c 313AD33F 		.word	1070807601
 3566 0280 43CB0F5B 		.word	1527761731
 3567 0284 C074D33F 		.word	1070822592
 3568 0288 74CFF9F3 		.word	-201732236
 3569 028c 2DAFD33F 		.word	1070837549
 3570 0290 F48759BD 		.word	-1118205964
 3571 0294 79E9D33F 		.word	1070852473
 3572 0298 2E5F21AF 		.word	-1356767442
 3573 029c A323D43F 		.word	1070867363
 3574 02a0 74F938D6 		.word	-700909196
 3575 02a4 AA5DD43F 		.word	1070882218
 3576 02a8 2A8B27A3 		.word	-1557689558
 3577 02ac 8F97D43F 		.word	1070897039
 3578 02b0 BA054E9B 		.word	-1689385542
 3579 02b4 51D1D43F 		.word	1070911825
 3580 02b8 1A014A80 		.word	-2142633702
 3581 02bc F00AD53F 		.word	1070926576
 3582 02c0 BFEF0215 		.word	352513983
 3583 02c4 6C44D53F 		.word	1070941292
 3584 02c8 DD24731D 		.word	494085341
 3585 02cc C47DD53F 		.word	1070955972
 3586 02d0 4551C35E 		.word	1589858629
 3587 02d4 F8B6D53F 		.word	1070970616
 3588 02d8 68834A9F 		.word	-1622506648
 3589 02dc 08F0D53F 		.word	1070985224
 3590 02e0 1321C5A6 		.word	-1497030381
 3591 02e4 F428D63F 		.word	1070999796
 3592 02e8 1377CB3D 		.word	1036744467
 3593 02ec BC61D63F 		.word	1071014332
 3594 02f0 B4AC3F2E 		.word	775924916
 3595 02f4 5F9AD63F 		.word	1071028831
 3596 02f8 BEC34D43 		.word	1129169854
 3597 02fc DDD2D63F 		.word	1071043293
 3598 0300 DB211949 		.word	1226383835
 3599 0304 360BD73F 		.word	1071057718
 3600 0308 2F070F0D 		.word	219088687
 3601 030c 6A43D73F 		.word	1071072106
ARM GAS  C:\Users\30592\AppData\Local\Temp\cca1UH8z.s 			page 83


 3602 0310 A094AF5D 		.word	1571787936
 3603 0314 787BD73F 		.word	1071086456
 3604 0318 7042E00A 		.word	182469232
 3605 031c 61B3D73F 		.word	1071100769
 3606 0320 FA434AEB 		.word	-347454470
 3607 0324 23EBD73F 		.word	1071115043
 3608 0328 D4D925BF 		.word	-1088038444
 3609 032c C022D83F 		.word	1071129280
 3610 0330 A617646B 		.word	1801721766
 3611 0334 375AD83F 		.word	1071143479
 3612 0338 73A169BE 		.word	-1100373645
 3613 033c 8791D83F 		.word	1071157639
 3614 0340 17D0958D 		.word	-1919561705
 3615 0344 B1C8D83F 		.word	1071171761
 3616 0348 ECD691AF 		.word	-1349396756
 3617 034c B4FFD83F 		.word	1071185844
 3618 0350 49D0E2FB 		.word	-69021623
 3619 0354 9036D93F 		.word	1071199888
 3620 0358 06B1574B 		.word	1264038150
 3621 035c 466DD93F 		.word	1071213894
 3622 0360 96CBED77 		.word	2012072854
 3623 0364 D4A3D93F 		.word	1071227860
 3624 0368 6D597E5C 		.word	1551784301
 3625 036c 3BDAD93F 		.word	1071241787
 3626 0370 7D6E2CD5 		.word	-718508419
 3627 0374 7A10DA3F 		.word	1071255674
 3628 0378 978212BF 		.word	-1089305961
 3629 037c 9246DA3F 		.word	1071269522
 3630 0380 09E894F8 		.word	-124458999
 3631 0384 827CDA3F 		.word	1071283330
 3632 0388 21D8F360 		.word	1626593313
 3633 038c 4BB2DA3F 		.word	1071297099
 3634 0390 CAE99DD8 		.word	-660739638
 3635 0394 EBE7DA3F 		.word	1071310827
 3636 0398 CF17F940 		.word	1090066383
 3637 039c 641DDB3F 		.word	1071324516
 3638 03a0 B93D7E7C 		.word	2088648121
 3639 03a4 B452DB3F 		.word	1071338164
 3640 03a8 AF94D46E 		.word	1859425455
 3641 03ac DC87DB3F 		.word	1071351772
 3642 03b0 F8BF63FC 		.word	-60571656
 3643 03b4 DBBCDB3F 		.word	1071365339
 3644 03b8 38BAF80A 		.word	184072760
 3645 03bc B3F1DB3F 		.word	1071378867
 3646 03c0 32E82081 		.word	-2128549838
 3647 03c4 6126DC3F 		.word	1071392353
 3648 03c8 688F7C46 		.word	1182568296
 3649 03cc E75ADC3F 		.word	1071405799
 3650 03d0 1BD6BE43 		.word	1136580123
 3651 03d4 448FDC3F 		.word	1071419204
 3652 03d8 69469262 		.word	1653753449
 3653 03dc 78C3DC3F 		.word	1071432568
 3654 03e0 70517D8D 		.word	-1921166992
 3655 03e4 83F7DC3F 		.word	1071445891
 3656 03e8 0D4919B0 		.word	-1340520179
 3657 03ec 652BDD3F 		.word	1071459173
 3658 03f0 DB5F12B7 		.word	-1223532581
ARM GAS  C:\Users\30592\AppData\Local\Temp\cca1UH8z.s 			page 84


 3659 03f4 1E5FDD3F 		.word	1071472414
 3660 03f8 9232D58F 		.word	-1881853294
 3661 03fc AE92DD3F 		.word	1071485614
 3662 0400 AD3EE128 		.word	685850285
 3663 0404 15C6DD3F 		.word	1071498773
 3664 0408 60E2C871 		.word	1908990560
 3665 040c 52F9DD3F 		.word	1071511890
 3666 0410 2369C35A 		.word	1522755875
 3667 0414 662CDE3F 		.word	1071524966
 3668 0418 4982FFD4 		.word	-721452471
 3669 041c 505FDE3F 		.word	1071538000
 3670 0420 A6B7F5D2 		.word	-755648602
 3671 0424 1192DE3F 		.word	1071550993
 3672 0428 AC097147 		.word	1198590380
 3673 042c A9C4DE3F 		.word	1071563945
 3674 0430 2BD0A126 		.word	648138795
 3675 0434 17F7DE3F 		.word	1071576855
 3676 0438 53D34165 		.word	1698812755
 3677 043c 5B29DF3F 		.word	1071589723
 3678 0440 F23839F9 		.word	-113690382
 3679 0444 755BDF3F 		.word	1071602549
 3680 0448 3597F9D8 		.word	-654731467
 3681 044c 668DDF3F 		.word	1071615334
 3682 0450 096507FC 		.word	-66624247
 3683 0454 2DBFDF3F 		.word	1071628077
 3684 0458 7783A75A 		.word	1520927607
 3685 045c CBF0DF3F 		.word	1071640779
 3686 0460 B41B0B77 		.word	1997216692
 3687 0464 1F11E03F 		.word	1071649055
 3688 0468 F4172858 		.word	1479022580
 3689 046c C429E03F 		.word	1071655364
 3690 0470 9D84FB4D 		.word	1308329117
 3691 0474 5442E03F 		.word	1071661652
 3692 0478 C3E15156 		.word	1448206787
 3693 047c CF5AE03F 		.word	1071667919
 3694 0480 6961736F 		.word	1869832553
 3695 0484 3573E03F 		.word	1071674165
 3696 0488 502FDF97 		.word	-1746981040
 3697 048c 868BE03F 		.word	1071680390
 3698 0490 2A2990CE 		.word	-829413078
 3699 0494 C2A3E03F 		.word	1071686594
 3700 0498 2820EF12 		.word	317661224
 3701 049c EABBE03F 		.word	1071692778
 3702 04a0 3ADF9B64 		.word	1687936826
 3703 04a4 FCD3E03F 		.word	1071698940
 3704 04a8 2060CDC3 		.word	-1009950688
 3705 04ac F9EBE03F 		.word	1071705081
 3706 04b0 5996F130 		.word	821139033
 3707 04b4 E203E13F 		.word	1071711202
 3708 04b8 05ECC8AC 		.word	-1396118523
 3709 04bc B51BE13F 		.word	1071717301
 3710 04c0 A13B9D38 		.word	949828513
 3711 04c4 7433E13F 		.word	1071723380
 3712 04c8 DB17FDD5 		.word	-704833573
 3713 04cc 1D4BE13F 		.word	1071729437
 3714 04d0 220DAE86 		.word	-2035413726
 3715 04d4 B262E13F 		.word	1071735474
ARM GAS  C:\Users\30592\AppData\Local\Temp\cca1UH8z.s 			page 85


 3716 04d8 4118FF4C 		.word	1291786305
 3717 04dc 327AE13F 		.word	1071741490
 3718 04e0 35EE832B 		.word	730066485
 3719 04e4 9D91E13F 		.word	1071747485
 3720 04e8 2AFC1425 		.word	622132266
 3721 04ec F3A8E13F 		.word	1071753459
 3722 04f0 CCA2F83C 		.word	1022927564
 3723 04f4 34C0E13F 		.word	1071759412
 3724 04f8 F6FAB976 		.word	1991899894
 3725 04fc 60D7E13F 		.word	1071765344
 3726 0500 B2D528D6 		.word	-701966926
 3727 0504 77EEE13F 		.word	1071771255
 3728 0508 8BF7825F 		.word	1602418571
 3729 050c 7A05E23F 		.word	1071777146
 3730 0510 5A602F17 		.word	388980826
 3731 0514 681CE23F 		.word	1071783016
 3732 0518 E8C11002 		.word	34652648
 3733 051c 4133E23F 		.word	1071788865
 3734 0520 50093325 		.word	624101712
 3735 0524 054AE23F 		.word	1071794693
 3736 0528 489AF485 		.word	-2047567288
 3737 052c B460E23F 		.word	1071800500
 3738 0530 BA90F829 		.word	704155834
 3739 0534 4F77E23F 		.word	1071806287
 3740 0538 2D7F3417 		.word	389316397
 3741 053c D58DE23F 		.word	1071812053
 3742 0540 C86EF053 		.word	1408265928
 3743 0544 46A4E23F 		.word	1071817798
 3744 0548 02A49DE6 		.word	-425876478
 3745 054c A2BAE23F 		.word	1071823522
 3746 0550 F3D9FFD5 		.word	-704652813
 3747 0554 EAD0E23F 		.word	1071829226
 3748 0558 50422D29 		.word	690831952
 3749 055c 1EE7E23F 		.word	1071834910
 3750 0560 1F4A65E7 		.word	-412792289
 3751 0564 3CFDE23F 		.word	1071840572
 3752 0568 95162C18 		.word	405542549
 3753 056c 4713E33F 		.word	1071846215
 3754 0570 F90166C3 		.word	-1016724999
 3755 0574 3C29E33F 		.word	1071851836
 3756 0578 FE2405F1 		.word	-251321090
 3757 057c 1D3FE33F 		.word	1071857437
 3758 0580 F90E4EA9 		.word	-1454502151
 3759 0584 EA54E33F 		.word	1071863018
 3760 0588 4F84E5F4 		.word	-186284977
 3761 058c A26AE33F 		.word	1071868578
 3762 0590 624970DC 		.word	-596620958
 3763 0594 4680E33F 		.word	1071874118
 3764 0598 3899E568 		.word	1759877432
 3765 059c D695E33F 		.word	1071879638
 3766 05a0 72258FA3 		.word	-1550899854
 3767 05a4 51ABE33F 		.word	1071885137
 3768 05a8 941CD295 		.word	-1781392236
 3769 05ac B8C0E33F 		.word	1071890616
 3770 05b0 71E83C49 		.word	1228728433
 3771 05b4 0BD6E33F 		.word	1071896075
 3772 05b8 7B69B0C7 		.word	-944739973
ARM GAS  C:\Users\30592\AppData\Local\Temp\cca1UH8z.s 			page 86


 3773 05bc 49EBE33F 		.word	1071901513
 3774 05c0 5338521B 		.word	458373203
 3775 05c4 7400E43F 		.word	1071906932
 3776 05c8 2D2F3A4E 		.word	1312436013
 3777 05cc 8A15E43F 		.word	1071912330
 3778 05d0 B81BEE6A 		.word	1793989560
 3779 05d4 8C2AE43F 		.word	1071917708
 3780 05d8 F7061D7C 		.word	2082277111
 3781 05dc 7A3FE43F 		.word	1071923066
 3782 05e0 5AB8838C 		.word	-1937524646
 3783 05e4 5454E43F 		.word	1071928404
 3784 05e8 622C3FA7 		.word	-1489032094
 3785 05ec 1A69E43F 		.word	1071933722
 3786 05f0 905F6CD7 		.word	-680763504
 3787 05f4 CC7DE43F 		.word	1071939020
 3788 05f8 94066D28 		.word	678233748
 3789 05fc 6B92E43F 		.word	1071944299
 3790 0600 6D11CCA5 		.word	-1513352851
 3791 0604 F5A6E43F 		.word	1071949557
 3792 0608 DC694B5B 		.word	1531668956
 3793 060c 6CBBE43F 		.word	1071954796
 3794 0610 7F76C854 		.word	1422423679
 3795 0614 CFCFE43F 		.word	1071960015
 3796 0618 D71A3C9E 		.word	-1640228137
 3797 061c 1EE4E43F 		.word	1071965214
 3798 0620 93F2E343 		.word	1139012243
 3799 0624 5AF8E43F 		.word	1071970394
 3800 0628 B0D42652 		.word	1378276528
 3801 062c 820CE53F 		.word	1071975554
 3802 0630 2F986BD5 		.word	-714368977
 3803 0634 9620E53F 		.word	1071980694
 3804 0638 AC8A6BDA 		.word	-630486356
 3805 063c 9734E53F 		.word	1071985815
 3806 0640 C8F9DF6D 		.word	1843395016
 3807 0644 8548E53F 		.word	1071990917
 3808 0648 DF2CB99C 		.word	-1665585953
 3809 064c 5F5CE53F 		.word	1071995999
 3810 0650 9FA61074 		.word	1947248287
 3811 0654 2670E53F 		.word	1072001062
 3812 0658 26A80D01 		.word	17672230
 3813 065c DA83E53F 		.word	1072006106
 3814 0660 E3AD0051 		.word	1358999011
 3815 0664 7A97E53F 		.word	1072011130
 3816 0668 916F6371 		.word	1902342033
 3817 066c 07ABE53F 		.word	1072016135
 3818 0670 CE21CB6F 		.word	1875583438
 3819 0674 81BEE53F 		.word	1072021121
 3820 0678 A8B7DA59 		.word	1507506088
 3821 067c E8D1E53F 		.word	1072026088
 3822 0680 7B5F5E3D 		.word	1029595003
 3823 0684 3CE5E53F 		.word	1072031036
 3824 0688 F3824B28 		.word	676037363
 3825 068c 7DF8E53F 		.word	1072035965
 3826 0690 BE8B9728 		.word	681020350
 3827 0694 AB0BE63F 		.word	1072040875
 3828 0698 47DD6E4C 		.word	1282334023
 3829 069c C61EE63F 		.word	1072045766
ARM GAS  C:\Users\30592\AppData\Local\Temp\cca1UH8z.s 			page 87


 3830 06a0 6B990BA2 		.word	-1576298133
 3831 06a4 CE31E63F 		.word	1072050638
 3832 06a8 07E2A737 		.word	933749255
 3833 06ac C444E63F 		.word	1072055492
 3834 06b0 954FD01B 		.word	466636693
 3835 06b4 A757E63F 		.word	1072060327
 3836 06b8 B2FDF55C 		.word	1559625138
 3837 06bc 776AE63F 		.word	1072065143
 3838 06c0 BA01C109 		.word	163643834
 3839 06c4 357DE63F 		.word	1072069941
 3840 06c8 98B2CB30 		.word	818655896
 3841 06cc E08FE63F 		.word	1072074720
 3842 06d0 F860E7E0 		.word	-521707272
 3843 06d4 78A2E63F 		.word	1072079480
 3844 06d8 F51BF328 		.word	687021045
 3845 06dc FFB4E63F 		.word	1072084223
 3846 06e0 1AB1DB17 		.word	400273690
 3847 06e4 73C7E63F 		.word	1072088947
 3848 06e8 62AC9BBC 		.word	-1130648478
 3849 06ec D4D9E63F 		.word	1072093652
 3850 06f0 AA164926 		.word	642324138
 3851 06f4 24ECE63F 		.word	1072098340
 3852 06f8 AA751564 		.word	1679127978
 3853 06fc 61FEE63F 		.word	1072103009
 3854 0700 B0902485 		.word	-2061201232
 3855 0704 8C10E73F 		.word	1072107660
 3856 0708 C428D198 		.word	-1731123004
 3857 070c A522E73F 		.word	1072112293
 3858 0710 834068AE 		.word	-1368899453
 3859 0714 AC34E73F 		.word	1072116908
 3860 0718 665752D5 		.word	-716023962
 3861 071c A146E73F 		.word	1072121505
 3862 0720 58AB051D 		.word	486910808
 3863 0724 8558E73F 		.word	1072126085
 3864 0728 B4380695 		.word	-1794754380
 3865 072c 566AE73F 		.word	1072130646
 3866 0730 43BAE54C 		.word	1290123843
 3867 0734 167CE73F 		.word	1072135190
 3868 0738 41A94354 		.word	1413720385
 3869 073c C48DE73F 		.word	1072139716
 3870 0740 573DCDBA 		.word	-1160954537
 3871 0744 609FE73F 		.word	1072144224
 3872 0748 31AE2F90 		.word	-1875923407
 3873 074c EBB0E73F 		.word	1072148715
 3874 0750 E7F125E4 		.word	-467275289
 3875 0754 64C2E73F 		.word	1072153188
 3876 0758 747B86C6 		.word	-964265100
 3877 075c CCD3E73F 		.word	1072157644
 3878 0760 D1BD2747 		.word	1193786833
 3879 0764 23E5E73F 		.word	1072162083
 3880 0768 FA2BE075 		.word	1977625594
 3881 076c 68F6E73F 		.word	1072166504
 3882 0770 58F79362 		.word	1653864280
 3883 0774 9C07E83F 		.word	1072170908
 3884 0778 C40F351D 		.word	490016708
 3885 077c BF18E83F 		.word	1072175295
 3886 0780 8923C3B5 		.word	-1245502583
ARM GAS  C:\Users\30592\AppData\Local\Temp\cca1UH8z.s 			page 88


 3887 0784 D029E83F 		.word	1072179664
 3888 0788 8122303C 		.word	1009787521
 3889 078c D13AE83F 		.word	1072184017
 3890 0790 F4BA7BC0 		.word	-1065633036
 3891 0794 C04BE83F 		.word	1072188352
 3892 0798 0E18C152 		.word	1388386318
 3893 079c 9F5CE83F 		.word	1072192671
 3894 07a0 17E8FF02 		.word	50325527
 3895 07a4 6D6DE83F 		.word	1072196973
 3896 07a8 395653E1 		.word	-514632135
 3897 07ac 297EE83F 		.word	1072201257
 3898 07b0 9E8DD6FD 		.word	-36270690
 3899 07b4 D58EE83F 		.word	1072205525
 3900 07b8 E077B268 		.word	1756526560
 3901 07bc 719FE83F 		.word	1072209777
 3902 07c0 B881F431 		.word	838107576
 3903 07c4 FCAFE83F 		.word	1072214012
 3904 07c8 C094C569 		.word	1774556352
 3905 07cc 76C0E83F 		.word	1072218230
 3906 07d0 01595C20 		.word	542923009
 3907 07d4 E0D0E83F 		.word	1072222432
 3908 07d8 A5F9D365 		.word	1708390821
 3909 07dc 39E1E83F 		.word	1072226617
 3910 07e0 B51E634A 		.word	1248009909
 3911 07e4 82F1E83F 		.word	1072230786
 3912 07e8 CBB132DE 		.word	-567103029
 3913 07ec BA01E93F 		.word	1072234938
 3914 07f0 819C6B31 		.word	829136001
 3915 07f4 E311E93F 		.word	1072239075
 3916 07f8 E0864454 		.word	1413777120
 3917 07fc FB21E93F 		.word	1072243195
 3918              		.section	.rodata.Kd,"a"
 3919              		.align	2
 3922              	Kd:
 3923 0000 00004842 		.word	1112014848
 3924              		.section	.rodata.Ki,"a"
 3925              		.align	2
 3928              	Ki:
 3929 0000 0000ECC2 		.word	-1024720896
 3930              		.section	.rodata.Kp,"a"
 3931              		.align	2
 3934              	Kp:
 3935 0000 00009643 		.word	1133903872
 3936              		.text
 3937              	.Letext0:
 3938              		.file 3 "d:\\software\\gnu arm embedded toolchain\\10 2021.07\\arm-none-eabi\\include\\machine\\_d
 3939              		.file 4 "d:\\software\\gnu arm embedded toolchain\\10 2021.07\\arm-none-eabi\\include\\sys\\_stdin
 3940              		.file 5 "Drivers/CMSIS/Device/ST/STM32F1xx/Include/stm32f103xe.h"
 3941              		.file 6 "Drivers/STM32F1xx_HAL_Driver/Inc/stm32f1xx_hal_def.h"
 3942              		.file 7 "Drivers/STM32F1xx_HAL_Driver/Inc/stm32f1xx_hal_rcc.h"
 3943              		.file 8 "Drivers/STM32F1xx_HAL_Driver/Inc/stm32f1xx_hal_rcc_ex.h"
 3944              		.file 9 "Drivers/STM32F1xx_HAL_Driver/Inc/stm32f1xx_hal_gpio.h"
 3945              		.file 10 "Drivers/STM32F1xx_HAL_Driver/Inc/stm32f1xx_hal_dma.h"
 3946              		.file 11 "Drivers/STM32F1xx_HAL_Driver/Inc/stm32f1xx_hal_tim.h"
 3947              		.file 12 "Drivers/STM32F1xx_HAL_Driver/Inc/stm32f1xx_hal_uart.h"
 3948              		.file 13 "Core/Inc/tim.h"
 3949              		.file 14 "Core/Inc/usart.h"
ARM GAS  C:\Users\30592\AppData\Local\Temp\cca1UH8z.s 			page 89


 3950              		.file 15 "Core/Inc/jy62.h"
 3951              		.file 16 "Drivers/STM32F1xx_HAL_Driver/Inc/stm32f1xx_hal.h"
 3952              		.file 17 "Core/Inc/gpio.h"
 3953              		.file 18 "Core/Inc/dma.h"
 3954              		.file 19 "Core/Inc/zigbee.h"
 3955              		.file 20 "<built-in>"
ARM GAS  C:\Users\30592\AppData\Local\Temp\cca1UH8z.s 			page 90


DEFINED SYMBOLS
                            *ABS*:00000000 main.c
C:\Users\30592\AppData\Local\Temp\cca1UH8z.s:20     .text.pid:00000000 $t
C:\Users\30592\AppData\Local\Temp\cca1UH8z.s:28     .text.pid:00000000 pid
C:\Users\30592\AppData\Local\Temp\cca1UH8z.s:128    .text.pid:00000064 $d
C:\Users\30592\AppData\Local\Temp\cca1UH8z.s:137    .text.Abs:00000000 $t
C:\Users\30592\AppData\Local\Temp\cca1UH8z.s:144    .text.Abs:00000000 Abs
C:\Users\30592\AppData\Local\Temp\cca1UH8z.s:168    .text.qiuyu360:00000000 $t
C:\Users\30592\AppData\Local\Temp\cca1UH8z.s:175    .text.qiuyu360:00000000 qiuyu360
C:\Users\30592\AppData\Local\Temp\cca1UH8z.s:240    .text.qiuyu360:00000038 $d
C:\Users\30592\AppData\Local\Temp\cca1UH8z.s:245    .text.forward:00000000 $t
C:\Users\30592\AppData\Local\Temp\cca1UH8z.s:252    .text.forward:00000000 forward
C:\Users\30592\AppData\Local\Temp\cca1UH8z.s:336    .text.forward:00000070 $d
C:\Users\30592\AppData\Local\Temp\cca1UH8z.s:342    .text.backward:00000000 $t
C:\Users\30592\AppData\Local\Temp\cca1UH8z.s:349    .text.backward:00000000 backward
C:\Users\30592\AppData\Local\Temp\cca1UH8z.s:433    .text.backward:00000070 $d
C:\Users\30592\AppData\Local\Temp\cca1UH8z.s:439    .text.rotate_counterclockwise:00000000 $t
C:\Users\30592\AppData\Local\Temp\cca1UH8z.s:446    .text.rotate_counterclockwise:00000000 rotate_counterclockwise
C:\Users\30592\AppData\Local\Temp\cca1UH8z.s:530    .text.rotate_counterclockwise:00000070 $d
C:\Users\30592\AppData\Local\Temp\cca1UH8z.s:536    .text.rotate_clockwise:00000000 $t
C:\Users\30592\AppData\Local\Temp\cca1UH8z.s:543    .text.rotate_clockwise:00000000 rotate_clockwise
C:\Users\30592\AppData\Local\Temp\cca1UH8z.s:627    .text.rotate_clockwise:00000070 $d
C:\Users\30592\AppData\Local\Temp\cca1UH8z.s:633    .text.rotate_clockwise_plus_forward:00000000 $t
C:\Users\30592\AppData\Local\Temp\cca1UH8z.s:640    .text.rotate_clockwise_plus_forward:00000000 rotate_clockwise_plus_forward
C:\Users\30592\AppData\Local\Temp\cca1UH8z.s:725    .text.rotate_clockwise_plus_forward:00000070 $d
C:\Users\30592\AppData\Local\Temp\cca1UH8z.s:732    .text.fabs:00000000 $t
C:\Users\30592\AppData\Local\Temp\cca1UH8z.s:739    .text.fabs:00000000 fabs
C:\Users\30592\AppData\Local\Temp\cca1UH8z.s:787    .text.atan2LUTif:00000000 $t
C:\Users\30592\AppData\Local\Temp\cca1UH8z.s:794    .text.atan2LUTif:00000000 atan2LUTif
C:\Users\30592\AppData\Local\Temp\cca1UH8z.s:1158   .text.atan2LUTif:000001f8 $d
C:\Users\30592\AppData\Local\Temp\cca1UH8z.s:1177   .text.Solve_Mine_Pos:00000000 $t
C:\Users\30592\AppData\Local\Temp\cca1UH8z.s:1184   .text.Solve_Mine_Pos:00000000 Solve_Mine_Pos
C:\Users\30592\AppData\Local\Temp\cca1UH8z.s:1636   .text.Solve_Mine_Pos:000002f8 $d
C:\Users\30592\AppData\Local\Temp\cca1UH8z.s:1646   .text.Sol_Car_Pos_INIT:00000000 $t
C:\Users\30592\AppData\Local\Temp\cca1UH8z.s:1653   .text.Sol_Car_Pos_INIT:00000000 Sol_Car_Pos_INIT
C:\Users\30592\AppData\Local\Temp\cca1UH8z.s:1701   .text.Sol_Car_Pos_INIT:00000034 $d
C:\Users\30592\AppData\Local\Temp\cca1UH8z.s:1707   .text.Sol_Car_Pos:00000000 $t
C:\Users\30592\AppData\Local\Temp\cca1UH8z.s:1714   .text.Sol_Car_Pos:00000000 Sol_Car_Pos
C:\Users\30592\AppData\Local\Temp\cca1UH8z.s:1976   .text.Sol_Car_Pos:000001cc $d
C:\Users\30592\AppData\Local\Temp\cca1UH8z.s:1988   .text.Goto:00000000 $t
C:\Users\30592\AppData\Local\Temp\cca1UH8z.s:1995   .text.Goto:00000000 Goto
C:\Users\30592\AppData\Local\Temp\cca1UH8z.s:2226   .text.Goto:00000138 $d
C:\Users\30592\AppData\Local\Temp\cca1UH8z.s:2234   .text.HAL_TIM_PeriodElapsedCallback:00000000 $t
C:\Users\30592\AppData\Local\Temp\cca1UH8z.s:2241   .text.HAL_TIM_PeriodElapsedCallback:00000000 HAL_TIM_PeriodElapsedCallback
C:\Users\30592\AppData\Local\Temp\cca1UH8z.s:2310   .text.HAL_TIM_PeriodElapsedCallback:00000036 $d
C:\Users\30592\AppData\Local\Temp\cca1UH8z.s:2317   .text.HAL_TIM_PeriodElapsedCallback:00000044 $t
C:\Users\30592\AppData\Local\Temp\cca1UH8z.s:2700   .text.HAL_TIM_PeriodElapsedCallback:00000278 $d
C:\Users\30592\AppData\Local\Temp\cca1UH8z.s:2716   .text.Get_Rep_opt:00000000 $t
C:\Users\30592\AppData\Local\Temp\cca1UH8z.s:2723   .text.Get_Rep_opt:00000000 Get_Rep_opt
C:\Users\30592\AppData\Local\Temp\cca1UH8z.s:2808   .text.Get_Rep_opt:00000050 $d
C:\Users\30592\AppData\Local\Temp\cca1UH8z.s:2813   .text.Error_Handler:00000000 $t
C:\Users\30592\AppData\Local\Temp\cca1UH8z.s:2820   .text.Error_Handler:00000000 Error_Handler
C:\Users\30592\AppData\Local\Temp\cca1UH8z.s:2852   .text.SystemClock_Config:00000000 $t
C:\Users\30592\AppData\Local\Temp\cca1UH8z.s:2859   .text.SystemClock_Config:00000000 SystemClock_Config
C:\Users\30592\AppData\Local\Temp\cca1UH8z.s:2964   .text.main:00000000 $t
C:\Users\30592\AppData\Local\Temp\cca1UH8z.s:2971   .text.main:00000000 main
C:\Users\30592\AppData\Local\Temp\cca1UH8z.s:3185   .text.main:0000013c $d
ARM GAS  C:\Users\30592\AppData\Local\Temp\cca1UH8z.s 			page 91


C:\Users\30592\AppData\Local\Temp\cca1UH8z.s:3352   .bss.state:00000000 state
C:\Users\30592\AppData\Local\Temp\cca1UH8z.s:3922   .rodata.Kd:00000000 Kd
C:\Users\30592\AppData\Local\Temp\cca1UH8z.s:3928   .rodata.Ki:00000000 Ki
C:\Users\30592\AppData\Local\Temp\cca1UH8z.s:3934   .rodata.Kp:00000000 Kp
C:\Users\30592\AppData\Local\Temp\cca1UH8z.s:3405   .rodata.ATAN_LUT:00000000 ATAN_LUT
C:\Users\30592\AppData\Local\Temp\cca1UH8z.s:3359   .data.State:00000000 State
C:\Users\30592\AppData\Local\Temp\cca1UH8z.s:3366   .data.rep:00000000 rep
C:\Users\30592\AppData\Local\Temp\cca1UH8z.s:3326   .bss.now:00000000 now
C:\Users\30592\AppData\Local\Temp\cca1UH8z.s:3284   .bss.count_beacon:00000000 count_beacon
C:\Users\30592\AppData\Local\Temp\cca1UH8z.s:3345   .bss.score:00000000 score
C:\Users\30592\AppData\Local\Temp\cca1UH8z.s:3387   .data.resource_location:00000000 resource_location
C:\Users\30592\AppData\Local\Temp\cca1UH8z.s:3238   .bss.Prev_Pos_head:00000000 Prev_Pos_head
C:\Users\30592\AppData\Local\Temp\cca1UH8z.s:3231   .bss.Prev_Pos:00000000 Prev_Pos
C:\Users\30592\AppData\Local\Temp\cca1UH8z.s:3258   .bss.beacon_determinant:00000000 beacon_determinant
C:\Users\30592\AppData\Local\Temp\cca1UH8z.s:3265   .bss.car_Pos:00000000 car_Pos
C:\Users\30592\AppData\Local\Temp\cca1UH8z.s:3251   .bss.beacon_Pos:00000000 beacon_Pos
C:\Users\30592\AppData\Local\Temp\cca1UH8z.s:3277   .bss.car_y:00000000 car_y
C:\Users\30592\AppData\Local\Temp\cca1UH8z.s:3271   .bss.car_x:00000000 car_x
C:\Users\30592\AppData\Local\Temp\cca1UH8z.s:3338   .bss.obj_y:00000000 obj_y
C:\Users\30592\AppData\Local\Temp\cca1UH8z.s:3332   .bss.obj_x:00000000 obj_x
C:\Users\30592\AppData\Local\Temp\cca1UH8z.s:3296   .bss.dis_obj:00000000 dis_obj
C:\Users\30592\AppData\Local\Temp\cca1UH8z.s:3244   .bss.angle_obj:00000000 angle_obj
C:\Users\30592\AppData\Local\Temp\cca1UH8z.s:3320   .bss.distance4:00000000 distance4
C:\Users\30592\AppData\Local\Temp\cca1UH8z.s:3314   .bss.distance3:00000000 distance3
C:\Users\30592\AppData\Local\Temp\cca1UH8z.s:3308   .bss.distance2:00000000 distance2
C:\Users\30592\AppData\Local\Temp\cca1UH8z.s:3302   .bss.distance1:00000000 distance1
C:\Users\30592\AppData\Local\Temp\cca1UH8z.s:3290   .bss.count_to_ten:00000000 count_to_ten
C:\Users\30592\AppData\Local\Temp\cca1UH8z.s:3398   .data.set_speed:00000000 set_speed
C:\Users\30592\AppData\Local\Temp\cca1UH8z.s:3227   .bss.Prev_Pos:00000000 $d
C:\Users\30592\AppData\Local\Temp\cca1UH8z.s:3234   .bss.Prev_Pos_head:00000000 $d
C:\Users\30592\AppData\Local\Temp\cca1UH8z.s:3241   .bss.angle_obj:00000000 $d
C:\Users\30592\AppData\Local\Temp\cca1UH8z.s:3247   .bss.beacon_Pos:00000000 $d
C:\Users\30592\AppData\Local\Temp\cca1UH8z.s:3254   .bss.beacon_determinant:00000000 $d
C:\Users\30592\AppData\Local\Temp\cca1UH8z.s:3261   .bss.car_Pos:00000000 $d
C:\Users\30592\AppData\Local\Temp\cca1UH8z.s:3268   .bss.car_x:00000000 $d
C:\Users\30592\AppData\Local\Temp\cca1UH8z.s:3274   .bss.car_y:00000000 $d
C:\Users\30592\AppData\Local\Temp\cca1UH8z.s:3280   .bss.count_beacon:00000000 $d
C:\Users\30592\AppData\Local\Temp\cca1UH8z.s:3287   .bss.count_to_ten:00000000 $d
C:\Users\30592\AppData\Local\Temp\cca1UH8z.s:3293   .bss.dis_obj:00000000 $d
C:\Users\30592\AppData\Local\Temp\cca1UH8z.s:3299   .bss.distance1:00000000 $d
C:\Users\30592\AppData\Local\Temp\cca1UH8z.s:3305   .bss.distance2:00000000 $d
C:\Users\30592\AppData\Local\Temp\cca1UH8z.s:3311   .bss.distance3:00000000 $d
C:\Users\30592\AppData\Local\Temp\cca1UH8z.s:3317   .bss.distance4:00000000 $d
C:\Users\30592\AppData\Local\Temp\cca1UH8z.s:3323   .bss.now:00000000 $d
C:\Users\30592\AppData\Local\Temp\cca1UH8z.s:3329   .bss.obj_x:00000000 $d
C:\Users\30592\AppData\Local\Temp\cca1UH8z.s:3335   .bss.obj_y:00000000 $d
C:\Users\30592\AppData\Local\Temp\cca1UH8z.s:3341   .bss.score:00000000 $d
C:\Users\30592\AppData\Local\Temp\cca1UH8z.s:3348   .bss.state:00000000 $d
C:\Users\30592\AppData\Local\Temp\cca1UH8z.s:3355   .data.State:00000000 $d
C:\Users\30592\AppData\Local\Temp\cca1UH8z.s:3362   .data.rep:00000000 $d
C:\Users\30592\AppData\Local\Temp\cca1UH8z.s:3383   .data.resource_location:00000000 $d
C:\Users\30592\AppData\Local\Temp\cca1UH8z.s:3395   .data.set_speed:00000000 $d
C:\Users\30592\AppData\Local\Temp\cca1UH8z.s:3401   .rodata.ATAN_LUT:00000000 $d
C:\Users\30592\AppData\Local\Temp\cca1UH8z.s:3919   .rodata.Kd:00000000 $d
C:\Users\30592\AppData\Local\Temp\cca1UH8z.s:3925   .rodata.Ki:00000000 $d
C:\Users\30592\AppData\Local\Temp\cca1UH8z.s:3931   .rodata.Kp:00000000 $d

ARM GAS  C:\Users\30592\AppData\Local\Temp\cca1UH8z.s 			page 92


UNDEFINED SYMBOLS
__aeabi_fmul
__aeabi_fadd
__aeabi_fcmpge
__aeabi_fcmple
__aeabi_fsub
__aeabi_fcmpgt
__aeabi_fcmplt
HAL_GPIO_WritePin
htim8
__aeabi_dcmpgt
__aeabi_dcmpeq
__aeabi_dsub
__aeabi_dcmplt
__aeabi_dmul
__aeabi_ddiv
__aeabi_d2iz
__aeabi_dadd
__aeabi_i2d
__aeabi_ui2d
__aeabi_d2f
__aeabi_f2d
__aeabi_dcmpge
__aeabi_dcmple
GetYaw
HAL_UART_Receive_DMA
getCarPosX
getCarPosY
getMineIntensity
getCarScore
jy62Receive
huart2
memset
HAL_RCC_OscConfig
HAL_RCC_ClockConfig
HAL_Init
jy62_Init
SetBaud
SetHorizontal
InitAngle
Calibrate
SleepOrAwake
MX_GPIO_Init
MX_TIM1_Init
MX_TIM2_Init
MX_TIM8_Init
MX_TIM3_Init
MX_TIM4_Init
MX_DMA_Init
MX_USART2_UART_Init
MX_USART1_UART_Init
MX_TIM5_Init
zigbee_Init
HAL_TIM_Base_Start_IT
HAL_TIM_PWM_Start
HAL_TIM_Encoder_Start
getGameState
ARM GAS  C:\Users\30592\AppData\Local\Temp\cca1UH8z.s 			page 93


huart1
htim1
htim2
htim3
htim4
htim5
