ARM GAS  C:\Users\zhangjd\AppData\Local\Temp\ccomS8NF.s 			page 1


   1              		.cpu cortex-m3
   2              		.eabi_attribute 20, 1
   3              		.eabi_attribute 21, 1
   4              		.eabi_attribute 23, 3
   5              		.eabi_attribute 24, 1
   6              		.eabi_attribute 25, 1
   7              		.eabi_attribute 26, 1
   8              		.eabi_attribute 30, 1
   9              		.eabi_attribute 34, 1
  10              		.eabi_attribute 18, 4
  11              		.file	"main.c"
  12              		.text
  13              	.Ltext0:
  14              		.cfi_sections	.debug_frame
  15              		.global	__aeabi_fmul
  16              		.global	__aeabi_fadd
  17              		.global	__aeabi_fcmpge
  18              		.global	__aeabi_fcmple
  19              		.section	.text.pid,"ax",%progbits
  20              		.align	1
  21              		.global	pid
  22              		.arch armv7-m
  23              		.syntax unified
  24              		.thumb
  25              		.thumb_func
  26              		.fpu softvfp
  28              	pid:
  29              	.LVL0:
  30              	.LFB68:
  31              		.file 1 "Core/Src/main.c"
   1:Core/Src/main.c **** /* USER CODE BEGIN Header */
   2:Core/Src/main.c **** /**
   3:Core/Src/main.c ****   ******************************************************************************
   4:Core/Src/main.c ****   * @file           : main.c
   5:Core/Src/main.c ****   * @brief          : Main program body
   6:Core/Src/main.c ****   ******************************************************************************
   7:Core/Src/main.c ****   * @attention
   8:Core/Src/main.c ****   *
   9:Core/Src/main.c ****   * <h2><center>&copy; Copyright (c) 2021 STMicroelectronics.
  10:Core/Src/main.c ****   * All rights reserved.</center></h2>
  11:Core/Src/main.c ****   *
  12:Core/Src/main.c ****   * This software component is licensed by ST under BSD 3-Clause license,
  13:Core/Src/main.c ****   * the "License"; You may not use this file except in compliance with the
  14:Core/Src/main.c ****   * License. You may obtain a copy of the License at:
  15:Core/Src/main.c ****   *                        opensource.org/licenses/BSD-3-Clause
  16:Core/Src/main.c ****   *
  17:Core/Src/main.c ****   ******************************************************************************
  18:Core/Src/main.c ****   */
  19:Core/Src/main.c **** /* USER CODE END Header */
  20:Core/Src/main.c **** /* Includes ------------------------------------------------------------------*/
  21:Core/Src/main.c **** #include "main.h"
  22:Core/Src/main.c **** #include "dma.h"
  23:Core/Src/main.c **** #include "tim.h"
  24:Core/Src/main.c **** #include "usart.h"
  25:Core/Src/main.c **** #include "gpio.h"
  26:Core/Src/main.c **** 
  27:Core/Src/main.c **** /* Private includes ----------------------------------------------------------*/
ARM GAS  C:\Users\zhangjd\AppData\Local\Temp\ccomS8NF.s 			page 2


  28:Core/Src/main.c **** /* USER CODE BEGIN Includes */
  29:Core/Src/main.c **** #include "jy62.h"
  30:Core/Src/main.c **** #include "zigbee.h"
  31:Core/Src/main.c **** /* USER CODE END Includes */
  32:Core/Src/main.c **** 
  33:Core/Src/main.c **** /* Private typedef -----------------------------------------------------------*/
  34:Core/Src/main.c **** /* USER CODE BEGIN PTD */
  35:Core/Src/main.c **** 
  36:Core/Src/main.c **** float set_speed = 10.0;
  37:Core/Src/main.c **** int count_to_ten = 0;
  38:Core/Src/main.c **** volatile float distance1 = 0.0, distance2 = 0.0, distance3 = 0.0, distance4 = 0.0;
  39:Core/Src/main.c **** extern uint8_t jy62Receive[JY62_MESSAGE_LENGTH];
  40:Core/Src/main.c **** extern uint8_t jy62Message[JY62_MESSAGE_LENGTH];
  41:Core/Src/main.c **** 
  42:Core/Src/main.c **** float angle_obj, dis_obj;
  43:Core/Src/main.c **** float obj_x, obj_y, car_x, car_y;
  44:Core/Src/main.c **** #define forward_speed 1500
  45:Core/Src/main.c **** #define rotate_speed 800
  46:Core/Src/main.c **** #define angle_err 5
  47:Core/Src/main.c **** /* USER CODE END PTD */
  48:Core/Src/main.c **** 
  49:Core/Src/main.c **** /* Private define ------------------------------------------------------------*/
  50:Core/Src/main.c **** /* USER CODE BEGIN PD */
  51:Core/Src/main.c **** //////////////////////////////////////Solve_Mine_Pos函数宏定义////////////////////////////////
  52:Core/Src/main.c **** #define A_COFFIENT 1000000000.0 //金矿强度系数A
  53:Core/Src/main.c **** #define POS_ERR_TOL 4           //金矿位置计算结果偏离场地的最大误差
  54:Core/Src/main.c **** //////////////////////////////////////Solve_Mine_Pos宏定义结束////////////////////////////////
  55:Core/Src/main.c **** ////////////////////////////////////////atan2LUTif函数宏定义//////////////////////////////////
  56:Core/Src/main.c **** #define M_PI_2 1.5707963
  57:Core/Src/main.c **** #define M_PI 3.141592654
  58:Core/Src/main.c **** #define M_PI_4_P_0273 1.05839816339744830962 //M_PI/4 + 0.273
  59:Core/Src/main.c **** const double ATAN_LUT[256] = {0.0000000000, 0.0039215485, 0.0078429764, 0.0117641631, 0.0156849881,
  60:Core/Src/main.c ****                               0.0235250710, 0.0274440882, 0.0313622624, 0.0352794736, 0.0391956019,
  61:Core/Src/main.c ****                               0.0470241318, 0.0509362949, 0.0548468980, 0.0587558227, 0.0626629506,
  62:Core/Src/main.c ****                               0.0704713446, 0.0743723758, 0.0782711405, 0.0821675224, 0.0860614053,
  63:Core/Src/main.c ****                               0.0938412126, 0.0977269074, 0.1016096438, 0.1054893085, 0.1093657884,
  64:Core/Src/main.c ****                               0.1171087446, 0.1209749978, 0.1248376255, 0.1286965013, 0.1325515323,
  65:Core/Src/main.c ****                               0.1402496096, 0.1440924408, 0.1479309912, 0.1517651553, 0.1555948280,
  66:Core/Src/main.c ****                               0.1632402828, 0.1670558588, 0.1708665312, 0.1746721990, 0.1784727620,
  67:Core/Src/main.c ****                               0.1860581771, 0.1898428334, 0.1936219929, 0.1973955598, 0.2011634395,
  68:Core/Src/main.c ****                               0.2086817623, 0.2124320205, 0.2161762215, 0.2199142752, 0.2236460927,
  69:Core/Src/main.c ****                               0.2310906672, 0.2348032511, 0.2385092525, 0.2422085871, 0.2459011721,
  70:Core/Src/main.c ****                               0.2532657662, 0.2569376146, 0.2606023917, 0.2642600199, 0.2679104224,
  71:Core/Src/main.c ****                               0.2751892491, 0.2788175253, 0.2824382800, 0.2860514417, 0.2896569404,
  72:Core/Src/main.c ****                               0.2968446734, 0.3004267728, 0.3040009393, 0.3075671084, 0.3111252164,
  73:Core/Src/main.c ****                               0.3182170002, 0.3217505544, 0.3252758042, 0.3287926915, 0.3323011594,
  74:Core/Src/main.c ****                               0.3392926145, 0.3427754932, 0.3462497357, 0.3497152904, 0.3531721069,
  75:Core/Src/main.c ****                               0.3600593294, 0.3634896400, 0.3669110217, 0.3703234297, 0.3737268255,
  76:Core/Src/main.c ****                               0.3805063771, 0.3838824615, 0.3872493632, 0.3906070437, 0.3939554653,
  77:Core/Src/main.c ****                               0.4006243869, 0.4039448169, 0.4072558481, 0.4105574480, 0.4138495853,
  78:Core/Src/main.c ****                               0.4204053512, 0.4236689219, 0.4269229141, 0.4301673014, 0.4334020581,
  79:Core/Src/main.c ****                               0.4398425828, 0.4430483044, 0.4462443029, 0.4494305575, 0.4526070482,
  80:Core/Src/main.c ****                               0.4589306629, 0.4620777516, 0.4652150058, 0.4683424102, 0.4714599501,
  81:Core/Src/main.c ****                               0.4776653824, 0.4807532499, 0.4838312032, 0.4868992318, 0.4899573263,
  82:Core/Src/main.c ****                               0.4960436784, 0.4990719209, 0.5020901990, 0.5050985071, 0.5080968402,
  83:Core/Src/main.c ****                               0.5140635659, 0.5170319525, 0.5199903521, 0.5229387636, 0.5258771863,
  84:Core/Src/main.c ****                               0.5317240673, 0.5346325278, 0.5375310045, 0.5404195003, 0.5432980185,
ARM GAS  C:\Users\zhangjd\AppData\Local\Temp\ccomS8NF.s 			page 3


  85:Core/Src/main.c ****                               0.5490251398, 0.5518737530, 0.5547124091, 0.5575411147, 0.5603598769,
  86:Core/Src/main.c ****                               0.5659676030, 0.5687565842, 0.5715356566, 0.5743048302, 0.5770641155,
  87:Core/Src/main.c ****                               0.5825530662, 0.5852827553, 0.5880026035, 0.5907126240, 0.5934128303,
  88:Core/Src/main.c ****                               0.5987838570, 0.6014547069, 0.6041158015, 0.6067671569, 0.6094087892,
  89:Core/Src/main.c ****                               0.6146629519, 0.6172755171, 0.6198784285, 0.6224717045, 0.6250553640,
  90:Core/Src/main.c ****                               0.6301939095, 0.6327488350, 0.6352942223, 0.6378300921, 0.6403564651,
  91:Core/Src/main.c ****                               0.6453808058, 0.6478788169, 0.6503674179, 0.6528466311, 0.6553164793,
  92:Core/Src/main.c ****                               0.6602281731, 0.6626700655, 0.6651026865, 0.6675260602, 0.6699402110,
  93:Core/Src/main.c ****                               0.6747409422, 0.6771275725, 0.6795050796, 0.6818734889, 0.6842328261,
  94:Core/Src/main.c ****                               0.6889243882, 0.6912566655, 0.6935799756, 0.6958943450, 0.6981998008,
  95:Core/Src/main.c ****                               0.7027840796, 0.7050629571, 0.7073330300, 0.7095943260, 0.7118468729,
  96:Core/Src/main.c ****                               0.7163258312, 0.7185522990, 0.7207701302, 0.7229793534, 0.7251799971,
  97:Core/Src/main.c ****                               0.7295556609, 0.7317307387, 0.7338973524, 0.7360555311, 0.7382053040,
  98:Core/Src/main.c ****                               0.7424797493, 0.7446044805, 0.7467209234, 0.7488291075, 0.7509290624,
  99:Core/Src/main.c ****                               0.7551044035, 0.7571798492, 0.7592471847, 0.7613064400, 0.7633576449,
 100:Core/Src/main.c ****                               0.7674360235, 0.7694632573, 0.7714825607, 0.7734939638, 0.7754974968,
 101:Core/Src/main.c ****                               0.7794810727, 0.7814611759, 0.7834335294, 0.7853981634};
 102:Core/Src/main.c **** ////////////////////////////////////////atan2LUTif宏定义结束//////////////////////////////////
 103:Core/Src/main.c **** 
 104:Core/Src/main.c **** /* USER CODE END PD */
 105:Core/Src/main.c **** 
 106:Core/Src/main.c **** /* Private macro -------------------------------------------------------------*/
 107:Core/Src/main.c **** /* USER CODE BEGIN PM */
 108:Core/Src/main.c **** 
 109:Core/Src/main.c **** /* USER CODE END PM */
 110:Core/Src/main.c **** 
 111:Core/Src/main.c **** /* Private variables ---------------------------------------------------------*/
 112:Core/Src/main.c **** 
 113:Core/Src/main.c **** /* USER CODE BEGIN PV */
 114:Core/Src/main.c **** const float Kp = 300.0;
 115:Core/Src/main.c **** const float Ki = -118;
 116:Core/Src/main.c **** const float Kd = 50;
 117:Core/Src/main.c **** float state[3] = {0.0};
 118:Core/Src/main.c **** /* USER CODE END PV */
 119:Core/Src/main.c **** 
 120:Core/Src/main.c **** /* Private function prototypes -----------------------------------------------*/
 121:Core/Src/main.c **** void SystemClock_Config(void);
 122:Core/Src/main.c **** /* USER CODE BEGIN PFP */
 123:Core/Src/main.c **** 
 124:Core/Src/main.c **** /* USER CODE END PFP */
 125:Core/Src/main.c **** 
 126:Core/Src/main.c **** /* Private user code ---------------------------------------------------------*/
 127:Core/Src/main.c **** /* USER CODE BEGIN 0 */
 128:Core/Src/main.c **** 
 129:Core/Src/main.c **** void HAL_TIM_PeriodElapsedCallback(TIM_HandleTypeDef *htim)
 130:Core/Src/main.c **** {
 131:Core/Src/main.c ****     HAL_UART_Receive_DMA(&huart2, jy62Receive, JY62_MESSAGE_LENGTH);
 132:Core/Src/main.c **** 
 133:Core/Src/main.c ****     if (htim->Instance == TIM1)
 134:Core/Src/main.c ****     {
 135:Core/Src/main.c ****         float angle_car = GetYaw();
 136:Core/Src/main.c ****         if (angle_obj >= angle_err && angle_obj <= 360.0 - angle_err)
 137:Core/Src/main.c ****         {
 138:Core/Src/main.c ****             if (angle_car >= angle_obj - angle_err && angle_car <= angle_obj + angle_err && dis_obj
 139:Core/Src/main.c ****             {
 140:Core/Src/main.c ****                 forward(forward_speed);
 141:Core/Src/main.c ****             }
ARM GAS  C:\Users\zhangjd\AppData\Local\Temp\ccomS8NF.s 			page 4


 142:Core/Src/main.c ****             else
 143:Core/Src/main.c ****             {
 144:Core/Src/main.c ****                 rotate_clockwise(rotate_speed);
 145:Core/Src/main.c ****             }
 146:Core/Src/main.c ****         }
 147:Core/Src/main.c ****         else
 148:Core/Src/main.c ****         {
 149:Core/Src/main.c ****             if (angle_obj < angle_err)
 150:Core/Src/main.c ****             {
 151:Core/Src/main.c ****                 if ((angle_car >= angle_obj - angle_err + 360.0 || angle_car <= angle_obj + angle_e
 152:Core/Src/main.c ****                 {
 153:Core/Src/main.c ****                     forward(forward_speed);
 154:Core/Src/main.c ****                 }
 155:Core/Src/main.c ****                 else
 156:Core/Src/main.c ****                 {
 157:Core/Src/main.c ****                     rotate_clockwise(rotate_speed);
 158:Core/Src/main.c ****                 }
 159:Core/Src/main.c ****             }
 160:Core/Src/main.c ****             else if (angle_obj > 360 - angle_err)
 161:Core/Src/main.c ****             {
 162:Core/Src/main.c ****                 if ((angle_car <= angle_obj + angle_err - 360.0 || angle_car >= angle_obj - angle_e
 163:Core/Src/main.c ****                 {
 164:Core/Src/main.c ****                     forward(forward_speed);
 165:Core/Src/main.c ****                 }
 166:Core/Src/main.c ****                 else
 167:Core/Src/main.c ****                 {
 168:Core/Src/main.c ****                     rotate_clockwise(rotate_speed);
 169:Core/Src/main.c ****                 }
 170:Core/Src/main.c ****             }
 171:Core/Src/main.c ****         }
 172:Core/Src/main.c **** 
 173:Core/Src/main.c ****         //when head and the resourse(obj) are in the same half plane
 174:Core/Src/main.c ****         // if (angle_car > qiuyu360(angle_obj - 90) && angel_car < qiuyu360(angle_obj + 90))
 175:Core/Src/main.c ****         // {
 176:Core/Src/main.c ****         //     if (angle_car >= qiuyu360(angle_obj - angle_err) && angle_car <= qiuyu360(angle_obj 
 177:Core/Src/main.c ****         //         forward(forward_speed);
 178:Core/Src/main.c ****         //     else if (dis_obj > 2 && angle_car < (angle_obj - angle_err + 360) % 360)
 179:Core/Src/main.c ****         //         rotate_clockwise(rotate_speed);
 180:Core/Src/main.c ****         //     else if (dis_obj > 2 && angle_car > (angle_obj + angle_err + 360) % 360)
 181:Core/Src/main.c ****         //         rotate_counterclockwise(rotate_speed);
 182:Core/Src/main.c ****         // }
 183:Core/Src/main.c ****         // //when tail and the resourse(obj) are in the same half plane
 184:Core/Src/main.c ****         // else
 185:Core/Src/main.c ****         // {
 186:Core/Src/main.c ****         //     if (angle_abs <= 185.0 && angle_abs >= 175.0 && dis_obj > 2) //tail towards resourse
 187:Core/Src/main.c ****         //         backward(forward_speed);
 188:Core/Src/main.c ****         //     else if (dis_obj > 2 && angle_abs > 185.0)
 189:Core/Src/main.c ****         //         rotate_counterclockwise(rotate_speed);
 190:Core/Src/main.c ****         //     else if (dis_obj > 2 && angle_abs < 175.0)
 191:Core/Src/main.c ****         //         rotate_clockwise(rotate_speed);
 192:Core/Src/main.c ****         // }
 193:Core/Src/main.c ****     }
 194:Core/Src/main.c **** }
 195:Core/Src/main.c **** /* USER CODE END 0 */
 196:Core/Src/main.c **** 
 197:Core/Src/main.c **** /**
 198:Core/Src/main.c ****   * @brief  The application entry point.
ARM GAS  C:\Users\zhangjd\AppData\Local\Temp\ccomS8NF.s 			page 5


 199:Core/Src/main.c ****   * @retval int
 200:Core/Src/main.c ****   */
 201:Core/Src/main.c **** int main(void)
 202:Core/Src/main.c **** {
 203:Core/Src/main.c ****     /* USER CODE BEGIN 1 */
 204:Core/Src/main.c ****     /* USER CODE END 1 */
 205:Core/Src/main.c **** 
 206:Core/Src/main.c ****     /* MCU Configuration--------------------------------------------------------*/
 207:Core/Src/main.c **** 
 208:Core/Src/main.c ****     /* Reset of all peripherals, Initializes the Flash interface and the Systick. */
 209:Core/Src/main.c ****     HAL_Init();
 210:Core/Src/main.c **** 
 211:Core/Src/main.c ****     /* USER CODE BEGIN Init */
 212:Core/Src/main.c ****     jy62_Init(&huart2);
 213:Core/Src/main.c ****     SetBaud(115200);
 214:Core/Src/main.c ****     SetHorizontal();
 215:Core/Src/main.c ****     InitAngle();
 216:Core/Src/main.c ****     Calibrate();
 217:Core/Src/main.c ****     SleepOrAwake();
 218:Core/Src/main.c ****     /* USER CODE END Init */
 219:Core/Src/main.c **** 
 220:Core/Src/main.c ****     /* Configure the system clock */
 221:Core/Src/main.c ****     SystemClock_Config();
 222:Core/Src/main.c **** 
 223:Core/Src/main.c ****     /* USER CODE BEGIN SysInit */
 224:Core/Src/main.c **** 
 225:Core/Src/main.c ****     /* USER CODE END SysInit */
 226:Core/Src/main.c **** 
 227:Core/Src/main.c ****     /* Initialize all configured peripherals */
 228:Core/Src/main.c ****     MX_GPIO_Init();
 229:Core/Src/main.c ****     MX_TIM1_Init();
 230:Core/Src/main.c ****     MX_TIM2_Init();
 231:Core/Src/main.c ****     MX_TIM8_Init();
 232:Core/Src/main.c ****     MX_TIM3_Init();
 233:Core/Src/main.c ****     MX_TIM4_Init();
 234:Core/Src/main.c ****     MX_DMA_Init();
 235:Core/Src/main.c ****     MX_USART2_UART_Init();
 236:Core/Src/main.c ****     MX_USART1_UART_Init();
 237:Core/Src/main.c ****     MX_TIM5_Init();
 238:Core/Src/main.c ****     /* USER CODE BEGIN 2 */
 239:Core/Src/main.c ****     zigbee_Init(&huart1);
 240:Core/Src/main.c ****     HAL_TIM_Base_Start_IT(&htim1);
 241:Core/Src/main.c ****     HAL_TIM_PWM_Start(&htim8, TIM_CHANNEL_1);
 242:Core/Src/main.c ****     HAL_TIM_PWM_Start(&htim8, TIM_CHANNEL_2);
 243:Core/Src/main.c ****     HAL_TIM_PWM_Start(&htim8, TIM_CHANNEL_3);
 244:Core/Src/main.c ****     HAL_TIM_PWM_Start(&htim8, TIM_CHANNEL_4);
 245:Core/Src/main.c ****     HAL_TIM_Encoder_Start(&htim2, TIM_CHANNEL_1);
 246:Core/Src/main.c ****     HAL_TIM_Encoder_Start(&htim2, TIM_CHANNEL_2);
 247:Core/Src/main.c ****     HAL_TIM_Encoder_Start(&htim3, TIM_CHANNEL_1);
 248:Core/Src/main.c ****     HAL_TIM_Encoder_Start(&htim3, TIM_CHANNEL_2);
 249:Core/Src/main.c ****     HAL_TIM_Encoder_Start(&htim4, TIM_CHANNEL_1);
 250:Core/Src/main.c ****     HAL_TIM_Encoder_Start(&htim4, TIM_CHANNEL_2);
 251:Core/Src/main.c ****     HAL_TIM_Encoder_Start(&htim5, TIM_CHANNEL_1);
 252:Core/Src/main.c ****     HAL_TIM_Encoder_Start(&htim5, TIM_CHANNEL_2);
 253:Core/Src/main.c ****     jy62_Init(&huart2);
 254:Core/Src/main.c ****     void jy62_Init(UART_HandleTypeDef * huart);
 255:Core/Src/main.c **** 
ARM GAS  C:\Users\zhangjd\AppData\Local\Temp\ccomS8NF.s 			page 6


 256:Core/Src/main.c ****     HAL_GPIO_WritePin(GPIOB, GPIO_PIN_0, GPIO_PIN_SET);
 257:Core/Src/main.c ****     HAL_GPIO_WritePin(GPIOB, GPIO_PIN_1, GPIO_PIN_RESET);
 258:Core/Src/main.c ****     HAL_GPIO_WritePin(GPIOB, GPIO_PIN_2, GPIO_PIN_RESET);
 259:Core/Src/main.c ****     HAL_GPIO_WritePin(GPIOB, GPIO_PIN_10, GPIO_PIN_SET);
 260:Core/Src/main.c ****     HAL_GPIO_WritePin(GPIOB, GPIO_PIN_11, GPIO_PIN_SET);
 261:Core/Src/main.c ****     HAL_GPIO_WritePin(GPIOB, GPIO_PIN_12, GPIO_PIN_RESET);
 262:Core/Src/main.c ****     HAL_GPIO_WritePin(GPIOB, GPIO_PIN_13, GPIO_PIN_RESET);
 263:Core/Src/main.c ****     HAL_GPIO_WritePin(GPIOB, GPIO_PIN_14, GPIO_PIN_SET);
 264:Core/Src/main.c ****     /* USER CODE END 2 */
 265:Core/Src/main.c **** 
 266:Core/Src/main.c ****     /* Infinite loop */
 267:Core/Src/main.c ****     /* USER CODE BEGIN WHILE */
 268:Core/Src/main.c ****     while (1)
 269:Core/Src/main.c ****     {
 270:Core/Src/main.c ****         /* USER CODE END WHILE */
 271:Core/Src/main.c **** 
 272:Core/Src/main.c ****         /* USER CODE BEGIN 3 */
 273:Core/Src/main.c ****     }
 274:Core/Src/main.c ****     /* USER CODE END 3 */
 275:Core/Src/main.c **** }
 276:Core/Src/main.c **** 
 277:Core/Src/main.c **** /**
 278:Core/Src/main.c ****   * @brief System Clock Configuration
 279:Core/Src/main.c ****   * @retval None
 280:Core/Src/main.c ****   */
 281:Core/Src/main.c **** void SystemClock_Config(void)
 282:Core/Src/main.c **** {
 283:Core/Src/main.c ****     RCC_OscInitTypeDef RCC_OscInitStruct = {0};
 284:Core/Src/main.c ****     RCC_ClkInitTypeDef RCC_ClkInitStruct = {0};
 285:Core/Src/main.c **** 
 286:Core/Src/main.c ****     /** Initializes the RCC Oscillators according to the specified parameters
 287:Core/Src/main.c ****   * in the RCC_OscInitTypeDef structure.
 288:Core/Src/main.c ****   */
 289:Core/Src/main.c ****     RCC_OscInitStruct.OscillatorType = RCC_OSCILLATORTYPE_HSE;
 290:Core/Src/main.c ****     RCC_OscInitStruct.HSEState = RCC_HSE_ON;
 291:Core/Src/main.c ****     RCC_OscInitStruct.HSEPredivValue = RCC_HSE_PREDIV_DIV1;
 292:Core/Src/main.c ****     RCC_OscInitStruct.HSIState = RCC_HSI_ON;
 293:Core/Src/main.c ****     RCC_OscInitStruct.PLL.PLLState = RCC_PLL_ON;
 294:Core/Src/main.c ****     RCC_OscInitStruct.PLL.PLLSource = RCC_PLLSOURCE_HSE;
 295:Core/Src/main.c ****     RCC_OscInitStruct.PLL.PLLMUL = RCC_PLL_MUL9;
 296:Core/Src/main.c ****     if (HAL_RCC_OscConfig(&RCC_OscInitStruct) != HAL_OK)
 297:Core/Src/main.c ****     {
 298:Core/Src/main.c ****         Error_Handler();
 299:Core/Src/main.c ****     }
 300:Core/Src/main.c ****     /** Initializes the CPU, AHB and APB buses clocks
 301:Core/Src/main.c ****   */
 302:Core/Src/main.c ****     RCC_ClkInitStruct.ClockType = RCC_CLOCKTYPE_HCLK | RCC_CLOCKTYPE_SYSCLK | RCC_CLOCKTYPE_PCLK1 |
 303:Core/Src/main.c ****     RCC_ClkInitStruct.SYSCLKSource = RCC_SYSCLKSOURCE_PLLCLK;
 304:Core/Src/main.c ****     RCC_ClkInitStruct.AHBCLKDivider = RCC_SYSCLK_DIV1;
 305:Core/Src/main.c ****     RCC_ClkInitStruct.APB1CLKDivider = RCC_HCLK_DIV2;
 306:Core/Src/main.c ****     RCC_ClkInitStruct.APB2CLKDivider = RCC_HCLK_DIV1;
 307:Core/Src/main.c **** 
 308:Core/Src/main.c ****     if (HAL_RCC_ClockConfig(&RCC_ClkInitStruct, FLASH_LATENCY_2) != HAL_OK)
 309:Core/Src/main.c ****     {
 310:Core/Src/main.c ****         Error_Handler();
 311:Core/Src/main.c ****     }
 312:Core/Src/main.c **** }
ARM GAS  C:\Users\zhangjd\AppData\Local\Temp\ccomS8NF.s 			page 7


 313:Core/Src/main.c **** 
 314:Core/Src/main.c **** /* USER CODE BEGIN 4 */
 315:Core/Src/main.c **** float pid(float in)
 316:Core/Src/main.c **** {
  32              		.loc 1 316 1 view -0
  33              		.cfi_startproc
  34              		@ args = 0, pretend = 0, frame = 0
  35              		@ frame_needed = 0, uses_anonymous_args = 0
  36              		.loc 1 316 1 is_stmt 0 view .LVU1
  37 0000 F8B5     		push	{r3, r4, r5, r6, r7, lr}
  38              	.LCFI0:
  39              		.cfi_def_cfa_offset 24
  40              		.cfi_offset 3, -24
  41              		.cfi_offset 4, -20
  42              		.cfi_offset 5, -16
  43              		.cfi_offset 6, -12
  44              		.cfi_offset 7, -8
  45              		.cfi_offset 14, -4
  46 0002 0546     		mov	r5, r0
 317:Core/Src/main.c ****     float out;
  47              		.loc 1 317 5 is_stmt 1 view .LVU2
 318:Core/Src/main.c ****     // y[n] = A0 * x[n] + A1 * x[n-1] + A2 * x[n-2]
 319:Core/Src/main.c ****     out = ((Kp + Ki + Kd) * in) + ((-Ki - 2 * Kd) * state[0]) + (Kd * state[1]);
  48              		.loc 1 319 5 view .LVU3
  49              		.loc 1 319 27 is_stmt 0 view .LVU4
  50 0004 1749     		ldr	r1, .L13
  51 0006 FFF7FEFF 		bl	__aeabi_fmul
  52              	.LVL1:
  53              		.loc 1 319 27 view .LVU5
  54 000a 0646     		mov	r6, r0
  55              		.loc 1 319 58 view .LVU6
  56 000c 164C     		ldr	r4, .L13+4
  57 000e 2768     		ldr	r7, [r4]	@ float
  58              		.loc 1 319 51 view .LVU7
  59 0010 1649     		ldr	r1, .L13+8
  60 0012 3846     		mov	r0, r7
  61 0014 FFF7FEFF 		bl	__aeabi_fmul
  62              	.LVL2:
  63 0018 0146     		mov	r1, r0
  64              		.loc 1 319 33 view .LVU8
  65 001a 3046     		mov	r0, r6
  66 001c FFF7FEFF 		bl	__aeabi_fadd
  67              	.LVL3:
  68 0020 0646     		mov	r6, r0
  69              		.loc 1 319 69 view .LVU9
  70 0022 1349     		ldr	r1, .L13+12
  71 0024 6068     		ldr	r0, [r4, #4]	@ float
  72 0026 FFF7FEFF 		bl	__aeabi_fmul
  73              	.LVL4:
  74 002a 0146     		mov	r1, r0
  75              		.loc 1 319 9 view .LVU10
  76 002c 3046     		mov	r0, r6
  77 002e FFF7FEFF 		bl	__aeabi_fadd
  78              	.LVL5:
  79 0032 0646     		mov	r6, r0
  80              	.LVL6:
 320:Core/Src/main.c ****     state[1] = state[0];
ARM GAS  C:\Users\zhangjd\AppData\Local\Temp\ccomS8NF.s 			page 8


  81              		.loc 1 320 5 is_stmt 1 view .LVU11
  82              		.loc 1 320 14 is_stmt 0 view .LVU12
  83 0034 6760     		str	r7, [r4, #4]	@ float
 321:Core/Src/main.c ****     state[0] = in;
  84              		.loc 1 321 5 is_stmt 1 view .LVU13
  85              		.loc 1 321 14 is_stmt 0 view .LVU14
  86 0036 2560     		str	r5, [r4]	@ float
 322:Core/Src/main.c ****     if (out >= PID_MAX)
  87              		.loc 1 322 5 is_stmt 1 view .LVU15
  88              		.loc 1 322 8 is_stmt 0 view .LVU16
  89 0038 0E49     		ldr	r1, .L13+16
  90 003a FFF7FEFF 		bl	__aeabi_fcmpge
  91              	.LVL7:
  92              		.loc 1 322 8 view .LVU17
  93 003e 20B1     		cbz	r0, .L9
 323:Core/Src/main.c ****         state[2] = PID_MAX;
  94              		.loc 1 323 9 is_stmt 1 view .LVU18
  95              		.loc 1 323 18 is_stmt 0 view .LVU19
  96 0040 0C4A     		ldr	r2, .L13+16
  97 0042 A260     		str	r2, [r4, #8]	@ float
  98              	.L4:
 324:Core/Src/main.c ****     else if (out <= PID_MIN)
 325:Core/Src/main.c ****         state[2] = PID_MIN;
 326:Core/Src/main.c ****     else
 327:Core/Src/main.c ****         state[2] = out;
 328:Core/Src/main.c ****     return (state[2]);
  99              		.loc 1 328 5 is_stmt 1 view .LVU20
 329:Core/Src/main.c **** }
 100              		.loc 1 329 1 is_stmt 0 view .LVU21
 101 0044 084B     		ldr	r3, .L13+4
 102 0046 9868     		ldr	r0, [r3, #8]	@ float
 103 0048 F8BD     		pop	{r3, r4, r5, r6, r7, pc}
 104              	.LVL8:
 105              	.L9:
 324:Core/Src/main.c ****     else if (out <= PID_MIN)
 106              		.loc 1 324 10 is_stmt 1 view .LVU22
 324:Core/Src/main.c ****     else if (out <= PID_MIN)
 107              		.loc 1 324 13 is_stmt 0 view .LVU23
 108 004a 0021     		movs	r1, #0
 109 004c 3046     		mov	r0, r6
 110 004e FFF7FEFF 		bl	__aeabi_fcmple
 111              	.LVL9:
 112 0052 10B9     		cbnz	r0, .L12
 327:Core/Src/main.c ****     return (state[2]);
 113              		.loc 1 327 9 is_stmt 1 view .LVU24
 327:Core/Src/main.c ****     return (state[2]);
 114              		.loc 1 327 18 is_stmt 0 view .LVU25
 115 0054 044B     		ldr	r3, .L13+4
 116 0056 9E60     		str	r6, [r3, #8]	@ float
 117 0058 F4E7     		b	.L4
 118              	.L12:
 325:Core/Src/main.c ****     else
 119              		.loc 1 325 9 is_stmt 1 view .LVU26
 325:Core/Src/main.c ****     else
 120              		.loc 1 325 18 is_stmt 0 view .LVU27
 121 005a 034B     		ldr	r3, .L13+4
 122 005c 0022     		movs	r2, #0
ARM GAS  C:\Users\zhangjd\AppData\Local\Temp\ccomS8NF.s 			page 9


 123 005e 9A60     		str	r2, [r3, #8]	@ float
 124 0060 F0E7     		b	.L4
 125              	.L14:
 126 0062 00BF     		.align	2
 127              	.L13:
 128 0064 00006843 		.word	1130889216
 129 0068 00000000 		.word	.LANCHOR0
 130 006c 00009041 		.word	1099956224
 131 0070 00004842 		.word	1112014848
 132 0074 00803B45 		.word	1161527296
 133              		.cfi_endproc
 134              	.LFE68:
 136              		.section	.text.Abs,"ax",%progbits
 137              		.align	1
 138              		.global	Abs
 139              		.syntax unified
 140              		.thumb
 141              		.thumb_func
 142              		.fpu softvfp
 144              	Abs:
 145              	.LVL10:
 146              	.LFB69:
 330:Core/Src/main.c **** 
 331:Core/Src/main.c **** short Abs(short in)
 332:Core/Src/main.c **** {
 147              		.loc 1 332 1 is_stmt 1 view -0
 148              		.cfi_startproc
 149              		@ args = 0, pretend = 0, frame = 0
 150              		@ frame_needed = 0, uses_anonymous_args = 0
 151              		@ link register save eliminated.
 333:Core/Src/main.c ****     return in >= 0 ? in : -in;
 152              		.loc 1 333 5 view .LVU29
 153              		.loc 1 333 25 is_stmt 0 view .LVU30
 154 0000 0028     		cmp	r0, #0
 155 0002 B8BF     		it	lt
 156 0004 4042     		rsblt	r0, r0, #0
 157              	.LVL11:
 334:Core/Src/main.c **** }
 158              		.loc 1 334 1 view .LVU31
 159 0006 00B2     		sxth	r0, r0
 160 0008 7047     		bx	lr
 161              		.cfi_endproc
 162              	.LFE69:
 164              		.global	__aeabi_fsub
 165              		.global	__aeabi_fcmpgt
 166              		.global	__aeabi_fcmplt
 167              		.section	.text.qiuyu360,"ax",%progbits
 168              		.align	1
 169              		.global	qiuyu360
 170              		.syntax unified
 171              		.thumb
 172              		.thumb_func
 173              		.fpu softvfp
 175              	qiuyu360:
 176              	.LVL12:
 177              	.LFB70:
 335:Core/Src/main.c **** 
ARM GAS  C:\Users\zhangjd\AppData\Local\Temp\ccomS8NF.s 			page 10


 336:Core/Src/main.c **** float qiuyu360(float in)
 337:Core/Src/main.c **** {
 178              		.loc 1 337 1 is_stmt 1 view -0
 179              		.cfi_startproc
 180              		@ args = 0, pretend = 0, frame = 0
 181              		@ frame_needed = 0, uses_anonymous_args = 0
 182              		.loc 1 337 1 is_stmt 0 view .LVU33
 183 0000 10B5     		push	{r4, lr}
 184              	.LCFI1:
 185              		.cfi_def_cfa_offset 8
 186              		.cfi_offset 4, -8
 187              		.cfi_offset 14, -4
 188 0002 0446     		mov	r4, r0
 338:Core/Src/main.c ****     while (in > 360)
 189              		.loc 1 338 5 is_stmt 1 view .LVU34
 190              		.loc 1 338 11 is_stmt 0 view .LVU35
 191 0004 04E0     		b	.L17
 192              	.LVL13:
 193              	.L18:
 339:Core/Src/main.c ****         in -= 360.0;
 194              		.loc 1 339 9 is_stmt 1 view .LVU36
 195              		.loc 1 339 12 is_stmt 0 view .LVU37
 196 0006 0C49     		ldr	r1, .L22
 197 0008 2046     		mov	r0, r4
 198 000a FFF7FEFF 		bl	__aeabi_fsub
 199              	.LVL14:
 200 000e 0446     		mov	r4, r0
 201              	.LVL15:
 202              	.L17:
 338:Core/Src/main.c ****     while (in > 360)
 203              		.loc 1 338 11 is_stmt 1 view .LVU38
 204 0010 0949     		ldr	r1, .L22
 205 0012 2046     		mov	r0, r4
 338:Core/Src/main.c ****     while (in > 360)
 206              		.loc 1 338 11 is_stmt 0 view .LVU39
 207 0014 FFF7FEFF 		bl	__aeabi_fcmpgt
 208              	.LVL16:
 338:Core/Src/main.c ****     while (in > 360)
 209              		.loc 1 338 11 view .LVU40
 210 0018 0028     		cmp	r0, #0
 211 001a F4D1     		bne	.L18
 338:Core/Src/main.c ****     while (in > 360)
 212              		.loc 1 338 11 view .LVU41
 213 001c 04E0     		b	.L19
 214              	.L20:
 340:Core/Src/main.c ****     while (in < 0)
 341:Core/Src/main.c ****         in += 360.0;
 215              		.loc 1 341 9 is_stmt 1 view .LVU42
 216              		.loc 1 341 12 is_stmt 0 view .LVU43
 217 001e 0649     		ldr	r1, .L22
 218 0020 2046     		mov	r0, r4
 219 0022 FFF7FEFF 		bl	__aeabi_fadd
 220              	.LVL17:
 221 0026 0446     		mov	r4, r0
 222              	.LVL18:
 223              	.L19:
 340:Core/Src/main.c ****     while (in < 0)
ARM GAS  C:\Users\zhangjd\AppData\Local\Temp\ccomS8NF.s 			page 11


 224              		.loc 1 340 11 is_stmt 1 view .LVU44
 225 0028 0021     		movs	r1, #0
 226 002a 2046     		mov	r0, r4
 227 002c FFF7FEFF 		bl	__aeabi_fcmplt
 228              	.LVL19:
 229 0030 0028     		cmp	r0, #0
 230 0032 F4D1     		bne	.L20
 342:Core/Src/main.c ****     return in;
 231              		.loc 1 342 5 view .LVU45
 343:Core/Src/main.c **** }
 232              		.loc 1 343 1 is_stmt 0 view .LVU46
 233 0034 2046     		mov	r0, r4
 234 0036 10BD     		pop	{r4, pc}
 235              	.LVL20:
 236              	.L23:
 237              		.loc 1 343 1 view .LVU47
 238              		.align	2
 239              	.L22:
 240 0038 0000B443 		.word	1135869952
 241              		.cfi_endproc
 242              	.LFE70:
 244              		.section	.text.forward,"ax",%progbits
 245              		.align	1
 246              		.global	forward
 247              		.syntax unified
 248              		.thumb
 249              		.thumb_func
 250              		.fpu softvfp
 252              	forward:
 253              	.LVL21:
 254              	.LFB71:
 344:Core/Src/main.c **** 
 345:Core/Src/main.c **** void forward(int pwm)
 346:Core/Src/main.c **** {
 255              		.loc 1 346 1 is_stmt 1 view -0
 256              		.cfi_startproc
 257              		@ args = 0, pretend = 0, frame = 0
 258              		@ frame_needed = 0, uses_anonymous_args = 0
 259              		.loc 1 346 1 is_stmt 0 view .LVU49
 260 0000 38B5     		push	{r3, r4, r5, lr}
 261              	.LCFI2:
 262              		.cfi_def_cfa_offset 16
 263              		.cfi_offset 3, -16
 264              		.cfi_offset 4, -12
 265              		.cfi_offset 5, -8
 266              		.cfi_offset 14, -4
 267 0002 0546     		mov	r5, r0
 347:Core/Src/main.c ****     //change rotate direction of wheel
 348:Core/Src/main.c ****     HAL_GPIO_WritePin(GPIOB, GPIO_PIN_0, GPIO_PIN_SET);
 268              		.loc 1 348 5 is_stmt 1 view .LVU50
 269 0004 1A4C     		ldr	r4, .L26
 270 0006 0122     		movs	r2, #1
 271 0008 1146     		mov	r1, r2
 272 000a 2046     		mov	r0, r4
 273              	.LVL22:
 274              		.loc 1 348 5 is_stmt 0 view .LVU51
 275 000c FFF7FEFF 		bl	HAL_GPIO_WritePin
ARM GAS  C:\Users\zhangjd\AppData\Local\Temp\ccomS8NF.s 			page 12


 276              	.LVL23:
 349:Core/Src/main.c ****     HAL_GPIO_WritePin(GPIOB, GPIO_PIN_1, GPIO_PIN_RESET);
 277              		.loc 1 349 5 is_stmt 1 view .LVU52
 278 0010 0022     		movs	r2, #0
 279 0012 0221     		movs	r1, #2
 280 0014 2046     		mov	r0, r4
 281 0016 FFF7FEFF 		bl	HAL_GPIO_WritePin
 282              	.LVL24:
 350:Core/Src/main.c ****     HAL_GPIO_WritePin(GPIOB, GPIO_PIN_2, GPIO_PIN_RESET);
 283              		.loc 1 350 5 view .LVU53
 284 001a 0022     		movs	r2, #0
 285 001c 0421     		movs	r1, #4
 286 001e 2046     		mov	r0, r4
 287 0020 FFF7FEFF 		bl	HAL_GPIO_WritePin
 288              	.LVL25:
 351:Core/Src/main.c ****     HAL_GPIO_WritePin(GPIOB, GPIO_PIN_10, GPIO_PIN_SET);
 289              		.loc 1 351 5 view .LVU54
 290 0024 0122     		movs	r2, #1
 291 0026 4FF48061 		mov	r1, #1024
 292 002a 2046     		mov	r0, r4
 293 002c FFF7FEFF 		bl	HAL_GPIO_WritePin
 294              	.LVL26:
 352:Core/Src/main.c ****     HAL_GPIO_WritePin(GPIOB, GPIO_PIN_11, GPIO_PIN_SET);
 295              		.loc 1 352 5 view .LVU55
 296 0030 0122     		movs	r2, #1
 297 0032 4FF40061 		mov	r1, #2048
 298 0036 2046     		mov	r0, r4
 299 0038 FFF7FEFF 		bl	HAL_GPIO_WritePin
 300              	.LVL27:
 353:Core/Src/main.c ****     HAL_GPIO_WritePin(GPIOB, GPIO_PIN_12, GPIO_PIN_RESET);
 301              		.loc 1 353 5 view .LVU56
 302 003c 0022     		movs	r2, #0
 303 003e 4FF48051 		mov	r1, #4096
 304 0042 2046     		mov	r0, r4
 305 0044 FFF7FEFF 		bl	HAL_GPIO_WritePin
 306              	.LVL28:
 354:Core/Src/main.c ****     HAL_GPIO_WritePin(GPIOB, GPIO_PIN_13, GPIO_PIN_RESET);
 307              		.loc 1 354 5 view .LVU57
 308 0048 0022     		movs	r2, #0
 309 004a 4FF40051 		mov	r1, #8192
 310 004e 2046     		mov	r0, r4
 311 0050 FFF7FEFF 		bl	HAL_GPIO_WritePin
 312              	.LVL29:
 355:Core/Src/main.c ****     HAL_GPIO_WritePin(GPIOB, GPIO_PIN_14, GPIO_PIN_SET);
 313              		.loc 1 355 5 view .LVU58
 314 0054 0122     		movs	r2, #1
 315 0056 4FF48041 		mov	r1, #16384
 316 005a 2046     		mov	r0, r4
 317 005c FFF7FEFF 		bl	HAL_GPIO_WritePin
 318              	.LVL30:
 356:Core/Src/main.c ****     //give pwm output
 357:Core/Src/main.c ****     __HAL_TIM_SetCompare(&htim8, TIM_CHANNEL_1, pwm);
 319              		.loc 1 357 5 view .LVU59
 320 0060 044B     		ldr	r3, .L26+4
 321 0062 1B68     		ldr	r3, [r3]
 322 0064 5D63     		str	r5, [r3, #52]
 358:Core/Src/main.c ****     __HAL_TIM_SetCompare(&htim8, TIM_CHANNEL_2, pwm);
ARM GAS  C:\Users\zhangjd\AppData\Local\Temp\ccomS8NF.s 			page 13


 323              		.loc 1 358 5 view .LVU60
 324 0066 9D63     		str	r5, [r3, #56]
 359:Core/Src/main.c ****     __HAL_TIM_SetCompare(&htim8, TIM_CHANNEL_3, pwm);
 325              		.loc 1 359 5 view .LVU61
 326 0068 DD63     		str	r5, [r3, #60]
 360:Core/Src/main.c ****     __HAL_TIM_SetCompare(&htim8, TIM_CHANNEL_4, pwm);
 327              		.loc 1 360 5 view .LVU62
 328 006a 1D64     		str	r5, [r3, #64]
 361:Core/Src/main.c **** }
 329              		.loc 1 361 1 is_stmt 0 view .LVU63
 330 006c 38BD     		pop	{r3, r4, r5, pc}
 331              	.LVL31:
 332              	.L27:
 333              		.loc 1 361 1 view .LVU64
 334 006e 00BF     		.align	2
 335              	.L26:
 336 0070 000C0140 		.word	1073810432
 337 0074 00000000 		.word	htim8
 338              		.cfi_endproc
 339              	.LFE71:
 341              		.section	.text.backward,"ax",%progbits
 342              		.align	1
 343              		.global	backward
 344              		.syntax unified
 345              		.thumb
 346              		.thumb_func
 347              		.fpu softvfp
 349              	backward:
 350              	.LVL32:
 351              	.LFB72:
 362:Core/Src/main.c **** 
 363:Core/Src/main.c **** void backward(int pwm)
 364:Core/Src/main.c **** {
 352              		.loc 1 364 1 is_stmt 1 view -0
 353              		.cfi_startproc
 354              		@ args = 0, pretend = 0, frame = 0
 355              		@ frame_needed = 0, uses_anonymous_args = 0
 356              		.loc 1 364 1 is_stmt 0 view .LVU66
 357 0000 38B5     		push	{r3, r4, r5, lr}
 358              	.LCFI3:
 359              		.cfi_def_cfa_offset 16
 360              		.cfi_offset 3, -16
 361              		.cfi_offset 4, -12
 362              		.cfi_offset 5, -8
 363              		.cfi_offset 14, -4
 364 0002 0546     		mov	r5, r0
 365:Core/Src/main.c ****     //change rotate direction of wheel
 366:Core/Src/main.c ****     HAL_GPIO_WritePin(GPIOB, GPIO_PIN_0, GPIO_PIN_RESET);
 365              		.loc 1 366 5 is_stmt 1 view .LVU67
 366 0004 1A4C     		ldr	r4, .L30
 367 0006 0022     		movs	r2, #0
 368 0008 0121     		movs	r1, #1
 369 000a 2046     		mov	r0, r4
 370              	.LVL33:
 371              		.loc 1 366 5 is_stmt 0 view .LVU68
 372 000c FFF7FEFF 		bl	HAL_GPIO_WritePin
 373              	.LVL34:
ARM GAS  C:\Users\zhangjd\AppData\Local\Temp\ccomS8NF.s 			page 14


 367:Core/Src/main.c ****     HAL_GPIO_WritePin(GPIOB, GPIO_PIN_1, GPIO_PIN_SET);
 374              		.loc 1 367 5 is_stmt 1 view .LVU69
 375 0010 0122     		movs	r2, #1
 376 0012 0221     		movs	r1, #2
 377 0014 2046     		mov	r0, r4
 378 0016 FFF7FEFF 		bl	HAL_GPIO_WritePin
 379              	.LVL35:
 368:Core/Src/main.c ****     HAL_GPIO_WritePin(GPIOB, GPIO_PIN_2, GPIO_PIN_SET);
 380              		.loc 1 368 5 view .LVU70
 381 001a 0122     		movs	r2, #1
 382 001c 0421     		movs	r1, #4
 383 001e 2046     		mov	r0, r4
 384 0020 FFF7FEFF 		bl	HAL_GPIO_WritePin
 385              	.LVL36:
 369:Core/Src/main.c ****     HAL_GPIO_WritePin(GPIOB, GPIO_PIN_10, GPIO_PIN_RESET);
 386              		.loc 1 369 5 view .LVU71
 387 0024 0022     		movs	r2, #0
 388 0026 4FF48061 		mov	r1, #1024
 389 002a 2046     		mov	r0, r4
 390 002c FFF7FEFF 		bl	HAL_GPIO_WritePin
 391              	.LVL37:
 370:Core/Src/main.c ****     HAL_GPIO_WritePin(GPIOB, GPIO_PIN_11, GPIO_PIN_RESET);
 392              		.loc 1 370 5 view .LVU72
 393 0030 0022     		movs	r2, #0
 394 0032 4FF40061 		mov	r1, #2048
 395 0036 2046     		mov	r0, r4
 396 0038 FFF7FEFF 		bl	HAL_GPIO_WritePin
 397              	.LVL38:
 371:Core/Src/main.c ****     HAL_GPIO_WritePin(GPIOB, GPIO_PIN_12, GPIO_PIN_SET);
 398              		.loc 1 371 5 view .LVU73
 399 003c 0122     		movs	r2, #1
 400 003e 4FF48051 		mov	r1, #4096
 401 0042 2046     		mov	r0, r4
 402 0044 FFF7FEFF 		bl	HAL_GPIO_WritePin
 403              	.LVL39:
 372:Core/Src/main.c ****     HAL_GPIO_WritePin(GPIOB, GPIO_PIN_13, GPIO_PIN_SET);
 404              		.loc 1 372 5 view .LVU74
 405 0048 0122     		movs	r2, #1
 406 004a 4FF40051 		mov	r1, #8192
 407 004e 2046     		mov	r0, r4
 408 0050 FFF7FEFF 		bl	HAL_GPIO_WritePin
 409              	.LVL40:
 373:Core/Src/main.c ****     HAL_GPIO_WritePin(GPIOB, GPIO_PIN_14, GPIO_PIN_RESET);
 410              		.loc 1 373 5 view .LVU75
 411 0054 0022     		movs	r2, #0
 412 0056 4FF48041 		mov	r1, #16384
 413 005a 2046     		mov	r0, r4
 414 005c FFF7FEFF 		bl	HAL_GPIO_WritePin
 415              	.LVL41:
 374:Core/Src/main.c ****     //give pwm output
 375:Core/Src/main.c ****     __HAL_TIM_SetCompare(&htim8, TIM_CHANNEL_1, pwm);
 416              		.loc 1 375 5 view .LVU76
 417 0060 044B     		ldr	r3, .L30+4
 418 0062 1B68     		ldr	r3, [r3]
 419 0064 5D63     		str	r5, [r3, #52]
 376:Core/Src/main.c ****     __HAL_TIM_SetCompare(&htim8, TIM_CHANNEL_2, pwm);
 420              		.loc 1 376 5 view .LVU77
ARM GAS  C:\Users\zhangjd\AppData\Local\Temp\ccomS8NF.s 			page 15


 421 0066 9D63     		str	r5, [r3, #56]
 377:Core/Src/main.c ****     __HAL_TIM_SetCompare(&htim8, TIM_CHANNEL_3, pwm);
 422              		.loc 1 377 5 view .LVU78
 423 0068 DD63     		str	r5, [r3, #60]
 378:Core/Src/main.c ****     __HAL_TIM_SetCompare(&htim8, TIM_CHANNEL_4, pwm);
 424              		.loc 1 378 5 view .LVU79
 425 006a 1D64     		str	r5, [r3, #64]
 379:Core/Src/main.c **** }
 426              		.loc 1 379 1 is_stmt 0 view .LVU80
 427 006c 38BD     		pop	{r3, r4, r5, pc}
 428              	.LVL42:
 429              	.L31:
 430              		.loc 1 379 1 view .LVU81
 431 006e 00BF     		.align	2
 432              	.L30:
 433 0070 000C0140 		.word	1073810432
 434 0074 00000000 		.word	htim8
 435              		.cfi_endproc
 436              	.LFE72:
 438              		.section	.text.rotate_counterclockwise,"ax",%progbits
 439              		.align	1
 440              		.global	rotate_counterclockwise
 441              		.syntax unified
 442              		.thumb
 443              		.thumb_func
 444              		.fpu softvfp
 446              	rotate_counterclockwise:
 447              	.LVL43:
 448              	.LFB73:
 380:Core/Src/main.c **** 
 381:Core/Src/main.c **** void rotate_counterclockwise(int pwm)
 382:Core/Src/main.c **** {
 449              		.loc 1 382 1 is_stmt 1 view -0
 450              		.cfi_startproc
 451              		@ args = 0, pretend = 0, frame = 0
 452              		@ frame_needed = 0, uses_anonymous_args = 0
 453              		.loc 1 382 1 is_stmt 0 view .LVU83
 454 0000 38B5     		push	{r3, r4, r5, lr}
 455              	.LCFI4:
 456              		.cfi_def_cfa_offset 16
 457              		.cfi_offset 3, -16
 458              		.cfi_offset 4, -12
 459              		.cfi_offset 5, -8
 460              		.cfi_offset 14, -4
 461 0002 0546     		mov	r5, r0
 383:Core/Src/main.c ****     //change rotate direction of wheel
 384:Core/Src/main.c ****     HAL_GPIO_WritePin(GPIOB, GPIO_PIN_0, GPIO_PIN_SET);
 462              		.loc 1 384 5 is_stmt 1 view .LVU84
 463 0004 1A4C     		ldr	r4, .L34
 464 0006 0122     		movs	r2, #1
 465 0008 1146     		mov	r1, r2
 466 000a 2046     		mov	r0, r4
 467              	.LVL44:
 468              		.loc 1 384 5 is_stmt 0 view .LVU85
 469 000c FFF7FEFF 		bl	HAL_GPIO_WritePin
 470              	.LVL45:
 385:Core/Src/main.c ****     HAL_GPIO_WritePin(GPIOB, GPIO_PIN_1, GPIO_PIN_RESET);
ARM GAS  C:\Users\zhangjd\AppData\Local\Temp\ccomS8NF.s 			page 16


 471              		.loc 1 385 5 is_stmt 1 view .LVU86
 472 0010 0022     		movs	r2, #0
 473 0012 0221     		movs	r1, #2
 474 0014 2046     		mov	r0, r4
 475 0016 FFF7FEFF 		bl	HAL_GPIO_WritePin
 476              	.LVL46:
 386:Core/Src/main.c ****     HAL_GPIO_WritePin(GPIOB, GPIO_PIN_2, GPIO_PIN_RESET);
 477              		.loc 1 386 5 view .LVU87
 478 001a 0022     		movs	r2, #0
 479 001c 0421     		movs	r1, #4
 480 001e 2046     		mov	r0, r4
 481 0020 FFF7FEFF 		bl	HAL_GPIO_WritePin
 482              	.LVL47:
 387:Core/Src/main.c ****     HAL_GPIO_WritePin(GPIOB, GPIO_PIN_10, GPIO_PIN_SET);
 483              		.loc 1 387 5 view .LVU88
 484 0024 0122     		movs	r2, #1
 485 0026 4FF48061 		mov	r1, #1024
 486 002a 2046     		mov	r0, r4
 487 002c FFF7FEFF 		bl	HAL_GPIO_WritePin
 488              	.LVL48:
 388:Core/Src/main.c ****     HAL_GPIO_WritePin(GPIOB, GPIO_PIN_11, GPIO_PIN_RESET);
 489              		.loc 1 388 5 view .LVU89
 490 0030 0022     		movs	r2, #0
 491 0032 4FF40061 		mov	r1, #2048
 492 0036 2046     		mov	r0, r4
 493 0038 FFF7FEFF 		bl	HAL_GPIO_WritePin
 494              	.LVL49:
 389:Core/Src/main.c ****     HAL_GPIO_WritePin(GPIOB, GPIO_PIN_12, GPIO_PIN_SET);
 495              		.loc 1 389 5 view .LVU90
 496 003c 0122     		movs	r2, #1
 497 003e 4FF48051 		mov	r1, #4096
 498 0042 2046     		mov	r0, r4
 499 0044 FFF7FEFF 		bl	HAL_GPIO_WritePin
 500              	.LVL50:
 390:Core/Src/main.c ****     HAL_GPIO_WritePin(GPIOB, GPIO_PIN_13, GPIO_PIN_SET);
 501              		.loc 1 390 5 view .LVU91
 502 0048 0122     		movs	r2, #1
 503 004a 4FF40051 		mov	r1, #8192
 504 004e 2046     		mov	r0, r4
 505 0050 FFF7FEFF 		bl	HAL_GPIO_WritePin
 506              	.LVL51:
 391:Core/Src/main.c ****     HAL_GPIO_WritePin(GPIOB, GPIO_PIN_14, GPIO_PIN_RESET);
 507              		.loc 1 391 5 view .LVU92
 508 0054 0022     		movs	r2, #0
 509 0056 4FF48041 		mov	r1, #16384
 510 005a 2046     		mov	r0, r4
 511 005c FFF7FEFF 		bl	HAL_GPIO_WritePin
 512              	.LVL52:
 392:Core/Src/main.c ****     //give pwm output
 393:Core/Src/main.c ****     __HAL_TIM_SetCompare(&htim8, TIM_CHANNEL_1, pwm);
 513              		.loc 1 393 5 view .LVU93
 514 0060 044B     		ldr	r3, .L34+4
 515 0062 1B68     		ldr	r3, [r3]
 516 0064 5D63     		str	r5, [r3, #52]
 394:Core/Src/main.c ****     __HAL_TIM_SetCompare(&htim8, TIM_CHANNEL_2, pwm);
 517              		.loc 1 394 5 view .LVU94
 518 0066 9D63     		str	r5, [r3, #56]
ARM GAS  C:\Users\zhangjd\AppData\Local\Temp\ccomS8NF.s 			page 17


 395:Core/Src/main.c ****     __HAL_TIM_SetCompare(&htim8, TIM_CHANNEL_3, pwm);
 519              		.loc 1 395 5 view .LVU95
 520 0068 DD63     		str	r5, [r3, #60]
 396:Core/Src/main.c ****     __HAL_TIM_SetCompare(&htim8, TIM_CHANNEL_4, pwm);
 521              		.loc 1 396 5 view .LVU96
 522 006a 1D64     		str	r5, [r3, #64]
 397:Core/Src/main.c **** }
 523              		.loc 1 397 1 is_stmt 0 view .LVU97
 524 006c 38BD     		pop	{r3, r4, r5, pc}
 525              	.LVL53:
 526              	.L35:
 527              		.loc 1 397 1 view .LVU98
 528 006e 00BF     		.align	2
 529              	.L34:
 530 0070 000C0140 		.word	1073810432
 531 0074 00000000 		.word	htim8
 532              		.cfi_endproc
 533              	.LFE73:
 535              		.section	.text.rotate_clockwise,"ax",%progbits
 536              		.align	1
 537              		.global	rotate_clockwise
 538              		.syntax unified
 539              		.thumb
 540              		.thumb_func
 541              		.fpu softvfp
 543              	rotate_clockwise:
 544              	.LVL54:
 545              	.LFB74:
 398:Core/Src/main.c **** 
 399:Core/Src/main.c **** void rotate_clockwise(int pwm)
 400:Core/Src/main.c **** {
 546              		.loc 1 400 1 is_stmt 1 view -0
 547              		.cfi_startproc
 548              		@ args = 0, pretend = 0, frame = 0
 549              		@ frame_needed = 0, uses_anonymous_args = 0
 550              		.loc 1 400 1 is_stmt 0 view .LVU100
 551 0000 38B5     		push	{r3, r4, r5, lr}
 552              	.LCFI5:
 553              		.cfi_def_cfa_offset 16
 554              		.cfi_offset 3, -16
 555              		.cfi_offset 4, -12
 556              		.cfi_offset 5, -8
 557              		.cfi_offset 14, -4
 558 0002 0546     		mov	r5, r0
 401:Core/Src/main.c ****     //change rotate direction of wheel
 402:Core/Src/main.c ****     HAL_GPIO_WritePin(GPIOB, GPIO_PIN_0, GPIO_PIN_RESET);
 559              		.loc 1 402 5 is_stmt 1 view .LVU101
 560 0004 1A4C     		ldr	r4, .L38
 561 0006 0022     		movs	r2, #0
 562 0008 0121     		movs	r1, #1
 563 000a 2046     		mov	r0, r4
 564              	.LVL55:
 565              		.loc 1 402 5 is_stmt 0 view .LVU102
 566 000c FFF7FEFF 		bl	HAL_GPIO_WritePin
 567              	.LVL56:
 403:Core/Src/main.c ****     HAL_GPIO_WritePin(GPIOB, GPIO_PIN_1, GPIO_PIN_SET);
 568              		.loc 1 403 5 is_stmt 1 view .LVU103
ARM GAS  C:\Users\zhangjd\AppData\Local\Temp\ccomS8NF.s 			page 18


 569 0010 0122     		movs	r2, #1
 570 0012 0221     		movs	r1, #2
 571 0014 2046     		mov	r0, r4
 572 0016 FFF7FEFF 		bl	HAL_GPIO_WritePin
 573              	.LVL57:
 404:Core/Src/main.c ****     HAL_GPIO_WritePin(GPIOB, GPIO_PIN_2, GPIO_PIN_SET);
 574              		.loc 1 404 5 view .LVU104
 575 001a 0122     		movs	r2, #1
 576 001c 0421     		movs	r1, #4
 577 001e 2046     		mov	r0, r4
 578 0020 FFF7FEFF 		bl	HAL_GPIO_WritePin
 579              	.LVL58:
 405:Core/Src/main.c ****     HAL_GPIO_WritePin(GPIOB, GPIO_PIN_10, GPIO_PIN_RESET);
 580              		.loc 1 405 5 view .LVU105
 581 0024 0022     		movs	r2, #0
 582 0026 4FF48061 		mov	r1, #1024
 583 002a 2046     		mov	r0, r4
 584 002c FFF7FEFF 		bl	HAL_GPIO_WritePin
 585              	.LVL59:
 406:Core/Src/main.c ****     HAL_GPIO_WritePin(GPIOB, GPIO_PIN_11, GPIO_PIN_SET);
 586              		.loc 1 406 5 view .LVU106
 587 0030 0122     		movs	r2, #1
 588 0032 4FF40061 		mov	r1, #2048
 589 0036 2046     		mov	r0, r4
 590 0038 FFF7FEFF 		bl	HAL_GPIO_WritePin
 591              	.LVL60:
 407:Core/Src/main.c ****     HAL_GPIO_WritePin(GPIOB, GPIO_PIN_12, GPIO_PIN_RESET);
 592              		.loc 1 407 5 view .LVU107
 593 003c 0022     		movs	r2, #0
 594 003e 4FF48051 		mov	r1, #4096
 595 0042 2046     		mov	r0, r4
 596 0044 FFF7FEFF 		bl	HAL_GPIO_WritePin
 597              	.LVL61:
 408:Core/Src/main.c ****     HAL_GPIO_WritePin(GPIOB, GPIO_PIN_13, GPIO_PIN_RESET);
 598              		.loc 1 408 5 view .LVU108
 599 0048 0022     		movs	r2, #0
 600 004a 4FF40051 		mov	r1, #8192
 601 004e 2046     		mov	r0, r4
 602 0050 FFF7FEFF 		bl	HAL_GPIO_WritePin
 603              	.LVL62:
 409:Core/Src/main.c ****     HAL_GPIO_WritePin(GPIOB, GPIO_PIN_14, GPIO_PIN_SET);
 604              		.loc 1 409 5 view .LVU109
 605 0054 0122     		movs	r2, #1
 606 0056 4FF48041 		mov	r1, #16384
 607 005a 2046     		mov	r0, r4
 608 005c FFF7FEFF 		bl	HAL_GPIO_WritePin
 609              	.LVL63:
 410:Core/Src/main.c ****     //give pwm output
 411:Core/Src/main.c ****     __HAL_TIM_SetCompare(&htim8, TIM_CHANNEL_1, pwm);
 610              		.loc 1 411 5 view .LVU110
 611 0060 044B     		ldr	r3, .L38+4
 612 0062 1B68     		ldr	r3, [r3]
 613 0064 5D63     		str	r5, [r3, #52]
 412:Core/Src/main.c ****     __HAL_TIM_SetCompare(&htim8, TIM_CHANNEL_2, pwm);
 614              		.loc 1 412 5 view .LVU111
 615 0066 9D63     		str	r5, [r3, #56]
 413:Core/Src/main.c ****     __HAL_TIM_SetCompare(&htim8, TIM_CHANNEL_3, pwm);
ARM GAS  C:\Users\zhangjd\AppData\Local\Temp\ccomS8NF.s 			page 19


 616              		.loc 1 413 5 view .LVU112
 617 0068 DD63     		str	r5, [r3, #60]
 414:Core/Src/main.c ****     __HAL_TIM_SetCompare(&htim8, TIM_CHANNEL_4, pwm);
 618              		.loc 1 414 5 view .LVU113
 619 006a 1D64     		str	r5, [r3, #64]
 415:Core/Src/main.c **** }
 620              		.loc 1 415 1 is_stmt 0 view .LVU114
 621 006c 38BD     		pop	{r3, r4, r5, pc}
 622              	.LVL64:
 623              	.L39:
 624              		.loc 1 415 1 view .LVU115
 625 006e 00BF     		.align	2
 626              	.L38:
 627 0070 000C0140 		.word	1073810432
 628 0074 00000000 		.word	htim8
 629              		.cfi_endproc
 630              	.LFE74:
 632              		.global	__aeabi_f2d
 633              		.global	__aeabi_dadd
 634              		.global	__aeabi_dcmpge
 635              		.global	__aeabi_dsub
 636              		.global	__aeabi_dcmple
 637              		.section	.text.HAL_TIM_PeriodElapsedCallback,"ax",%progbits
 638              		.align	1
 639              		.global	HAL_TIM_PeriodElapsedCallback
 640              		.syntax unified
 641              		.thumb
 642              		.thumb_func
 643              		.fpu softvfp
 645              	HAL_TIM_PeriodElapsedCallback:
 646              	.LVL65:
 647              	.LFB65:
 130:Core/Src/main.c ****     HAL_UART_Receive_DMA(&huart2, jy62Receive, JY62_MESSAGE_LENGTH);
 648              		.loc 1 130 1 is_stmt 1 view -0
 649              		.cfi_startproc
 650              		@ args = 0, pretend = 0, frame = 0
 651              		@ frame_needed = 0, uses_anonymous_args = 0
 130:Core/Src/main.c ****     HAL_UART_Receive_DMA(&huart2, jy62Receive, JY62_MESSAGE_LENGTH);
 652              		.loc 1 130 1 is_stmt 0 view .LVU117
 653 0000 F8B5     		push	{r3, r4, r5, r6, r7, lr}
 654              	.LCFI6:
 655              		.cfi_def_cfa_offset 24
 656              		.cfi_offset 3, -24
 657              		.cfi_offset 4, -20
 658              		.cfi_offset 5, -16
 659              		.cfi_offset 6, -12
 660              		.cfi_offset 7, -8
 661              		.cfi_offset 14, -4
 662 0002 0446     		mov	r4, r0
 131:Core/Src/main.c **** 
 663              		.loc 1 131 5 is_stmt 1 view .LVU118
 664 0004 0B22     		movs	r2, #11
 665 0006 5149     		ldr	r1, .L75
 666 0008 5148     		ldr	r0, .L75+4
 667              	.LVL66:
 131:Core/Src/main.c **** 
 668              		.loc 1 131 5 is_stmt 0 view .LVU119
ARM GAS  C:\Users\zhangjd\AppData\Local\Temp\ccomS8NF.s 			page 20


 669 000a FFF7FEFF 		bl	HAL_UART_Receive_DMA
 670              	.LVL67:
 133:Core/Src/main.c ****     {
 671              		.loc 1 133 5 is_stmt 1 view .LVU120
 133:Core/Src/main.c ****     {
 672              		.loc 1 133 13 is_stmt 0 view .LVU121
 673 000e 2268     		ldr	r2, [r4]
 133:Core/Src/main.c ****     {
 674              		.loc 1 133 8 view .LVU122
 675 0010 504B     		ldr	r3, .L75+8
 676 0012 9A42     		cmp	r2, r3
 677 0014 00D0     		beq	.L71
 678              	.LVL68:
 679              	.L40:
 194:Core/Src/main.c **** /* USER CODE END 0 */
 680              		.loc 1 194 1 view .LVU123
 681 0016 F8BD     		pop	{r3, r4, r5, r6, r7, pc}
 682              	.LVL69:
 683              	.L71:
 684              	.LBB4:
 135:Core/Src/main.c ****         if (angle_obj >= angle_err && angle_obj <= 360.0 - angle_err)
 685              		.loc 1 135 9 is_stmt 1 view .LVU124
 135:Core/Src/main.c ****         if (angle_obj >= angle_err && angle_obj <= 360.0 - angle_err)
 686              		.loc 1 135 27 is_stmt 0 view .LVU125
 687 0018 FFF7FEFF 		bl	GetYaw
 688              	.LVL70:
 689 001c 0546     		mov	r5, r0
 690              	.LVL71:
 136:Core/Src/main.c ****         {
 691              		.loc 1 136 9 is_stmt 1 view .LVU126
 136:Core/Src/main.c ****         {
 692              		.loc 1 136 23 is_stmt 0 view .LVU127
 693 001e 4E4B     		ldr	r3, .L75+12
 694 0020 1C68     		ldr	r4, [r3]	@ float
 695              	.LVL72:
 136:Core/Src/main.c ****         {
 696              		.loc 1 136 12 view .LVU128
 697 0022 4E49     		ldr	r1, .L75+16
 698 0024 2046     		mov	r0, r4
 699              	.LVL73:
 136:Core/Src/main.c ****         {
 700              		.loc 1 136 12 view .LVU129
 701 0026 FFF7FEFF 		bl	__aeabi_fcmpge
 702              	.LVL74:
 703 002a 28B3     		cbz	r0, .L42
 136:Core/Src/main.c ****         {
 704              		.loc 1 136 36 discriminator 1 view .LVU130
 705 002c 4C49     		ldr	r1, .L75+20
 706 002e 2046     		mov	r0, r4
 707 0030 FFF7FEFF 		bl	__aeabi_fcmple
 708              	.LVL75:
 709 0034 00B3     		cbz	r0, .L42
 138:Core/Src/main.c ****             {
 710              		.loc 1 138 13 is_stmt 1 view .LVU131
 138:Core/Src/main.c ****             {
 711              		.loc 1 138 40 is_stmt 0 view .LVU132
 712 0036 4949     		ldr	r1, .L75+16
ARM GAS  C:\Users\zhangjd\AppData\Local\Temp\ccomS8NF.s 			page 21


 713 0038 2046     		mov	r0, r4
 714 003a FFF7FEFF 		bl	__aeabi_fsub
 715              	.LVL76:
 138:Core/Src/main.c ****             {
 716              		.loc 1 138 16 view .LVU133
 717 003e 2946     		mov	r1, r5
 718 0040 FFF7FEFF 		bl	__aeabi_fcmple
 719              	.LVL77:
 720 0044 70B1     		cbz	r0, .L45
 138:Core/Src/main.c ****             {
 721              		.loc 1 138 78 discriminator 1 view .LVU134
 722 0046 4549     		ldr	r1, .L75+16
 723 0048 2046     		mov	r0, r4
 724 004a FFF7FEFF 		bl	__aeabi_fadd
 725              	.LVL78:
 138:Core/Src/main.c ****             {
 726              		.loc 1 138 52 discriminator 1 view .LVU135
 727 004e 2946     		mov	r1, r5
 728 0050 FFF7FEFF 		bl	__aeabi_fcmpge
 729              	.LVL79:
 730 0054 30B1     		cbz	r0, .L45
 138:Core/Src/main.c ****             {
 731              		.loc 1 138 90 discriminator 2 view .LVU136
 732 0056 4FF08041 		mov	r1, #1073741824
 733 005a 424B     		ldr	r3, .L75+24
 734 005c 1868     		ldr	r0, [r3]	@ float
 735 005e FFF7FEFF 		bl	__aeabi_fcmpgt
 736              	.LVL80:
 737 0062 20B9     		cbnz	r0, .L72
 738              	.L45:
 144:Core/Src/main.c ****             }
 739              		.loc 1 144 17 is_stmt 1 view .LVU137
 740 0064 4FF44870 		mov	r0, #800
 741 0068 FFF7FEFF 		bl	rotate_clockwise
 742              	.LVL81:
 743 006c D3E7     		b	.L40
 744              	.L72:
 140:Core/Src/main.c ****             }
 745              		.loc 1 140 17 view .LVU138
 746 006e 40F2DC50 		movw	r0, #1500
 747 0072 FFF7FEFF 		bl	forward
 748              	.LVL82:
 749 0076 CEE7     		b	.L40
 750              	.L42:
 149:Core/Src/main.c ****             {
 751              		.loc 1 149 13 view .LVU139
 149:Core/Src/main.c ****             {
 752              		.loc 1 149 16 is_stmt 0 view .LVU140
 753 0078 3849     		ldr	r1, .L75+16
 754 007a 2046     		mov	r0, r4
 755 007c FFF7FEFF 		bl	__aeabi_fcmplt
 756              	.LVL83:
 757 0080 70B3     		cbz	r0, .L69
 151:Core/Src/main.c ****                 {
 758              		.loc 1 151 17 is_stmt 1 view .LVU141
 151:Core/Src/main.c ****                 {
 759              		.loc 1 151 32 is_stmt 0 view .LVU142
ARM GAS  C:\Users\zhangjd\AppData\Local\Temp\ccomS8NF.s 			page 22


 760 0082 2846     		mov	r0, r5
 761 0084 FFF7FEFF 		bl	__aeabi_f2d
 762              	.LVL84:
 763 0088 0646     		mov	r6, r0
 764 008a 0F46     		mov	r7, r1
 151:Core/Src/main.c ****                 {
 765              		.loc 1 151 45 view .LVU143
 766 008c 3349     		ldr	r1, .L75+16
 767 008e 2046     		mov	r0, r4
 768 0090 FFF7FEFF 		bl	__aeabi_fsub
 769              	.LVL85:
 770 0094 FFF7FEFF 		bl	__aeabi_f2d
 771              	.LVL86:
 151:Core/Src/main.c ****                 {
 772              		.loc 1 151 57 view .LVU144
 773 0098 0022     		movs	r2, #0
 774 009a 334B     		ldr	r3, .L75+28
 775 009c FFF7FEFF 		bl	__aeabi_dadd
 776              	.LVL87:
 777 00a0 0246     		mov	r2, r0
 778 00a2 0B46     		mov	r3, r1
 151:Core/Src/main.c ****                 {
 779              		.loc 1 151 20 view .LVU145
 780 00a4 3046     		mov	r0, r6
 781 00a6 3946     		mov	r1, r7
 782 00a8 FFF7FEFF 		bl	__aeabi_dcmpge
 783              	.LVL88:
 784 00ac 38B9     		cbnz	r0, .L51
 151:Core/Src/main.c ****                 {
 785              		.loc 1 151 91 discriminator 2 view .LVU146
 786 00ae 2B49     		ldr	r1, .L75+16
 787 00b0 2046     		mov	r0, r4
 788 00b2 FFF7FEFF 		bl	__aeabi_fadd
 789              	.LVL89:
 151:Core/Src/main.c ****                 {
 790              		.loc 1 151 65 discriminator 2 view .LVU147
 791 00b6 2946     		mov	r1, r5
 792 00b8 FFF7FEFF 		bl	__aeabi_fcmpge
 793              	.LVL90:
 794 00bc 30B1     		cbz	r0, .L52
 795              	.L51:
 151:Core/Src/main.c ****                 {
 796              		.loc 1 151 104 discriminator 3 view .LVU148
 797 00be 4FF08041 		mov	r1, #1073741824
 798 00c2 284B     		ldr	r3, .L75+24
 799 00c4 1868     		ldr	r0, [r3]	@ float
 800 00c6 FFF7FEFF 		bl	__aeabi_fcmpgt
 801              	.LVL91:
 802 00ca 20B9     		cbnz	r0, .L73
 803              	.L52:
 157:Core/Src/main.c ****                 }
 804              		.loc 1 157 21 is_stmt 1 view .LVU149
 805 00cc 4FF44870 		mov	r0, #800
 806 00d0 FFF7FEFF 		bl	rotate_clockwise
 807              	.LVL92:
 808 00d4 9FE7     		b	.L40
 809              	.L73:
ARM GAS  C:\Users\zhangjd\AppData\Local\Temp\ccomS8NF.s 			page 23


 153:Core/Src/main.c ****                 }
 810              		.loc 1 153 21 view .LVU150
 811 00d6 40F2DC50 		movw	r0, #1500
 812 00da FFF7FEFF 		bl	forward
 813              	.LVL93:
 814 00de 9AE7     		b	.L40
 815              	.L69:
 160:Core/Src/main.c ****             {
 816              		.loc 1 160 18 view .LVU151
 160:Core/Src/main.c ****             {
 817              		.loc 1 160 21 is_stmt 0 view .LVU152
 818 00e0 1F49     		ldr	r1, .L75+20
 819 00e2 2046     		mov	r0, r4
 820 00e4 FFF7FEFF 		bl	__aeabi_fcmpgt
 821              	.LVL94:
 822 00e8 0028     		cmp	r0, #0
 823 00ea 94D0     		beq	.L40
 162:Core/Src/main.c ****                 {
 824              		.loc 1 162 17 is_stmt 1 view .LVU153
 162:Core/Src/main.c ****                 {
 825              		.loc 1 162 32 is_stmt 0 view .LVU154
 826 00ec 2846     		mov	r0, r5
 827 00ee FFF7FEFF 		bl	__aeabi_f2d
 828              	.LVL95:
 829 00f2 0646     		mov	r6, r0
 830 00f4 0F46     		mov	r7, r1
 162:Core/Src/main.c ****                 {
 831              		.loc 1 162 45 view .LVU155
 832 00f6 1949     		ldr	r1, .L75+16
 833 00f8 2046     		mov	r0, r4
 834 00fa FFF7FEFF 		bl	__aeabi_fadd
 835              	.LVL96:
 836 00fe FFF7FEFF 		bl	__aeabi_f2d
 837              	.LVL97:
 162:Core/Src/main.c ****                 {
 838              		.loc 1 162 57 view .LVU156
 839 0102 0022     		movs	r2, #0
 840 0104 184B     		ldr	r3, .L75+28
 841 0106 FFF7FEFF 		bl	__aeabi_dsub
 842              	.LVL98:
 843 010a 0246     		mov	r2, r0
 844 010c 0B46     		mov	r3, r1
 162:Core/Src/main.c ****                 {
 845              		.loc 1 162 20 view .LVU157
 846 010e 3046     		mov	r0, r6
 847 0110 3946     		mov	r1, r7
 848 0112 FFF7FEFF 		bl	__aeabi_dcmple
 849              	.LVL99:
 850 0116 38B9     		cbnz	r0, .L56
 162:Core/Src/main.c ****                 {
 851              		.loc 1 162 91 discriminator 2 view .LVU158
 852 0118 1049     		ldr	r1, .L75+16
 853 011a 2046     		mov	r0, r4
 854 011c FFF7FEFF 		bl	__aeabi_fsub
 855              	.LVL100:
 162:Core/Src/main.c ****                 {
 856              		.loc 1 162 65 discriminator 2 view .LVU159
ARM GAS  C:\Users\zhangjd\AppData\Local\Temp\ccomS8NF.s 			page 24


 857 0120 2946     		mov	r1, r5
 858 0122 FFF7FEFF 		bl	__aeabi_fcmple
 859              	.LVL101:
 860 0126 30B1     		cbz	r0, .L57
 861              	.L56:
 162:Core/Src/main.c ****                 {
 862              		.loc 1 162 104 discriminator 3 view .LVU160
 863 0128 4FF08041 		mov	r1, #1073741824
 864 012c 0D4B     		ldr	r3, .L75+24
 865 012e 1868     		ldr	r0, [r3]	@ float
 866 0130 FFF7FEFF 		bl	__aeabi_fcmpgt
 867              	.LVL102:
 868 0134 20B9     		cbnz	r0, .L74
 869              	.L57:
 168:Core/Src/main.c ****                 }
 870              		.loc 1 168 21 is_stmt 1 view .LVU161
 871 0136 4FF44870 		mov	r0, #800
 872 013a FFF7FEFF 		bl	rotate_clockwise
 873              	.LVL103:
 874              	.LBE4:
 194:Core/Src/main.c **** /* USER CODE END 0 */
 875              		.loc 1 194 1 is_stmt 0 view .LVU162
 876 013e 6AE7     		b	.L40
 877              	.L74:
 878              	.LBB5:
 164:Core/Src/main.c ****                 }
 879              		.loc 1 164 21 is_stmt 1 view .LVU163
 880 0140 40F2DC50 		movw	r0, #1500
 881 0144 FFF7FEFF 		bl	forward
 882              	.LVL104:
 883 0148 65E7     		b	.L40
 884              	.L76:
 885 014a 00BF     		.align	2
 886              	.L75:
 887 014c 00000000 		.word	jy62Receive
 888 0150 00000000 		.word	huart2
 889 0154 002C0140 		.word	1073818624
 890 0158 00000000 		.word	.LANCHOR1
 891 015c 0000A040 		.word	1084227584
 892 0160 0080B143 		.word	1135706112
 893 0164 00000000 		.word	.LANCHOR2
 894 0168 00807640 		.word	1081507840
 895              	.LBE5:
 896              		.cfi_endproc
 897              	.LFE65:
 899              		.global	__aeabi_dcmpgt
 900              		.section	.text.fabs,"ax",%progbits
 901              		.align	1
 902              		.global	fabs
 903              		.syntax unified
 904              		.thumb
 905              		.thumb_func
 906              		.fpu softvfp
 908              	fabs:
 909              	.LVL105:
 910              	.LFB75:
 416:Core/Src/main.c **** // double off_set_angle(uint16_t car_x,uint16_t car_y,double des_x,double des_y,double yaw){
ARM GAS  C:\Users\zhangjd\AppData\Local\Temp\ccomS8NF.s 			page 25


 417:Core/Src/main.c **** //     /*
 418:Core/Src/main.c **** //     入口参数：小车xy坐标，目标点xy坐标，陀螺仪偏航角yaw
 419:Core/Src/main.c **** //     计算偏差角 函数。
 420:Core/Src/main.c **** //     返回值为偏差角度的绝对值，单位为度。
 421:Core/Src/main.c **** //     */
 422:Core/Src/main.c **** //     double angle=atan2(des_y-car_y,des_x-car_x);
 423:Core/Src/main.c **** //     double ans=yaw-angle;
 424:Core/Src/main.c **** //     ans=(ans<0)?(ans+360):ans;
 425:Core/Src/main.c **** //     ans=(ans>360)?(ans-360):ans;
 426:Core/Src/main.c **** //     return ans*180/pi;
 427:Core/Src/main.c **** // }
 428:Core/Src/main.c **** double fabs(double x)
 429:Core/Src/main.c **** {
 911              		.loc 1 429 1 view -0
 912              		.cfi_startproc
 913              		@ args = 0, pretend = 0, frame = 0
 914              		@ frame_needed = 0, uses_anonymous_args = 0
 915              		.loc 1 429 1 is_stmt 0 view .LVU165
 916 0000 38B5     		push	{r3, r4, r5, lr}
 917              	.LCFI7:
 918              		.cfi_def_cfa_offset 16
 919              		.cfi_offset 3, -16
 920              		.cfi_offset 4, -12
 921              		.cfi_offset 5, -8
 922              		.cfi_offset 14, -4
 923 0002 0546     		mov	r5, r0
 924 0004 0C46     		mov	r4, r1
 430:Core/Src/main.c ****     //双精度浮点数求绝对值函数
 431:Core/Src/main.c ****     return (x > 0) ? x : (-x);
 925              		.loc 1 431 5 is_stmt 1 view .LVU166
 926              		.loc 1 431 24 is_stmt 0 view .LVU167
 927 0006 0022     		movs	r2, #0
 928 0008 0023     		movs	r3, #0
 929 000a 2846     		mov	r0, r5
 930              	.LVL106:
 931              		.loc 1 431 24 view .LVU168
 932 000c 2146     		mov	r1, r4
 933 000e FFF7FEFF 		bl	__aeabi_dcmpgt
 934              	.LVL107:
 935 0012 10B1     		cbz	r0, .L80
 936              	.L78:
 432:Core/Src/main.c **** }
 937              		.loc 1 432 1 discriminator 4 view .LVU169
 938 0014 2846     		mov	r0, r5
 939 0016 2146     		mov	r1, r4
 940 0018 38BD     		pop	{r3, r4, r5, pc}
 941              	.L80:
 431:Core/Src/main.c **** }
 942              		.loc 1 431 24 discriminator 2 view .LVU170
 943 001a 04F10044 		add	r4, r4, #-2147483648
 944 001e F9E7     		b	.L78
 945              		.cfi_endproc
 946              	.LFE75:
 948              		.global	__aeabi_dcmpeq
 949              		.global	__aeabi_dcmplt
 950              		.global	__aeabi_dmul
 951              		.global	__aeabi_ddiv
ARM GAS  C:\Users\zhangjd\AppData\Local\Temp\ccomS8NF.s 			page 26


 952              		.global	__aeabi_d2iz
 953              		.section	.text.atan2LUTif,"ax",%progbits
 954              		.align	1
 955              		.global	atan2LUTif
 956              		.syntax unified
 957              		.thumb
 958              		.thumb_func
 959              		.fpu softvfp
 961              	atan2LUTif:
 962              	.LVL108:
 963              	.LFB76:
 433:Core/Src/main.c **** double atan2LUTif(double y, double x)
 434:Core/Src/main.c **** {
 964              		.loc 1 434 1 is_stmt 1 view -0
 965              		.cfi_startproc
 966              		@ args = 0, pretend = 0, frame = 0
 967              		@ frame_needed = 0, uses_anonymous_args = 0
 968              		.loc 1 434 1 is_stmt 0 view .LVU172
 969 0000 2DE9F843 		push	{r3, r4, r5, r6, r7, r8, r9, lr}
 970              	.LCFI8:
 971              		.cfi_def_cfa_offset 32
 972              		.cfi_offset 3, -32
 973              		.cfi_offset 4, -28
 974              		.cfi_offset 5, -24
 975              		.cfi_offset 6, -20
 976              		.cfi_offset 7, -16
 977              		.cfi_offset 8, -12
 978              		.cfi_offset 9, -8
 979              		.cfi_offset 14, -4
 980 0004 0446     		mov	r4, r0
 981 0006 0F46     		mov	r7, r1
 982 0008 1546     		mov	r5, r2
 983 000a 1E46     		mov	r6, r3
 435:Core/Src/main.c ****     //反正切函数实现。误差不大于0.5°。入口参数：两点间y、x坐标的差值
 436:Core/Src/main.c ****     double absx, absy, val;
 984              		.loc 1 436 5 is_stmt 1 view .LVU173
 437:Core/Src/main.c ****     if (x == 0 && y == 0)
 985              		.loc 1 437 5 view .LVU174
 986              		.loc 1 437 8 is_stmt 0 view .LVU175
 987 000c 0022     		movs	r2, #0
 988              	.LVL109:
 989              		.loc 1 437 8 view .LVU176
 990 000e 0023     		movs	r3, #0
 991 0010 2846     		mov	r0, r5
 992              	.LVL110:
 993              		.loc 1 437 8 view .LVU177
 994 0012 3146     		mov	r1, r6
 995 0014 FFF7FEFF 		bl	__aeabi_dcmpeq
 996              	.LVL111:
 997 0018 40B1     		cbz	r0, .L82
 998              		.loc 1 437 16 discriminator 1 view .LVU178
 999 001a 0022     		movs	r2, #0
 1000 001c 0023     		movs	r3, #0
 1001 001e 2046     		mov	r0, r4
 1002 0020 3946     		mov	r1, r7
 1003 0022 FFF7FEFF 		bl	__aeabi_dcmpeq
 1004              	.LVL112:
ARM GAS  C:\Users\zhangjd\AppData\Local\Temp\ccomS8NF.s 			page 27


 1005 0026 0028     		cmp	r0, #0
 1006 0028 40F0CF80 		bne	.L100
 1007              	.L82:
 438:Core/Src/main.c ****     {
 439:Core/Src/main.c ****         return 0;
 440:Core/Src/main.c ****     }
 441:Core/Src/main.c ****     absy = fabs(y);
 1008              		.loc 1 441 5 is_stmt 1 view .LVU179
 1009              		.loc 1 441 10 is_stmt 0 view .LVU180
 1010 002c 27F00048 		bic	r8, r7, #-2147483648
 1011              	.LVL113:
 442:Core/Src/main.c ****     absx = fabs(x);
 1012              		.loc 1 442 5 is_stmt 1 view .LVU181
 1013              		.loc 1 442 10 is_stmt 0 view .LVU182
 1014 0030 26F00049 		bic	r9, r6, #-2147483648
 1015              	.LVL114:
 443:Core/Src/main.c ****     if (absy - absx == absy)
 1016              		.loc 1 443 5 is_stmt 1 view .LVU183
 1017              		.loc 1 443 14 is_stmt 0 view .LVU184
 1018 0034 2A46     		mov	r2, r5
 1019 0036 4B46     		mov	r3, r9
 1020 0038 2046     		mov	r0, r4
 1021 003a 4146     		mov	r1, r8
 1022 003c FFF7FEFF 		bl	__aeabi_dsub
 1023              	.LVL115:
 1024              		.loc 1 443 8 view .LVU185
 1025 0040 2246     		mov	r2, r4
 1026 0042 4346     		mov	r3, r8
 1027 0044 FFF7FEFF 		bl	__aeabi_dcmpeq
 1028              	.LVL116:
 1029 0048 0028     		cmp	r0, #0
 1030 004a 40D1     		bne	.L117
 444:Core/Src/main.c ****     {
 445:Core/Src/main.c ****         return y < 0 ? -M_PI_2 : M_PI_2;
 446:Core/Src/main.c ****     }
 447:Core/Src/main.c ****     if (absx - absy == absx)
 1031              		.loc 1 447 5 is_stmt 1 view .LVU186
 1032              		.loc 1 447 14 is_stmt 0 view .LVU187
 1033 004c 2246     		mov	r2, r4
 1034 004e 4346     		mov	r3, r8
 1035 0050 2846     		mov	r0, r5
 1036 0052 4946     		mov	r1, r9
 1037 0054 FFF7FEFF 		bl	__aeabi_dsub
 1038              	.LVL117:
 1039              		.loc 1 447 8 view .LVU188
 1040 0058 2A46     		mov	r2, r5
 1041 005a 4B46     		mov	r3, r9
 1042 005c FFF7FEFF 		bl	__aeabi_dcmpeq
 1043              	.LVL118:
 1044 0060 0028     		cmp	r0, #0
 1045 0062 40F0A380 		bne	.L102
 448:Core/Src/main.c ****     {
 449:Core/Src/main.c ****         val = 0.0;
 450:Core/Src/main.c ****     }
 451:Core/Src/main.c ****     else
 452:Core/Src/main.c ****     {
 453:Core/Src/main.c ****         if (y > 0)
ARM GAS  C:\Users\zhangjd\AppData\Local\Temp\ccomS8NF.s 			page 28


 1046              		.loc 1 453 9 is_stmt 1 view .LVU189
 1047              		.loc 1 453 12 is_stmt 0 view .LVU190
 1048 0066 0022     		movs	r2, #0
 1049 0068 0023     		movs	r3, #0
 1050 006a 2046     		mov	r0, r4
 1051 006c 3946     		mov	r1, r7
 1052 006e FFF7FEFF 		bl	__aeabi_dcmpgt
 1053              	.LVL119:
 1054 0072 0028     		cmp	r0, #0
 1055 0074 54D0     		beq	.L113
 454:Core/Src/main.c ****         {
 455:Core/Src/main.c ****             if (absx > absy)
 1056              		.loc 1 455 13 is_stmt 1 view .LVU191
 1057              		.loc 1 455 16 is_stmt 0 view .LVU192
 1058 0076 2A46     		mov	r2, r5
 1059 0078 4B46     		mov	r3, r9
 1060 007a 2046     		mov	r0, r4
 1061 007c 4146     		mov	r1, r8
 1062 007e FFF7FEFF 		bl	__aeabi_dcmplt
 1063              	.LVL120:
 1064 0082 98B3     		cbz	r0, .L114
 456:Core/Src/main.c ****                 val = ATAN_LUT[(int)(255 * absy / absx)]; //1st octant
 1065              		.loc 1 456 17 is_stmt 1 view .LVU193
 1066              		.loc 1 456 42 is_stmt 0 view .LVU194
 1067 0084 52A3     		adr	r3, .L119
 1068 0086 D3E90023 		ldrd	r2, [r3]
 1069 008a 2046     		mov	r0, r4
 1070 008c 4146     		mov	r1, r8
 1071 008e FFF7FEFF 		bl	__aeabi_dmul
 1072              	.LVL121:
 1073              		.loc 1 456 49 view .LVU195
 1074 0092 2A46     		mov	r2, r5
 1075 0094 4B46     		mov	r3, r9
 1076 0096 FFF7FEFF 		bl	__aeabi_ddiv
 1077              	.LVL122:
 1078              		.loc 1 456 32 view .LVU196
 1079 009a FFF7FEFF 		bl	__aeabi_d2iz
 1080              	.LVL123:
 1081              		.loc 1 456 21 view .LVU197
 1082 009e 564B     		ldr	r3, .L119+40
 1083 00a0 03EBC002 		add	r2, r3, r0, lsl #3
 1084 00a4 53F83040 		ldr	r4, [r3, r0, lsl #3]
 1085              	.LVL124:
 1086              		.loc 1 456 21 view .LVU198
 1087 00a8 5768     		ldr	r7, [r2, #4]
 1088              	.LVL125:
 1089              	.L94:
 457:Core/Src/main.c ****             else
 458:Core/Src/main.c ****                 val = M_PI_2 - ATAN_LUT[(int)(255 * absx / absy)]; //2nd octant
 459:Core/Src/main.c ****             val = x < 0 ? (M_PI - val) : val;                      //3-4th octants from 2-1
 1090              		.loc 1 459 13 is_stmt 1 view .LVU199
 1091              		.loc 1 459 40 is_stmt 0 view .LVU200
 1092 00aa 0022     		movs	r2, #0
 1093 00ac 0023     		movs	r3, #0
 1094 00ae 2846     		mov	r0, r5
 1095 00b0 3146     		mov	r1, r6
 1096 00b2 FFF7FEFF 		bl	__aeabi_dcmplt
ARM GAS  C:\Users\zhangjd\AppData\Local\Temp\ccomS8NF.s 			page 29


 1097              	.LVL126:
 1098 00b6 0028     		cmp	r0, #0
 1099 00b8 7AD0     		beq	.L89
 1100              		.loc 1 459 40 discriminator 1 view .LVU201
 1101 00ba 2246     		mov	r2, r4
 1102 00bc 3B46     		mov	r3, r7
 1103 00be 46A1     		adr	r1, .L119+8
 1104 00c0 D1E90001 		ldrd	r0, [r1]
 1105 00c4 FFF7FEFF 		bl	__aeabi_dsub
 1106              	.LVL127:
 1107 00c8 0446     		mov	r4, r0
 1108              	.LVL128:
 1109              		.loc 1 459 40 discriminator 1 view .LVU202
 1110 00ca 0F46     		mov	r7, r1
 1111 00cc 70E0     		b	.L89
 1112              	.LVL129:
 1113              	.L117:
 445:Core/Src/main.c ****     }
 1114              		.loc 1 445 9 is_stmt 1 view .LVU203
 445:Core/Src/main.c ****     }
 1115              		.loc 1 445 32 is_stmt 0 view .LVU204
 1116 00ce 0022     		movs	r2, #0
 1117 00d0 0023     		movs	r3, #0
 1118 00d2 2046     		mov	r0, r4
 1119 00d4 3946     		mov	r1, r7
 1120 00d6 FFF7FEFF 		bl	__aeabi_dcmplt
 1121              	.LVL130:
 1122 00da 18B9     		cbnz	r0, .L118
 1123 00dc 40A1     		adr	r1, .L119+16
 1124 00de D1E90001 		ldrd	r0, [r1]
 1125 00e2 70E0     		b	.L81
 1126              	.L118:
 1127 00e4 40A1     		adr	r1, .L119+24
 1128 00e6 D1E90001 		ldrd	r0, [r1]
 1129 00ea 6CE0     		b	.L81
 1130              	.L114:
 458:Core/Src/main.c ****             val = x < 0 ? (M_PI - val) : val;                      //3-4th octants from 2-1
 1131              		.loc 1 458 17 is_stmt 1 view .LVU205
 458:Core/Src/main.c ****             val = x < 0 ? (M_PI - val) : val;                      //3-4th octants from 2-1
 1132              		.loc 1 458 51 is_stmt 0 view .LVU206
 1133 00ec 38A3     		adr	r3, .L119
 1134 00ee D3E90023 		ldrd	r2, [r3]
 1135 00f2 2846     		mov	r0, r5
 1136 00f4 4946     		mov	r1, r9
 1137 00f6 FFF7FEFF 		bl	__aeabi_dmul
 1138              	.LVL131:
 458:Core/Src/main.c ****             val = x < 0 ? (M_PI - val) : val;                      //3-4th octants from 2-1
 1139              		.loc 1 458 58 view .LVU207
 1140 00fa 2246     		mov	r2, r4
 1141 00fc 4346     		mov	r3, r8
 1142 00fe FFF7FEFF 		bl	__aeabi_ddiv
 1143              	.LVL132:
 458:Core/Src/main.c ****             val = x < 0 ? (M_PI - val) : val;                      //3-4th octants from 2-1
 1144              		.loc 1 458 41 view .LVU208
 1145 0102 FFF7FEFF 		bl	__aeabi_d2iz
 1146              	.LVL133:
 458:Core/Src/main.c ****             val = x < 0 ? (M_PI - val) : val;                      //3-4th octants from 2-1
ARM GAS  C:\Users\zhangjd\AppData\Local\Temp\ccomS8NF.s 			page 30


 1147              		.loc 1 458 40 view .LVU209
 1148 0106 3C4B     		ldr	r3, .L119+40
 1149 0108 03EBC003 		add	r3, r3, r0, lsl #3
 458:Core/Src/main.c ****             val = x < 0 ? (M_PI - val) : val;                      //3-4th octants from 2-1
 1150              		.loc 1 458 21 view .LVU210
 1151 010c D3E90023 		ldrd	r2, [r3]
 1152 0110 33A1     		adr	r1, .L119+16
 1153 0112 D1E90001 		ldrd	r0, [r1]
 1154 0116 FFF7FEFF 		bl	__aeabi_dsub
 1155              	.LVL134:
 1156 011a 0446     		mov	r4, r0
 1157              	.LVL135:
 458:Core/Src/main.c ****             val = x < 0 ? (M_PI - val) : val;                      //3-4th octants from 2-1
 1158              		.loc 1 458 21 view .LVU211
 1159 011c 0F46     		mov	r7, r1
 1160              	.LVL136:
 458:Core/Src/main.c ****             val = x < 0 ? (M_PI - val) : val;                      //3-4th octants from 2-1
 1161              		.loc 1 458 21 view .LVU212
 1162 011e C4E7     		b	.L94
 1163              	.LVL137:
 1164              	.L113:
 460:Core/Src/main.c ****         }
 461:Core/Src/main.c ****         else
 462:Core/Src/main.c ****         {
 463:Core/Src/main.c ****             if (absx > absy)
 1165              		.loc 1 463 13 is_stmt 1 view .LVU213
 1166              		.loc 1 463 16 is_stmt 0 view .LVU214
 1167 0120 2A46     		mov	r2, r5
 1168 0122 4B46     		mov	r3, r9
 1169 0124 2046     		mov	r0, r4
 1170 0126 4146     		mov	r1, r8
 1171 0128 FFF7FEFF 		bl	__aeabi_dcmplt
 1172              	.LVL138:
 1173 012c 28B3     		cbz	r0, .L115
 464:Core/Src/main.c ****                 val = -ATAN_LUT[(int)(255 * absy / absx)]; //8th octant
 1174              		.loc 1 464 17 is_stmt 1 view .LVU215
 1175              		.loc 1 464 43 is_stmt 0 view .LVU216
 1176 012e 28A3     		adr	r3, .L119
 1177 0130 D3E90023 		ldrd	r2, [r3]
 1178 0134 2046     		mov	r0, r4
 1179 0136 4146     		mov	r1, r8
 1180 0138 FFF7FEFF 		bl	__aeabi_dmul
 1181              	.LVL139:
 1182              		.loc 1 464 50 view .LVU217
 1183 013c 2A46     		mov	r2, r5
 1184 013e 4B46     		mov	r3, r9
 1185 0140 FFF7FEFF 		bl	__aeabi_ddiv
 1186              	.LVL140:
 1187              		.loc 1 464 33 view .LVU218
 1188 0144 FFF7FEFF 		bl	__aeabi_d2iz
 1189              	.LVL141:
 1190              		.loc 1 464 32 view .LVU219
 1191 0148 2B4B     		ldr	r3, .L119+40
 1192 014a 03EBC002 		add	r2, r3, r0, lsl #3
 1193 014e 5768     		ldr	r7, [r2, #4]
 1194              		.loc 1 464 21 view .LVU220
 1195 0150 53F83040 		ldr	r4, [r3, r0, lsl #3]
ARM GAS  C:\Users\zhangjd\AppData\Local\Temp\ccomS8NF.s 			page 31


 1196              	.LVL142:
 1197              		.loc 1 464 21 view .LVU221
 1198 0154 07F10047 		add	r7, r7, #-2147483648
 1199              	.LVL143:
 1200              	.L98:
 465:Core/Src/main.c ****             else
 466:Core/Src/main.c ****                 val = -M_PI_2 + ATAN_LUT[(int)(255 * absx / absy)]; //7th octant
 467:Core/Src/main.c ****             val = x < 0 ? -M_PI - val : val;                        //5-6th octants from 8-7
 1201              		.loc 1 467 13 is_stmt 1 view .LVU222
 1202              		.loc 1 467 39 is_stmt 0 view .LVU223
 1203 0158 0022     		movs	r2, #0
 1204 015a 0023     		movs	r3, #0
 1205 015c 2846     		mov	r0, r5
 1206 015e 3146     		mov	r1, r6
 1207 0160 FFF7FEFF 		bl	__aeabi_dcmplt
 1208              	.LVL144:
 1209 0164 20B3     		cbz	r0, .L89
 1210              		.loc 1 467 39 discriminator 1 view .LVU224
 1211 0166 2246     		mov	r2, r4
 1212 0168 3B46     		mov	r3, r7
 1213 016a 21A1     		adr	r1, .L119+32
 1214 016c D1E90001 		ldrd	r0, [r1]
 1215 0170 FFF7FEFF 		bl	__aeabi_dsub
 1216              	.LVL145:
 1217 0174 0446     		mov	r4, r0
 1218              	.LVL146:
 1219              		.loc 1 467 39 discriminator 1 view .LVU225
 1220 0176 0F46     		mov	r7, r1
 1221 0178 1AE0     		b	.L89
 1222              	.LVL147:
 1223              	.L115:
 466:Core/Src/main.c ****             val = x < 0 ? -M_PI - val : val;                        //5-6th octants from 8-7
 1224              		.loc 1 466 17 is_stmt 1 view .LVU226
 466:Core/Src/main.c ****             val = x < 0 ? -M_PI - val : val;                        //5-6th octants from 8-7
 1225              		.loc 1 466 52 is_stmt 0 view .LVU227
 1226 017a 15A3     		adr	r3, .L119
 1227 017c D3E90023 		ldrd	r2, [r3]
 1228 0180 2846     		mov	r0, r5
 1229 0182 4946     		mov	r1, r9
 1230 0184 FFF7FEFF 		bl	__aeabi_dmul
 1231              	.LVL148:
 466:Core/Src/main.c ****             val = x < 0 ? -M_PI - val : val;                        //5-6th octants from 8-7
 1232              		.loc 1 466 59 view .LVU228
 1233 0188 2246     		mov	r2, r4
 1234 018a 4346     		mov	r3, r8
 1235 018c FFF7FEFF 		bl	__aeabi_ddiv
 1236              	.LVL149:
 466:Core/Src/main.c ****             val = x < 0 ? -M_PI - val : val;                        //5-6th octants from 8-7
 1237              		.loc 1 466 42 view .LVU229
 1238 0190 FFF7FEFF 		bl	__aeabi_d2iz
 1239              	.LVL150:
 466:Core/Src/main.c ****             val = x < 0 ? -M_PI - val : val;                        //5-6th octants from 8-7
 1240              		.loc 1 466 41 view .LVU230
 1241 0194 184B     		ldr	r3, .L119+40
 1242 0196 03EBC000 		add	r0, r3, r0, lsl #3
 466:Core/Src/main.c ****             val = x < 0 ? -M_PI - val : val;                        //5-6th octants from 8-7
 1243              		.loc 1 466 21 view .LVU231
ARM GAS  C:\Users\zhangjd\AppData\Local\Temp\ccomS8NF.s 			page 32


 1244 019a 11A3     		adr	r3, .L119+16
 1245 019c D3E90023 		ldrd	r2, [r3]
 1246 01a0 03C8     		ldmia	r0, {r0-r1}
 1247 01a2 FFF7FEFF 		bl	__aeabi_dsub
 1248              	.LVL151:
 1249 01a6 0446     		mov	r4, r0
 1250              	.LVL152:
 466:Core/Src/main.c ****             val = x < 0 ? -M_PI - val : val;                        //5-6th octants from 8-7
 1251              		.loc 1 466 21 view .LVU232
 1252 01a8 0F46     		mov	r7, r1
 1253              	.LVL153:
 466:Core/Src/main.c ****             val = x < 0 ? -M_PI - val : val;                        //5-6th octants from 8-7
 1254              		.loc 1 466 21 view .LVU233
 1255 01aa D5E7     		b	.L98
 1256              	.LVL154:
 1257              	.L102:
 449:Core/Src/main.c ****     }
 1258              		.loc 1 449 13 view .LVU234
 1259 01ac 0024     		movs	r4, #0
 1260              	.LVL155:
 449:Core/Src/main.c ****     }
 1261              		.loc 1 449 13 view .LVU235
 1262 01ae 2746     		mov	r7, r4
 1263              	.L89:
 1264              	.LVL156:
 468:Core/Src/main.c ****         }
 469:Core/Src/main.c ****     }
 470:Core/Src/main.c ****     return val * 180 / M_PI;
 1265              		.loc 1 470 5 is_stmt 1 view .LVU236
 1266              		.loc 1 470 16 is_stmt 0 view .LVU237
 1267 01b0 0022     		movs	r2, #0
 1268 01b2 124B     		ldr	r3, .L119+44
 1269 01b4 2046     		mov	r0, r4
 1270 01b6 3946     		mov	r1, r7
 1271 01b8 FFF7FEFF 		bl	__aeabi_dmul
 1272              	.LVL157:
 1273              		.loc 1 470 22 view .LVU238
 1274 01bc 06A3     		adr	r3, .L119+8
 1275 01be D3E90023 		ldrd	r2, [r3]
 1276 01c2 FFF7FEFF 		bl	__aeabi_ddiv
 1277              	.LVL158:
 1278              	.L81:
 471:Core/Src/main.c **** }
 1279              		.loc 1 471 1 view .LVU239
 1280 01c6 BDE8F883 		pop	{r3, r4, r5, r6, r7, r8, r9, pc}
 1281              	.L100:
 439:Core/Src/main.c ****     }
 1282              		.loc 1 439 16 view .LVU240
 1283 01ca 0020     		movs	r0, #0
 1284 01cc 0021     		movs	r1, #0
 1285 01ce FAE7     		b	.L81
 1286              	.L120:
 1287              		.align	3
 1288              	.L119:
 1289 01d0 00000000 		.word	0
 1290 01d4 00E06F40 		.word	1081073664
 1291 01d8 50455254 		.word	1414677840
ARM GAS  C:\Users\zhangjd\AppData\Local\Temp\ccomS8NF.s 			page 33


 1292 01dc FB210940 		.word	1074340347
 1293 01e0 4AD8124D 		.word	1293080650
 1294 01e4 FB21F93F 		.word	1073291771
 1295 01e8 4AD8124D 		.word	1293080650
 1296 01ec FB21F9BF 		.word	-1074191877
 1297 01f0 50455254 		.word	1414677840
 1298 01f4 FB2109C0 		.word	-1073143301
 1299 01f8 00000000 		.word	.LANCHOR3
 1300 01fc 00806640 		.word	1080459264
 1301              		.cfi_endproc
 1302              	.LFE76:
 1304              		.global	__aeabi_i2d
 1305              		.global	__aeabi_ui2d
 1306              		.section	.text.Solve_Mine_Pos,"ax",%progbits
 1307              		.align	1
 1308              		.global	Solve_Mine_Pos
 1309              		.syntax unified
 1310              		.thumb
 1311              		.thumb_func
 1312              		.fpu softvfp
 1314              	Solve_Mine_Pos:
 1315              	.LVL159:
 1316              	.LFB77:
 472:Core/Src/main.c **** int Solve_Mine_Pos(uint16_t xx_1, uint16_t yy_1, uint32_t EE_1, uint16_t xx_2, uint16_t yy_2, uint3
 473:Core/Src/main.c **** {
 1317              		.loc 1 473 1 is_stmt 1 view -0
 1318              		.cfi_startproc
 1319              		@ args = 24, pretend = 0, frame = 56
 1320              		@ frame_needed = 0, uses_anonymous_args = 0
 1321              		.loc 1 473 1 is_stmt 0 view .LVU242
 1322 0000 2DE9F04F 		push	{r4, r5, r6, r7, r8, r9, r10, fp, lr}
 1323              	.LCFI9:
 1324              		.cfi_def_cfa_offset 36
 1325              		.cfi_offset 4, -36
 1326              		.cfi_offset 5, -32
 1327              		.cfi_offset 6, -28
 1328              		.cfi_offset 7, -24
 1329              		.cfi_offset 8, -20
 1330              		.cfi_offset 9, -16
 1331              		.cfi_offset 10, -12
 1332              		.cfi_offset 11, -8
 1333              		.cfi_offset 14, -4
 1334 0004 8FB0     		sub	sp, sp, #60
 1335              	.LCFI10:
 1336              		.cfi_def_cfa_offset 96
 1337 0006 8046     		mov	r8, r0
 1338 0008 8946     		mov	r9, r1
 1339 000a 1746     		mov	r7, r2
 1340 000c 1D46     		mov	r5, r3
 1341 000e BDF860A0 		ldrh	r10, [sp, #96]
 1342 0012 BDF86840 		ldrh	r4, [sp, #104]
 1343 0016 BDF86C30 		ldrh	r3, [sp, #108]
 1344              	.LVL160:
 474:Core/Src/main.c ****     /*
 475:Core/Src/main.c ****     入口参数：xx_i,yy_i,EE_i，(i=1,2,3)为三个不同点的坐标&场强。double *coordinat
 476:Core/Src/main.c ****     此函数根据三组坐标&场强数据进行解算，将得到的结果存储在coordinate数
 477:Core/Src/main.c ****     返回值为0或1。case 1：计算无明显异常;case 0：三个点数据量不够，或是
ARM GAS  C:\Users\zhangjd\AppData\Local\Temp\ccomS8NF.s 			page 34


 478:Core/Src/main.c ****     */
 479:Core/Src/main.c ****     /*
 480:Core/Src/main.c ****     计算公式为：
 481:Core/Src/main.c ****     y=(A*((xx_2-xx_3)/EE_1+(xx_3-xx_1)/EE_2+(xx_1-xx_2)/EE_3)+(xx_1-xx_2)*(xx_2-xx_3)*(xx_3-xx_1)+y
 482:Core/Src/main.c ****     x=(xx_1+xx_2-((xx_2-xx_3)*(A/EE_1-A/EE_2)-(yy_1-yy_2)*(xx_2-xx_3)*(yy_1+yy_2-2*y))/(xx_1-xx_2)/
 483:Core/Src/main.c ****     此公式在matlab上运算正常，精度满足要求
 484:Core/Src/main.c ****     */
 485:Core/Src/main.c ****     double determinant = xx_1 * yy_2 - xx_2 * yy_1 + xx_3 * yy_1 - xx_1 * yy_3 + xx_2 * yy_3 - xx_3
 1345              		.loc 1 485 5 is_stmt 1 view .LVU243
 1346              		.loc 1 485 31 is_stmt 0 view .LVU244
 1347 001a 0AFB00F6 		mul	r6, r10, r0
 1348              		.loc 1 485 38 view .LVU245
 1349 001e 01FB1566 		mls	r6, r1, r5, r6
 1350              		.loc 1 485 52 view .LVU246
 1351 0022 04FB0166 		mla	r6, r4, r1, r6
 1352              		.loc 1 485 66 view .LVU247
 1353 0026 03FB1066 		mls	r6, r3, r0, r6
 1354              		.loc 1 485 80 view .LVU248
 1355 002a 0993     		str	r3, [sp, #36]
 1356 002c 03FB0566 		mla	r6, r3, r5, r6
 1357              		.loc 1 485 101 view .LVU249
 1358 0030 04FB0AFB 		mul	fp, r4, r10
 1359              		.loc 1 485 12 view .LVU250
 1360 0034 A6EB0B00 		sub	r0, r6, fp
 1361              	.LVL161:
 1362              		.loc 1 485 12 view .LVU251
 1363 0038 FFF7FEFF 		bl	__aeabi_i2d
 1364              	.LVL162:
 1365              		.loc 1 485 12 view .LVU252
 1366 003c CDE90001 		strd	r0, [sp]
 1367              	.LVL163:
 486:Core/Src/main.c ****     if (!determinant) //??????
 1368              		.loc 1 486 5 is_stmt 1 view .LVU253
 1369              		.loc 1 486 8 is_stmt 0 view .LVU254
 1370 0040 5E45     		cmp	r6, fp
 1371 0042 00F04C81 		beq	.L123
 487:Core/Src/main.c ****         return 0;
 488:Core/Src/main.c ****     double y = (((double)(xx_2 - xx_3) * (A_COFFIENT / (double)EE_1) + (double)(xx_3 - xx_1) * (A_C
 1372              		.loc 1 488 5 is_stmt 1 view .LVU255
 1373              		.loc 1 488 32 is_stmt 0 view .LVU256
 1374 0046 A5EB040B 		sub	fp, r5, r4
 1375              		.loc 1 488 18 view .LVU257
 1376 004a 5846     		mov	r0, fp
 1377              	.LVL164:
 1378              		.loc 1 488 18 view .LVU258
 1379 004c FFF7FEFF 		bl	__aeabi_i2d
 1380              	.LVL165:
 1381 0050 CDE90201 		strd	r0, [sp, #8]
 1382              		.loc 1 488 56 view .LVU259
 1383 0054 3846     		mov	r0, r7
 1384 0056 FFF7FEFF 		bl	__aeabi_ui2d
 1385              	.LVL166:
 1386 005a 0246     		mov	r2, r0
 1387 005c 0B46     		mov	r3, r1
 1388              		.loc 1 488 54 view .LVU260
 1389 005e A6A1     		adr	r1, .L129
 1390 0060 D1E90001 		ldrd	r0, [r1]
ARM GAS  C:\Users\zhangjd\AppData\Local\Temp\ccomS8NF.s 			page 35


 1391 0064 FFF7FEFF 		bl	__aeabi_ddiv
 1392              	.LVL167:
 1393 0068 0246     		mov	r2, r0
 1394 006a 0B46     		mov	r3, r1
 1395              		.loc 1 488 40 view .LVU261
 1396 006c CDE90A23 		strd	r2, [sp, #40]
 1397 0070 DDE90201 		ldrd	r0, [sp, #8]
 1398 0074 FFF7FEFF 		bl	__aeabi_dmul
 1399              	.LVL168:
 1400 0078 0646     		mov	r6, r0
 1401 007a 0F46     		mov	r7, r1
 1402              	.LVL169:
 1403              		.loc 1 488 72 view .LVU262
 1404 007c A4EB0800 		sub	r0, r4, r8
 1405 0080 FFF7FEFF 		bl	__aeabi_i2d
 1406              	.LVL170:
 1407 0084 CDE90601 		strd	r0, [sp, #24]
 1408              		.loc 1 488 110 view .LVU263
 1409 0088 1998     		ldr	r0, [sp, #100]
 1410 008a FFF7FEFF 		bl	__aeabi_ui2d
 1411              	.LVL171:
 1412 008e 0246     		mov	r2, r0
 1413 0090 0B46     		mov	r3, r1
 1414              		.loc 1 488 108 view .LVU264
 1415 0092 99A1     		adr	r1, .L129
 1416 0094 D1E90001 		ldrd	r0, [r1]
 1417 0098 FFF7FEFF 		bl	__aeabi_ddiv
 1418              	.LVL172:
 1419 009c 0246     		mov	r2, r0
 1420 009e 0B46     		mov	r3, r1
 1421              		.loc 1 488 94 view .LVU265
 1422 00a0 CDE90C23 		strd	r2, [sp, #48]
 1423 00a4 DDE90601 		ldrd	r0, [sp, #24]
 1424 00a8 FFF7FEFF 		bl	__aeabi_dmul
 1425              	.LVL173:
 1426 00ac 0246     		mov	r2, r0
 1427 00ae 0B46     		mov	r3, r1
 1428              		.loc 1 488 70 view .LVU266
 1429 00b0 3046     		mov	r0, r6
 1430 00b2 3946     		mov	r1, r7
 1431 00b4 FFF7FEFF 		bl	__aeabi_dadd
 1432              	.LVL174:
 1433 00b8 0646     		mov	r6, r0
 1434 00ba 0F46     		mov	r7, r1
 1435              		.loc 1 488 126 view .LVU267
 1436 00bc A8EB0500 		sub	r0, r8, r5
 1437 00c0 FFF7FEFF 		bl	__aeabi_i2d
 1438              	.LVL175:
 1439 00c4 CDE90401 		strd	r0, [sp, #16]
 1440              		.loc 1 488 172 view .LVU268
 1441 00c8 1C98     		ldr	r0, [sp, #112]
 1442 00ca FFF7FEFF 		bl	__aeabi_ui2d
 1443              	.LVL176:
 1444 00ce 0246     		mov	r2, r0
 1445 00d0 0B46     		mov	r3, r1
 1446              		.loc 1 488 150 view .LVU269
 1447 00d2 89A1     		adr	r1, .L129
ARM GAS  C:\Users\zhangjd\AppData\Local\Temp\ccomS8NF.s 			page 36


 1448 00d4 D1E90001 		ldrd	r0, [r1]
 1449 00d8 FFF7FEFF 		bl	__aeabi_ddiv
 1450              	.LVL177:
 1451 00dc 0246     		mov	r2, r0
 1452 00de 0B46     		mov	r3, r1
 1453              		.loc 1 488 148 view .LVU270
 1454 00e0 DDE90401 		ldrd	r0, [sp, #16]
 1455 00e4 FFF7FEFF 		bl	__aeabi_dmul
 1456              	.LVL178:
 1457 00e8 0246     		mov	r2, r0
 1458 00ea 0B46     		mov	r3, r1
 1459              		.loc 1 488 124 view .LVU271
 1460 00ec 3046     		mov	r0, r6
 1461 00ee 3946     		mov	r1, r7
 1462 00f0 FFF7FEFF 		bl	__aeabi_dadd
 1463              	.LVL179:
 1464              		.loc 1 488 187 view .LVU272
 1465 00f4 DDE90023 		ldrd	r2, [sp]
 1466 00f8 FFF7FEFF 		bl	__aeabi_ddiv
 1467              	.LVL180:
 1468 00fc 0646     		mov	r6, r0
 1469 00fe 0F46     		mov	r7, r1
 1470              		.loc 1 488 217 view .LVU273
 1471 0100 DDE90423 		ldrd	r2, [sp, #16]
 1472 0104 DDE90201 		ldrd	r0, [sp, #8]
 1473 0108 FFF7FEFF 		bl	__aeabi_dmul
 1474              	.LVL181:
 1475              		.loc 1 488 241 view .LVU274
 1476 010c DDE90023 		ldrd	r2, [sp]
 1477 0110 FFF7FEFF 		bl	__aeabi_ddiv
 1478              	.LVL182:
 1479 0114 0246     		mov	r2, r0
 1480 0116 0B46     		mov	r3, r1
 1481              		.loc 1 488 255 view .LVU275
 1482 0118 DDE90601 		ldrd	r0, [sp, #24]
 1483 011c FFF7FEFF 		bl	__aeabi_dmul
 1484              	.LVL183:
 1485 0120 0246     		mov	r2, r0
 1486 0122 0B46     		mov	r3, r1
 1487              		.loc 1 488 201 view .LVU276
 1488 0124 3046     		mov	r0, r6
 1489 0126 3946     		mov	r1, r7
 1490 0128 FFF7FEFF 		bl	__aeabi_dadd
 1491              	.LVL184:
 1492 012c CDE90601 		strd	r0, [sp, #24]
 1493              		.loc 1 488 273 view .LVU277
 1494 0130 4846     		mov	r0, r9
 1495 0132 FFF7FEFF 		bl	__aeabi_ui2d
 1496              	.LVL185:
 1497              		.loc 1 488 286 view .LVU278
 1498 0136 DDE90023 		ldrd	r2, [sp]
 1499 013a FFF7FEFF 		bl	__aeabi_ddiv
 1500              	.LVL186:
 1501 013e 0646     		mov	r6, r0
 1502 0140 0F46     		mov	r7, r1
 1503              		.loc 1 488 300 view .LVU279
 1504 0142 4846     		mov	r0, r9
ARM GAS  C:\Users\zhangjd\AppData\Local\Temp\ccomS8NF.s 			page 37


 1505 0144 FFF7FEFF 		bl	__aeabi_i2d
 1506              	.LVL187:
 1507 0148 3246     		mov	r2, r6
 1508 014a 3B46     		mov	r3, r7
 1509 014c FFF7FEFF 		bl	__aeabi_dmul
 1510              	.LVL188:
 1511 0150 0646     		mov	r6, r0
 1512 0152 0F46     		mov	r7, r1
 1513              		.loc 1 488 307 view .LVU280
 1514 0154 601B     		subs	r0, r4, r5
 1515 0156 FFF7FEFF 		bl	__aeabi_i2d
 1516              	.LVL189:
 1517 015a 3246     		mov	r2, r6
 1518 015c 3B46     		mov	r3, r7
 1519 015e FFF7FEFF 		bl	__aeabi_dmul
 1520              	.LVL190:
 1521 0162 0246     		mov	r2, r0
 1522 0164 0B46     		mov	r3, r1
 1523              		.loc 1 488 271 view .LVU281
 1524 0166 DDE90601 		ldrd	r0, [sp, #24]
 1525 016a FFF7FEFF 		bl	__aeabi_dadd
 1526              	.LVL191:
 1527 016e CDE90601 		strd	r0, [sp, #24]
 1528              		.loc 1 488 325 view .LVU282
 1529 0172 5046     		mov	r0, r10
 1530 0174 FFF7FEFF 		bl	__aeabi_ui2d
 1531              	.LVL192:
 1532 0178 0646     		mov	r6, r0
 1533 017a 0F46     		mov	r7, r1
 1534              		.loc 1 488 338 view .LVU283
 1535 017c 5046     		mov	r0, r10
 1536 017e FFF7FEFF 		bl	__aeabi_i2d
 1537              	.LVL193:
 1538 0182 3246     		mov	r2, r6
 1539 0184 3B46     		mov	r3, r7
 1540 0186 FFF7FEFF 		bl	__aeabi_dmul
 1541              	.LVL194:
 1542              		.loc 1 488 345 view .LVU284
 1543 018a DDE90023 		ldrd	r2, [sp]
 1544 018e FFF7FEFF 		bl	__aeabi_ddiv
 1545              	.LVL195:
 1546 0192 0646     		mov	r6, r0
 1547 0194 0F46     		mov	r7, r1
 1548              		.loc 1 488 359 view .LVU285
 1549 0196 A8EB0400 		sub	r0, r8, r4
 1550 019a FFF7FEFF 		bl	__aeabi_i2d
 1551              	.LVL196:
 1552 019e 3246     		mov	r2, r6
 1553 01a0 3B46     		mov	r3, r7
 1554 01a2 FFF7FEFF 		bl	__aeabi_dmul
 1555              	.LVL197:
 1556 01a6 0246     		mov	r2, r0
 1557 01a8 0B46     		mov	r3, r1
 1558              		.loc 1 488 323 view .LVU286
 1559 01aa DDE90601 		ldrd	r0, [sp, #24]
 1560 01ae FFF7FEFF 		bl	__aeabi_dadd
 1561              	.LVL198:
ARM GAS  C:\Users\zhangjd\AppData\Local\Temp\ccomS8NF.s 			page 38


 1562 01b2 CDE90601 		strd	r0, [sp, #24]
 1563              		.loc 1 488 377 view .LVU287
 1564 01b6 099C     		ldr	r4, [sp, #36]
 1565 01b8 2046     		mov	r0, r4
 1566 01ba FFF7FEFF 		bl	__aeabi_ui2d
 1567              	.LVL199:
 1568 01be 0646     		mov	r6, r0
 1569 01c0 0F46     		mov	r7, r1
 1570              		.loc 1 488 390 view .LVU288
 1571 01c2 2046     		mov	r0, r4
 1572 01c4 FFF7FEFF 		bl	__aeabi_i2d
 1573              	.LVL200:
 1574 01c8 3246     		mov	r2, r6
 1575 01ca 3B46     		mov	r3, r7
 1576 01cc FFF7FEFF 		bl	__aeabi_dmul
 1577              	.LVL201:
 1578              		.loc 1 488 397 view .LVU289
 1579 01d0 DDE90023 		ldrd	r2, [sp]
 1580 01d4 FFF7FEFF 		bl	__aeabi_ddiv
 1581              	.LVL202:
 1582 01d8 0646     		mov	r6, r0
 1583 01da 0F46     		mov	r7, r1
 1584              		.loc 1 488 411 view .LVU290
 1585 01dc A5EB0800 		sub	r0, r5, r8
 1586 01e0 FFF7FEFF 		bl	__aeabi_i2d
 1587              	.LVL203:
 1588 01e4 3246     		mov	r2, r6
 1589 01e6 3B46     		mov	r3, r7
 1590 01e8 FFF7FEFF 		bl	__aeabi_dmul
 1591              	.LVL204:
 1592 01ec 0246     		mov	r2, r0
 1593 01ee 0B46     		mov	r3, r1
 1594              		.loc 1 488 375 view .LVU291
 1595 01f0 DDE90601 		ldrd	r0, [sp, #24]
 1596 01f4 FFF7FEFF 		bl	__aeabi_dadd
 1597              	.LVL205:
 1598              		.loc 1 488 12 view .LVU292
 1599 01f8 0022     		movs	r2, #0
 1600 01fa 434B     		ldr	r3, .L129+16
 1601 01fc FFF7FEFF 		bl	__aeabi_dmul
 1602              	.LVL206:
 1603 0200 0646     		mov	r6, r0
 1604 0202 0F46     		mov	r7, r1
 1605              	.LVL207:
 489:Core/Src/main.c ****     double x = (xx_1 + xx_2 - ((xx_2 - xx_3) * (A_COFFIENT / (double)EE_1 - A_COFFIENT / (double)EE
 1606              		.loc 1 489 5 is_stmt 1 view .LVU293
 1607              		.loc 1 489 22 is_stmt 0 view .LVU294
 1608 0204 08EB0504 		add	r4, r8, r5
 1609              		.loc 1 489 75 view .LVU295
 1610 0208 DDE90C23 		ldrd	r2, [sp, #48]
 1611 020c DDE90A01 		ldrd	r0, [sp, #40]
 1612 0210 FFF7FEFF 		bl	__aeabi_dsub
 1613              	.LVL208:
 1614 0214 0246     		mov	r2, r0
 1615 0216 0B46     		mov	r3, r1
 1616              		.loc 1 489 46 view .LVU296
 1617 0218 DDE90201 		ldrd	r0, [sp, #8]
ARM GAS  C:\Users\zhangjd\AppData\Local\Temp\ccomS8NF.s 			page 39


 1618 021c FFF7FEFF 		bl	__aeabi_dmul
 1619              	.LVL209:
 1620 0220 CDE90001 		strd	r0, [sp]
 1621              	.LVL210:
 1622              		.loc 1 489 112 view .LVU297
 1623 0224 A9EB0A05 		sub	r5, r9, r10
 1624              		.loc 1 489 120 view .LVU298
 1625 0228 05FB0BF5 		mul	r5, r5, fp
 1626              		.loc 1 489 152 view .LVU299
 1627 022c CA44     		add	r10, r10, r9
 1628              		.loc 1 489 163 view .LVU300
 1629 022e 3246     		mov	r2, r6
 1630 0230 3B46     		mov	r3, r7
 1631 0232 3046     		mov	r0, r6
 1632 0234 3946     		mov	r1, r7
 1633 0236 FFF7FEFF 		bl	__aeabi_dadd
 1634              	.LVL211:
 1635 023a 8046     		mov	r8, r0
 1636 023c 8946     		mov	r9, r1
 1637              		.loc 1 489 138 view .LVU301
 1638 023e 5046     		mov	r0, r10
 1639 0240 FFF7FEFF 		bl	__aeabi_i2d
 1640              	.LVL212:
 1641 0244 4246     		mov	r2, r8
 1642 0246 4B46     		mov	r3, r9
 1643 0248 FFF7FEFF 		bl	__aeabi_dsub
 1644              	.LVL213:
 1645 024c 8046     		mov	r8, r0
 1646 024e 8946     		mov	r9, r1
 1647              		.loc 1 489 136 view .LVU302
 1648 0250 2846     		mov	r0, r5
 1649 0252 FFF7FEFF 		bl	__aeabi_i2d
 1650              	.LVL214:
 1651 0256 4246     		mov	r2, r8
 1652 0258 4B46     		mov	r3, r9
 1653 025a FFF7FEFF 		bl	__aeabi_dmul
 1654              	.LVL215:
 1655 025e 0246     		mov	r2, r0
 1656 0260 0B46     		mov	r3, r1
 1657              		.loc 1 489 104 view .LVU303
 1658 0262 DDE90001 		ldrd	r0, [sp]
 1659 0266 FFF7FEFF 		bl	__aeabi_dsub
 1660              	.LVL216:
 1661              		.loc 1 489 169 view .LVU304
 1662 026a DDE90423 		ldrd	r2, [sp, #16]
 1663 026e FFF7FEFF 		bl	__aeabi_ddiv
 1664              	.LVL217:
 1665              		.loc 1 489 185 view .LVU305
 1666 0272 DDE90223 		ldrd	r2, [sp, #8]
 1667 0276 FFF7FEFF 		bl	__aeabi_ddiv
 1668              	.LVL218:
 1669 027a 8046     		mov	r8, r0
 1670 027c 8946     		mov	r9, r1
 1671              		.loc 1 489 29 view .LVU306
 1672 027e 2046     		mov	r0, r4
 1673 0280 FFF7FEFF 		bl	__aeabi_i2d
 1674              	.LVL219:
ARM GAS  C:\Users\zhangjd\AppData\Local\Temp\ccomS8NF.s 			page 40


 1675 0284 4246     		mov	r2, r8
 1676 0286 4B46     		mov	r3, r9
 1677 0288 FFF7FEFF 		bl	__aeabi_dsub
 1678              	.LVL220:
 1679              		.loc 1 489 12 view .LVU307
 1680 028c 0022     		movs	r2, #0
 1681 028e 1E4B     		ldr	r3, .L129+16
 1682 0290 FFF7FEFF 		bl	__aeabi_dmul
 1683              	.LVL221:
 1684 0294 0446     		mov	r4, r0
 1685 0296 0D46     		mov	r5, r1
 1686              	.LVL222:
 490:Core/Src/main.c **** 
 491:Core/Src/main.c ****     if (x < -POS_ERR_TOL || x > 254 + POS_ERR_TOL || y < -POS_ERR_TOL || y > 254 + POS_ERR_TOL) //?
 1687              		.loc 1 491 5 is_stmt 1 view .LVU308
 1688              		.loc 1 491 8 is_stmt 0 view .LVU309
 1689 0298 0022     		movs	r2, #0
 1690 029a 1C4B     		ldr	r3, .L129+20
 1691 029c FFF7FEFF 		bl	__aeabi_dcmplt
 1692              	.LVL223:
 1693 02a0 F8B9     		cbnz	r0, .L124
 1694              		.loc 1 491 26 discriminator 1 view .LVU310
 1695 02a2 17A3     		adr	r3, .L129+8
 1696 02a4 D3E90023 		ldrd	r2, [r3]
 1697 02a8 2046     		mov	r0, r4
 1698 02aa 2946     		mov	r1, r5
 1699 02ac FFF7FEFF 		bl	__aeabi_dcmpgt
 1700              	.LVL224:
 1701 02b0 D8B9     		cbnz	r0, .L125
 1702              		.loc 1 491 51 discriminator 2 view .LVU311
 1703 02b2 0022     		movs	r2, #0
 1704 02b4 154B     		ldr	r3, .L129+20
 1705 02b6 3046     		mov	r0, r6
 1706 02b8 3946     		mov	r1, r7
 1707 02ba FFF7FEFF 		bl	__aeabi_dcmplt
 1708              	.LVL225:
 1709 02be B0B9     		cbnz	r0, .L126
 1710              		.loc 1 491 71 discriminator 3 view .LVU312
 1711 02c0 0FA3     		adr	r3, .L129+8
 1712 02c2 D3E90023 		ldrd	r2, [r3]
 1713 02c6 3046     		mov	r0, r6
 1714 02c8 3946     		mov	r1, r7
 1715 02ca FFF7FEFF 		bl	__aeabi_dcmpgt
 1716              	.LVL226:
 1717 02ce 80B9     		cbnz	r0, .L127
 492:Core/Src/main.c ****         return 0;
 493:Core/Src/main.c **** 
 494:Core/Src/main.c ****     coordinate[0] = x;
 1718              		.loc 1 494 5 is_stmt 1 view .LVU313
 1719              		.loc 1 494 19 is_stmt 0 view .LVU314
 1720 02d0 1D9B     		ldr	r3, [sp, #116]
 1721 02d2 C3E90045 		strd	r4, [r3]
 495:Core/Src/main.c ****     coordinate[1] = y;
 1722              		.loc 1 495 5 is_stmt 1 view .LVU315
 1723              		.loc 1 495 19 is_stmt 0 view .LVU316
 1724 02d6 C3E90267 		strd	r6, [r3, #8]
 496:Core/Src/main.c ****     return 1;
ARM GAS  C:\Users\zhangjd\AppData\Local\Temp\ccomS8NF.s 			page 41


 1725              		.loc 1 496 5 is_stmt 1 view .LVU317
 1726              		.loc 1 496 12 is_stmt 0 view .LVU318
 1727 02da 0120     		movs	r0, #1
 1728 02dc 02E0     		b	.L121
 1729              	.LVL227:
 1730              	.L123:
 487:Core/Src/main.c ****     double y = (((double)(xx_2 - xx_3) * (A_COFFIENT / (double)EE_1) + (double)(xx_3 - xx_1) * (A_C
 1731              		.loc 1 487 16 view .LVU319
 1732 02de 0020     		movs	r0, #0
 1733              	.LVL228:
 487:Core/Src/main.c ****     double y = (((double)(xx_2 - xx_3) * (A_COFFIENT / (double)EE_1) + (double)(xx_3 - xx_1) * (A_C
 1734              		.loc 1 487 16 view .LVU320
 1735 02e0 00E0     		b	.L121
 1736              	.LVL229:
 1737              	.L124:
 492:Core/Src/main.c **** 
 1738              		.loc 1 492 16 view .LVU321
 1739 02e2 0020     		movs	r0, #0
 1740              	.LVL230:
 1741              	.L121:
 497:Core/Src/main.c **** }
 1742              		.loc 1 497 1 view .LVU322
 1743 02e4 0FB0     		add	sp, sp, #60
 1744              	.LCFI11:
 1745              		.cfi_remember_state
 1746              		.cfi_def_cfa_offset 36
 1747              		@ sp needed
 1748 02e6 BDE8F08F 		pop	{r4, r5, r6, r7, r8, r9, r10, fp, pc}
 1749              	.LVL231:
 1750              	.L125:
 1751              	.LCFI12:
 1752              		.cfi_restore_state
 492:Core/Src/main.c **** 
 1753              		.loc 1 492 16 view .LVU323
 1754 02ea 0020     		movs	r0, #0
 1755 02ec FAE7     		b	.L121
 1756              	.L126:
 1757 02ee 0020     		movs	r0, #0
 1758 02f0 F8E7     		b	.L121
 1759              	.L127:
 1760 02f2 0020     		movs	r0, #0
 1761 02f4 F6E7     		b	.L121
 1762              	.L130:
 1763 02f6 00BF     		.align	3
 1764              	.L129:
 1765 02f8 00000000 		.word	0
 1766 02fc 65CDCD41 		.word	1104006501
 1767 0300 00000000 		.word	0
 1768 0304 00207040 		.word	1081090048
 1769 0308 0000E03F 		.word	1071644672
 1770 030c 000010C0 		.word	-1072693248
 1771              		.cfi_endproc
 1772              	.LFE77:
 1774              		.section	.text.Error_Handler,"ax",%progbits
 1775              		.align	1
 1776              		.global	Error_Handler
 1777              		.syntax unified
ARM GAS  C:\Users\zhangjd\AppData\Local\Temp\ccomS8NF.s 			page 42


 1778              		.thumb
 1779              		.thumb_func
 1780              		.fpu softvfp
 1782              	Error_Handler:
 1783              	.LFB78:
 498:Core/Src/main.c **** /* USER CODE END 4 */
 499:Core/Src/main.c **** 
 500:Core/Src/main.c **** /**
 501:Core/Src/main.c ****   * @brief  This function is executed in case of error occurrence.
 502:Core/Src/main.c ****   * @retval None
 503:Core/Src/main.c ****   */
 504:Core/Src/main.c **** void Error_Handler(void)
 505:Core/Src/main.c **** {
 1784              		.loc 1 505 1 is_stmt 1 view -0
 1785              		.cfi_startproc
 1786              		@ Volatile: function does not return.
 1787              		@ args = 0, pretend = 0, frame = 0
 1788              		@ frame_needed = 0, uses_anonymous_args = 0
 1789              		@ link register save eliminated.
 506:Core/Src/main.c ****     /* USER CODE BEGIN Error_Handler_Debug */
 507:Core/Src/main.c ****     /* User can add his own implementation to report the HAL error return state */
 508:Core/Src/main.c ****     __disable_irq();
 1790              		.loc 1 508 5 view .LVU325
 1791              	.LBB6:
 1792              	.LBI6:
 1793              		.file 2 "Drivers/CMSIS/Include/cmsis_gcc.h"
   1:Drivers/CMSIS/Include/cmsis_gcc.h **** /**************************************************************************//**
   2:Drivers/CMSIS/Include/cmsis_gcc.h ****  * @file     cmsis_gcc.h
   3:Drivers/CMSIS/Include/cmsis_gcc.h ****  * @brief    CMSIS compiler GCC header file
   4:Drivers/CMSIS/Include/cmsis_gcc.h ****  * @version  V5.0.4
   5:Drivers/CMSIS/Include/cmsis_gcc.h ****  * @date     09. April 2018
   6:Drivers/CMSIS/Include/cmsis_gcc.h ****  ******************************************************************************/
   7:Drivers/CMSIS/Include/cmsis_gcc.h **** /*
   8:Drivers/CMSIS/Include/cmsis_gcc.h ****  * Copyright (c) 2009-2018 Arm Limited. All rights reserved.
   9:Drivers/CMSIS/Include/cmsis_gcc.h ****  *
  10:Drivers/CMSIS/Include/cmsis_gcc.h ****  * SPDX-License-Identifier: Apache-2.0
  11:Drivers/CMSIS/Include/cmsis_gcc.h ****  *
  12:Drivers/CMSIS/Include/cmsis_gcc.h ****  * Licensed under the Apache License, Version 2.0 (the License); you may
  13:Drivers/CMSIS/Include/cmsis_gcc.h ****  * not use this file except in compliance with the License.
  14:Drivers/CMSIS/Include/cmsis_gcc.h ****  * You may obtain a copy of the License at
  15:Drivers/CMSIS/Include/cmsis_gcc.h ****  *
  16:Drivers/CMSIS/Include/cmsis_gcc.h ****  * www.apache.org/licenses/LICENSE-2.0
  17:Drivers/CMSIS/Include/cmsis_gcc.h ****  *
  18:Drivers/CMSIS/Include/cmsis_gcc.h ****  * Unless required by applicable law or agreed to in writing, software
  19:Drivers/CMSIS/Include/cmsis_gcc.h ****  * distributed under the License is distributed on an AS IS BASIS, WITHOUT
  20:Drivers/CMSIS/Include/cmsis_gcc.h ****  * WARRANTIES OR CONDITIONS OF ANY KIND, either express or implied.
  21:Drivers/CMSIS/Include/cmsis_gcc.h ****  * See the License for the specific language governing permissions and
  22:Drivers/CMSIS/Include/cmsis_gcc.h ****  * limitations under the License.
  23:Drivers/CMSIS/Include/cmsis_gcc.h ****  */
  24:Drivers/CMSIS/Include/cmsis_gcc.h **** 
  25:Drivers/CMSIS/Include/cmsis_gcc.h **** #ifndef __CMSIS_GCC_H
  26:Drivers/CMSIS/Include/cmsis_gcc.h **** #define __CMSIS_GCC_H
  27:Drivers/CMSIS/Include/cmsis_gcc.h **** 
  28:Drivers/CMSIS/Include/cmsis_gcc.h **** /* ignore some GCC warnings */
  29:Drivers/CMSIS/Include/cmsis_gcc.h **** #pragma GCC diagnostic push
  30:Drivers/CMSIS/Include/cmsis_gcc.h **** #pragma GCC diagnostic ignored "-Wsign-conversion"
  31:Drivers/CMSIS/Include/cmsis_gcc.h **** #pragma GCC diagnostic ignored "-Wconversion"
ARM GAS  C:\Users\zhangjd\AppData\Local\Temp\ccomS8NF.s 			page 43


  32:Drivers/CMSIS/Include/cmsis_gcc.h **** #pragma GCC diagnostic ignored "-Wunused-parameter"
  33:Drivers/CMSIS/Include/cmsis_gcc.h **** 
  34:Drivers/CMSIS/Include/cmsis_gcc.h **** /* Fallback for __has_builtin */
  35:Drivers/CMSIS/Include/cmsis_gcc.h **** #ifndef __has_builtin
  36:Drivers/CMSIS/Include/cmsis_gcc.h ****   #define __has_builtin(x) (0)
  37:Drivers/CMSIS/Include/cmsis_gcc.h **** #endif
  38:Drivers/CMSIS/Include/cmsis_gcc.h **** 
  39:Drivers/CMSIS/Include/cmsis_gcc.h **** /* CMSIS compiler specific defines */
  40:Drivers/CMSIS/Include/cmsis_gcc.h **** #ifndef   __ASM
  41:Drivers/CMSIS/Include/cmsis_gcc.h ****   #define __ASM                                  __asm
  42:Drivers/CMSIS/Include/cmsis_gcc.h **** #endif
  43:Drivers/CMSIS/Include/cmsis_gcc.h **** #ifndef   __INLINE
  44:Drivers/CMSIS/Include/cmsis_gcc.h ****   #define __INLINE                               inline
  45:Drivers/CMSIS/Include/cmsis_gcc.h **** #endif
  46:Drivers/CMSIS/Include/cmsis_gcc.h **** #ifndef   __STATIC_INLINE
  47:Drivers/CMSIS/Include/cmsis_gcc.h ****   #define __STATIC_INLINE                        static inline
  48:Drivers/CMSIS/Include/cmsis_gcc.h **** #endif
  49:Drivers/CMSIS/Include/cmsis_gcc.h **** #ifndef   __STATIC_FORCEINLINE                 
  50:Drivers/CMSIS/Include/cmsis_gcc.h ****   #define __STATIC_FORCEINLINE                   __attribute__((always_inline)) static inline
  51:Drivers/CMSIS/Include/cmsis_gcc.h **** #endif                                           
  52:Drivers/CMSIS/Include/cmsis_gcc.h **** #ifndef   __NO_RETURN
  53:Drivers/CMSIS/Include/cmsis_gcc.h ****   #define __NO_RETURN                            __attribute__((__noreturn__))
  54:Drivers/CMSIS/Include/cmsis_gcc.h **** #endif
  55:Drivers/CMSIS/Include/cmsis_gcc.h **** #ifndef   __USED
  56:Drivers/CMSIS/Include/cmsis_gcc.h ****   #define __USED                                 __attribute__((used))
  57:Drivers/CMSIS/Include/cmsis_gcc.h **** #endif
  58:Drivers/CMSIS/Include/cmsis_gcc.h **** #ifndef   __WEAK
  59:Drivers/CMSIS/Include/cmsis_gcc.h ****   #define __WEAK                                 __attribute__((weak))
  60:Drivers/CMSIS/Include/cmsis_gcc.h **** #endif
  61:Drivers/CMSIS/Include/cmsis_gcc.h **** #ifndef   __PACKED
  62:Drivers/CMSIS/Include/cmsis_gcc.h ****   #define __PACKED                               __attribute__((packed, aligned(1)))
  63:Drivers/CMSIS/Include/cmsis_gcc.h **** #endif
  64:Drivers/CMSIS/Include/cmsis_gcc.h **** #ifndef   __PACKED_STRUCT
  65:Drivers/CMSIS/Include/cmsis_gcc.h ****   #define __PACKED_STRUCT                        struct __attribute__((packed, aligned(1)))
  66:Drivers/CMSIS/Include/cmsis_gcc.h **** #endif
  67:Drivers/CMSIS/Include/cmsis_gcc.h **** #ifndef   __PACKED_UNION
  68:Drivers/CMSIS/Include/cmsis_gcc.h ****   #define __PACKED_UNION                         union __attribute__((packed, aligned(1)))
  69:Drivers/CMSIS/Include/cmsis_gcc.h **** #endif
  70:Drivers/CMSIS/Include/cmsis_gcc.h **** #ifndef   __UNALIGNED_UINT32        /* deprecated */
  71:Drivers/CMSIS/Include/cmsis_gcc.h ****   #pragma GCC diagnostic push
  72:Drivers/CMSIS/Include/cmsis_gcc.h ****   #pragma GCC diagnostic ignored "-Wpacked"
  73:Drivers/CMSIS/Include/cmsis_gcc.h ****   #pragma GCC diagnostic ignored "-Wattributes"
  74:Drivers/CMSIS/Include/cmsis_gcc.h ****   struct __attribute__((packed)) T_UINT32 { uint32_t v; };
  75:Drivers/CMSIS/Include/cmsis_gcc.h ****   #pragma GCC diagnostic pop
  76:Drivers/CMSIS/Include/cmsis_gcc.h ****   #define __UNALIGNED_UINT32(x)                  (((struct T_UINT32 *)(x))->v)
  77:Drivers/CMSIS/Include/cmsis_gcc.h **** #endif
  78:Drivers/CMSIS/Include/cmsis_gcc.h **** #ifndef   __UNALIGNED_UINT16_WRITE
  79:Drivers/CMSIS/Include/cmsis_gcc.h ****   #pragma GCC diagnostic push
  80:Drivers/CMSIS/Include/cmsis_gcc.h ****   #pragma GCC diagnostic ignored "-Wpacked"
  81:Drivers/CMSIS/Include/cmsis_gcc.h ****   #pragma GCC diagnostic ignored "-Wattributes"
  82:Drivers/CMSIS/Include/cmsis_gcc.h ****   __PACKED_STRUCT T_UINT16_WRITE { uint16_t v; };
  83:Drivers/CMSIS/Include/cmsis_gcc.h ****   #pragma GCC diagnostic pop
  84:Drivers/CMSIS/Include/cmsis_gcc.h ****   #define __UNALIGNED_UINT16_WRITE(addr, val)    (void)((((struct T_UINT16_WRITE *)(void *)(addr))-
  85:Drivers/CMSIS/Include/cmsis_gcc.h **** #endif
  86:Drivers/CMSIS/Include/cmsis_gcc.h **** #ifndef   __UNALIGNED_UINT16_READ
  87:Drivers/CMSIS/Include/cmsis_gcc.h ****   #pragma GCC diagnostic push
  88:Drivers/CMSIS/Include/cmsis_gcc.h ****   #pragma GCC diagnostic ignored "-Wpacked"
ARM GAS  C:\Users\zhangjd\AppData\Local\Temp\ccomS8NF.s 			page 44


  89:Drivers/CMSIS/Include/cmsis_gcc.h ****   #pragma GCC diagnostic ignored "-Wattributes"
  90:Drivers/CMSIS/Include/cmsis_gcc.h ****   __PACKED_STRUCT T_UINT16_READ { uint16_t v; };
  91:Drivers/CMSIS/Include/cmsis_gcc.h ****   #pragma GCC diagnostic pop
  92:Drivers/CMSIS/Include/cmsis_gcc.h ****   #define __UNALIGNED_UINT16_READ(addr)          (((const struct T_UINT16_READ *)(const void *)(add
  93:Drivers/CMSIS/Include/cmsis_gcc.h **** #endif
  94:Drivers/CMSIS/Include/cmsis_gcc.h **** #ifndef   __UNALIGNED_UINT32_WRITE
  95:Drivers/CMSIS/Include/cmsis_gcc.h ****   #pragma GCC diagnostic push
  96:Drivers/CMSIS/Include/cmsis_gcc.h ****   #pragma GCC diagnostic ignored "-Wpacked"
  97:Drivers/CMSIS/Include/cmsis_gcc.h ****   #pragma GCC diagnostic ignored "-Wattributes"
  98:Drivers/CMSIS/Include/cmsis_gcc.h ****   __PACKED_STRUCT T_UINT32_WRITE { uint32_t v; };
  99:Drivers/CMSIS/Include/cmsis_gcc.h ****   #pragma GCC diagnostic pop
 100:Drivers/CMSIS/Include/cmsis_gcc.h ****   #define __UNALIGNED_UINT32_WRITE(addr, val)    (void)((((struct T_UINT32_WRITE *)(void *)(addr))-
 101:Drivers/CMSIS/Include/cmsis_gcc.h **** #endif
 102:Drivers/CMSIS/Include/cmsis_gcc.h **** #ifndef   __UNALIGNED_UINT32_READ
 103:Drivers/CMSIS/Include/cmsis_gcc.h ****   #pragma GCC diagnostic push
 104:Drivers/CMSIS/Include/cmsis_gcc.h ****   #pragma GCC diagnostic ignored "-Wpacked"
 105:Drivers/CMSIS/Include/cmsis_gcc.h ****   #pragma GCC diagnostic ignored "-Wattributes"
 106:Drivers/CMSIS/Include/cmsis_gcc.h ****   __PACKED_STRUCT T_UINT32_READ { uint32_t v; };
 107:Drivers/CMSIS/Include/cmsis_gcc.h ****   #pragma GCC diagnostic pop
 108:Drivers/CMSIS/Include/cmsis_gcc.h ****   #define __UNALIGNED_UINT32_READ(addr)          (((const struct T_UINT32_READ *)(const void *)(add
 109:Drivers/CMSIS/Include/cmsis_gcc.h **** #endif
 110:Drivers/CMSIS/Include/cmsis_gcc.h **** #ifndef   __ALIGNED
 111:Drivers/CMSIS/Include/cmsis_gcc.h ****   #define __ALIGNED(x)                           __attribute__((aligned(x)))
 112:Drivers/CMSIS/Include/cmsis_gcc.h **** #endif
 113:Drivers/CMSIS/Include/cmsis_gcc.h **** #ifndef   __RESTRICT
 114:Drivers/CMSIS/Include/cmsis_gcc.h ****   #define __RESTRICT                             __restrict
 115:Drivers/CMSIS/Include/cmsis_gcc.h **** #endif
 116:Drivers/CMSIS/Include/cmsis_gcc.h **** 
 117:Drivers/CMSIS/Include/cmsis_gcc.h **** 
 118:Drivers/CMSIS/Include/cmsis_gcc.h **** /* ###########################  Core Function Access  ########################### */
 119:Drivers/CMSIS/Include/cmsis_gcc.h **** /** \ingroup  CMSIS_Core_FunctionInterface
 120:Drivers/CMSIS/Include/cmsis_gcc.h ****     \defgroup CMSIS_Core_RegAccFunctions CMSIS Core Register Access Functions
 121:Drivers/CMSIS/Include/cmsis_gcc.h ****   @{
 122:Drivers/CMSIS/Include/cmsis_gcc.h ****  */
 123:Drivers/CMSIS/Include/cmsis_gcc.h **** 
 124:Drivers/CMSIS/Include/cmsis_gcc.h **** /**
 125:Drivers/CMSIS/Include/cmsis_gcc.h ****   \brief   Enable IRQ Interrupts
 126:Drivers/CMSIS/Include/cmsis_gcc.h ****   \details Enables IRQ interrupts by clearing the I-bit in the CPSR.
 127:Drivers/CMSIS/Include/cmsis_gcc.h ****            Can only be executed in Privileged modes.
 128:Drivers/CMSIS/Include/cmsis_gcc.h ****  */
 129:Drivers/CMSIS/Include/cmsis_gcc.h **** __STATIC_FORCEINLINE void __enable_irq(void)
 130:Drivers/CMSIS/Include/cmsis_gcc.h **** {
 131:Drivers/CMSIS/Include/cmsis_gcc.h ****   __ASM volatile ("cpsie i" : : : "memory");
 132:Drivers/CMSIS/Include/cmsis_gcc.h **** }
 133:Drivers/CMSIS/Include/cmsis_gcc.h **** 
 134:Drivers/CMSIS/Include/cmsis_gcc.h **** 
 135:Drivers/CMSIS/Include/cmsis_gcc.h **** /**
 136:Drivers/CMSIS/Include/cmsis_gcc.h ****   \brief   Disable IRQ Interrupts
 137:Drivers/CMSIS/Include/cmsis_gcc.h ****   \details Disables IRQ interrupts by setting the I-bit in the CPSR.
 138:Drivers/CMSIS/Include/cmsis_gcc.h ****            Can only be executed in Privileged modes.
 139:Drivers/CMSIS/Include/cmsis_gcc.h ****  */
 140:Drivers/CMSIS/Include/cmsis_gcc.h **** __STATIC_FORCEINLINE void __disable_irq(void)
 1794              		.loc 2 140 27 view .LVU326
 1795              	.LBB7:
 141:Drivers/CMSIS/Include/cmsis_gcc.h **** {
 142:Drivers/CMSIS/Include/cmsis_gcc.h ****   __ASM volatile ("cpsid i" : : : "memory");
 1796              		.loc 2 142 3 view .LVU327
ARM GAS  C:\Users\zhangjd\AppData\Local\Temp\ccomS8NF.s 			page 45


 1797              		.syntax unified
 1798              	@ 142 "Drivers/CMSIS/Include/cmsis_gcc.h" 1
 1799 0000 72B6     		cpsid i
 1800              	@ 0 "" 2
 1801              		.thumb
 1802              		.syntax unified
 1803              	.L132:
 1804              	.LBE7:
 1805              	.LBE6:
 509:Core/Src/main.c ****     while (1)
 1806              		.loc 1 509 5 discriminator 1 view .LVU328
 510:Core/Src/main.c ****     {
 511:Core/Src/main.c ****     }
 1807              		.loc 1 511 5 discriminator 1 view .LVU329
 509:Core/Src/main.c ****     while (1)
 1808              		.loc 1 509 11 discriminator 1 view .LVU330
 1809 0002 FEE7     		b	.L132
 1810              		.cfi_endproc
 1811              	.LFE78:
 1813              		.section	.text.SystemClock_Config,"ax",%progbits
 1814              		.align	1
 1815              		.global	SystemClock_Config
 1816              		.syntax unified
 1817              		.thumb
 1818              		.thumb_func
 1819              		.fpu softvfp
 1821              	SystemClock_Config:
 1822              	.LFB67:
 282:Core/Src/main.c ****     RCC_OscInitTypeDef RCC_OscInitStruct = {0};
 1823              		.loc 1 282 1 view -0
 1824              		.cfi_startproc
 1825              		@ args = 0, pretend = 0, frame = 64
 1826              		@ frame_needed = 0, uses_anonymous_args = 0
 1827 0000 00B5     		push	{lr}
 1828              	.LCFI13:
 1829              		.cfi_def_cfa_offset 4
 1830              		.cfi_offset 14, -4
 1831 0002 91B0     		sub	sp, sp, #68
 1832              	.LCFI14:
 1833              		.cfi_def_cfa_offset 72
 283:Core/Src/main.c ****     RCC_ClkInitTypeDef RCC_ClkInitStruct = {0};
 1834              		.loc 1 283 5 view .LVU332
 283:Core/Src/main.c ****     RCC_ClkInitTypeDef RCC_ClkInitStruct = {0};
 1835              		.loc 1 283 24 is_stmt 0 view .LVU333
 1836 0004 2822     		movs	r2, #40
 1837 0006 0021     		movs	r1, #0
 1838 0008 06A8     		add	r0, sp, #24
 1839 000a FFF7FEFF 		bl	memset
 1840              	.LVL232:
 284:Core/Src/main.c **** 
 1841              		.loc 1 284 5 is_stmt 1 view .LVU334
 284:Core/Src/main.c **** 
 1842              		.loc 1 284 24 is_stmt 0 view .LVU335
 1843 000e 0023     		movs	r3, #0
 1844 0010 0193     		str	r3, [sp, #4]
 1845 0012 0293     		str	r3, [sp, #8]
 1846 0014 0393     		str	r3, [sp, #12]
ARM GAS  C:\Users\zhangjd\AppData\Local\Temp\ccomS8NF.s 			page 46


 1847 0016 0493     		str	r3, [sp, #16]
 1848 0018 0593     		str	r3, [sp, #20]
 289:Core/Src/main.c ****     RCC_OscInitStruct.HSEState = RCC_HSE_ON;
 1849              		.loc 1 289 5 is_stmt 1 view .LVU336
 289:Core/Src/main.c ****     RCC_OscInitStruct.HSEState = RCC_HSE_ON;
 1850              		.loc 1 289 38 is_stmt 0 view .LVU337
 1851 001a 0122     		movs	r2, #1
 1852 001c 0692     		str	r2, [sp, #24]
 290:Core/Src/main.c ****     RCC_OscInitStruct.HSEPredivValue = RCC_HSE_PREDIV_DIV1;
 1853              		.loc 1 290 5 is_stmt 1 view .LVU338
 290:Core/Src/main.c ****     RCC_OscInitStruct.HSEPredivValue = RCC_HSE_PREDIV_DIV1;
 1854              		.loc 1 290 32 is_stmt 0 view .LVU339
 1855 001e 4FF48033 		mov	r3, #65536
 1856 0022 0793     		str	r3, [sp, #28]
 291:Core/Src/main.c ****     RCC_OscInitStruct.HSIState = RCC_HSI_ON;
 1857              		.loc 1 291 5 is_stmt 1 view .LVU340
 292:Core/Src/main.c ****     RCC_OscInitStruct.PLL.PLLState = RCC_PLL_ON;
 1858              		.loc 1 292 5 view .LVU341
 292:Core/Src/main.c ****     RCC_OscInitStruct.PLL.PLLState = RCC_PLL_ON;
 1859              		.loc 1 292 32 is_stmt 0 view .LVU342
 1860 0024 0A92     		str	r2, [sp, #40]
 293:Core/Src/main.c ****     RCC_OscInitStruct.PLL.PLLSource = RCC_PLLSOURCE_HSE;
 1861              		.loc 1 293 5 is_stmt 1 view .LVU343
 293:Core/Src/main.c ****     RCC_OscInitStruct.PLL.PLLSource = RCC_PLLSOURCE_HSE;
 1862              		.loc 1 293 36 is_stmt 0 view .LVU344
 1863 0026 0222     		movs	r2, #2
 1864 0028 0D92     		str	r2, [sp, #52]
 294:Core/Src/main.c ****     RCC_OscInitStruct.PLL.PLLMUL = RCC_PLL_MUL9;
 1865              		.loc 1 294 5 is_stmt 1 view .LVU345
 294:Core/Src/main.c ****     RCC_OscInitStruct.PLL.PLLMUL = RCC_PLL_MUL9;
 1866              		.loc 1 294 37 is_stmt 0 view .LVU346
 1867 002a 0E93     		str	r3, [sp, #56]
 295:Core/Src/main.c ****     if (HAL_RCC_OscConfig(&RCC_OscInitStruct) != HAL_OK)
 1868              		.loc 1 295 5 is_stmt 1 view .LVU347
 295:Core/Src/main.c ****     if (HAL_RCC_OscConfig(&RCC_OscInitStruct) != HAL_OK)
 1869              		.loc 1 295 34 is_stmt 0 view .LVU348
 1870 002c 4FF4E013 		mov	r3, #1835008
 1871 0030 0F93     		str	r3, [sp, #60]
 296:Core/Src/main.c ****     {
 1872              		.loc 1 296 5 is_stmt 1 view .LVU349
 296:Core/Src/main.c ****     {
 1873              		.loc 1 296 9 is_stmt 0 view .LVU350
 1874 0032 06A8     		add	r0, sp, #24
 1875 0034 FFF7FEFF 		bl	HAL_RCC_OscConfig
 1876              	.LVL233:
 296:Core/Src/main.c ****     {
 1877              		.loc 1 296 8 view .LVU351
 1878 0038 80B9     		cbnz	r0, .L137
 302:Core/Src/main.c ****     RCC_ClkInitStruct.SYSCLKSource = RCC_SYSCLKSOURCE_PLLCLK;
 1879              		.loc 1 302 5 is_stmt 1 view .LVU352
 302:Core/Src/main.c ****     RCC_ClkInitStruct.SYSCLKSource = RCC_SYSCLKSOURCE_PLLCLK;
 1880              		.loc 1 302 33 is_stmt 0 view .LVU353
 1881 003a 0F23     		movs	r3, #15
 1882 003c 0193     		str	r3, [sp, #4]
 303:Core/Src/main.c ****     RCC_ClkInitStruct.AHBCLKDivider = RCC_SYSCLK_DIV1;
 1883              		.loc 1 303 5 is_stmt 1 view .LVU354
 303:Core/Src/main.c ****     RCC_ClkInitStruct.AHBCLKDivider = RCC_SYSCLK_DIV1;
ARM GAS  C:\Users\zhangjd\AppData\Local\Temp\ccomS8NF.s 			page 47


 1884              		.loc 1 303 36 is_stmt 0 view .LVU355
 1885 003e 0221     		movs	r1, #2
 1886 0040 0291     		str	r1, [sp, #8]
 304:Core/Src/main.c ****     RCC_ClkInitStruct.APB1CLKDivider = RCC_HCLK_DIV2;
 1887              		.loc 1 304 5 is_stmt 1 view .LVU356
 304:Core/Src/main.c ****     RCC_ClkInitStruct.APB1CLKDivider = RCC_HCLK_DIV2;
 1888              		.loc 1 304 37 is_stmt 0 view .LVU357
 1889 0042 0023     		movs	r3, #0
 1890 0044 0393     		str	r3, [sp, #12]
 305:Core/Src/main.c ****     RCC_ClkInitStruct.APB2CLKDivider = RCC_HCLK_DIV1;
 1891              		.loc 1 305 5 is_stmt 1 view .LVU358
 305:Core/Src/main.c ****     RCC_ClkInitStruct.APB2CLKDivider = RCC_HCLK_DIV1;
 1892              		.loc 1 305 38 is_stmt 0 view .LVU359
 1893 0046 4FF48062 		mov	r2, #1024
 1894 004a 0492     		str	r2, [sp, #16]
 306:Core/Src/main.c **** 
 1895              		.loc 1 306 5 is_stmt 1 view .LVU360
 306:Core/Src/main.c **** 
 1896              		.loc 1 306 38 is_stmt 0 view .LVU361
 1897 004c 0593     		str	r3, [sp, #20]
 308:Core/Src/main.c ****     {
 1898              		.loc 1 308 5 is_stmt 1 view .LVU362
 308:Core/Src/main.c ****     {
 1899              		.loc 1 308 9 is_stmt 0 view .LVU363
 1900 004e 01A8     		add	r0, sp, #4
 1901 0050 FFF7FEFF 		bl	HAL_RCC_ClockConfig
 1902              	.LVL234:
 308:Core/Src/main.c ****     {
 1903              		.loc 1 308 8 view .LVU364
 1904 0054 20B9     		cbnz	r0, .L138
 312:Core/Src/main.c **** 
 1905              		.loc 1 312 1 view .LVU365
 1906 0056 11B0     		add	sp, sp, #68
 1907              	.LCFI15:
 1908              		.cfi_remember_state
 1909              		.cfi_def_cfa_offset 4
 1910              		@ sp needed
 1911 0058 5DF804FB 		ldr	pc, [sp], #4
 1912              	.L137:
 1913              	.LCFI16:
 1914              		.cfi_restore_state
 298:Core/Src/main.c ****     }
 1915              		.loc 1 298 9 is_stmt 1 view .LVU366
 1916 005c FFF7FEFF 		bl	Error_Handler
 1917              	.LVL235:
 1918              	.L138:
 310:Core/Src/main.c ****     }
 1919              		.loc 1 310 9 view .LVU367
 1920 0060 FFF7FEFF 		bl	Error_Handler
 1921              	.LVL236:
 1922              		.cfi_endproc
 1923              	.LFE67:
 1925              		.section	.text.main,"ax",%progbits
 1926              		.align	1
 1927              		.global	main
 1928              		.syntax unified
 1929              		.thumb
ARM GAS  C:\Users\zhangjd\AppData\Local\Temp\ccomS8NF.s 			page 48


 1930              		.thumb_func
 1931              		.fpu softvfp
 1933              	main:
 1934              	.LFB66:
 202:Core/Src/main.c ****     /* USER CODE BEGIN 1 */
 1935              		.loc 1 202 1 view -0
 1936              		.cfi_startproc
 1937              		@ Volatile: function does not return.
 1938              		@ args = 0, pretend = 0, frame = 0
 1939              		@ frame_needed = 0, uses_anonymous_args = 0
 1940 0000 08B5     		push	{r3, lr}
 1941              	.LCFI17:
 1942              		.cfi_def_cfa_offset 8
 1943              		.cfi_offset 3, -8
 1944              		.cfi_offset 14, -4
 209:Core/Src/main.c **** 
 1945              		.loc 1 209 5 view .LVU369
 1946 0002 FFF7FEFF 		bl	HAL_Init
 1947              	.LVL237:
 212:Core/Src/main.c ****     SetBaud(115200);
 1948              		.loc 1 212 5 view .LVU370
 1949 0006 494D     		ldr	r5, .L142
 1950 0008 2846     		mov	r0, r5
 1951 000a FFF7FEFF 		bl	jy62_Init
 1952              	.LVL238:
 213:Core/Src/main.c ****     SetHorizontal();
 1953              		.loc 1 213 5 view .LVU371
 1954 000e 4FF4E130 		mov	r0, #115200
 1955 0012 FFF7FEFF 		bl	SetBaud
 1956              	.LVL239:
 214:Core/Src/main.c ****     InitAngle();
 1957              		.loc 1 214 5 view .LVU372
 1958 0016 FFF7FEFF 		bl	SetHorizontal
 1959              	.LVL240:
 215:Core/Src/main.c ****     Calibrate();
 1960              		.loc 1 215 5 view .LVU373
 1961 001a FFF7FEFF 		bl	InitAngle
 1962              	.LVL241:
 216:Core/Src/main.c ****     SleepOrAwake();
 1963              		.loc 1 216 5 view .LVU374
 1964 001e FFF7FEFF 		bl	Calibrate
 1965              	.LVL242:
 217:Core/Src/main.c ****     /* USER CODE END Init */
 1966              		.loc 1 217 5 view .LVU375
 1967 0022 FFF7FEFF 		bl	SleepOrAwake
 1968              	.LVL243:
 221:Core/Src/main.c **** 
 1969              		.loc 1 221 5 view .LVU376
 1970 0026 FFF7FEFF 		bl	SystemClock_Config
 1971              	.LVL244:
 228:Core/Src/main.c ****     MX_TIM1_Init();
 1972              		.loc 1 228 5 view .LVU377
 1973 002a FFF7FEFF 		bl	MX_GPIO_Init
 1974              	.LVL245:
 229:Core/Src/main.c ****     MX_TIM2_Init();
 1975              		.loc 1 229 5 view .LVU378
 1976 002e FFF7FEFF 		bl	MX_TIM1_Init
ARM GAS  C:\Users\zhangjd\AppData\Local\Temp\ccomS8NF.s 			page 49


 1977              	.LVL246:
 230:Core/Src/main.c ****     MX_TIM8_Init();
 1978              		.loc 1 230 5 view .LVU379
 1979 0032 FFF7FEFF 		bl	MX_TIM2_Init
 1980              	.LVL247:
 231:Core/Src/main.c ****     MX_TIM3_Init();
 1981              		.loc 1 231 5 view .LVU380
 1982 0036 FFF7FEFF 		bl	MX_TIM8_Init
 1983              	.LVL248:
 232:Core/Src/main.c ****     MX_TIM4_Init();
 1984              		.loc 1 232 5 view .LVU381
 1985 003a FFF7FEFF 		bl	MX_TIM3_Init
 1986              	.LVL249:
 233:Core/Src/main.c ****     MX_DMA_Init();
 1987              		.loc 1 233 5 view .LVU382
 1988 003e FFF7FEFF 		bl	MX_TIM4_Init
 1989              	.LVL250:
 234:Core/Src/main.c ****     MX_USART2_UART_Init();
 1990              		.loc 1 234 5 view .LVU383
 1991 0042 FFF7FEFF 		bl	MX_DMA_Init
 1992              	.LVL251:
 235:Core/Src/main.c ****     MX_USART1_UART_Init();
 1993              		.loc 1 235 5 view .LVU384
 1994 0046 FFF7FEFF 		bl	MX_USART2_UART_Init
 1995              	.LVL252:
 236:Core/Src/main.c ****     MX_TIM5_Init();
 1996              		.loc 1 236 5 view .LVU385
 1997 004a FFF7FEFF 		bl	MX_USART1_UART_Init
 1998              	.LVL253:
 237:Core/Src/main.c ****     /* USER CODE BEGIN 2 */
 1999              		.loc 1 237 5 view .LVU386
 2000 004e FFF7FEFF 		bl	MX_TIM5_Init
 2001              	.LVL254:
 239:Core/Src/main.c ****     HAL_TIM_Base_Start_IT(&htim1);
 2002              		.loc 1 239 5 view .LVU387
 2003 0052 3748     		ldr	r0, .L142+4
 2004 0054 FFF7FEFF 		bl	zigbee_Init
 2005              	.LVL255:
 240:Core/Src/main.c ****     HAL_TIM_PWM_Start(&htim8, TIM_CHANNEL_1);
 2006              		.loc 1 240 5 view .LVU388
 2007 0058 3648     		ldr	r0, .L142+8
 2008 005a FFF7FEFF 		bl	HAL_TIM_Base_Start_IT
 2009              	.LVL256:
 241:Core/Src/main.c ****     HAL_TIM_PWM_Start(&htim8, TIM_CHANNEL_2);
 2010              		.loc 1 241 5 view .LVU389
 2011 005e 364C     		ldr	r4, .L142+12
 2012 0060 0021     		movs	r1, #0
 2013 0062 2046     		mov	r0, r4
 2014 0064 FFF7FEFF 		bl	HAL_TIM_PWM_Start
 2015              	.LVL257:
 242:Core/Src/main.c ****     HAL_TIM_PWM_Start(&htim8, TIM_CHANNEL_3);
 2016              		.loc 1 242 5 view .LVU390
 2017 0068 0421     		movs	r1, #4
 2018 006a 2046     		mov	r0, r4
 2019 006c FFF7FEFF 		bl	HAL_TIM_PWM_Start
 2020              	.LVL258:
 243:Core/Src/main.c ****     HAL_TIM_PWM_Start(&htim8, TIM_CHANNEL_4);
ARM GAS  C:\Users\zhangjd\AppData\Local\Temp\ccomS8NF.s 			page 50


 2021              		.loc 1 243 5 view .LVU391
 2022 0070 0821     		movs	r1, #8
 2023 0072 2046     		mov	r0, r4
 2024 0074 FFF7FEFF 		bl	HAL_TIM_PWM_Start
 2025              	.LVL259:
 244:Core/Src/main.c ****     HAL_TIM_Encoder_Start(&htim2, TIM_CHANNEL_1);
 2026              		.loc 1 244 5 view .LVU392
 2027 0078 0C21     		movs	r1, #12
 2028 007a 2046     		mov	r0, r4
 2029 007c FFF7FEFF 		bl	HAL_TIM_PWM_Start
 2030              	.LVL260:
 245:Core/Src/main.c ****     HAL_TIM_Encoder_Start(&htim2, TIM_CHANNEL_2);
 2031              		.loc 1 245 5 view .LVU393
 2032 0080 2E4C     		ldr	r4, .L142+16
 2033 0082 0021     		movs	r1, #0
 2034 0084 2046     		mov	r0, r4
 2035 0086 FFF7FEFF 		bl	HAL_TIM_Encoder_Start
 2036              	.LVL261:
 246:Core/Src/main.c ****     HAL_TIM_Encoder_Start(&htim3, TIM_CHANNEL_1);
 2037              		.loc 1 246 5 view .LVU394
 2038 008a 0421     		movs	r1, #4
 2039 008c 2046     		mov	r0, r4
 2040 008e FFF7FEFF 		bl	HAL_TIM_Encoder_Start
 2041              	.LVL262:
 247:Core/Src/main.c ****     HAL_TIM_Encoder_Start(&htim3, TIM_CHANNEL_2);
 2042              		.loc 1 247 5 view .LVU395
 2043 0092 2B4C     		ldr	r4, .L142+20
 2044 0094 0021     		movs	r1, #0
 2045 0096 2046     		mov	r0, r4
 2046 0098 FFF7FEFF 		bl	HAL_TIM_Encoder_Start
 2047              	.LVL263:
 248:Core/Src/main.c ****     HAL_TIM_Encoder_Start(&htim4, TIM_CHANNEL_1);
 2048              		.loc 1 248 5 view .LVU396
 2049 009c 0421     		movs	r1, #4
 2050 009e 2046     		mov	r0, r4
 2051 00a0 FFF7FEFF 		bl	HAL_TIM_Encoder_Start
 2052              	.LVL264:
 249:Core/Src/main.c ****     HAL_TIM_Encoder_Start(&htim4, TIM_CHANNEL_2);
 2053              		.loc 1 249 5 view .LVU397
 2054 00a4 274C     		ldr	r4, .L142+24
 2055 00a6 0021     		movs	r1, #0
 2056 00a8 2046     		mov	r0, r4
 2057 00aa FFF7FEFF 		bl	HAL_TIM_Encoder_Start
 2058              	.LVL265:
 250:Core/Src/main.c ****     HAL_TIM_Encoder_Start(&htim5, TIM_CHANNEL_1);
 2059              		.loc 1 250 5 view .LVU398
 2060 00ae 0421     		movs	r1, #4
 2061 00b0 2046     		mov	r0, r4
 2062 00b2 FFF7FEFF 		bl	HAL_TIM_Encoder_Start
 2063              	.LVL266:
 251:Core/Src/main.c ****     HAL_TIM_Encoder_Start(&htim5, TIM_CHANNEL_2);
 2064              		.loc 1 251 5 view .LVU399
 2065 00b6 244C     		ldr	r4, .L142+28
 2066 00b8 0021     		movs	r1, #0
 2067 00ba 2046     		mov	r0, r4
 2068 00bc FFF7FEFF 		bl	HAL_TIM_Encoder_Start
 2069              	.LVL267:
ARM GAS  C:\Users\zhangjd\AppData\Local\Temp\ccomS8NF.s 			page 51


 252:Core/Src/main.c ****     jy62_Init(&huart2);
 2070              		.loc 1 252 5 view .LVU400
 2071 00c0 0421     		movs	r1, #4
 2072 00c2 2046     		mov	r0, r4
 2073 00c4 FFF7FEFF 		bl	HAL_TIM_Encoder_Start
 2074              	.LVL268:
 253:Core/Src/main.c ****     void jy62_Init(UART_HandleTypeDef * huart);
 2075              		.loc 1 253 5 view .LVU401
 2076 00c8 2846     		mov	r0, r5
 2077 00ca FFF7FEFF 		bl	jy62_Init
 2078              	.LVL269:
 254:Core/Src/main.c **** 
 2079              		.loc 1 254 5 view .LVU402
 256:Core/Src/main.c ****     HAL_GPIO_WritePin(GPIOB, GPIO_PIN_1, GPIO_PIN_RESET);
 2080              		.loc 1 256 5 view .LVU403
 2081 00ce 1F4C     		ldr	r4, .L142+32
 2082 00d0 0122     		movs	r2, #1
 2083 00d2 1146     		mov	r1, r2
 2084 00d4 2046     		mov	r0, r4
 2085 00d6 FFF7FEFF 		bl	HAL_GPIO_WritePin
 2086              	.LVL270:
 257:Core/Src/main.c ****     HAL_GPIO_WritePin(GPIOB, GPIO_PIN_2, GPIO_PIN_RESET);
 2087              		.loc 1 257 5 view .LVU404
 2088 00da 0022     		movs	r2, #0
 2089 00dc 0221     		movs	r1, #2
 2090 00de 2046     		mov	r0, r4
 2091 00e0 FFF7FEFF 		bl	HAL_GPIO_WritePin
 2092              	.LVL271:
 258:Core/Src/main.c ****     HAL_GPIO_WritePin(GPIOB, GPIO_PIN_10, GPIO_PIN_SET);
 2093              		.loc 1 258 5 view .LVU405
 2094 00e4 0022     		movs	r2, #0
 2095 00e6 0421     		movs	r1, #4
 2096 00e8 2046     		mov	r0, r4
 2097 00ea FFF7FEFF 		bl	HAL_GPIO_WritePin
 2098              	.LVL272:
 259:Core/Src/main.c ****     HAL_GPIO_WritePin(GPIOB, GPIO_PIN_11, GPIO_PIN_SET);
 2099              		.loc 1 259 5 view .LVU406
 2100 00ee 0122     		movs	r2, #1
 2101 00f0 4FF48061 		mov	r1, #1024
 2102 00f4 2046     		mov	r0, r4
 2103 00f6 FFF7FEFF 		bl	HAL_GPIO_WritePin
 2104              	.LVL273:
 260:Core/Src/main.c ****     HAL_GPIO_WritePin(GPIOB, GPIO_PIN_12, GPIO_PIN_RESET);
 2105              		.loc 1 260 5 view .LVU407
 2106 00fa 0122     		movs	r2, #1
 2107 00fc 4FF40061 		mov	r1, #2048
 2108 0100 2046     		mov	r0, r4
 2109 0102 FFF7FEFF 		bl	HAL_GPIO_WritePin
 2110              	.LVL274:
 261:Core/Src/main.c ****     HAL_GPIO_WritePin(GPIOB, GPIO_PIN_13, GPIO_PIN_RESET);
 2111              		.loc 1 261 5 view .LVU408
 2112 0106 0022     		movs	r2, #0
 2113 0108 4FF48051 		mov	r1, #4096
 2114 010c 2046     		mov	r0, r4
 2115 010e FFF7FEFF 		bl	HAL_GPIO_WritePin
 2116              	.LVL275:
 262:Core/Src/main.c ****     HAL_GPIO_WritePin(GPIOB, GPIO_PIN_14, GPIO_PIN_SET);
ARM GAS  C:\Users\zhangjd\AppData\Local\Temp\ccomS8NF.s 			page 52


 2117              		.loc 1 262 5 view .LVU409
 2118 0112 0022     		movs	r2, #0
 2119 0114 4FF40051 		mov	r1, #8192
 2120 0118 2046     		mov	r0, r4
 2121 011a FFF7FEFF 		bl	HAL_GPIO_WritePin
 2122              	.LVL276:
 263:Core/Src/main.c ****     /* USER CODE END 2 */
 2123              		.loc 1 263 5 view .LVU410
 2124 011e 0122     		movs	r2, #1
 2125 0120 4FF48041 		mov	r1, #16384
 2126 0124 2046     		mov	r0, r4
 2127 0126 FFF7FEFF 		bl	HAL_GPIO_WritePin
 2128              	.LVL277:
 2129              	.L140:
 268:Core/Src/main.c ****     {
 2130              		.loc 1 268 5 discriminator 1 view .LVU411
 273:Core/Src/main.c ****     /* USER CODE END 3 */
 2131              		.loc 1 273 5 discriminator 1 view .LVU412
 268:Core/Src/main.c ****     {
 2132              		.loc 1 268 11 discriminator 1 view .LVU413
 2133 012a FEE7     		b	.L140
 2134              	.L143:
 2135              		.align	2
 2136              	.L142:
 2137 012c 00000000 		.word	huart2
 2138 0130 00000000 		.word	huart1
 2139 0134 00000000 		.word	htim1
 2140 0138 00000000 		.word	htim8
 2141 013c 00000000 		.word	htim2
 2142 0140 00000000 		.word	htim3
 2143 0144 00000000 		.word	htim4
 2144 0148 00000000 		.word	htim5
 2145 014c 000C0140 		.word	1073810432
 2146              		.cfi_endproc
 2147              	.LFE66:
 2149              		.global	state
 2150              		.global	Kd
 2151              		.global	Ki
 2152              		.global	Kp
 2153              		.global	ATAN_LUT
 2154              		.global	car_y
 2155              		.global	car_x
 2156              		.global	obj_y
 2157              		.global	obj_x
 2158              		.global	dis_obj
 2159              		.global	angle_obj
 2160              		.global	distance4
 2161              		.global	distance3
 2162              		.global	distance2
 2163              		.global	distance1
 2164              		.global	count_to_ten
 2165              		.global	set_speed
 2166              		.section	.bss.angle_obj,"aw",%nobits
 2167              		.align	2
 2168              		.set	.LANCHOR1,. + 0
 2171              	angle_obj:
 2172 0000 00000000 		.space	4
ARM GAS  C:\Users\zhangjd\AppData\Local\Temp\ccomS8NF.s 			page 53


 2173              		.section	.bss.car_x,"aw",%nobits
 2174              		.align	2
 2177              	car_x:
 2178 0000 00000000 		.space	4
 2179              		.section	.bss.car_y,"aw",%nobits
 2180              		.align	2
 2183              	car_y:
 2184 0000 00000000 		.space	4
 2185              		.section	.bss.count_to_ten,"aw",%nobits
 2186              		.align	2
 2189              	count_to_ten:
 2190 0000 00000000 		.space	4
 2191              		.section	.bss.dis_obj,"aw",%nobits
 2192              		.align	2
 2193              		.set	.LANCHOR2,. + 0
 2196              	dis_obj:
 2197 0000 00000000 		.space	4
 2198              		.section	.bss.distance1,"aw",%nobits
 2199              		.align	2
 2202              	distance1:
 2203 0000 00000000 		.space	4
 2204              		.section	.bss.distance2,"aw",%nobits
 2205              		.align	2
 2208              	distance2:
 2209 0000 00000000 		.space	4
 2210              		.section	.bss.distance3,"aw",%nobits
 2211              		.align	2
 2214              	distance3:
 2215 0000 00000000 		.space	4
 2216              		.section	.bss.distance4,"aw",%nobits
 2217              		.align	2
 2220              	distance4:
 2221 0000 00000000 		.space	4
 2222              		.section	.bss.obj_x,"aw",%nobits
 2223              		.align	2
 2226              	obj_x:
 2227 0000 00000000 		.space	4
 2228              		.section	.bss.obj_y,"aw",%nobits
 2229              		.align	2
 2232              	obj_y:
 2233 0000 00000000 		.space	4
 2234              		.section	.bss.state,"aw",%nobits
 2235              		.align	2
 2236              		.set	.LANCHOR0,. + 0
 2239              	state:
 2240 0000 00000000 		.space	12
 2240      00000000 
 2240      00000000 
 2241              		.section	.data.set_speed,"aw"
 2242              		.align	2
 2245              	set_speed:
 2246 0000 00002041 		.word	1092616192
 2247              		.section	.rodata.ATAN_LUT,"a"
 2248              		.align	3
 2249              		.set	.LANCHOR3,. + 0
 2252              	ATAN_LUT:
 2253 0000 00000000 		.word	0
ARM GAS  C:\Users\zhangjd\AppData\Local\Temp\ccomS8NF.s 			page 54


 2254 0004 00000000 		.word	0
 2255 0008 5433EAA8 		.word	-1461046444
 2256 000c 0A10703F 		.word	1064308746
 2257 0010 CC612179 		.word	2032230860
 2258 0014 FA0F803F 		.word	1065357306
 2259 0018 DF063C3E 		.word	1044121311
 2260 001c CF17883F 		.word	1065883599
 2261 0020 AAE9B5BB 		.word	-1145706070
 2262 0024 B90F903F 		.word	1066405817
 2263 0028 D1C82B7C 		.word	2083244241
 2264 002c 6B13943F 		.word	1066668907
 2265 0030 1E0653CA 		.word	-900528610
 2266 0034 F416983F 		.word	1066931956
 2267 0038 C2702695 		.word	-1792642878
 2268 003c 4D1A9C3F 		.word	1067194957
 2269 0040 F752ACE6 		.word	-424914185
 2270 0044 B60EA03F 		.word	1067454134
 2271 0048 6808AAB2 		.word	-1297479576
 2272 004c 2610A23F 		.word	1067585574
 2273 0050 4A759D28 		.word	681407818
 2274 0054 7211A43F 		.word	1067716978
 2275 0058 2D520746 		.word	1174884909
 2276 005c 9512A63F 		.word	1067848341
 2277 0060 A3576808 		.word	141055907
 2278 0064 8C13A83F 		.word	1067979660
 2279 0068 36C18C71 		.word	1905049910
 2280 006c 5214AA3F 		.word	1068110930
 2281 0070 73E36482 		.word	-2107317389
 2282 0074 E414AC3F 		.word	1068242148
 2283 0078 DE63E441 		.word	1105486814
 2284 007c 3E15AE3F 		.word	1068373310
 2285 0080 FD737FDB 		.word	-612404227
 2286 0084 AD0AB03F 		.word	1068501677
 2287 0088 22CC7976 		.word	1987693602
 2288 008c 9C0AB13F 		.word	1068567196
 2289 0090 9DB55CF8 		.word	-128141923
 2290 0094 680AB23F 		.word	1068632680
 2291 0098 286DC969 		.word	1774808360
 2292 009c 110AB33F 		.word	1068698129
 2293 00a0 FC09ABD4 		.word	-726988292
 2294 00a4 9309B43F 		.word	1068763539
 2295 00a8 4E588045 		.word	1166039118
 2296 00ac EE08B53F 		.word	1068828910
 2297 00b0 D41736C9 		.word	-919201836
 2298 00b4 1E08B63F 		.word	1068894238
 2299 00b8 BDB0BA6F 		.word	1874505917
 2300 00bc 2307B73F 		.word	1068959523
 2301 00c0 B84C224B 		.word	1260539064
 2302 00c4 FA05B83F 		.word	1069024762
 2303 00c8 6FE3386F 		.word	1865999215
 2304 00cc A104B93F 		.word	1069089953
 2305 00d0 0D4714F1 		.word	-250329331
 2306 00d4 1603BA3F 		.word	1069155094
 2307 00d8 B5CC15EA 		.word	-367670091
 2308 00dc 5801BB3F 		.word	1069220184
 2309 00e0 88B07A74 		.word	1954197640
 2310 00e4 65FFBB3F 		.word	1069285221
ARM GAS  C:\Users\zhangjd\AppData\Local\Temp\ccomS8NF.s 			page 55


 2311 00e8 A6E313AD 		.word	-1391205466
 2312 00ec 3AFDBC3F 		.word	1069350202
 2313 00f0 29F321B4 		.word	-1272843479
 2314 00f4 D6FABD3F 		.word	1069415126
 2315 00f8 A9462FAB 		.word	-1422965079
 2316 00fc 37F8BE3F 		.word	1069479991
 2317 0100 1832D5CE 		.word	-824888808
 2318 0104 5BF5BF3F 		.word	1069544795
 2319 0108 34B81880 		.word	-2145863628
 2320 010c 2079C03F 		.word	1069578528
 2321 0110 22B021D8 		.word	-668880862
 2322 0114 72F7C03F 		.word	1069610866
 2323 0118 695D7EFA 		.word	-92381847
 2324 011c A375C13F 		.word	1069643171
 2325 0120 4C1F41FF 		.word	-12509364
 2326 0124 B2F3C13F 		.word	1069675442
 2327 0128 CA1C6B00 		.word	7019722
 2328 012c 9F71C23F 		.word	1069707679
 2329 0130 216AA218 		.word	413297185
 2330 0134 67EFC23F 		.word	1069739879
 2331 0138 4CCA5765 		.word	1700252236
 2332 013c 0A6DC33F 		.word	1069772042
 2333 0140 43E7D704 		.word	81258307
 2334 0144 88EAC33F 		.word	1069804168
 2335 0148 3F3FF016 		.word	384843583
 2336 014c DF67C43F 		.word	1069836255
 2337 0150 730502BE 		.word	-1107163789
 2338 0154 0EE5C43F 		.word	1069868302
 2339 0158 525A131D 		.word	487807570
 2340 015c 1662C53F 		.word	1069900310
 2341 0160 4A13BE59 		.word	1505629002
 2342 0164 F4DEC53F 		.word	1069932276
 2343 0168 09DA1C9B 		.word	-1692607991
 2344 016c A85BC63F 		.word	1069964200
 2345 0170 3A26020A 		.word	167913018
 2346 0174 32D8C63F 		.word	1069996082
 2347 0178 843DF8D0 		.word	-789037692
 2348 017c 8F54C73F 		.word	1070027919
 2349 0180 CE20E61C 		.word	484843726
 2350 0184 C1D0C73F 		.word	1070059713
 2351 0188 F99E6A1C 		.word	476749561
 2352 018c C54CC83F 		.word	1070091461
 2353 0190 275BA5FF 		.word	-5940441
 2354 0194 9AC8C83F 		.word	1070123162
 2355 0198 F4B9DBF8 		.word	-119817740
 2356 019c 4144C93F 		.word	1070154817
 2357 01a0 FBD4E63C 		.word	1021760763
 2358 01a4 B9BFC93F 		.word	1070186425
 2359 01a8 53A0E901 		.word	32088147
 2360 01ac 003BCA3F 		.word	1070217984
 2361 01b0 93D12C80 		.word	-2144546413
 2362 01b4 15B6CA3F 		.word	1070249493
 2363 01b8 8DD955F2 		.word	-229254771
 2364 01bc F830CB3F 		.word	1070280952
 2365 01c0 0EF7C194 		.word	-1799227634
 2366 01c4 A9ABCB3F 		.word	1070312361
 2367 01c8 662AF4A5 		.word	-1510725018
ARM GAS  C:\Users\zhangjd\AppData\Local\Temp\ccomS8NF.s 			page 56


 2368 01cc 2626CC3F 		.word	1070343718
 2369 01d0 DB280367 		.word	1728260315
 2370 01d4 6FA0CC3F 		.word	1070375023
 2371 01d8 36824F1A 		.word	441418294
 2372 01dc 831ACD3F 		.word	1070406275
 2373 01e0 FA740405 		.word	84178170
 2374 01e4 6194CD3F 		.word	1070437473
 2375 01e8 68073C6E 		.word	1849427816
 2376 01ec 080ECE3F 		.word	1070468616
 2377 01f0 BCF4A39F 		.word	-1616644932
 2378 01f4 7887CE3F 		.word	1070499704
 2379 01f8 B3D233E4 		.word	-466365773
 2380 01fc B000CF3F 		.word	1070530736
 2381 0200 42D91B8A 		.word	-1977886398
 2382 0204 B079CF3F 		.word	1070561712
 2383 0208 9E140DE1 		.word	-519236450
 2384 020c 76F2CF3F 		.word	1070592630
 2385 0210 DD9FC19D 		.word	-1648255011
 2386 0214 8135D03F 		.word	1070609793
 2387 0218 A06EF476 		.word	1995730592
 2388 021c AA71D03F 		.word	1070625194
 2389 0220 B01867A7 		.word	-1486415696
 2390 0224 B5ADD03F 		.word	1070640565
 2391 0228 7F17C7DB 		.word	-607709313
 2392 022c A2E9D03F 		.word	1070655906
 2393 0230 81CB9DC1 		.word	-1046623359
 2394 0234 7125D13F 		.word	1070671217
 2395 0238 85ECD907 		.word	131722373
 2396 023c 2261D13F 		.word	1070686498
 2397 0240 5A19465E 		.word	1581652314
 2398 0244 B39CD13F 		.word	1070701747
 2399 0248 0FC52D76 		.word	1982711055
 2400 024c 25D8D13F 		.word	1070716965
 2401 0250 6F43EF01 		.word	32457583
 2402 0254 7813D23F 		.word	1070732152
 2403 0258 45CFC4B4 		.word	-1262170299
 2404 025c AA4ED23F 		.word	1070747306
 2405 0260 78F48443 		.word	1132786808
 2406 0264 BD89D23F 		.word	1070762429
 2407 0268 D0A2FD63 		.word	1677566672
 2408 026c AFC4D23F 		.word	1070777519
 2409 0270 D2AA0FCD 		.word	-854611246
 2410 0274 80FFD23F 		.word	1070792576
 2411 0278 63340137 		.word	922825827
 2412 027c 313AD33F 		.word	1070807601
 2413 0280 43CB0F5B 		.word	1527761731
 2414 0284 C074D33F 		.word	1070822592
 2415 0288 74CFF9F3 		.word	-201732236
 2416 028c 2DAFD33F 		.word	1070837549
 2417 0290 F48759BD 		.word	-1118205964
 2418 0294 79E9D33F 		.word	1070852473
 2419 0298 2E5F21AF 		.word	-1356767442
 2420 029c A323D43F 		.word	1070867363
 2421 02a0 74F938D6 		.word	-700909196
 2422 02a4 AA5DD43F 		.word	1070882218
 2423 02a8 2A8B27A3 		.word	-1557689558
 2424 02ac 8F97D43F 		.word	1070897039
ARM GAS  C:\Users\zhangjd\AppData\Local\Temp\ccomS8NF.s 			page 57


 2425 02b0 BA054E9B 		.word	-1689385542
 2426 02b4 51D1D43F 		.word	1070911825
 2427 02b8 1A014A80 		.word	-2142633702
 2428 02bc F00AD53F 		.word	1070926576
 2429 02c0 BFEF0215 		.word	352513983
 2430 02c4 6C44D53F 		.word	1070941292
 2431 02c8 DD24731D 		.word	494085341
 2432 02cc C47DD53F 		.word	1070955972
 2433 02d0 4551C35E 		.word	1589858629
 2434 02d4 F8B6D53F 		.word	1070970616
 2435 02d8 68834A9F 		.word	-1622506648
 2436 02dc 08F0D53F 		.word	1070985224
 2437 02e0 1321C5A6 		.word	-1497030381
 2438 02e4 F428D63F 		.word	1070999796
 2439 02e8 1377CB3D 		.word	1036744467
 2440 02ec BC61D63F 		.word	1071014332
 2441 02f0 B4AC3F2E 		.word	775924916
 2442 02f4 5F9AD63F 		.word	1071028831
 2443 02f8 BEC34D43 		.word	1129169854
 2444 02fc DDD2D63F 		.word	1071043293
 2445 0300 DB211949 		.word	1226383835
 2446 0304 360BD73F 		.word	1071057718
 2447 0308 2F070F0D 		.word	219088687
 2448 030c 6A43D73F 		.word	1071072106
 2449 0310 A094AF5D 		.word	1571787936
 2450 0314 787BD73F 		.word	1071086456
 2451 0318 7042E00A 		.word	182469232
 2452 031c 61B3D73F 		.word	1071100769
 2453 0320 FA434AEB 		.word	-347454470
 2454 0324 23EBD73F 		.word	1071115043
 2455 0328 D4D925BF 		.word	-1088038444
 2456 032c C022D83F 		.word	1071129280
 2457 0330 A617646B 		.word	1801721766
 2458 0334 375AD83F 		.word	1071143479
 2459 0338 73A169BE 		.word	-1100373645
 2460 033c 8791D83F 		.word	1071157639
 2461 0340 17D0958D 		.word	-1919561705
 2462 0344 B1C8D83F 		.word	1071171761
 2463 0348 ECD691AF 		.word	-1349396756
 2464 034c B4FFD83F 		.word	1071185844
 2465 0350 49D0E2FB 		.word	-69021623
 2466 0354 9036D93F 		.word	1071199888
 2467 0358 06B1574B 		.word	1264038150
 2468 035c 466DD93F 		.word	1071213894
 2469 0360 96CBED77 		.word	2012072854
 2470 0364 D4A3D93F 		.word	1071227860
 2471 0368 6D597E5C 		.word	1551784301
 2472 036c 3BDAD93F 		.word	1071241787
 2473 0370 7D6E2CD5 		.word	-718508419
 2474 0374 7A10DA3F 		.word	1071255674
 2475 0378 978212BF 		.word	-1089305961
 2476 037c 9246DA3F 		.word	1071269522
 2477 0380 09E894F8 		.word	-124458999
 2478 0384 827CDA3F 		.word	1071283330
 2479 0388 21D8F360 		.word	1626593313
 2480 038c 4BB2DA3F 		.word	1071297099
 2481 0390 CAE99DD8 		.word	-660739638
ARM GAS  C:\Users\zhangjd\AppData\Local\Temp\ccomS8NF.s 			page 58


 2482 0394 EBE7DA3F 		.word	1071310827
 2483 0398 CF17F940 		.word	1090066383
 2484 039c 641DDB3F 		.word	1071324516
 2485 03a0 B93D7E7C 		.word	2088648121
 2486 03a4 B452DB3F 		.word	1071338164
 2487 03a8 AF94D46E 		.word	1859425455
 2488 03ac DC87DB3F 		.word	1071351772
 2489 03b0 F8BF63FC 		.word	-60571656
 2490 03b4 DBBCDB3F 		.word	1071365339
 2491 03b8 38BAF80A 		.word	184072760
 2492 03bc B3F1DB3F 		.word	1071378867
 2493 03c0 32E82081 		.word	-2128549838
 2494 03c4 6126DC3F 		.word	1071392353
 2495 03c8 688F7C46 		.word	1182568296
 2496 03cc E75ADC3F 		.word	1071405799
 2497 03d0 1BD6BE43 		.word	1136580123
 2498 03d4 448FDC3F 		.word	1071419204
 2499 03d8 69469262 		.word	1653753449
 2500 03dc 78C3DC3F 		.word	1071432568
 2501 03e0 70517D8D 		.word	-1921166992
 2502 03e4 83F7DC3F 		.word	1071445891
 2503 03e8 0D4919B0 		.word	-1340520179
 2504 03ec 652BDD3F 		.word	1071459173
 2505 03f0 DB5F12B7 		.word	-1223532581
 2506 03f4 1E5FDD3F 		.word	1071472414
 2507 03f8 9232D58F 		.word	-1881853294
 2508 03fc AE92DD3F 		.word	1071485614
 2509 0400 AD3EE128 		.word	685850285
 2510 0404 15C6DD3F 		.word	1071498773
 2511 0408 60E2C871 		.word	1908990560
 2512 040c 52F9DD3F 		.word	1071511890
 2513 0410 2369C35A 		.word	1522755875
 2514 0414 662CDE3F 		.word	1071524966
 2515 0418 4982FFD4 		.word	-721452471
 2516 041c 505FDE3F 		.word	1071538000
 2517 0420 A6B7F5D2 		.word	-755648602
 2518 0424 1192DE3F 		.word	1071550993
 2519 0428 AC097147 		.word	1198590380
 2520 042c A9C4DE3F 		.word	1071563945
 2521 0430 2BD0A126 		.word	648138795
 2522 0434 17F7DE3F 		.word	1071576855
 2523 0438 53D34165 		.word	1698812755
 2524 043c 5B29DF3F 		.word	1071589723
 2525 0440 F23839F9 		.word	-113690382
 2526 0444 755BDF3F 		.word	1071602549
 2527 0448 3597F9D8 		.word	-654731467
 2528 044c 668DDF3F 		.word	1071615334
 2529 0450 096507FC 		.word	-66624247
 2530 0454 2DBFDF3F 		.word	1071628077
 2531 0458 7783A75A 		.word	1520927607
 2532 045c CBF0DF3F 		.word	1071640779
 2533 0460 B41B0B77 		.word	1997216692
 2534 0464 1F11E03F 		.word	1071649055
 2535 0468 F4172858 		.word	1479022580
 2536 046c C429E03F 		.word	1071655364
 2537 0470 9D84FB4D 		.word	1308329117
 2538 0474 5442E03F 		.word	1071661652
ARM GAS  C:\Users\zhangjd\AppData\Local\Temp\ccomS8NF.s 			page 59


 2539 0478 C3E15156 		.word	1448206787
 2540 047c CF5AE03F 		.word	1071667919
 2541 0480 6961736F 		.word	1869832553
 2542 0484 3573E03F 		.word	1071674165
 2543 0488 502FDF97 		.word	-1746981040
 2544 048c 868BE03F 		.word	1071680390
 2545 0490 2A2990CE 		.word	-829413078
 2546 0494 C2A3E03F 		.word	1071686594
 2547 0498 2820EF12 		.word	317661224
 2548 049c EABBE03F 		.word	1071692778
 2549 04a0 3ADF9B64 		.word	1687936826
 2550 04a4 FCD3E03F 		.word	1071698940
 2551 04a8 2060CDC3 		.word	-1009950688
 2552 04ac F9EBE03F 		.word	1071705081
 2553 04b0 5996F130 		.word	821139033
 2554 04b4 E203E13F 		.word	1071711202
 2555 04b8 05ECC8AC 		.word	-1396118523
 2556 04bc B51BE13F 		.word	1071717301
 2557 04c0 A13B9D38 		.word	949828513
 2558 04c4 7433E13F 		.word	1071723380
 2559 04c8 DB17FDD5 		.word	-704833573
 2560 04cc 1D4BE13F 		.word	1071729437
 2561 04d0 220DAE86 		.word	-2035413726
 2562 04d4 B262E13F 		.word	1071735474
 2563 04d8 4118FF4C 		.word	1291786305
 2564 04dc 327AE13F 		.word	1071741490
 2565 04e0 35EE832B 		.word	730066485
 2566 04e4 9D91E13F 		.word	1071747485
 2567 04e8 2AFC1425 		.word	622132266
 2568 04ec F3A8E13F 		.word	1071753459
 2569 04f0 CCA2F83C 		.word	1022927564
 2570 04f4 34C0E13F 		.word	1071759412
 2571 04f8 F6FAB976 		.word	1991899894
 2572 04fc 60D7E13F 		.word	1071765344
 2573 0500 B2D528D6 		.word	-701966926
 2574 0504 77EEE13F 		.word	1071771255
 2575 0508 8BF7825F 		.word	1602418571
 2576 050c 7A05E23F 		.word	1071777146
 2577 0510 5A602F17 		.word	388980826
 2578 0514 681CE23F 		.word	1071783016
 2579 0518 E8C11002 		.word	34652648
 2580 051c 4133E23F 		.word	1071788865
 2581 0520 50093325 		.word	624101712
 2582 0524 054AE23F 		.word	1071794693
 2583 0528 489AF485 		.word	-2047567288
 2584 052c B460E23F 		.word	1071800500
 2585 0530 BA90F829 		.word	704155834
 2586 0534 4F77E23F 		.word	1071806287
 2587 0538 2D7F3417 		.word	389316397
 2588 053c D58DE23F 		.word	1071812053
 2589 0540 C86EF053 		.word	1408265928
 2590 0544 46A4E23F 		.word	1071817798
 2591 0548 02A49DE6 		.word	-425876478
 2592 054c A2BAE23F 		.word	1071823522
 2593 0550 F3D9FFD5 		.word	-704652813
 2594 0554 EAD0E23F 		.word	1071829226
 2595 0558 50422D29 		.word	690831952
ARM GAS  C:\Users\zhangjd\AppData\Local\Temp\ccomS8NF.s 			page 60


 2596 055c 1EE7E23F 		.word	1071834910
 2597 0560 1F4A65E7 		.word	-412792289
 2598 0564 3CFDE23F 		.word	1071840572
 2599 0568 95162C18 		.word	405542549
 2600 056c 4713E33F 		.word	1071846215
 2601 0570 F90166C3 		.word	-1016724999
 2602 0574 3C29E33F 		.word	1071851836
 2603 0578 FE2405F1 		.word	-251321090
 2604 057c 1D3FE33F 		.word	1071857437
 2605 0580 F90E4EA9 		.word	-1454502151
 2606 0584 EA54E33F 		.word	1071863018
 2607 0588 4F84E5F4 		.word	-186284977
 2608 058c A26AE33F 		.word	1071868578
 2609 0590 624970DC 		.word	-596620958
 2610 0594 4680E33F 		.word	1071874118
 2611 0598 3899E568 		.word	1759877432
 2612 059c D695E33F 		.word	1071879638
 2613 05a0 72258FA3 		.word	-1550899854
 2614 05a4 51ABE33F 		.word	1071885137
 2615 05a8 941CD295 		.word	-1781392236
 2616 05ac B8C0E33F 		.word	1071890616
 2617 05b0 71E83C49 		.word	1228728433
 2618 05b4 0BD6E33F 		.word	1071896075
 2619 05b8 7B69B0C7 		.word	-944739973
 2620 05bc 49EBE33F 		.word	1071901513
 2621 05c0 5338521B 		.word	458373203
 2622 05c4 7400E43F 		.word	1071906932
 2623 05c8 2D2F3A4E 		.word	1312436013
 2624 05cc 8A15E43F 		.word	1071912330
 2625 05d0 B81BEE6A 		.word	1793989560
 2626 05d4 8C2AE43F 		.word	1071917708
 2627 05d8 F7061D7C 		.word	2082277111
 2628 05dc 7A3FE43F 		.word	1071923066
 2629 05e0 5AB8838C 		.word	-1937524646
 2630 05e4 5454E43F 		.word	1071928404
 2631 05e8 622C3FA7 		.word	-1489032094
 2632 05ec 1A69E43F 		.word	1071933722
 2633 05f0 905F6CD7 		.word	-680763504
 2634 05f4 CC7DE43F 		.word	1071939020
 2635 05f8 94066D28 		.word	678233748
 2636 05fc 6B92E43F 		.word	1071944299
 2637 0600 6D11CCA5 		.word	-1513352851
 2638 0604 F5A6E43F 		.word	1071949557
 2639 0608 DC694B5B 		.word	1531668956
 2640 060c 6CBBE43F 		.word	1071954796
 2641 0610 7F76C854 		.word	1422423679
 2642 0614 CFCFE43F 		.word	1071960015
 2643 0618 D71A3C9E 		.word	-1640228137
 2644 061c 1EE4E43F 		.word	1071965214
 2645 0620 93F2E343 		.word	1139012243
 2646 0624 5AF8E43F 		.word	1071970394
 2647 0628 B0D42652 		.word	1378276528
 2648 062c 820CE53F 		.word	1071975554
 2649 0630 2F986BD5 		.word	-714368977
 2650 0634 9620E53F 		.word	1071980694
 2651 0638 AC8A6BDA 		.word	-630486356
 2652 063c 9734E53F 		.word	1071985815
ARM GAS  C:\Users\zhangjd\AppData\Local\Temp\ccomS8NF.s 			page 61


 2653 0640 C8F9DF6D 		.word	1843395016
 2654 0644 8548E53F 		.word	1071990917
 2655 0648 DF2CB99C 		.word	-1665585953
 2656 064c 5F5CE53F 		.word	1071995999
 2657 0650 9FA61074 		.word	1947248287
 2658 0654 2670E53F 		.word	1072001062
 2659 0658 26A80D01 		.word	17672230
 2660 065c DA83E53F 		.word	1072006106
 2661 0660 E3AD0051 		.word	1358999011
 2662 0664 7A97E53F 		.word	1072011130
 2663 0668 916F6371 		.word	1902342033
 2664 066c 07ABE53F 		.word	1072016135
 2665 0670 CE21CB6F 		.word	1875583438
 2666 0674 81BEE53F 		.word	1072021121
 2667 0678 A8B7DA59 		.word	1507506088
 2668 067c E8D1E53F 		.word	1072026088
 2669 0680 7B5F5E3D 		.word	1029595003
 2670 0684 3CE5E53F 		.word	1072031036
 2671 0688 F3824B28 		.word	676037363
 2672 068c 7DF8E53F 		.word	1072035965
 2673 0690 BE8B9728 		.word	681020350
 2674 0694 AB0BE63F 		.word	1072040875
 2675 0698 47DD6E4C 		.word	1282334023
 2676 069c C61EE63F 		.word	1072045766
 2677 06a0 6B990BA2 		.word	-1576298133
 2678 06a4 CE31E63F 		.word	1072050638
 2679 06a8 07E2A737 		.word	933749255
 2680 06ac C444E63F 		.word	1072055492
 2681 06b0 954FD01B 		.word	466636693
 2682 06b4 A757E63F 		.word	1072060327
 2683 06b8 B2FDF55C 		.word	1559625138
 2684 06bc 776AE63F 		.word	1072065143
 2685 06c0 BA01C109 		.word	163643834
 2686 06c4 357DE63F 		.word	1072069941
 2687 06c8 98B2CB30 		.word	818655896
 2688 06cc E08FE63F 		.word	1072074720
 2689 06d0 F860E7E0 		.word	-521707272
 2690 06d4 78A2E63F 		.word	1072079480
 2691 06d8 F51BF328 		.word	687021045
 2692 06dc FFB4E63F 		.word	1072084223
 2693 06e0 1AB1DB17 		.word	400273690
 2694 06e4 73C7E63F 		.word	1072088947
 2695 06e8 62AC9BBC 		.word	-1130648478
 2696 06ec D4D9E63F 		.word	1072093652
 2697 06f0 AA164926 		.word	642324138
 2698 06f4 24ECE63F 		.word	1072098340
 2699 06f8 AA751564 		.word	1679127978
 2700 06fc 61FEE63F 		.word	1072103009
 2701 0700 B0902485 		.word	-2061201232
 2702 0704 8C10E73F 		.word	1072107660
 2703 0708 C428D198 		.word	-1731123004
 2704 070c A522E73F 		.word	1072112293
 2705 0710 834068AE 		.word	-1368899453
 2706 0714 AC34E73F 		.word	1072116908
 2707 0718 665752D5 		.word	-716023962
 2708 071c A146E73F 		.word	1072121505
 2709 0720 58AB051D 		.word	486910808
ARM GAS  C:\Users\zhangjd\AppData\Local\Temp\ccomS8NF.s 			page 62


 2710 0724 8558E73F 		.word	1072126085
 2711 0728 B4380695 		.word	-1794754380
 2712 072c 566AE73F 		.word	1072130646
 2713 0730 43BAE54C 		.word	1290123843
 2714 0734 167CE73F 		.word	1072135190
 2715 0738 41A94354 		.word	1413720385
 2716 073c C48DE73F 		.word	1072139716
 2717 0740 573DCDBA 		.word	-1160954537
 2718 0744 609FE73F 		.word	1072144224
 2719 0748 31AE2F90 		.word	-1875923407
 2720 074c EBB0E73F 		.word	1072148715
 2721 0750 E7F125E4 		.word	-467275289
 2722 0754 64C2E73F 		.word	1072153188
 2723 0758 747B86C6 		.word	-964265100
 2724 075c CCD3E73F 		.word	1072157644
 2725 0760 D1BD2747 		.word	1193786833
 2726 0764 23E5E73F 		.word	1072162083
 2727 0768 FA2BE075 		.word	1977625594
 2728 076c 68F6E73F 		.word	1072166504
 2729 0770 58F79362 		.word	1653864280
 2730 0774 9C07E83F 		.word	1072170908
 2731 0778 C40F351D 		.word	490016708
 2732 077c BF18E83F 		.word	1072175295
 2733 0780 8923C3B5 		.word	-1245502583
 2734 0784 D029E83F 		.word	1072179664
 2735 0788 8122303C 		.word	1009787521
 2736 078c D13AE83F 		.word	1072184017
 2737 0790 F4BA7BC0 		.word	-1065633036
 2738 0794 C04BE83F 		.word	1072188352
 2739 0798 0E18C152 		.word	1388386318
 2740 079c 9F5CE83F 		.word	1072192671
 2741 07a0 17E8FF02 		.word	50325527
 2742 07a4 6D6DE83F 		.word	1072196973
 2743 07a8 395653E1 		.word	-514632135
 2744 07ac 297EE83F 		.word	1072201257
 2745 07b0 9E8DD6FD 		.word	-36270690
 2746 07b4 D58EE83F 		.word	1072205525
 2747 07b8 E077B268 		.word	1756526560
 2748 07bc 719FE83F 		.word	1072209777
 2749 07c0 B881F431 		.word	838107576
 2750 07c4 FCAFE83F 		.word	1072214012
 2751 07c8 C094C569 		.word	1774556352
 2752 07cc 76C0E83F 		.word	1072218230
 2753 07d0 01595C20 		.word	542923009
 2754 07d4 E0D0E83F 		.word	1072222432
 2755 07d8 A5F9D365 		.word	1708390821
 2756 07dc 39E1E83F 		.word	1072226617
 2757 07e0 B51E634A 		.word	1248009909
 2758 07e4 82F1E83F 		.word	1072230786
 2759 07e8 CBB132DE 		.word	-567103029
 2760 07ec BA01E93F 		.word	1072234938
 2761 07f0 819C6B31 		.word	829136001
 2762 07f4 E311E93F 		.word	1072239075
 2763 07f8 E0864454 		.word	1413777120
 2764 07fc FB21E93F 		.word	1072243195
 2765              		.section	.rodata.Kd,"a"
 2766              		.align	2
ARM GAS  C:\Users\zhangjd\AppData\Local\Temp\ccomS8NF.s 			page 63


 2769              	Kd:
 2770 0000 00004842 		.word	1112014848
 2771              		.section	.rodata.Ki,"a"
 2772              		.align	2
 2775              	Ki:
 2776 0000 0000ECC2 		.word	-1024720896
 2777              		.section	.rodata.Kp,"a"
 2778              		.align	2
 2781              	Kp:
 2782 0000 00009643 		.word	1133903872
 2783              		.text
 2784              	.Letext0:
 2785              		.file 3 "d:\\program files (x86)\\gnu arm embedded toolchain\\10 2021.07\\arm-none-eabi\\include\\
 2786              		.file 4 "d:\\program files (x86)\\gnu arm embedded toolchain\\10 2021.07\\arm-none-eabi\\include\\
 2787              		.file 5 "Drivers/CMSIS/Device/ST/STM32F1xx/Include/stm32f103xe.h"
 2788              		.file 6 "Drivers/STM32F1xx_HAL_Driver/Inc/stm32f1xx_hal_def.h"
 2789              		.file 7 "Drivers/STM32F1xx_HAL_Driver/Inc/stm32f1xx_hal_rcc.h"
 2790              		.file 8 "Drivers/STM32F1xx_HAL_Driver/Inc/stm32f1xx_hal_rcc_ex.h"
 2791              		.file 9 "Drivers/STM32F1xx_HAL_Driver/Inc/stm32f1xx_hal_gpio.h"
 2792              		.file 10 "Drivers/STM32F1xx_HAL_Driver/Inc/stm32f1xx_hal_dma.h"
 2793              		.file 11 "Drivers/STM32F1xx_HAL_Driver/Inc/stm32f1xx_hal_tim.h"
 2794              		.file 12 "Drivers/STM32F1xx_HAL_Driver/Inc/stm32f1xx_hal_uart.h"
 2795              		.file 13 "Core/Inc/tim.h"
 2796              		.file 14 "Core/Inc/usart.h"
 2797              		.file 15 "Drivers/STM32F1xx_HAL_Driver/Inc/stm32f1xx_hal.h"
 2798              		.file 16 "Core/Inc/jy62.h"
 2799              		.file 17 "Core/Inc/gpio.h"
 2800              		.file 18 "Core/Inc/dma.h"
 2801              		.file 19 "Core/Inc/zigbee.h"
 2802              		.file 20 "<built-in>"
ARM GAS  C:\Users\zhangjd\AppData\Local\Temp\ccomS8NF.s 			page 64


DEFINED SYMBOLS
                            *ABS*:00000000 main.c
C:\Users\zhangjd\AppData\Local\Temp\ccomS8NF.s:20     .text.pid:00000000 $t
C:\Users\zhangjd\AppData\Local\Temp\ccomS8NF.s:28     .text.pid:00000000 pid
C:\Users\zhangjd\AppData\Local\Temp\ccomS8NF.s:128    .text.pid:00000064 $d
C:\Users\zhangjd\AppData\Local\Temp\ccomS8NF.s:137    .text.Abs:00000000 $t
C:\Users\zhangjd\AppData\Local\Temp\ccomS8NF.s:144    .text.Abs:00000000 Abs
C:\Users\zhangjd\AppData\Local\Temp\ccomS8NF.s:168    .text.qiuyu360:00000000 $t
C:\Users\zhangjd\AppData\Local\Temp\ccomS8NF.s:175    .text.qiuyu360:00000000 qiuyu360
C:\Users\zhangjd\AppData\Local\Temp\ccomS8NF.s:240    .text.qiuyu360:00000038 $d
C:\Users\zhangjd\AppData\Local\Temp\ccomS8NF.s:245    .text.forward:00000000 $t
C:\Users\zhangjd\AppData\Local\Temp\ccomS8NF.s:252    .text.forward:00000000 forward
C:\Users\zhangjd\AppData\Local\Temp\ccomS8NF.s:336    .text.forward:00000070 $d
C:\Users\zhangjd\AppData\Local\Temp\ccomS8NF.s:342    .text.backward:00000000 $t
C:\Users\zhangjd\AppData\Local\Temp\ccomS8NF.s:349    .text.backward:00000000 backward
C:\Users\zhangjd\AppData\Local\Temp\ccomS8NF.s:433    .text.backward:00000070 $d
C:\Users\zhangjd\AppData\Local\Temp\ccomS8NF.s:439    .text.rotate_counterclockwise:00000000 $t
C:\Users\zhangjd\AppData\Local\Temp\ccomS8NF.s:446    .text.rotate_counterclockwise:00000000 rotate_counterclockwise
C:\Users\zhangjd\AppData\Local\Temp\ccomS8NF.s:530    .text.rotate_counterclockwise:00000070 $d
C:\Users\zhangjd\AppData\Local\Temp\ccomS8NF.s:536    .text.rotate_clockwise:00000000 $t
C:\Users\zhangjd\AppData\Local\Temp\ccomS8NF.s:543    .text.rotate_clockwise:00000000 rotate_clockwise
C:\Users\zhangjd\AppData\Local\Temp\ccomS8NF.s:627    .text.rotate_clockwise:00000070 $d
C:\Users\zhangjd\AppData\Local\Temp\ccomS8NF.s:638    .text.HAL_TIM_PeriodElapsedCallback:00000000 $t
C:\Users\zhangjd\AppData\Local\Temp\ccomS8NF.s:645    .text.HAL_TIM_PeriodElapsedCallback:00000000 HAL_TIM_PeriodElapsedCallback
C:\Users\zhangjd\AppData\Local\Temp\ccomS8NF.s:887    .text.HAL_TIM_PeriodElapsedCallback:0000014c $d
C:\Users\zhangjd\AppData\Local\Temp\ccomS8NF.s:901    .text.fabs:00000000 $t
C:\Users\zhangjd\AppData\Local\Temp\ccomS8NF.s:908    .text.fabs:00000000 fabs
C:\Users\zhangjd\AppData\Local\Temp\ccomS8NF.s:954    .text.atan2LUTif:00000000 $t
C:\Users\zhangjd\AppData\Local\Temp\ccomS8NF.s:961    .text.atan2LUTif:00000000 atan2LUTif
C:\Users\zhangjd\AppData\Local\Temp\ccomS8NF.s:1289   .text.atan2LUTif:000001d0 $d
C:\Users\zhangjd\AppData\Local\Temp\ccomS8NF.s:1307   .text.Solve_Mine_Pos:00000000 $t
C:\Users\zhangjd\AppData\Local\Temp\ccomS8NF.s:1314   .text.Solve_Mine_Pos:00000000 Solve_Mine_Pos
C:\Users\zhangjd\AppData\Local\Temp\ccomS8NF.s:1765   .text.Solve_Mine_Pos:000002f8 $d
C:\Users\zhangjd\AppData\Local\Temp\ccomS8NF.s:1775   .text.Error_Handler:00000000 $t
C:\Users\zhangjd\AppData\Local\Temp\ccomS8NF.s:1782   .text.Error_Handler:00000000 Error_Handler
C:\Users\zhangjd\AppData\Local\Temp\ccomS8NF.s:1814   .text.SystemClock_Config:00000000 $t
C:\Users\zhangjd\AppData\Local\Temp\ccomS8NF.s:1821   .text.SystemClock_Config:00000000 SystemClock_Config
C:\Users\zhangjd\AppData\Local\Temp\ccomS8NF.s:1926   .text.main:00000000 $t
C:\Users\zhangjd\AppData\Local\Temp\ccomS8NF.s:1933   .text.main:00000000 main
C:\Users\zhangjd\AppData\Local\Temp\ccomS8NF.s:2137   .text.main:0000012c $d
C:\Users\zhangjd\AppData\Local\Temp\ccomS8NF.s:2239   .bss.state:00000000 state
C:\Users\zhangjd\AppData\Local\Temp\ccomS8NF.s:2769   .rodata.Kd:00000000 Kd
C:\Users\zhangjd\AppData\Local\Temp\ccomS8NF.s:2775   .rodata.Ki:00000000 Ki
C:\Users\zhangjd\AppData\Local\Temp\ccomS8NF.s:2781   .rodata.Kp:00000000 Kp
C:\Users\zhangjd\AppData\Local\Temp\ccomS8NF.s:2252   .rodata.ATAN_LUT:00000000 ATAN_LUT
C:\Users\zhangjd\AppData\Local\Temp\ccomS8NF.s:2183   .bss.car_y:00000000 car_y
C:\Users\zhangjd\AppData\Local\Temp\ccomS8NF.s:2177   .bss.car_x:00000000 car_x
C:\Users\zhangjd\AppData\Local\Temp\ccomS8NF.s:2232   .bss.obj_y:00000000 obj_y
C:\Users\zhangjd\AppData\Local\Temp\ccomS8NF.s:2226   .bss.obj_x:00000000 obj_x
C:\Users\zhangjd\AppData\Local\Temp\ccomS8NF.s:2196   .bss.dis_obj:00000000 dis_obj
C:\Users\zhangjd\AppData\Local\Temp\ccomS8NF.s:2171   .bss.angle_obj:00000000 angle_obj
C:\Users\zhangjd\AppData\Local\Temp\ccomS8NF.s:2220   .bss.distance4:00000000 distance4
C:\Users\zhangjd\AppData\Local\Temp\ccomS8NF.s:2214   .bss.distance3:00000000 distance3
C:\Users\zhangjd\AppData\Local\Temp\ccomS8NF.s:2208   .bss.distance2:00000000 distance2
C:\Users\zhangjd\AppData\Local\Temp\ccomS8NF.s:2202   .bss.distance1:00000000 distance1
C:\Users\zhangjd\AppData\Local\Temp\ccomS8NF.s:2189   .bss.count_to_ten:00000000 count_to_ten
C:\Users\zhangjd\AppData\Local\Temp\ccomS8NF.s:2245   .data.set_speed:00000000 set_speed
ARM GAS  C:\Users\zhangjd\AppData\Local\Temp\ccomS8NF.s 			page 65


C:\Users\zhangjd\AppData\Local\Temp\ccomS8NF.s:2167   .bss.angle_obj:00000000 $d
C:\Users\zhangjd\AppData\Local\Temp\ccomS8NF.s:2174   .bss.car_x:00000000 $d
C:\Users\zhangjd\AppData\Local\Temp\ccomS8NF.s:2180   .bss.car_y:00000000 $d
C:\Users\zhangjd\AppData\Local\Temp\ccomS8NF.s:2186   .bss.count_to_ten:00000000 $d
C:\Users\zhangjd\AppData\Local\Temp\ccomS8NF.s:2192   .bss.dis_obj:00000000 $d
C:\Users\zhangjd\AppData\Local\Temp\ccomS8NF.s:2199   .bss.distance1:00000000 $d
C:\Users\zhangjd\AppData\Local\Temp\ccomS8NF.s:2205   .bss.distance2:00000000 $d
C:\Users\zhangjd\AppData\Local\Temp\ccomS8NF.s:2211   .bss.distance3:00000000 $d
C:\Users\zhangjd\AppData\Local\Temp\ccomS8NF.s:2217   .bss.distance4:00000000 $d
C:\Users\zhangjd\AppData\Local\Temp\ccomS8NF.s:2223   .bss.obj_x:00000000 $d
C:\Users\zhangjd\AppData\Local\Temp\ccomS8NF.s:2229   .bss.obj_y:00000000 $d
C:\Users\zhangjd\AppData\Local\Temp\ccomS8NF.s:2235   .bss.state:00000000 $d
C:\Users\zhangjd\AppData\Local\Temp\ccomS8NF.s:2242   .data.set_speed:00000000 $d
C:\Users\zhangjd\AppData\Local\Temp\ccomS8NF.s:2248   .rodata.ATAN_LUT:00000000 $d
C:\Users\zhangjd\AppData\Local\Temp\ccomS8NF.s:2766   .rodata.Kd:00000000 $d
C:\Users\zhangjd\AppData\Local\Temp\ccomS8NF.s:2772   .rodata.Ki:00000000 $d
C:\Users\zhangjd\AppData\Local\Temp\ccomS8NF.s:2778   .rodata.Kp:00000000 $d

UNDEFINED SYMBOLS
__aeabi_fmul
__aeabi_fadd
__aeabi_fcmpge
__aeabi_fcmple
__aeabi_fsub
__aeabi_fcmpgt
__aeabi_fcmplt
HAL_GPIO_WritePin
htim8
__aeabi_f2d
__aeabi_dadd
__aeabi_dcmpge
__aeabi_dsub
__aeabi_dcmple
HAL_UART_Receive_DMA
GetYaw
jy62Receive
huart2
__aeabi_dcmpgt
__aeabi_dcmpeq
__aeabi_dcmplt
__aeabi_dmul
__aeabi_ddiv
__aeabi_d2iz
__aeabi_i2d
__aeabi_ui2d
memset
HAL_RCC_OscConfig
HAL_RCC_ClockConfig
HAL_Init
jy62_Init
SetBaud
SetHorizontal
InitAngle
Calibrate
SleepOrAwake
MX_GPIO_Init
MX_TIM1_Init
ARM GAS  C:\Users\zhangjd\AppData\Local\Temp\ccomS8NF.s 			page 66


MX_TIM2_Init
MX_TIM8_Init
MX_TIM3_Init
MX_TIM4_Init
MX_DMA_Init
MX_USART2_UART_Init
MX_USART1_UART_Init
MX_TIM5_Init
zigbee_Init
HAL_TIM_Base_Start_IT
HAL_TIM_PWM_Start
HAL_TIM_Encoder_Start
huart1
htim1
htim2
htim3
htim4
htim5
