ARM GAS  C:\Users\zhangjd\AppData\Local\Temp\ccW4vp8f.s 			page 1


   1              		.cpu cortex-m3
   2              		.eabi_attribute 20, 1
   3              		.eabi_attribute 21, 1
   4              		.eabi_attribute 23, 3
   5              		.eabi_attribute 24, 1
   6              		.eabi_attribute 25, 1
   7              		.eabi_attribute 26, 1
   8              		.eabi_attribute 30, 1
   9              		.eabi_attribute 34, 1
  10              		.eabi_attribute 18, 4
  11              		.file	"main.c"
  12              		.text
  13              	.Ltext0:
  14              		.cfi_sections	.debug_frame
  15              		.global	__aeabi_fmul
  16              		.global	__aeabi_fadd
  17              		.global	__aeabi_fcmpge
  18              		.global	__aeabi_fcmple
  19              		.section	.text.pid,"ax",%progbits
  20              		.align	1
  21              		.global	pid
  22              		.arch armv7-m
  23              		.syntax unified
  24              		.thumb
  25              		.thumb_func
  26              		.fpu softvfp
  28              	pid:
  29              	.LVL0:
  30              	.LFB68:
  31              		.file 1 "Core/Src/main.c"
   1:Core/Src/main.c **** /* USER CODE BEGIN Header */
   2:Core/Src/main.c **** /**
   3:Core/Src/main.c ****   ******************************************************************************
   4:Core/Src/main.c ****   * @file           : main.c
   5:Core/Src/main.c ****   * @brief          : Main program body
   6:Core/Src/main.c ****   ******************************************************************************
   7:Core/Src/main.c ****   * @attention
   8:Core/Src/main.c ****   *
   9:Core/Src/main.c ****   * <h2><center>&copy; Copyright (c) 2021 STMicroelectronics.
  10:Core/Src/main.c ****   * All rights reserved.</center></h2>
  11:Core/Src/main.c ****   *
  12:Core/Src/main.c ****   * This software component is licensed by ST under BSD 3-Clause license,
  13:Core/Src/main.c ****   * the "License"; You may not use this file except in compliance with the
  14:Core/Src/main.c ****   * License. You may obtain a copy of the License at:
  15:Core/Src/main.c ****   *                        opensource.org/licenses/BSD-3-Clause
  16:Core/Src/main.c ****   *
  17:Core/Src/main.c ****   ******************************************************************************
  18:Core/Src/main.c ****   */
  19:Core/Src/main.c **** /* USER CODE END Header */
  20:Core/Src/main.c **** /* Includes ------------------------------------------------------------------*/
  21:Core/Src/main.c **** #include "main.h"
  22:Core/Src/main.c **** #include "dma.h"
  23:Core/Src/main.c **** #include "tim.h"
  24:Core/Src/main.c **** #include "usart.h"
  25:Core/Src/main.c **** #include "gpio.h"
  26:Core/Src/main.c **** 
  27:Core/Src/main.c **** /* Private includes ----------------------------------------------------------*/
ARM GAS  C:\Users\zhangjd\AppData\Local\Temp\ccW4vp8f.s 			page 2


  28:Core/Src/main.c **** /* USER CODE BEGIN Includes */
  29:Core/Src/main.c **** #include "jy62.h"
  30:Core/Src/main.c **** #include "zigbee.h"
  31:Core/Src/main.c **** /* USER CODE END Includes */
  32:Core/Src/main.c **** 
  33:Core/Src/main.c **** /* Private typedef -----------------------------------------------------------*/
  34:Core/Src/main.c **** /* USER CODE BEGIN PTD */
  35:Core/Src/main.c **** 
  36:Core/Src/main.c **** //////////////////////////////////////Âü∫Êú¨‰ø°ÊÅØ///////////////////////////////////////////
  37:Core/Src/main.c **** //ÂÆöÊó∂Âô®Âë®Êúü‰∏∫50ms
  38:Core/Src/main.c **** 
  39:Core/Src/main.c **** volatile float distance1 = 0.0, distance2 = 0.0, distance3 = 0.0, distance4 = 0.0;
  40:Core/Src/main.c **** extern uint8_t jy62Receive[JY62_MESSAGE_LENGTH];
  41:Core/Src/main.c **** extern uint8_t jy62Message[JY62_MESSAGE_LENGTH];
  42:Core/Src/main.c **** 
  43:Core/Src/main.c **** float angle_obj, dis_obj;         //Êú™‰ΩøÁî®ÁöÑÂÖ®Â±ÄÂèòÈáè??
  44:Core/Src/main.c **** float obj_x, obj_y, car_x, car_y; //Êú™‰ΩøÁî®ÁöÑÂÖ®Â±ÄÂèòÈáè??
  45:Core/Src/main.c **** 
  46:Core/Src/main.c **** //////////////////////////////////////Sol_Car_PosÂáΩÊï∞ÂèòÈáèÂÆö‰πâ////////////////////////////////
  47:Core/Src/main.c **** int beacon_Pos[6];               //‰∏â‰∏™‰ø°Ê†áÂùêÊ†áÔºå‰æùÊ¨°Â≠òÊîæx_1„ÄÅy_1„ÄÅx_2„ÄÅy_2„ÄÅx_3„ÄÅy
  48:Core/Src/main.c **** int car_Pos[2];                  //Â∞èËΩ¶ÂΩìÂâçÂùêÊ†á
  49:Core/Src/main.c **** double beacon_determinant = 0.0; //ËÆ°ÁÆó‰∏≠Èó¥ÂèòÈáè
  50:Core/Src/main.c **** //////////////////////////////////////Sol_Car_PosÂáΩÊï∞ÂÆö‰πâÁªìÊùü////////////////////////////////
  51:Core/Src/main.c **** //////////////////////////////////////Ê±ÇËß£ÈáëÁüø‰ΩçÁΩÆ‰∏≠Èó¥ÂèòÈáèÂÆπÂô®/////////////////////////
  52:Core/Src/main.c **** //Ê±ÇËß£ÈáëÁüø‰ΩçÁΩÆÔøΩ??Ë¶ÅÁî®Âà∞ÂΩìÂâçÊó∂ÂàªÔøΩ?ÔøΩ‰∏äÔøΩ??Êó∂Âàª„ÄÅ‰∏ä‰∏ä‰∏™Êó∂ÂàªÁöÑÂ∞èËΩ¶‰ΩçÁΩ
  53:Core/Src/main.c **** struct Sol_Mine_Pos_Temp
  54:Core/Src/main.c **** {
  55:Core/Src/main.c ****     uint16_t x;   //Â∞èËΩ¶xÂùêÊ†á
  56:Core/Src/main.c ****     uint16_t y;   //Â∞èËΩ¶yÂùêÊ†á
  57:Core/Src/main.c ****     uint32_t E_1; //Âú∫Âº∫1
  58:Core/Src/main.c ****     uint32_t E_2; //Âú∫Âº∫2
  59:Core/Src/main.c **** } Prev_Pos[3] = {{0, 0, 0}, {0, 0, 0}, {0, 0, 0}};
  60:Core/Src/main.c **** short Prev_Pos_head = 0;
  61:Core/Src/main.c **** ////////////////////////////////////Ê±ÇËß£ÈáëÁüø‰ΩçÁΩÆ‰∏≠Èó¥ÂèòÈáèÂÆπÂô®ÁªìÊùü/////////////////////
  62:Core/Src/main.c **** 
  63:Core/Src/main.c **** struct A //ËµÑÊ∫êÂùêÊ†á
  64:Core/Src/main.c **** {
  65:Core/Src/main.c ****     int x[2];         //(x[0],y[0])ÊòØÁ¨¨ÔøΩ??‰∏™ËµÑÊ∫êÁöÑÂùêÊ†á
  66:Core/Src/main.c ****     int y[2];         //(x[1],y[1])ÊòØÁ¨¨‰∫å‰∏™ËµÑÊ∫êÁöÑÂùêÔøΩ??
  67:Core/Src/main.c ****     int iscalculated; //ÊòØÂê¶Ë¢´ËÆ°ÁÆóÂá∫ÔøΩ?? 0-false
  68:Core/Src/main.c ****     int priority;     //ÔøΩ??ËøëËµÑÊ∫êÁöÑ‰∏ãÊ†á
  69:Core/Src/main.c **** } resource_location = {{-1, -1}, {-1, -1}, 0, -1};
  70:Core/Src/main.c **** int score;                //ÂæóÂàÜÔøΩ??
  71:Core/Src/main.c **** int count_pos = 0;        //ÂùêÊ†áËÆ°Êï∞Âô®ÔºåÂåπÈÖç‰∏ä‰ΩçÊú∫È¢ëÁéá
  72:Core/Src/main.c **** int count_beacon = 0;     //‰ø°Ê†áËÆ°Êï∞Âô®ÔºåÁ°Æ‰øùÂÅúÁïô‰∏ÄÁßí
  73:Core/Src/main.c **** int count_storehouse = 0; //‰ªìÂ∫ìËÆ°Êó∂Âô®ÔºåÁ°Æ‰øùÂÅúÁïô‰∏§Áßí
  74:Core/Src/main.c **** uint16_t now;             //ËÆ∞ÂΩïÂΩìÂâçÊó∂Èó¥
  75:Core/Src/main.c **** 
  76:Core/Src/main.c **** //‰ªìÂ∫ìÂùêÊ†á
  77:Core/Src/main.c **** int rep[8][2] = {{15, 15},
  78:Core/Src/main.c ****                  {127, 15},
  79:Core/Src/main.c ****                  {239, 127},
  80:Core/Src/main.c ****                  {239, 239},
  81:Core/Src/main.c ****                  {127, 239},
  82:Core/Src/main.c ****                  {15, 239},
  83:Core/Src/main.c ****                  {15, 127}};
  84:Core/Src/main.c **** 
ARM GAS  C:\Users\zhangjd\AppData\Local\Temp\ccW4vp8f.s 			page 3


  85:Core/Src/main.c **** int State = -1;
  86:Core/Src/main.c **** //Áä∂ÔøΩ?ÔøΩÂèòÈáèÂØπÂ∫îË°®
  87:Core/Src/main.c **** // -1-ÊØîËµõÊú™ÂºÄÂßãÊàñÂ∑≤ÁªìÔøΩ?
  88:Core/Src/main.c **** // 0-ÂàùÂßã/ÈöèÊÑèÊ∏∏Ëµ∞Ëß£ËµÑÊ∫êÂùêÔøΩ?
  89:Core/Src/main.c **** // 1-Â∑≤Ëé∑ÂæóËµÑÊ∫êÂùêÊ†áÔºåÂéªÁ¨¨ÔøΩ?‰∏™ËµÑÔøΩ?
  90:Core/Src/main.c **** // 2-Â∑≤Êç°Ëµ∑Á¨¨ÔøΩ?‰∏™ËµÑÊ∫êÔºåÂéªÁ¨¨‰∫å‰∏™
  91:Core/Src/main.c **** // 3-ËµÑÊ∫êÂÖ®ÈÉ®Êç°Âà∞ÔºåÂéªÊîæÁ¨¨ÔøΩ?‰∏™‰ø°ÔøΩ?(beacon)
  92:Core/Src/main.c **** // 4-ÂéªÊîæÁ¨¨‰∫å‰∏™‰ø°ÔøΩ?
  93:Core/Src/main.c **** // 5-ÂéªÊîæÁ¨¨‰∏â‰∏™‰ø°ÔøΩ?
  94:Core/Src/main.c **** // 6-Âéª‰ªìÔøΩ?
  95:Core/Src/main.c **** 
  96:Core/Src/main.c **** #define forward_speed 1500
  97:Core/Src/main.c **** #define rotate_speed 800
  98:Core/Src/main.c **** #define angle_err 5
  99:Core/Src/main.c **** /* USER CODE END PTD */
 100:Core/Src/main.c **** 
 101:Core/Src/main.c **** /* Private define ------------------------------------------------------------*/
 102:Core/Src/main.c **** /* USER CODE BEGIN PD */
 103:Core/Src/main.c **** //////////////////////////////////////Solve_Mine_PosÂáΩÊï∞ÂÆèÂÆöÔøΩ???/////////////////////////////
 104:Core/Src/main.c **** #define A_COFFIENT 1000000000.0 //ÈáëÁüøÂº∫Â∫¶Á≥ªÊï∞A
 105:Core/Src/main.c **** #define POS_ERR_TOL 4           //ÈáëÁüø‰ΩçÁΩÆËÆ°ÁÆóÁªìÊûúÂÅèÁ¶ªÂú∫Âú∞ÁöÑÊúÄÂ§ßËØØÔøΩ???
 106:Core/Src/main.c **** //////////////////////////////////////Solve_Mine_PosÂÆèÂÆö‰πâÁªìÔøΩ???/////////////////////////////
 107:Core/Src/main.c **** ////////////////////////////////////////atan2LUTifÂáΩÊï∞ÂÆèÂÆöÔøΩ???///////////////////////////////
 108:Core/Src/main.c **** #define M_PI_2 1.5707963
 109:Core/Src/main.c **** #define M_PI 3.141592654
 110:Core/Src/main.c **** #define M_PI_4_P_0273 1.05839816339744830962 //M_PI/4 + 0.273
 111:Core/Src/main.c **** const double ATAN_LUT[256] = {0.0000000000, 0.0039215485, 0.0078429764, 0.0117641631, 0.0156849881,
 112:Core/Src/main.c ****                               0.0235250710, 0.0274440882, 0.0313622624, 0.0352794736, 0.0391956019,
 113:Core/Src/main.c ****                               0.0470241318, 0.0509362949, 0.0548468980, 0.0587558227, 0.0626629506,
 114:Core/Src/main.c ****                               0.0704713446, 0.0743723758, 0.0782711405, 0.0821675224, 0.0860614053,
 115:Core/Src/main.c ****                               0.0938412126, 0.0977269074, 0.1016096438, 0.1054893085, 0.1093657884,
 116:Core/Src/main.c ****                               0.1171087446, 0.1209749978, 0.1248376255, 0.1286965013, 0.1325515323,
 117:Core/Src/main.c ****                               0.1402496096, 0.1440924408, 0.1479309912, 0.1517651553, 0.1555948280,
 118:Core/Src/main.c ****                               0.1632402828, 0.1670558588, 0.1708665312, 0.1746721990, 0.1784727620,
 119:Core/Src/main.c ****                               0.1860581771, 0.1898428334, 0.1936219929, 0.1973955598, 0.2011634395,
 120:Core/Src/main.c ****                               0.2086817623, 0.2124320205, 0.2161762215, 0.2199142752, 0.2236460927,
 121:Core/Src/main.c ****                               0.2310906672, 0.2348032511, 0.2385092525, 0.2422085871, 0.2459011721,
 122:Core/Src/main.c ****                               0.2532657662, 0.2569376146, 0.2606023917, 0.2642600199, 0.2679104224,
 123:Core/Src/main.c ****                               0.2751892491, 0.2788175253, 0.2824382800, 0.2860514417, 0.2896569404,
 124:Core/Src/main.c ****                               0.2968446734, 0.3004267728, 0.3040009393, 0.3075671084, 0.3111252164,
 125:Core/Src/main.c ****                               0.3182170002, 0.3217505544, 0.3252758042, 0.3287926915, 0.3323011594,
 126:Core/Src/main.c ****                               0.3392926145, 0.3427754932, 0.3462497357, 0.3497152904, 0.3531721069,
 127:Core/Src/main.c ****                               0.3600593294, 0.3634896400, 0.3669110217, 0.3703234297, 0.3737268255,
 128:Core/Src/main.c ****                               0.3805063771, 0.3838824615, 0.3872493632, 0.3906070437, 0.3939554653,
 129:Core/Src/main.c ****                               0.4006243869, 0.4039448169, 0.4072558481, 0.4105574480, 0.4138495853,
 130:Core/Src/main.c ****                               0.4204053512, 0.4236689219, 0.4269229141, 0.4301673014, 0.4334020581,
 131:Core/Src/main.c ****                               0.4398425828, 0.4430483044, 0.4462443029, 0.4494305575, 0.4526070482,
 132:Core/Src/main.c ****                               0.4589306629, 0.4620777516, 0.4652150058, 0.4683424102, 0.4714599501,
 133:Core/Src/main.c ****                               0.4776653824, 0.4807532499, 0.4838312032, 0.4868992318, 0.4899573263,
 134:Core/Src/main.c ****                               0.4960436784, 0.4990719209, 0.5020901990, 0.5050985071, 0.5080968402,
 135:Core/Src/main.c ****                               0.5140635659, 0.5170319525, 0.5199903521, 0.5229387636, 0.5258771863,
 136:Core/Src/main.c ****                               0.5317240673, 0.5346325278, 0.5375310045, 0.5404195003, 0.5432980185,
 137:Core/Src/main.c ****                               0.5490251398, 0.5518737530, 0.5547124091, 0.5575411147, 0.5603598769,
 138:Core/Src/main.c ****                               0.5659676030, 0.5687565842, 0.5715356566, 0.5743048302, 0.5770641155,
 139:Core/Src/main.c ****                               0.5825530662, 0.5852827553, 0.5880026035, 0.5907126240, 0.5934128303,
 140:Core/Src/main.c ****                               0.5987838570, 0.6014547069, 0.6041158015, 0.6067671569, 0.6094087892,
 141:Core/Src/main.c ****                               0.6146629519, 0.6172755171, 0.6198784285, 0.6224717045, 0.6250553640,
ARM GAS  C:\Users\zhangjd\AppData\Local\Temp\ccW4vp8f.s 			page 4


 142:Core/Src/main.c ****                               0.6301939095, 0.6327488350, 0.6352942223, 0.6378300921, 0.6403564651,
 143:Core/Src/main.c ****                               0.6453808058, 0.6478788169, 0.6503674179, 0.6528466311, 0.6553164793,
 144:Core/Src/main.c ****                               0.6602281731, 0.6626700655, 0.6651026865, 0.6675260602, 0.6699402110,
 145:Core/Src/main.c ****                               0.6747409422, 0.6771275725, 0.6795050796, 0.6818734889, 0.6842328261,
 146:Core/Src/main.c ****                               0.6889243882, 0.6912566655, 0.6935799756, 0.6958943450, 0.6981998008,
 147:Core/Src/main.c ****                               0.7027840796, 0.7050629571, 0.7073330300, 0.7095943260, 0.7118468729,
 148:Core/Src/main.c ****                               0.7163258312, 0.7185522990, 0.7207701302, 0.7229793534, 0.7251799971,
 149:Core/Src/main.c ****                               0.7295556609, 0.7317307387, 0.7338973524, 0.7360555311, 0.7382053040,
 150:Core/Src/main.c ****                               0.7424797493, 0.7446044805, 0.7467209234, 0.7488291075, 0.7509290624,
 151:Core/Src/main.c ****                               0.7551044035, 0.7571798492, 0.7592471847, 0.7613064400, 0.7633576449,
 152:Core/Src/main.c ****                               0.7674360235, 0.7694632573, 0.7714825607, 0.7734939638, 0.7754974968,
 153:Core/Src/main.c ****                               0.7794810727, 0.7814611759, 0.7834335294, 0.7853981634};
 154:Core/Src/main.c **** ////////////////////////////////////////atan2LUTifÂÆèÂÆö‰πâÁªìÔøΩ???///////////////////////////////
 155:Core/Src/main.c **** 
 156:Core/Src/main.c **** /* USER CODE END PD */
 157:Core/Src/main.c **** 
 158:Core/Src/main.c **** /* Private macro -------------------------------------------------------------*/
 159:Core/Src/main.c **** /* USER CODE BEGIN PM */
 160:Core/Src/main.c **** 
 161:Core/Src/main.c **** /* USER CODE END PM */
 162:Core/Src/main.c **** 
 163:Core/Src/main.c **** /* Private variables ---------------------------------------------------------*/
 164:Core/Src/main.c **** 
 165:Core/Src/main.c **** /* USER CODE BEGIN PV */
 166:Core/Src/main.c **** const float Kp = 300.0;
 167:Core/Src/main.c **** const float Ki = -118;
 168:Core/Src/main.c **** const float Kd = 50;
 169:Core/Src/main.c **** float state[3] = {0.0};
 170:Core/Src/main.c **** /* USER CODE END PV */
 171:Core/Src/main.c **** 
 172:Core/Src/main.c **** /* Private function prototypes -----------------------------------------------*/
 173:Core/Src/main.c **** void SystemClock_Config(void);
 174:Core/Src/main.c **** /* USER CODE BEGIN PFP */
 175:Core/Src/main.c **** 
 176:Core/Src/main.c **** /* USER CODE END PFP */
 177:Core/Src/main.c **** 
 178:Core/Src/main.c **** /* Private user code ---------------------------------------------------------*/
 179:Core/Src/main.c **** /* USER CODE BEGIN 0 */
 180:Core/Src/main.c **** 
 181:Core/Src/main.c **** void HAL_TIM_PeriodElapsedCallback(TIM_HandleTypeDef *htim)
 182:Core/Src/main.c **** {
 183:Core/Src/main.c ****     HAL_UART_Receive_DMA(&huart2, jy62Receive, JY62_MESSAGE_LENGTH);
 184:Core/Src/main.c ****     if (htim->Instance == TIM1)
 185:Core/Src/main.c ****     {
 186:Core/Src/main.c ****         count_pos++; //Ëøõ‰∏§Ê¨°ÂÆöÊó∂Âô®Êõ¥Êñ∞‰∏ÄÊ¨°Â∞èËΩ¶xyÂùêÊ†á
 187:Core/Src/main.c ****         if (count_pos == 2)
 188:Core/Src/main.c ****         {
 189:Core/Src/main.c ****             car_Pos[0] = getCarPosX();
 190:Core/Src/main.c ****             car_Pos[1] = getCarPosY(); ///Êõ¥Êñ∞Â∞èËΩ¶xyÂùêÊ†á
 191:Core/Src/main.c ****             count_pos = 0;
 192:Core/Src/main.c ****         }
 193:Core/Src/main.c ****         switch (State)
 194:Core/Src/main.c ****         {
 195:Core/Src/main.c ****         case (0): //ÂàùÂßãÁä∂ÔøΩ??
 196:Core/Src/main.c ****         {
 197:Core/Src/main.c ****             ////////////////////////Ëøô‰∏ÄÈÉ®ÂàÜÂ∫îÂΩì‰ªîÁªÜÔøΩ??ÔøΩ??/////////////////////////////
 198:Core/Src/main.c ****             ////////////////////////Ëøô‰∏ÄÈÉ®ÂàÜÂ∫îÂΩì‰ªîÁªÜÔøΩ??ÔøΩ??/////////////////////////////
ARM GAS  C:\Users\zhangjd\AppData\Local\Temp\ccW4vp8f.s 			page 5


 199:Core/Src/main.c ****             ////////////////////////Ëøô‰∏ÄÈÉ®ÂàÜÂ∫îÂΩì‰ªîÁªÜÔøΩ??ÔøΩ??/////////////////////////////
 200:Core/Src/main.c ****             //Ê≠•È™§1ÔºöÈöèÊÑèËµ∞ÔøΩ??
 201:Core/Src/main.c ****             rotate_clockwise_plus_forward(rotate_speed); ///ÂàùÂßãÊó∂ËΩ¨ÂúàÔºåÁ°ÆÂÆöËµÑÊ∫êÂùêÊ†á
 202:Core/Src/main.c ****             //Ê≠•È™§2ÔºöËß£ÁÆó‰∏§‰∏™ËµÑÊ∫êÂùêÔøΩ?? =====ÂæÖÂÆûÔøΩ??=====
 203:Core/Src/main.c ****             // if (resource_location.iscalculated == 1) //Â¶ÇÊûúÊµãÁÆóÂá∫ÂùêÔøΩ??
 204:Core/Src/main.c ****             // {
 205:Core/Src/main.c ****             //     State = 1; //ËøõÂÖ•‰∏ã‰∏ÄÁä∂ÔøΩ??
 206:Core/Src/main.c ****             //     //Ê≠•È™§3ÔºöÁ°ÆÂÆöÁ¶ªËΩ¶ÊúÄËøëÁöÑÔøΩ??ÔøΩ??
 207:Core/Src/main.c ****             //     resource_location.priority = (resource_location.x[0]*resource_location.x[0]+reso
 208:Core/Src/main.c ****             // }
 209:Core/Src/main.c ****             // break;
 210:Core/Src/main.c ****             if (Solve_Mine_Pos(Prev_Pos[0].x, Prev_Pos[0].y, Prev_Pos[0].E_1, Prev_Pos[1].x, Prev_P
 211:Core/Src/main.c ****             {
 212:Core/Src/main.c ****                 //Âà©Áî®Solve_Mine_PosÂáΩÊï∞ËøîÂõûÂÄºÁõ¥Êé•Âà§Êñ≠ËÆ°ÁÆóÊòØÂê¶ÊàêÔøΩ??
 213:Core/Src/main.c ****                 State = 1; //ËøõÂÖ•‰∏ã‰∏ÄÁä∂ÔøΩ??
 214:Core/Src/main.c ****                 //Ê≠•È™§3ÔºöÁ°ÆÂÆöÁ¶ªËΩ¶ÊúÄËøëÁöÑÔøΩ??ÔøΩ??
 215:Core/Src/main.c ****                 resource_location.priority = (resource_location.x[0] * resource_location.x[0] + res
 216:Core/Src/main.c ****                 break;
 217:Core/Src/main.c ****             }
 218:Core/Src/main.c ****             else
 219:Core/Src/main.c ****             {
 220:Core/Src/main.c ****                 //caseËÆ°ÁÆó‰∏çÊàêÂäüÔºåÔøΩ??Ë¶ÅÊõ¥Êñ∞‰ΩçÁΩÆ‰∏éÂú∫Âº∫‰ø°ÊÅØÔºåÈáçÊñ∞ËÆ°ÁÆóÔøΩ??
 221:Core/Src/main.c ****                 Prev_Pos[Prev_Pos_head].x = getCarPosX();          //Âà©Áî®getCarPosXÂáΩÊï∞Ëé∑ÂèñÂ∞
 222:Core/Src/main.c ****                 Prev_Pos[Prev_Pos_head].y = getCarPosY();          //Âêå‰∏ä
 223:Core/Src/main.c ****                 Prev_Pos[Prev_Pos_head].E_1 = getMineIntensity(0); //Âà©Áî®getMineIntensityÂáΩÊï∞Êõ
 224:Core/Src/main.c ****                 Prev_Pos[Prev_Pos_head].E_2 = getMineIntensity(1); //Âêå‰∏ä
 225:Core/Src/main.c ****                 Prev_Pos_head = (Prev_Pos_head + 1) % 3;           //Â§¥ÊåáÈíàÂæ™ÁéØÂú∞ÂêéÁßª
 226:Core/Src/main.c ****                 break;
 227:Core/Src/main.c ****             }
 228:Core/Src/main.c ****         }
 229:Core/Src/main.c ****         case (1):
 230:Core/Src/main.c ****         {
 231:Core/Src/main.c ****             //ÂéªÊúÄËøëÁöÑËµÑÊ∫ê
 232:Core/Src/main.c ****             Goto(resource_location.x[resource_location.priority], resource_location.y[resource_loca
 233:Core/Src/main.c ****             if (getCarScore() > 0)
 234:Core/Src/main.c ****             {
 235:Core/Src/main.c ****                 State = 2;             //ËøõÂÖ•‰∏ã‰∏ÄÁä∂ÔøΩ??
 236:Core/Src/main.c ****                 score = getCarScore(); //Êõ¥Êñ∞ÂΩìÂâçÂàÜÊï∞
 237:Core/Src/main.c ****             }
 238:Core/Src/main.c ****             break;
 239:Core/Src/main.c ****         }
 240:Core/Src/main.c ****         case (2):
 241:Core/Src/main.c ****         {
 242:Core/Src/main.c ****             //ÂéªÁ¨¨‰∫å‰∏™ËµÑÊ∫ê
 243:Core/Src/main.c ****             Goto(resource_location.x[!resource_location.priority], resource_location.y[!resource_lo
 244:Core/Src/main.c ****             if (getCarScore() > score)
 245:Core/Src/main.c ****             {
 246:Core/Src/main.c ****                 State = 3;             //ËøõÂÖ•‰∏ã‰∏ÄÁä∂ÔøΩ??
 247:Core/Src/main.c ****                 score = getCarScore(); //Êõ¥Êñ∞ÂΩìÂâçÂàÜÊï∞
 248:Core/Src/main.c ****             }
 249:Core/Src/main.c ****             break;
 250:Core/Src/main.c ****         }
 251:Core/Src/main.c ****         case (3):
 252:Core/Src/main.c ****         {
 253:Core/Src/main.c ****             //ÊîæÁΩÆÁ¨¨‰∏Ä‰∏™‰ø°ÔøΩ? (127,60Ôºâ‰∏≠ÂÅè‰∏ä
 254:Core/Src/main.c ****             if ((car_Pos[0] - 127) * (car_Pos[0] - 127) + (car_Pos[1] - 30) * (car_Pos[1] - 30) < 1
 255:Core/Src/main.c ****             {
ARM GAS  C:\Users\zhangjd\AppData\Local\Temp\ccW4vp8f.s 			page 6


 256:Core/Src/main.c ****                 brake(); //ÂàπËΩ¶
 257:Core/Src/main.c ****                 count_beacon++;
 258:Core/Src/main.c ****                 if (count_beacon <= 20)
 259:Core/Src/main.c ****                 {
 260:Core/Src/main.c ****                     HAL_GPIO_WritePin(GPIOC, GPIO_PIN_0, GPIO_PIN_SET);
 261:Core/Src/main.c ****                 }
 262:Core/Src/main.c ****                 else
 263:Core/Src/main.c ****                 {
 264:Core/Src/main.c ****                     State = 4;
 265:Core/Src/main.c ****                     count_beacon = 0;
 266:Core/Src/main.c ****                     beacon_Pos[0] = getCarPosX();
 267:Core/Src/main.c ****                     beacon_Pos[1] = getCarPosY(); //Áªôbeacon_PosËµãÔøΩ?ÔøΩÔºåÁî®‰∫éÁ¨¨‰∫åÂõûÂêàÁ≤æ
 268:Core/Src/main.c ****                 }
 269:Core/Src/main.c ****             }
 270:Core/Src/main.c ****             else
 271:Core/Src/main.c ****                 Goto(127, 30);
 272:Core/Src/main.c ****             break;
 273:Core/Src/main.c ****         }
 274:Core/Src/main.c ****         case (4):
 275:Core/Src/main.c ****         {
 276:Core/Src/main.c ****             //ÊîæÁΩÆÁ¨¨‰∫å‰∏™‰ø°ÔøΩ?? (127,127)Ê≠£‰∏≠ÔøΩ??
 277:Core/Src/main.c ****             if ((car_Pos[0] - 127) * (car_Pos[0] - 127) + (car_Pos[1] - 127) * (car_Pos[1] - 127) <
 278:Core/Src/main.c ****             {
 279:Core/Src/main.c ****                 brake(); //ÂàπËΩ¶
 280:Core/Src/main.c ****                 count_beacon++;
 281:Core/Src/main.c ****                 if (count_beacon <= 20)
 282:Core/Src/main.c ****                 {
 283:Core/Src/main.c ****                     HAL_GPIO_WritePin(GPIOC, GPIO_PIN_0, GPIO_PIN_SET);
 284:Core/Src/main.c ****                 }
 285:Core/Src/main.c ****                 else
 286:Core/Src/main.c ****                 {
 287:Core/Src/main.c ****                     State = 5;
 288:Core/Src/main.c ****                     count_beacon = 0;
 289:Core/Src/main.c ****                     beacon_Pos[2] = getCarPosX();
 290:Core/Src/main.c ****                     beacon_Pos[3] = getCarPosY(); //Áªôbeacon_PosËµãÔøΩ?ÔøΩÔºåÁî®‰∫éÁ¨¨‰∫åÂõûÂêàÁ≤æ
 291:Core/Src/main.c ****                 }
 292:Core/Src/main.c ****             }
 293:Core/Src/main.c ****             else
 294:Core/Src/main.c ****                 Goto(127, 60);
 295:Core/Src/main.c ****             break;
 296:Core/Src/main.c ****         }
 297:Core/Src/main.c ****         case (5):
 298:Core/Src/main.c ****         {
 299:Core/Src/main.c ****             //ÊîæÁΩÆÁ¨¨‰∏â‰∏™‰ø°ÔøΩ?? (60,127)‰∏≠ÂÅèÔøΩ??
 300:Core/Src/main.c ****             if ((car_Pos[0] - 60) * (car_Pos[0] - 60) + (car_Pos[1] - 127) * (car_Pos[1] - 127) < 1
 301:Core/Src/main.c ****             {
 302:Core/Src/main.c ****                 brake(); //ÂàπËΩ¶
 303:Core/Src/main.c ****                 count_beacon++;
 304:Core/Src/main.c ****                 if (count_beacon <= 20)
 305:Core/Src/main.c ****                 {
 306:Core/Src/main.c ****                     HAL_GPIO_WritePin(GPIOC, GPIO_PIN_0, GPIO_PIN_SET);
 307:Core/Src/main.c ****                 }
 308:Core/Src/main.c ****                 else
 309:Core/Src/main.c ****                 {
 310:Core/Src/main.c ****                     State = 6;
 311:Core/Src/main.c ****                     count_beacon = 0;
 312:Core/Src/main.c ****                     beacon_Pos[4] = getCarPosX();
ARM GAS  C:\Users\zhangjd\AppData\Local\Temp\ccW4vp8f.s 			page 7


 313:Core/Src/main.c ****                     beacon_Pos[5] = getCarPosY(); //Áªôbeacon_PosËµãÔøΩ?ÔøΩÔºåÁî®‰∫éÁ¨¨‰∫åÂõûÂêàÁ≤æ
 314:Core/Src/main.c ****                 }
 315:Core/Src/main.c ****             }
 316:Core/Src/main.c ****             else
 317:Core/Src/main.c ****                 Goto(127, 30);
 318:Core/Src/main.c ****             break;
 319:Core/Src/main.c ****         }
 320:Core/Src/main.c ****         case (6):
 321:Core/Src/main.c ****         {
 322:Core/Src/main.c ****             //ÂéªÊúÄËøë‰ªìÔøΩ?7Âè∑Ôºå‰∏çÂà§Êñ≠ÊòØÂê¶Âà∞ÔøΩ??
 323:Core/Src/main.c ****             //ËøòÊòØÂà§Êñ≠‰∏Ä‰∏ãÂêß
 324:Core/Src/main.c ****             if ((car_Pos[0] - 15) * (car_Pos[0] - 15) + (car_Pos[1] - 127) * (car_Pos[1] - 127) < 1
 325:Core/Src/main.c ****             {
 326:Core/Src/main.c ****                 brake();    //ÂàπËΩ¶
 327:Core/Src/main.c ****                 State = -1; //Á¨¨‰∏ÄÂõûÂêàÁªìÊùü
 328:Core/Src/main.c ****             }
 329:Core/Src/main.c ****             else
 330:Core/Src/main.c ****                 Goto(15, 127);
 331:Core/Src/main.c ****             break;
 332:Core/Src/main.c ****         }
 333:Core/Src/main.c ****         }
 334:Core/Src/main.c ****     }
 335:Core/Src/main.c **** }
 336:Core/Src/main.c **** /* USER CODE END 0 */
 337:Core/Src/main.c **** 
 338:Core/Src/main.c **** /**
 339:Core/Src/main.c ****   * @brief  The application entry point.
 340:Core/Src/main.c ****   * @retval int
 341:Core/Src/main.c ****   */
 342:Core/Src/main.c **** int main(void)
 343:Core/Src/main.c **** {
 344:Core/Src/main.c ****     /* USER CODE BEGIN 1 */
 345:Core/Src/main.c ****     /* USER CODE END 1 */
 346:Core/Src/main.c **** 
 347:Core/Src/main.c ****     /* MCU Configuration--------------------------------------------------------*/
 348:Core/Src/main.c **** 
 349:Core/Src/main.c ****     /* Reset of all peripherals, Initializes the Flash interface and the Systick. */
 350:Core/Src/main.c ****     HAL_Init();
 351:Core/Src/main.c **** 
 352:Core/Src/main.c ****     /* USER CODE BEGIN Init */
 353:Core/Src/main.c ****     jy62_Init(&huart2);
 354:Core/Src/main.c ****     SetBaud(115200);
 355:Core/Src/main.c ****     SetHorizontal();
 356:Core/Src/main.c ****     InitAngle();
 357:Core/Src/main.c ****     Calibrate();
 358:Core/Src/main.c ****     SleepOrAwake();
 359:Core/Src/main.c ****     /* USER CODE END Init */
 360:Core/Src/main.c **** 
 361:Core/Src/main.c ****     /* Configure the system clock */
 362:Core/Src/main.c ****     SystemClock_Config();
 363:Core/Src/main.c **** 
 364:Core/Src/main.c ****     /* USER CODE BEGIN SysInit */
 365:Core/Src/main.c **** 
 366:Core/Src/main.c ****     /* USER CODE END SysInit */
 367:Core/Src/main.c **** 
 368:Core/Src/main.c ****     /* Initialize all configured peripherals */
 369:Core/Src/main.c ****     MX_GPIO_Init();
ARM GAS  C:\Users\zhangjd\AppData\Local\Temp\ccW4vp8f.s 			page 8


 370:Core/Src/main.c ****     MX_TIM1_Init();
 371:Core/Src/main.c ****     MX_TIM2_Init();
 372:Core/Src/main.c ****     MX_TIM8_Init();
 373:Core/Src/main.c ****     MX_TIM3_Init();
 374:Core/Src/main.c ****     MX_TIM4_Init();
 375:Core/Src/main.c ****     MX_DMA_Init();
 376:Core/Src/main.c ****     MX_USART2_UART_Init();
 377:Core/Src/main.c ****     MX_USART1_UART_Init();
 378:Core/Src/main.c ****     MX_TIM5_Init();
 379:Core/Src/main.c ****     /* USER CODE BEGIN 2 */
 380:Core/Src/main.c ****     zigbee_Init(&huart1);
 381:Core/Src/main.c ****     HAL_TIM_Base_Start_IT(&htim1);
 382:Core/Src/main.c ****     HAL_TIM_PWM_Start(&htim8, TIM_CHANNEL_1);
 383:Core/Src/main.c ****     HAL_TIM_PWM_Start(&htim8, TIM_CHANNEL_2);
 384:Core/Src/main.c ****     HAL_TIM_PWM_Start(&htim8, TIM_CHANNEL_3);
 385:Core/Src/main.c ****     HAL_TIM_PWM_Start(&htim8, TIM_CHANNEL_4);
 386:Core/Src/main.c ****     HAL_TIM_Encoder_Start(&htim2, TIM_CHANNEL_1);
 387:Core/Src/main.c ****     HAL_TIM_Encoder_Start(&htim2, TIM_CHANNEL_2);
 388:Core/Src/main.c ****     HAL_TIM_Encoder_Start(&htim3, TIM_CHANNEL_1);
 389:Core/Src/main.c ****     HAL_TIM_Encoder_Start(&htim3, TIM_CHANNEL_2);
 390:Core/Src/main.c ****     HAL_TIM_Encoder_Start(&htim4, TIM_CHANNEL_1);
 391:Core/Src/main.c ****     HAL_TIM_Encoder_Start(&htim4, TIM_CHANNEL_2);
 392:Core/Src/main.c ****     HAL_TIM_Encoder_Start(&htim5, TIM_CHANNEL_1);
 393:Core/Src/main.c ****     HAL_TIM_Encoder_Start(&htim5, TIM_CHANNEL_2);
 394:Core/Src/main.c ****     jy62_Init(&huart2);
 395:Core/Src/main.c ****     void jy62_Init(UART_HandleTypeDef * huart);
 396:Core/Src/main.c **** 
 397:Core/Src/main.c ****     HAL_GPIO_WritePin(GPIOB, GPIO_PIN_0, GPIO_PIN_SET);
 398:Core/Src/main.c ****     HAL_GPIO_WritePin(GPIOB, GPIO_PIN_1, GPIO_PIN_RESET);
 399:Core/Src/main.c ****     HAL_GPIO_WritePin(GPIOB, GPIO_PIN_2, GPIO_PIN_RESET);
 400:Core/Src/main.c ****     HAL_GPIO_WritePin(GPIOB, GPIO_PIN_10, GPIO_PIN_SET);
 401:Core/Src/main.c ****     HAL_GPIO_WritePin(GPIOB, GPIO_PIN_11, GPIO_PIN_SET);
 402:Core/Src/main.c ****     HAL_GPIO_WritePin(GPIOB, GPIO_PIN_12, GPIO_PIN_RESET);
 403:Core/Src/main.c ****     HAL_GPIO_WritePin(GPIOB, GPIO_PIN_13, GPIO_PIN_RESET);
 404:Core/Src/main.c ****     HAL_GPIO_WritePin(GPIOB, GPIO_PIN_14, GPIO_PIN_SET);
 405:Core/Src/main.c ****     /* USER CODE END 2 */
 406:Core/Src/main.c **** 
 407:Core/Src/main.c ****     /* Infinite loop */
 408:Core/Src/main.c ****     /* USER CODE BEGIN WHILE */
 409:Core/Src/main.c ****     while (1)
 410:Core/Src/main.c ****     {
 411:Core/Src/main.c ****         /* USER CODE END WHILE */
 412:Core/Src/main.c **** 
 413:Core/Src/main.c ****         /* USER CODE BEGIN 3 */
 414:Core/Src/main.c ****         if ((getGameState() == 1) && (getCarTask() == 0) && (State < 0)) //‰∏äÂçäÔøΩ?
 415:Core/Src/main.c ****         {
 416:Core/Src/main.c ****             State = 0;
 417:Core/Src/main.c ****         }
 418:Core/Src/main.c ****         if ((getGameState() == 1) && (getCarTask() == 1)) //‰∏ãÂçäÔøΩ?
 419:Core/Src/main.c ****         {
 420:Core/Src/main.c ****             if (State < 10)
 421:Core/Src/main.c ****             {
 422:Core/Src/main.c ****                 State = 10;
 423:Core/Src/main.c ****                 Sol_Car_Pos_INIT();
 424:Core/Src/main.c ****             }
 425:Core/Src/main.c ****             if ((getGameTime() > 1000) && (State < 12)) //ÔøΩ?ÂêéÊó∂ÔøΩ?
 426:Core/Src/main.c ****                 State = 12;
ARM GAS  C:\Users\zhangjd\AppData\Local\Temp\ccW4vp8f.s 			page 9


 427:Core/Src/main.c ****         }
 428:Core/Src/main.c ****     }
 429:Core/Src/main.c ****     /* USER CODE END 3 */
 430:Core/Src/main.c **** }
 431:Core/Src/main.c **** 
 432:Core/Src/main.c **** /**
 433:Core/Src/main.c ****   * @brief System Clock Configuration
 434:Core/Src/main.c ****   * @retval None
 435:Core/Src/main.c ****   */
 436:Core/Src/main.c **** void SystemClock_Config(void)
 437:Core/Src/main.c **** {
 438:Core/Src/main.c ****     RCC_OscInitTypeDef RCC_OscInitStruct = {0};
 439:Core/Src/main.c ****     RCC_ClkInitTypeDef RCC_ClkInitStruct = {0};
 440:Core/Src/main.c **** 
 441:Core/Src/main.c ****     /** Initializes the RCC Oscillators according to the specified parameters
 442:Core/Src/main.c ****   * in the RCC_OscInitTypeDef structure.
 443:Core/Src/main.c ****   */
 444:Core/Src/main.c ****     RCC_OscInitStruct.OscillatorType = RCC_OSCILLATORTYPE_HSE;
 445:Core/Src/main.c ****     RCC_OscInitStruct.HSEState = RCC_HSE_ON;
 446:Core/Src/main.c ****     RCC_OscInitStruct.HSEPredivValue = RCC_HSE_PREDIV_DIV1;
 447:Core/Src/main.c ****     RCC_OscInitStruct.HSIState = RCC_HSI_ON;
 448:Core/Src/main.c ****     RCC_OscInitStruct.PLL.PLLState = RCC_PLL_ON;
 449:Core/Src/main.c ****     RCC_OscInitStruct.PLL.PLLSource = RCC_PLLSOURCE_HSE;
 450:Core/Src/main.c ****     RCC_OscInitStruct.PLL.PLLMUL = RCC_PLL_MUL9;
 451:Core/Src/main.c ****     if (HAL_RCC_OscConfig(&RCC_OscInitStruct) != HAL_OK)
 452:Core/Src/main.c ****     {
 453:Core/Src/main.c ****         Error_Handler();
 454:Core/Src/main.c ****     }
 455:Core/Src/main.c ****     /** Initializes the CPU, AHB and APB buses clocks
 456:Core/Src/main.c ****   */
 457:Core/Src/main.c ****     RCC_ClkInitStruct.ClockType = RCC_CLOCKTYPE_HCLK | RCC_CLOCKTYPE_SYSCLK | RCC_CLOCKTYPE_PCLK1 |
 458:Core/Src/main.c ****     RCC_ClkInitStruct.SYSCLKSource = RCC_SYSCLKSOURCE_PLLCLK;
 459:Core/Src/main.c ****     RCC_ClkInitStruct.AHBCLKDivider = RCC_SYSCLK_DIV1;
 460:Core/Src/main.c ****     RCC_ClkInitStruct.APB1CLKDivider = RCC_HCLK_DIV2;
 461:Core/Src/main.c ****     RCC_ClkInitStruct.APB2CLKDivider = RCC_HCLK_DIV1;
 462:Core/Src/main.c **** 
 463:Core/Src/main.c ****     if (HAL_RCC_ClockConfig(&RCC_ClkInitStruct, FLASH_LATENCY_2) != HAL_OK)
 464:Core/Src/main.c ****     {
 465:Core/Src/main.c ****         Error_Handler();
 466:Core/Src/main.c ****     }
 467:Core/Src/main.c **** }
 468:Core/Src/main.c **** 
 469:Core/Src/main.c **** /* USER CODE BEGIN 4 */
 470:Core/Src/main.c **** float pid(float in)
 471:Core/Src/main.c **** {
  32              		.loc 1 471 1 view -0
  33              		.cfi_startproc
  34              		@ args = 0, pretend = 0, frame = 0
  35              		@ frame_needed = 0, uses_anonymous_args = 0
  36              		.loc 1 471 1 is_stmt 0 view .LVU1
  37 0000 F8B5     		push	{r3, r4, r5, r6, r7, lr}
  38              	.LCFI0:
  39              		.cfi_def_cfa_offset 24
  40              		.cfi_offset 3, -24
  41              		.cfi_offset 4, -20
  42              		.cfi_offset 5, -16
  43              		.cfi_offset 6, -12
ARM GAS  C:\Users\zhangjd\AppData\Local\Temp\ccW4vp8f.s 			page 10


  44              		.cfi_offset 7, -8
  45              		.cfi_offset 14, -4
  46 0002 0546     		mov	r5, r0
 472:Core/Src/main.c ****     float out;
  47              		.loc 1 472 5 is_stmt 1 view .LVU2
 473:Core/Src/main.c ****     // y[n] = A0 * x[n] + A1 * x[n-1] + A2 * x[n-2]
 474:Core/Src/main.c ****     out = ((Kp + Ki + Kd) * in) + ((-Ki - 2 * Kd) * state[0]) + (Kd * state[1]);
  48              		.loc 1 474 5 view .LVU3
  49              		.loc 1 474 27 is_stmt 0 view .LVU4
  50 0004 1749     		ldr	r1, .L13
  51 0006 FFF7FEFF 		bl	__aeabi_fmul
  52              	.LVL1:
  53              		.loc 1 474 27 view .LVU5
  54 000a 0646     		mov	r6, r0
  55              		.loc 1 474 58 view .LVU6
  56 000c 164C     		ldr	r4, .L13+4
  57 000e 2768     		ldr	r7, [r4]	@ float
  58              		.loc 1 474 51 view .LVU7
  59 0010 1649     		ldr	r1, .L13+8
  60 0012 3846     		mov	r0, r7
  61 0014 FFF7FEFF 		bl	__aeabi_fmul
  62              	.LVL2:
  63 0018 0146     		mov	r1, r0
  64              		.loc 1 474 33 view .LVU8
  65 001a 3046     		mov	r0, r6
  66 001c FFF7FEFF 		bl	__aeabi_fadd
  67              	.LVL3:
  68 0020 0646     		mov	r6, r0
  69              		.loc 1 474 69 view .LVU9
  70 0022 1349     		ldr	r1, .L13+12
  71 0024 6068     		ldr	r0, [r4, #4]	@ float
  72 0026 FFF7FEFF 		bl	__aeabi_fmul
  73              	.LVL4:
  74 002a 0146     		mov	r1, r0
  75              		.loc 1 474 9 view .LVU10
  76 002c 3046     		mov	r0, r6
  77 002e FFF7FEFF 		bl	__aeabi_fadd
  78              	.LVL5:
  79 0032 0646     		mov	r6, r0
  80              	.LVL6:
 475:Core/Src/main.c ****     state[1] = state[0];
  81              		.loc 1 475 5 is_stmt 1 view .LVU11
  82              		.loc 1 475 14 is_stmt 0 view .LVU12
  83 0034 6760     		str	r7, [r4, #4]	@ float
 476:Core/Src/main.c ****     state[0] = in;
  84              		.loc 1 476 5 is_stmt 1 view .LVU13
  85              		.loc 1 476 14 is_stmt 0 view .LVU14
  86 0036 2560     		str	r5, [r4]	@ float
 477:Core/Src/main.c ****     if (out >= PID_MAX)
  87              		.loc 1 477 5 is_stmt 1 view .LVU15
  88              		.loc 1 477 8 is_stmt 0 view .LVU16
  89 0038 0E49     		ldr	r1, .L13+16
  90 003a FFF7FEFF 		bl	__aeabi_fcmpge
  91              	.LVL7:
  92              		.loc 1 477 8 view .LVU17
  93 003e 20B1     		cbz	r0, .L9
 478:Core/Src/main.c ****         state[2] = PID_MAX;
ARM GAS  C:\Users\zhangjd\AppData\Local\Temp\ccW4vp8f.s 			page 11


  94              		.loc 1 478 9 is_stmt 1 view .LVU18
  95              		.loc 1 478 18 is_stmt 0 view .LVU19
  96 0040 0C4A     		ldr	r2, .L13+16
  97 0042 A260     		str	r2, [r4, #8]	@ float
  98              	.L4:
 479:Core/Src/main.c ****     else if (out <= PID_MIN)
 480:Core/Src/main.c ****         state[2] = PID_MIN;
 481:Core/Src/main.c ****     else
 482:Core/Src/main.c ****         state[2] = out;
 483:Core/Src/main.c ****     return (state[2]);
  99              		.loc 1 483 5 is_stmt 1 view .LVU20
 484:Core/Src/main.c **** }
 100              		.loc 1 484 1 is_stmt 0 view .LVU21
 101 0044 084B     		ldr	r3, .L13+4
 102 0046 9868     		ldr	r0, [r3, #8]	@ float
 103 0048 F8BD     		pop	{r3, r4, r5, r6, r7, pc}
 104              	.LVL8:
 105              	.L9:
 479:Core/Src/main.c ****     else if (out <= PID_MIN)
 106              		.loc 1 479 10 is_stmt 1 view .LVU22
 479:Core/Src/main.c ****     else if (out <= PID_MIN)
 107              		.loc 1 479 13 is_stmt 0 view .LVU23
 108 004a 0021     		movs	r1, #0
 109 004c 3046     		mov	r0, r6
 110 004e FFF7FEFF 		bl	__aeabi_fcmple
 111              	.LVL9:
 112 0052 10B9     		cbnz	r0, .L12
 482:Core/Src/main.c ****     return (state[2]);
 113              		.loc 1 482 9 is_stmt 1 view .LVU24
 482:Core/Src/main.c ****     return (state[2]);
 114              		.loc 1 482 18 is_stmt 0 view .LVU25
 115 0054 044B     		ldr	r3, .L13+4
 116 0056 9E60     		str	r6, [r3, #8]	@ float
 117 0058 F4E7     		b	.L4
 118              	.L12:
 480:Core/Src/main.c ****     else
 119              		.loc 1 480 9 is_stmt 1 view .LVU26
 480:Core/Src/main.c ****     else
 120              		.loc 1 480 18 is_stmt 0 view .LVU27
 121 005a 034B     		ldr	r3, .L13+4
 122 005c 0022     		movs	r2, #0
 123 005e 9A60     		str	r2, [r3, #8]	@ float
 124 0060 F0E7     		b	.L4
 125              	.L14:
 126 0062 00BF     		.align	2
 127              	.L13:
 128 0064 00006843 		.word	1130889216
 129 0068 00000000 		.word	.LANCHOR0
 130 006c 00009041 		.word	1099956224
 131 0070 00004842 		.word	1112014848
 132 0074 00803B45 		.word	1161527296
 133              		.cfi_endproc
 134              	.LFE68:
 136              		.section	.text.Abs,"ax",%progbits
 137              		.align	1
 138              		.global	Abs
 139              		.syntax unified
ARM GAS  C:\Users\zhangjd\AppData\Local\Temp\ccW4vp8f.s 			page 12


 140              		.thumb
 141              		.thumb_func
 142              		.fpu softvfp
 144              	Abs:
 145              	.LVL10:
 146              	.LFB69:
 485:Core/Src/main.c **** 
 486:Core/Src/main.c **** short Abs(short in)
 487:Core/Src/main.c **** {
 147              		.loc 1 487 1 is_stmt 1 view -0
 148              		.cfi_startproc
 149              		@ args = 0, pretend = 0, frame = 0
 150              		@ frame_needed = 0, uses_anonymous_args = 0
 151              		@ link register save eliminated.
 488:Core/Src/main.c ****     return in >= 0 ? in : -in;
 152              		.loc 1 488 5 view .LVU29
 153              		.loc 1 488 25 is_stmt 0 view .LVU30
 154 0000 0028     		cmp	r0, #0
 155 0002 B8BF     		it	lt
 156 0004 4042     		rsblt	r0, r0, #0
 157              	.LVL11:
 489:Core/Src/main.c **** }
 158              		.loc 1 489 1 view .LVU31
 159 0006 00B2     		sxth	r0, r0
 160 0008 7047     		bx	lr
 161              		.cfi_endproc
 162              	.LFE69:
 164              		.global	__aeabi_fsub
 165              		.global	__aeabi_fcmpgt
 166              		.global	__aeabi_fcmplt
 167              		.section	.text.qiuyu360,"ax",%progbits
 168              		.align	1
 169              		.global	qiuyu360
 170              		.syntax unified
 171              		.thumb
 172              		.thumb_func
 173              		.fpu softvfp
 175              	qiuyu360:
 176              	.LVL12:
 177              	.LFB70:
 490:Core/Src/main.c **** 
 491:Core/Src/main.c **** float qiuyu360(float in)
 492:Core/Src/main.c **** {
 178              		.loc 1 492 1 is_stmt 1 view -0
 179              		.cfi_startproc
 180              		@ args = 0, pretend = 0, frame = 0
 181              		@ frame_needed = 0, uses_anonymous_args = 0
 182              		.loc 1 492 1 is_stmt 0 view .LVU33
 183 0000 10B5     		push	{r4, lr}
 184              	.LCFI1:
 185              		.cfi_def_cfa_offset 8
 186              		.cfi_offset 4, -8
 187              		.cfi_offset 14, -4
 188 0002 0446     		mov	r4, r0
 493:Core/Src/main.c ****     while (in > 360)
 189              		.loc 1 493 5 is_stmt 1 view .LVU34
 190              		.loc 1 493 11 is_stmt 0 view .LVU35
ARM GAS  C:\Users\zhangjd\AppData\Local\Temp\ccW4vp8f.s 			page 13


 191 0004 04E0     		b	.L17
 192              	.LVL13:
 193              	.L18:
 494:Core/Src/main.c ****         in -= 360.0;
 194              		.loc 1 494 9 is_stmt 1 view .LVU36
 195              		.loc 1 494 12 is_stmt 0 view .LVU37
 196 0006 0C49     		ldr	r1, .L22
 197 0008 2046     		mov	r0, r4
 198 000a FFF7FEFF 		bl	__aeabi_fsub
 199              	.LVL14:
 200 000e 0446     		mov	r4, r0
 201              	.LVL15:
 202              	.L17:
 493:Core/Src/main.c ****     while (in > 360)
 203              		.loc 1 493 11 is_stmt 1 view .LVU38
 204 0010 0949     		ldr	r1, .L22
 205 0012 2046     		mov	r0, r4
 493:Core/Src/main.c ****     while (in > 360)
 206              		.loc 1 493 11 is_stmt 0 view .LVU39
 207 0014 FFF7FEFF 		bl	__aeabi_fcmpgt
 208              	.LVL16:
 493:Core/Src/main.c ****     while (in > 360)
 209              		.loc 1 493 11 view .LVU40
 210 0018 0028     		cmp	r0, #0
 211 001a F4D1     		bne	.L18
 493:Core/Src/main.c ****     while (in > 360)
 212              		.loc 1 493 11 view .LVU41
 213 001c 04E0     		b	.L19
 214              	.L20:
 495:Core/Src/main.c ****     while (in < 0)
 496:Core/Src/main.c ****         in += 360.0;
 215              		.loc 1 496 9 is_stmt 1 view .LVU42
 216              		.loc 1 496 12 is_stmt 0 view .LVU43
 217 001e 0649     		ldr	r1, .L22
 218 0020 2046     		mov	r0, r4
 219 0022 FFF7FEFF 		bl	__aeabi_fadd
 220              	.LVL17:
 221 0026 0446     		mov	r4, r0
 222              	.LVL18:
 223              	.L19:
 495:Core/Src/main.c ****     while (in < 0)
 224              		.loc 1 495 11 is_stmt 1 view .LVU44
 225 0028 0021     		movs	r1, #0
 226 002a 2046     		mov	r0, r4
 227 002c FFF7FEFF 		bl	__aeabi_fcmplt
 228              	.LVL19:
 229 0030 0028     		cmp	r0, #0
 230 0032 F4D1     		bne	.L20
 497:Core/Src/main.c ****     return in;
 231              		.loc 1 497 5 view .LVU45
 498:Core/Src/main.c **** }
 232              		.loc 1 498 1 is_stmt 0 view .LVU46
 233 0034 2046     		mov	r0, r4
 234 0036 10BD     		pop	{r4, pc}
 235              	.LVL20:
 236              	.L23:
 237              		.loc 1 498 1 view .LVU47
ARM GAS  C:\Users\zhangjd\AppData\Local\Temp\ccW4vp8f.s 			page 14


 238              		.align	2
 239              	.L22:
 240 0038 0000B443 		.word	1135869952
 241              		.cfi_endproc
 242              	.LFE70:
 244              		.section	.text.forward,"ax",%progbits
 245              		.align	1
 246              		.global	forward
 247              		.syntax unified
 248              		.thumb
 249              		.thumb_func
 250              		.fpu softvfp
 252              	forward:
 253              	.LVL21:
 254              	.LFB71:
 499:Core/Src/main.c **** 
 500:Core/Src/main.c **** void forward(int pwm)
 501:Core/Src/main.c **** {
 255              		.loc 1 501 1 is_stmt 1 view -0
 256              		.cfi_startproc
 257              		@ args = 0, pretend = 0, frame = 0
 258              		@ frame_needed = 0, uses_anonymous_args = 0
 259              		.loc 1 501 1 is_stmt 0 view .LVU49
 260 0000 38B5     		push	{r3, r4, r5, lr}
 261              	.LCFI2:
 262              		.cfi_def_cfa_offset 16
 263              		.cfi_offset 3, -16
 264              		.cfi_offset 4, -12
 265              		.cfi_offset 5, -8
 266              		.cfi_offset 14, -4
 267 0002 0546     		mov	r5, r0
 502:Core/Src/main.c ****     //change rotate direction of wheel
 503:Core/Src/main.c ****     HAL_GPIO_WritePin(GPIOB, GPIO_PIN_0, GPIO_PIN_SET);
 268              		.loc 1 503 5 is_stmt 1 view .LVU50
 269 0004 1A4C     		ldr	r4, .L26
 270 0006 0122     		movs	r2, #1
 271 0008 1146     		mov	r1, r2
 272 000a 2046     		mov	r0, r4
 273              	.LVL22:
 274              		.loc 1 503 5 is_stmt 0 view .LVU51
 275 000c FFF7FEFF 		bl	HAL_GPIO_WritePin
 276              	.LVL23:
 504:Core/Src/main.c ****     HAL_GPIO_WritePin(GPIOB, GPIO_PIN_1, GPIO_PIN_RESET);
 277              		.loc 1 504 5 is_stmt 1 view .LVU52
 278 0010 0022     		movs	r2, #0
 279 0012 0221     		movs	r1, #2
 280 0014 2046     		mov	r0, r4
 281 0016 FFF7FEFF 		bl	HAL_GPIO_WritePin
 282              	.LVL24:
 505:Core/Src/main.c ****     HAL_GPIO_WritePin(GPIOB, GPIO_PIN_2, GPIO_PIN_RESET);
 283              		.loc 1 505 5 view .LVU53
 284 001a 0022     		movs	r2, #0
 285 001c 0421     		movs	r1, #4
 286 001e 2046     		mov	r0, r4
 287 0020 FFF7FEFF 		bl	HAL_GPIO_WritePin
 288              	.LVL25:
 506:Core/Src/main.c ****     HAL_GPIO_WritePin(GPIOB, GPIO_PIN_10, GPIO_PIN_SET);
ARM GAS  C:\Users\zhangjd\AppData\Local\Temp\ccW4vp8f.s 			page 15


 289              		.loc 1 506 5 view .LVU54
 290 0024 0122     		movs	r2, #1
 291 0026 4FF48061 		mov	r1, #1024
 292 002a 2046     		mov	r0, r4
 293 002c FFF7FEFF 		bl	HAL_GPIO_WritePin
 294              	.LVL26:
 507:Core/Src/main.c ****     HAL_GPIO_WritePin(GPIOB, GPIO_PIN_11, GPIO_PIN_SET);
 295              		.loc 1 507 5 view .LVU55
 296 0030 0122     		movs	r2, #1
 297 0032 4FF40061 		mov	r1, #2048
 298 0036 2046     		mov	r0, r4
 299 0038 FFF7FEFF 		bl	HAL_GPIO_WritePin
 300              	.LVL27:
 508:Core/Src/main.c ****     HAL_GPIO_WritePin(GPIOB, GPIO_PIN_12, GPIO_PIN_RESET);
 301              		.loc 1 508 5 view .LVU56
 302 003c 0022     		movs	r2, #0
 303 003e 4FF48051 		mov	r1, #4096
 304 0042 2046     		mov	r0, r4
 305 0044 FFF7FEFF 		bl	HAL_GPIO_WritePin
 306              	.LVL28:
 509:Core/Src/main.c ****     HAL_GPIO_WritePin(GPIOB, GPIO_PIN_13, GPIO_PIN_RESET);
 307              		.loc 1 509 5 view .LVU57
 308 0048 0022     		movs	r2, #0
 309 004a 4FF40051 		mov	r1, #8192
 310 004e 2046     		mov	r0, r4
 311 0050 FFF7FEFF 		bl	HAL_GPIO_WritePin
 312              	.LVL29:
 510:Core/Src/main.c ****     HAL_GPIO_WritePin(GPIOB, GPIO_PIN_14, GPIO_PIN_SET);
 313              		.loc 1 510 5 view .LVU58
 314 0054 0122     		movs	r2, #1
 315 0056 4FF48041 		mov	r1, #16384
 316 005a 2046     		mov	r0, r4
 317 005c FFF7FEFF 		bl	HAL_GPIO_WritePin
 318              	.LVL30:
 511:Core/Src/main.c ****     //give pwm output
 512:Core/Src/main.c ****     __HAL_TIM_SetCompare(&htim8, TIM_CHANNEL_1, pwm);
 319              		.loc 1 512 5 view .LVU59
 320 0060 044B     		ldr	r3, .L26+4
 321 0062 1B68     		ldr	r3, [r3]
 322 0064 5D63     		str	r5, [r3, #52]
 513:Core/Src/main.c ****     __HAL_TIM_SetCompare(&htim8, TIM_CHANNEL_2, pwm);
 323              		.loc 1 513 5 view .LVU60
 324 0066 9D63     		str	r5, [r3, #56]
 514:Core/Src/main.c ****     __HAL_TIM_SetCompare(&htim8, TIM_CHANNEL_3, pwm);
 325              		.loc 1 514 5 view .LVU61
 326 0068 DD63     		str	r5, [r3, #60]
 515:Core/Src/main.c ****     __HAL_TIM_SetCompare(&htim8, TIM_CHANNEL_4, pwm);
 327              		.loc 1 515 5 view .LVU62
 328 006a 1D64     		str	r5, [r3, #64]
 516:Core/Src/main.c **** }
 329              		.loc 1 516 1 is_stmt 0 view .LVU63
 330 006c 38BD     		pop	{r3, r4, r5, pc}
 331              	.LVL31:
 332              	.L27:
 333              		.loc 1 516 1 view .LVU64
 334 006e 00BF     		.align	2
 335              	.L26:
ARM GAS  C:\Users\zhangjd\AppData\Local\Temp\ccW4vp8f.s 			page 16


 336 0070 000C0140 		.word	1073810432
 337 0074 00000000 		.word	htim8
 338              		.cfi_endproc
 339              	.LFE71:
 341              		.section	.text.backward,"ax",%progbits
 342              		.align	1
 343              		.global	backward
 344              		.syntax unified
 345              		.thumb
 346              		.thumb_func
 347              		.fpu softvfp
 349              	backward:
 350              	.LVL32:
 351              	.LFB72:
 517:Core/Src/main.c **** 
 518:Core/Src/main.c **** void backward(int pwm)
 519:Core/Src/main.c **** {
 352              		.loc 1 519 1 is_stmt 1 view -0
 353              		.cfi_startproc
 354              		@ args = 0, pretend = 0, frame = 0
 355              		@ frame_needed = 0, uses_anonymous_args = 0
 356              		.loc 1 519 1 is_stmt 0 view .LVU66
 357 0000 38B5     		push	{r3, r4, r5, lr}
 358              	.LCFI3:
 359              		.cfi_def_cfa_offset 16
 360              		.cfi_offset 3, -16
 361              		.cfi_offset 4, -12
 362              		.cfi_offset 5, -8
 363              		.cfi_offset 14, -4
 364 0002 0546     		mov	r5, r0
 520:Core/Src/main.c ****     //change rotate direction of wheel
 521:Core/Src/main.c ****     HAL_GPIO_WritePin(GPIOB, GPIO_PIN_0, GPIO_PIN_RESET);
 365              		.loc 1 521 5 is_stmt 1 view .LVU67
 366 0004 1A4C     		ldr	r4, .L30
 367 0006 0022     		movs	r2, #0
 368 0008 0121     		movs	r1, #1
 369 000a 2046     		mov	r0, r4
 370              	.LVL33:
 371              		.loc 1 521 5 is_stmt 0 view .LVU68
 372 000c FFF7FEFF 		bl	HAL_GPIO_WritePin
 373              	.LVL34:
 522:Core/Src/main.c ****     HAL_GPIO_WritePin(GPIOB, GPIO_PIN_1, GPIO_PIN_SET);
 374              		.loc 1 522 5 is_stmt 1 view .LVU69
 375 0010 0122     		movs	r2, #1
 376 0012 0221     		movs	r1, #2
 377 0014 2046     		mov	r0, r4
 378 0016 FFF7FEFF 		bl	HAL_GPIO_WritePin
 379              	.LVL35:
 523:Core/Src/main.c ****     HAL_GPIO_WritePin(GPIOB, GPIO_PIN_2, GPIO_PIN_SET);
 380              		.loc 1 523 5 view .LVU70
 381 001a 0122     		movs	r2, #1
 382 001c 0421     		movs	r1, #4
 383 001e 2046     		mov	r0, r4
 384 0020 FFF7FEFF 		bl	HAL_GPIO_WritePin
 385              	.LVL36:
 524:Core/Src/main.c ****     HAL_GPIO_WritePin(GPIOB, GPIO_PIN_10, GPIO_PIN_RESET);
 386              		.loc 1 524 5 view .LVU71
ARM GAS  C:\Users\zhangjd\AppData\Local\Temp\ccW4vp8f.s 			page 17


 387 0024 0022     		movs	r2, #0
 388 0026 4FF48061 		mov	r1, #1024
 389 002a 2046     		mov	r0, r4
 390 002c FFF7FEFF 		bl	HAL_GPIO_WritePin
 391              	.LVL37:
 525:Core/Src/main.c ****     HAL_GPIO_WritePin(GPIOB, GPIO_PIN_11, GPIO_PIN_RESET);
 392              		.loc 1 525 5 view .LVU72
 393 0030 0022     		movs	r2, #0
 394 0032 4FF40061 		mov	r1, #2048
 395 0036 2046     		mov	r0, r4
 396 0038 FFF7FEFF 		bl	HAL_GPIO_WritePin
 397              	.LVL38:
 526:Core/Src/main.c ****     HAL_GPIO_WritePin(GPIOB, GPIO_PIN_12, GPIO_PIN_SET);
 398              		.loc 1 526 5 view .LVU73
 399 003c 0122     		movs	r2, #1
 400 003e 4FF48051 		mov	r1, #4096
 401 0042 2046     		mov	r0, r4
 402 0044 FFF7FEFF 		bl	HAL_GPIO_WritePin
 403              	.LVL39:
 527:Core/Src/main.c ****     HAL_GPIO_WritePin(GPIOB, GPIO_PIN_13, GPIO_PIN_SET);
 404              		.loc 1 527 5 view .LVU74
 405 0048 0122     		movs	r2, #1
 406 004a 4FF40051 		mov	r1, #8192
 407 004e 2046     		mov	r0, r4
 408 0050 FFF7FEFF 		bl	HAL_GPIO_WritePin
 409              	.LVL40:
 528:Core/Src/main.c ****     HAL_GPIO_WritePin(GPIOB, GPIO_PIN_14, GPIO_PIN_RESET);
 410              		.loc 1 528 5 view .LVU75
 411 0054 0022     		movs	r2, #0
 412 0056 4FF48041 		mov	r1, #16384
 413 005a 2046     		mov	r0, r4
 414 005c FFF7FEFF 		bl	HAL_GPIO_WritePin
 415              	.LVL41:
 529:Core/Src/main.c ****     //give pwm output
 530:Core/Src/main.c ****     __HAL_TIM_SetCompare(&htim8, TIM_CHANNEL_1, pwm);
 416              		.loc 1 530 5 view .LVU76
 417 0060 044B     		ldr	r3, .L30+4
 418 0062 1B68     		ldr	r3, [r3]
 419 0064 5D63     		str	r5, [r3, #52]
 531:Core/Src/main.c ****     __HAL_TIM_SetCompare(&htim8, TIM_CHANNEL_2, pwm);
 420              		.loc 1 531 5 view .LVU77
 421 0066 9D63     		str	r5, [r3, #56]
 532:Core/Src/main.c ****     __HAL_TIM_SetCompare(&htim8, TIM_CHANNEL_3, pwm);
 422              		.loc 1 532 5 view .LVU78
 423 0068 DD63     		str	r5, [r3, #60]
 533:Core/Src/main.c ****     __HAL_TIM_SetCompare(&htim8, TIM_CHANNEL_4, pwm);
 424              		.loc 1 533 5 view .LVU79
 425 006a 1D64     		str	r5, [r3, #64]
 534:Core/Src/main.c **** }
 426              		.loc 1 534 1 is_stmt 0 view .LVU80
 427 006c 38BD     		pop	{r3, r4, r5, pc}
 428              	.LVL42:
 429              	.L31:
 430              		.loc 1 534 1 view .LVU81
 431 006e 00BF     		.align	2
 432              	.L30:
 433 0070 000C0140 		.word	1073810432
ARM GAS  C:\Users\zhangjd\AppData\Local\Temp\ccW4vp8f.s 			page 18


 434 0074 00000000 		.word	htim8
 435              		.cfi_endproc
 436              	.LFE72:
 438              		.section	.text.rotate_counterclockwise,"ax",%progbits
 439              		.align	1
 440              		.global	rotate_counterclockwise
 441              		.syntax unified
 442              		.thumb
 443              		.thumb_func
 444              		.fpu softvfp
 446              	rotate_counterclockwise:
 447              	.LVL43:
 448              	.LFB73:
 535:Core/Src/main.c **** 
 536:Core/Src/main.c **** void rotate_counterclockwise(int pwm)
 537:Core/Src/main.c **** {
 449              		.loc 1 537 1 is_stmt 1 view -0
 450              		.cfi_startproc
 451              		@ args = 0, pretend = 0, frame = 0
 452              		@ frame_needed = 0, uses_anonymous_args = 0
 453              		.loc 1 537 1 is_stmt 0 view .LVU83
 454 0000 38B5     		push	{r3, r4, r5, lr}
 455              	.LCFI4:
 456              		.cfi_def_cfa_offset 16
 457              		.cfi_offset 3, -16
 458              		.cfi_offset 4, -12
 459              		.cfi_offset 5, -8
 460              		.cfi_offset 14, -4
 461 0002 0546     		mov	r5, r0
 538:Core/Src/main.c ****     //change rotate direction of wheel
 539:Core/Src/main.c ****     HAL_GPIO_WritePin(GPIOB, GPIO_PIN_0, GPIO_PIN_SET);
 462              		.loc 1 539 5 is_stmt 1 view .LVU84
 463 0004 1A4C     		ldr	r4, .L34
 464 0006 0122     		movs	r2, #1
 465 0008 1146     		mov	r1, r2
 466 000a 2046     		mov	r0, r4
 467              	.LVL44:
 468              		.loc 1 539 5 is_stmt 0 view .LVU85
 469 000c FFF7FEFF 		bl	HAL_GPIO_WritePin
 470              	.LVL45:
 540:Core/Src/main.c ****     HAL_GPIO_WritePin(GPIOB, GPIO_PIN_1, GPIO_PIN_RESET);
 471              		.loc 1 540 5 is_stmt 1 view .LVU86
 472 0010 0022     		movs	r2, #0
 473 0012 0221     		movs	r1, #2
 474 0014 2046     		mov	r0, r4
 475 0016 FFF7FEFF 		bl	HAL_GPIO_WritePin
 476              	.LVL46:
 541:Core/Src/main.c ****     HAL_GPIO_WritePin(GPIOB, GPIO_PIN_2, GPIO_PIN_RESET);
 477              		.loc 1 541 5 view .LVU87
 478 001a 0022     		movs	r2, #0
 479 001c 0421     		movs	r1, #4
 480 001e 2046     		mov	r0, r4
 481 0020 FFF7FEFF 		bl	HAL_GPIO_WritePin
 482              	.LVL47:
 542:Core/Src/main.c ****     HAL_GPIO_WritePin(GPIOB, GPIO_PIN_10, GPIO_PIN_SET);
 483              		.loc 1 542 5 view .LVU88
 484 0024 0122     		movs	r2, #1
ARM GAS  C:\Users\zhangjd\AppData\Local\Temp\ccW4vp8f.s 			page 19


 485 0026 4FF48061 		mov	r1, #1024
 486 002a 2046     		mov	r0, r4
 487 002c FFF7FEFF 		bl	HAL_GPIO_WritePin
 488              	.LVL48:
 543:Core/Src/main.c ****     HAL_GPIO_WritePin(GPIOB, GPIO_PIN_11, GPIO_PIN_RESET);
 489              		.loc 1 543 5 view .LVU89
 490 0030 0022     		movs	r2, #0
 491 0032 4FF40061 		mov	r1, #2048
 492 0036 2046     		mov	r0, r4
 493 0038 FFF7FEFF 		bl	HAL_GPIO_WritePin
 494              	.LVL49:
 544:Core/Src/main.c ****     HAL_GPIO_WritePin(GPIOB, GPIO_PIN_12, GPIO_PIN_SET);
 495              		.loc 1 544 5 view .LVU90
 496 003c 0122     		movs	r2, #1
 497 003e 4FF48051 		mov	r1, #4096
 498 0042 2046     		mov	r0, r4
 499 0044 FFF7FEFF 		bl	HAL_GPIO_WritePin
 500              	.LVL50:
 545:Core/Src/main.c ****     HAL_GPIO_WritePin(GPIOB, GPIO_PIN_13, GPIO_PIN_SET);
 501              		.loc 1 545 5 view .LVU91
 502 0048 0122     		movs	r2, #1
 503 004a 4FF40051 		mov	r1, #8192
 504 004e 2046     		mov	r0, r4
 505 0050 FFF7FEFF 		bl	HAL_GPIO_WritePin
 506              	.LVL51:
 546:Core/Src/main.c ****     HAL_GPIO_WritePin(GPIOB, GPIO_PIN_14, GPIO_PIN_RESET);
 507              		.loc 1 546 5 view .LVU92
 508 0054 0022     		movs	r2, #0
 509 0056 4FF48041 		mov	r1, #16384
 510 005a 2046     		mov	r0, r4
 511 005c FFF7FEFF 		bl	HAL_GPIO_WritePin
 512              	.LVL52:
 547:Core/Src/main.c ****     //give pwm output
 548:Core/Src/main.c ****     __HAL_TIM_SetCompare(&htim8, TIM_CHANNEL_1, pwm);
 513              		.loc 1 548 5 view .LVU93
 514 0060 044B     		ldr	r3, .L34+4
 515 0062 1B68     		ldr	r3, [r3]
 516 0064 5D63     		str	r5, [r3, #52]
 549:Core/Src/main.c ****     __HAL_TIM_SetCompare(&htim8, TIM_CHANNEL_2, pwm);
 517              		.loc 1 549 5 view .LVU94
 518 0066 9D63     		str	r5, [r3, #56]
 550:Core/Src/main.c ****     __HAL_TIM_SetCompare(&htim8, TIM_CHANNEL_3, pwm);
 519              		.loc 1 550 5 view .LVU95
 520 0068 DD63     		str	r5, [r3, #60]
 551:Core/Src/main.c ****     __HAL_TIM_SetCompare(&htim8, TIM_CHANNEL_4, pwm);
 521              		.loc 1 551 5 view .LVU96
 522 006a 1D64     		str	r5, [r3, #64]
 552:Core/Src/main.c **** }
 523              		.loc 1 552 1 is_stmt 0 view .LVU97
 524 006c 38BD     		pop	{r3, r4, r5, pc}
 525              	.LVL53:
 526              	.L35:
 527              		.loc 1 552 1 view .LVU98
 528 006e 00BF     		.align	2
 529              	.L34:
 530 0070 000C0140 		.word	1073810432
 531 0074 00000000 		.word	htim8
ARM GAS  C:\Users\zhangjd\AppData\Local\Temp\ccW4vp8f.s 			page 20


 532              		.cfi_endproc
 533              	.LFE73:
 535              		.section	.text.rotate_clockwise,"ax",%progbits
 536              		.align	1
 537              		.global	rotate_clockwise
 538              		.syntax unified
 539              		.thumb
 540              		.thumb_func
 541              		.fpu softvfp
 543              	rotate_clockwise:
 544              	.LVL54:
 545              	.LFB74:
 553:Core/Src/main.c **** 
 554:Core/Src/main.c **** void rotate_clockwise(int pwm)
 555:Core/Src/main.c **** {
 546              		.loc 1 555 1 is_stmt 1 view -0
 547              		.cfi_startproc
 548              		@ args = 0, pretend = 0, frame = 0
 549              		@ frame_needed = 0, uses_anonymous_args = 0
 550              		.loc 1 555 1 is_stmt 0 view .LVU100
 551 0000 38B5     		push	{r3, r4, r5, lr}
 552              	.LCFI5:
 553              		.cfi_def_cfa_offset 16
 554              		.cfi_offset 3, -16
 555              		.cfi_offset 4, -12
 556              		.cfi_offset 5, -8
 557              		.cfi_offset 14, -4
 558 0002 0546     		mov	r5, r0
 556:Core/Src/main.c ****     //change rotate direction of wheel
 557:Core/Src/main.c ****     HAL_GPIO_WritePin(GPIOB, GPIO_PIN_0, GPIO_PIN_RESET);
 559              		.loc 1 557 5 is_stmt 1 view .LVU101
 560 0004 1A4C     		ldr	r4, .L38
 561 0006 0022     		movs	r2, #0
 562 0008 0121     		movs	r1, #1
 563 000a 2046     		mov	r0, r4
 564              	.LVL55:
 565              		.loc 1 557 5 is_stmt 0 view .LVU102
 566 000c FFF7FEFF 		bl	HAL_GPIO_WritePin
 567              	.LVL56:
 558:Core/Src/main.c ****     HAL_GPIO_WritePin(GPIOB, GPIO_PIN_1, GPIO_PIN_SET);
 568              		.loc 1 558 5 is_stmt 1 view .LVU103
 569 0010 0122     		movs	r2, #1
 570 0012 0221     		movs	r1, #2
 571 0014 2046     		mov	r0, r4
 572 0016 FFF7FEFF 		bl	HAL_GPIO_WritePin
 573              	.LVL57:
 559:Core/Src/main.c ****     HAL_GPIO_WritePin(GPIOB, GPIO_PIN_2, GPIO_PIN_SET);
 574              		.loc 1 559 5 view .LVU104
 575 001a 0122     		movs	r2, #1
 576 001c 0421     		movs	r1, #4
 577 001e 2046     		mov	r0, r4
 578 0020 FFF7FEFF 		bl	HAL_GPIO_WritePin
 579              	.LVL58:
 560:Core/Src/main.c ****     HAL_GPIO_WritePin(GPIOB, GPIO_PIN_10, GPIO_PIN_RESET);
 580              		.loc 1 560 5 view .LVU105
 581 0024 0022     		movs	r2, #0
 582 0026 4FF48061 		mov	r1, #1024
ARM GAS  C:\Users\zhangjd\AppData\Local\Temp\ccW4vp8f.s 			page 21


 583 002a 2046     		mov	r0, r4
 584 002c FFF7FEFF 		bl	HAL_GPIO_WritePin
 585              	.LVL59:
 561:Core/Src/main.c ****     HAL_GPIO_WritePin(GPIOB, GPIO_PIN_11, GPIO_PIN_SET);
 586              		.loc 1 561 5 view .LVU106
 587 0030 0122     		movs	r2, #1
 588 0032 4FF40061 		mov	r1, #2048
 589 0036 2046     		mov	r0, r4
 590 0038 FFF7FEFF 		bl	HAL_GPIO_WritePin
 591              	.LVL60:
 562:Core/Src/main.c ****     HAL_GPIO_WritePin(GPIOB, GPIO_PIN_12, GPIO_PIN_RESET);
 592              		.loc 1 562 5 view .LVU107
 593 003c 0022     		movs	r2, #0
 594 003e 4FF48051 		mov	r1, #4096
 595 0042 2046     		mov	r0, r4
 596 0044 FFF7FEFF 		bl	HAL_GPIO_WritePin
 597              	.LVL61:
 563:Core/Src/main.c ****     HAL_GPIO_WritePin(GPIOB, GPIO_PIN_13, GPIO_PIN_RESET);
 598              		.loc 1 563 5 view .LVU108
 599 0048 0022     		movs	r2, #0
 600 004a 4FF40051 		mov	r1, #8192
 601 004e 2046     		mov	r0, r4
 602 0050 FFF7FEFF 		bl	HAL_GPIO_WritePin
 603              	.LVL62:
 564:Core/Src/main.c ****     HAL_GPIO_WritePin(GPIOB, GPIO_PIN_14, GPIO_PIN_SET);
 604              		.loc 1 564 5 view .LVU109
 605 0054 0122     		movs	r2, #1
 606 0056 4FF48041 		mov	r1, #16384
 607 005a 2046     		mov	r0, r4
 608 005c FFF7FEFF 		bl	HAL_GPIO_WritePin
 609              	.LVL63:
 565:Core/Src/main.c ****     //give pwm output
 566:Core/Src/main.c ****     __HAL_TIM_SetCompare(&htim8, TIM_CHANNEL_1, pwm);
 610              		.loc 1 566 5 view .LVU110
 611 0060 044B     		ldr	r3, .L38+4
 612 0062 1B68     		ldr	r3, [r3]
 613 0064 5D63     		str	r5, [r3, #52]
 567:Core/Src/main.c ****     __HAL_TIM_SetCompare(&htim8, TIM_CHANNEL_2, pwm);
 614              		.loc 1 567 5 view .LVU111
 615 0066 9D63     		str	r5, [r3, #56]
 568:Core/Src/main.c ****     __HAL_TIM_SetCompare(&htim8, TIM_CHANNEL_3, pwm);
 616              		.loc 1 568 5 view .LVU112
 617 0068 DD63     		str	r5, [r3, #60]
 569:Core/Src/main.c ****     __HAL_TIM_SetCompare(&htim8, TIM_CHANNEL_4, pwm);
 618              		.loc 1 569 5 view .LVU113
 619 006a 1D64     		str	r5, [r3, #64]
 570:Core/Src/main.c **** }
 620              		.loc 1 570 1 is_stmt 0 view .LVU114
 621 006c 38BD     		pop	{r3, r4, r5, pc}
 622              	.LVL64:
 623              	.L39:
 624              		.loc 1 570 1 view .LVU115
 625 006e 00BF     		.align	2
 626              	.L38:
 627 0070 000C0140 		.word	1073810432
 628 0074 00000000 		.word	htim8
 629              		.cfi_endproc
ARM GAS  C:\Users\zhangjd\AppData\Local\Temp\ccW4vp8f.s 			page 22


 630              	.LFE74:
 632              		.section	.text.rotate_clockwise_plus_forward,"ax",%progbits
 633              		.align	1
 634              		.global	rotate_clockwise_plus_forward
 635              		.syntax unified
 636              		.thumb
 637              		.thumb_func
 638              		.fpu softvfp
 640              	rotate_clockwise_plus_forward:
 641              	.LVL65:
 642              	.LFB75:
 571:Core/Src/main.c **** 
 572:Core/Src/main.c **** void rotate_clockwise_plus_forward(int pwm)
 573:Core/Src/main.c **** {
 643              		.loc 1 573 1 is_stmt 1 view -0
 644              		.cfi_startproc
 645              		@ args = 0, pretend = 0, frame = 0
 646              		@ frame_needed = 0, uses_anonymous_args = 0
 647              		.loc 1 573 1 is_stmt 0 view .LVU117
 648 0000 38B5     		push	{r3, r4, r5, lr}
 649              	.LCFI6:
 650              		.cfi_def_cfa_offset 16
 651              		.cfi_offset 3, -16
 652              		.cfi_offset 4, -12
 653              		.cfi_offset 5, -8
 654              		.cfi_offset 14, -4
 655 0002 0546     		mov	r5, r0
 574:Core/Src/main.c ****     //change rotate direction of wheel
 575:Core/Src/main.c ****     HAL_GPIO_WritePin(GPIOB, GPIO_PIN_0, GPIO_PIN_RESET);
 656              		.loc 1 575 5 is_stmt 1 view .LVU118
 657 0004 1A4C     		ldr	r4, .L42
 658 0006 0022     		movs	r2, #0
 659 0008 0121     		movs	r1, #1
 660 000a 2046     		mov	r0, r4
 661              	.LVL66:
 662              		.loc 1 575 5 is_stmt 0 view .LVU119
 663 000c FFF7FEFF 		bl	HAL_GPIO_WritePin
 664              	.LVL67:
 576:Core/Src/main.c ****     HAL_GPIO_WritePin(GPIOB, GPIO_PIN_1, GPIO_PIN_SET);
 665              		.loc 1 576 5 is_stmt 1 view .LVU120
 666 0010 0122     		movs	r2, #1
 667 0012 0221     		movs	r1, #2
 668 0014 2046     		mov	r0, r4
 669 0016 FFF7FEFF 		bl	HAL_GPIO_WritePin
 670              	.LVL68:
 577:Core/Src/main.c ****     HAL_GPIO_WritePin(GPIOB, GPIO_PIN_2, GPIO_PIN_SET);
 671              		.loc 1 577 5 view .LVU121
 672 001a 0122     		movs	r2, #1
 673 001c 0421     		movs	r1, #4
 674 001e 2046     		mov	r0, r4
 675 0020 FFF7FEFF 		bl	HAL_GPIO_WritePin
 676              	.LVL69:
 578:Core/Src/main.c ****     HAL_GPIO_WritePin(GPIOB, GPIO_PIN_10, GPIO_PIN_RESET);
 677              		.loc 1 578 5 view .LVU122
 678 0024 0022     		movs	r2, #0
 679 0026 4FF48061 		mov	r1, #1024
 680 002a 2046     		mov	r0, r4
ARM GAS  C:\Users\zhangjd\AppData\Local\Temp\ccW4vp8f.s 			page 23


 681 002c FFF7FEFF 		bl	HAL_GPIO_WritePin
 682              	.LVL70:
 579:Core/Src/main.c ****     HAL_GPIO_WritePin(GPIOB, GPIO_PIN_11, GPIO_PIN_RESET);
 683              		.loc 1 579 5 view .LVU123
 684 0030 0022     		movs	r2, #0
 685 0032 4FF40061 		mov	r1, #2048
 686 0036 2046     		mov	r0, r4
 687 0038 FFF7FEFF 		bl	HAL_GPIO_WritePin
 688              	.LVL71:
 580:Core/Src/main.c ****     HAL_GPIO_WritePin(GPIOB, GPIO_PIN_12, GPIO_PIN_SET);
 689              		.loc 1 580 5 view .LVU124
 690 003c 0122     		movs	r2, #1
 691 003e 4FF48051 		mov	r1, #4096
 692 0042 2046     		mov	r0, r4
 693 0044 FFF7FEFF 		bl	HAL_GPIO_WritePin
 694              	.LVL72:
 581:Core/Src/main.c ****     HAL_GPIO_WritePin(GPIOB, GPIO_PIN_13, GPIO_PIN_SET);
 695              		.loc 1 581 5 view .LVU125
 696 0048 0122     		movs	r2, #1
 697 004a 4FF40051 		mov	r1, #8192
 698 004e 2046     		mov	r0, r4
 699 0050 FFF7FEFF 		bl	HAL_GPIO_WritePin
 700              	.LVL73:
 582:Core/Src/main.c ****     HAL_GPIO_WritePin(GPIOB, GPIO_PIN_14, GPIO_PIN_RESET);
 701              		.loc 1 582 5 view .LVU126
 702 0054 0022     		movs	r2, #0
 703 0056 4FF48041 		mov	r1, #16384
 704 005a 2046     		mov	r0, r4
 705 005c FFF7FEFF 		bl	HAL_GPIO_WritePin
 706              	.LVL74:
 583:Core/Src/main.c ****     //give pwm output
 584:Core/Src/main.c ****     __HAL_TIM_SetCompare(&htim8, TIM_CHANNEL_1, pwm);
 707              		.loc 1 584 5 view .LVU127
 708 0060 044B     		ldr	r3, .L42+4
 709 0062 1B68     		ldr	r3, [r3]
 710 0064 5D63     		str	r5, [r3, #52]
 585:Core/Src/main.c ****     __HAL_TIM_SetCompare(&htim8, TIM_CHANNEL_2, pwm);
 711              		.loc 1 585 5 view .LVU128
 712 0066 9D63     		str	r5, [r3, #56]
 586:Core/Src/main.c ****     __HAL_TIM_SetCompare(&htim8, TIM_CHANNEL_3, 0);
 713              		.loc 1 586 5 view .LVU129
 714 0068 0022     		movs	r2, #0
 715 006a DA63     		str	r2, [r3, #60]
 587:Core/Src/main.c ****     __HAL_TIM_SetCompare(&htim8, TIM_CHANNEL_4, 0);
 716              		.loc 1 587 5 view .LVU130
 717 006c 1A64     		str	r2, [r3, #64]
 588:Core/Src/main.c **** }
 718              		.loc 1 588 1 is_stmt 0 view .LVU131
 719 006e 38BD     		pop	{r3, r4, r5, pc}
 720              	.LVL75:
 721              	.L43:
 722              		.loc 1 588 1 view .LVU132
 723              		.align	2
 724              	.L42:
 725 0070 000C0140 		.word	1073810432
 726 0074 00000000 		.word	htim8
 727              		.cfi_endproc
ARM GAS  C:\Users\zhangjd\AppData\Local\Temp\ccW4vp8f.s 			page 24


 728              	.LFE75:
 730              		.section	.text.brake,"ax",%progbits
 731              		.align	1
 732              		.global	brake
 733              		.syntax unified
 734              		.thumb
 735              		.thumb_func
 736              		.fpu softvfp
 738              	brake:
 739              	.LFB76:
 589:Core/Src/main.c **** void brake()
 590:Core/Src/main.c **** {
 740              		.loc 1 590 1 is_stmt 1 view -0
 741              		.cfi_startproc
 742              		@ args = 0, pretend = 0, frame = 0
 743              		@ frame_needed = 0, uses_anonymous_args = 0
 744 0000 10B5     		push	{r4, lr}
 745              	.LCFI7:
 746              		.cfi_def_cfa_offset 8
 747              		.cfi_offset 4, -8
 748              		.cfi_offset 14, -4
 591:Core/Src/main.c ****     //change rotate direction of wheel
 592:Core/Src/main.c ****     HAL_GPIO_WritePin(GPIOB, GPIO_PIN_0, GPIO_PIN_SET);
 749              		.loc 1 592 5 view .LVU134
 750 0002 1B4C     		ldr	r4, .L46
 751 0004 0122     		movs	r2, #1
 752 0006 1146     		mov	r1, r2
 753 0008 2046     		mov	r0, r4
 754 000a FFF7FEFF 		bl	HAL_GPIO_WritePin
 755              	.LVL76:
 593:Core/Src/main.c ****     HAL_GPIO_WritePin(GPIOB, GPIO_PIN_1, GPIO_PIN_SET);
 756              		.loc 1 593 5 view .LVU135
 757 000e 0122     		movs	r2, #1
 758 0010 0221     		movs	r1, #2
 759 0012 2046     		mov	r0, r4
 760 0014 FFF7FEFF 		bl	HAL_GPIO_WritePin
 761              	.LVL77:
 594:Core/Src/main.c ****     HAL_GPIO_WritePin(GPIOB, GPIO_PIN_2, GPIO_PIN_SET);
 762              		.loc 1 594 5 view .LVU136
 763 0018 0122     		movs	r2, #1
 764 001a 0421     		movs	r1, #4
 765 001c 2046     		mov	r0, r4
 766 001e FFF7FEFF 		bl	HAL_GPIO_WritePin
 767              	.LVL78:
 595:Core/Src/main.c ****     HAL_GPIO_WritePin(GPIOB, GPIO_PIN_10, GPIO_PIN_SET);
 768              		.loc 1 595 5 view .LVU137
 769 0022 0122     		movs	r2, #1
 770 0024 4FF48061 		mov	r1, #1024
 771 0028 2046     		mov	r0, r4
 772 002a FFF7FEFF 		bl	HAL_GPIO_WritePin
 773              	.LVL79:
 596:Core/Src/main.c ****     HAL_GPIO_WritePin(GPIOB, GPIO_PIN_11, GPIO_PIN_SET);
 774              		.loc 1 596 5 view .LVU138
 775 002e 0122     		movs	r2, #1
 776 0030 4FF40061 		mov	r1, #2048
 777 0034 2046     		mov	r0, r4
 778 0036 FFF7FEFF 		bl	HAL_GPIO_WritePin
ARM GAS  C:\Users\zhangjd\AppData\Local\Temp\ccW4vp8f.s 			page 25


 779              	.LVL80:
 597:Core/Src/main.c ****     HAL_GPIO_WritePin(GPIOB, GPIO_PIN_12, GPIO_PIN_SET);
 780              		.loc 1 597 5 view .LVU139
 781 003a 0122     		movs	r2, #1
 782 003c 4FF48051 		mov	r1, #4096
 783 0040 2046     		mov	r0, r4
 784 0042 FFF7FEFF 		bl	HAL_GPIO_WritePin
 785              	.LVL81:
 598:Core/Src/main.c ****     HAL_GPIO_WritePin(GPIOB, GPIO_PIN_13, GPIO_PIN_SET);
 786              		.loc 1 598 5 view .LVU140
 787 0046 0122     		movs	r2, #1
 788 0048 4FF40051 		mov	r1, #8192
 789 004c 2046     		mov	r0, r4
 790 004e FFF7FEFF 		bl	HAL_GPIO_WritePin
 791              	.LVL82:
 599:Core/Src/main.c ****     HAL_GPIO_WritePin(GPIOB, GPIO_PIN_14, GPIO_PIN_SET);
 792              		.loc 1 599 5 view .LVU141
 793 0052 0122     		movs	r2, #1
 794 0054 4FF48041 		mov	r1, #16384
 795 0058 2046     		mov	r0, r4
 796 005a FFF7FEFF 		bl	HAL_GPIO_WritePin
 797              	.LVL83:
 600:Core/Src/main.c ****     //give pwm output
 601:Core/Src/main.c ****     __HAL_TIM_SetCompare(&htim8, TIM_CHANNEL_1, 0);
 798              		.loc 1 601 5 view .LVU142
 799 005e 054B     		ldr	r3, .L46+4
 800 0060 1B68     		ldr	r3, [r3]
 801 0062 0022     		movs	r2, #0
 802 0064 5A63     		str	r2, [r3, #52]
 602:Core/Src/main.c ****     __HAL_TIM_SetCompare(&htim8, TIM_CHANNEL_2, 0);
 803              		.loc 1 602 5 view .LVU143
 804 0066 9A63     		str	r2, [r3, #56]
 603:Core/Src/main.c ****     __HAL_TIM_SetCompare(&htim8, TIM_CHANNEL_3, 0);
 805              		.loc 1 603 5 view .LVU144
 806 0068 DA63     		str	r2, [r3, #60]
 604:Core/Src/main.c ****     __HAL_TIM_SetCompare(&htim8, TIM_CHANNEL_4, 0);
 807              		.loc 1 604 5 view .LVU145
 808 006a 1A64     		str	r2, [r3, #64]
 605:Core/Src/main.c **** }
 809              		.loc 1 605 1 is_stmt 0 view .LVU146
 810 006c 10BD     		pop	{r4, pc}
 811              	.L47:
 812 006e 00BF     		.align	2
 813              	.L46:
 814 0070 000C0140 		.word	1073810432
 815 0074 00000000 		.word	htim8
 816              		.cfi_endproc
 817              	.LFE76:
 819              		.global	__aeabi_dcmpgt
 820              		.section	.text.fabs,"ax",%progbits
 821              		.align	1
 822              		.global	fabs
 823              		.syntax unified
 824              		.thumb
 825              		.thumb_func
 826              		.fpu softvfp
 828              	fabs:
ARM GAS  C:\Users\zhangjd\AppData\Local\Temp\ccW4vp8f.s 			page 26


 829              	.LVL84:
 830              	.LFB77:
 606:Core/Src/main.c **** double fabs(double x)
 607:Core/Src/main.c **** {
 831              		.loc 1 607 1 is_stmt 1 view -0
 832              		.cfi_startproc
 833              		@ args = 0, pretend = 0, frame = 0
 834              		@ frame_needed = 0, uses_anonymous_args = 0
 835              		.loc 1 607 1 is_stmt 0 view .LVU148
 836 0000 38B5     		push	{r3, r4, r5, lr}
 837              	.LCFI8:
 838              		.cfi_def_cfa_offset 16
 839              		.cfi_offset 3, -16
 840              		.cfi_offset 4, -12
 841              		.cfi_offset 5, -8
 842              		.cfi_offset 14, -4
 843 0002 0546     		mov	r5, r0
 844 0004 0C46     		mov	r4, r1
 608:Core/Src/main.c ****     //ÂèåÁ≤æÂ∫¶ÊµÆÁÇπÊï∞Ê±ÇÁªùÂØπÔøΩ?ÔøΩÂáΩÔøΩ??
 609:Core/Src/main.c ****     return (x > 0) ? x : (-x);
 845              		.loc 1 609 5 is_stmt 1 view .LVU149
 846              		.loc 1 609 24 is_stmt 0 view .LVU150
 847 0006 0022     		movs	r2, #0
 848 0008 0023     		movs	r3, #0
 849 000a 2846     		mov	r0, r5
 850              	.LVL85:
 851              		.loc 1 609 24 view .LVU151
 852 000c 2146     		mov	r1, r4
 853 000e FFF7FEFF 		bl	__aeabi_dcmpgt
 854              	.LVL86:
 855 0012 10B1     		cbz	r0, .L51
 856              	.L49:
 610:Core/Src/main.c **** }
 857              		.loc 1 610 1 discriminator 4 view .LVU152
 858 0014 2846     		mov	r0, r5
 859 0016 2146     		mov	r1, r4
 860 0018 38BD     		pop	{r3, r4, r5, pc}
 861              	.L51:
 609:Core/Src/main.c **** }
 862              		.loc 1 609 24 discriminator 2 view .LVU153
 863 001a 04F10044 		add	r4, r4, #-2147483648
 864 001e F9E7     		b	.L49
 865              		.cfi_endproc
 866              	.LFE77:
 868              		.global	__aeabi_dcmpeq
 869              		.global	__aeabi_dsub
 870              		.global	__aeabi_dcmplt
 871              		.global	__aeabi_dmul
 872              		.global	__aeabi_ddiv
 873              		.global	__aeabi_d2iz
 874              		.global	__aeabi_dadd
 875              		.section	.text.atan2LUTif,"ax",%progbits
 876              		.align	1
 877              		.global	atan2LUTif
 878              		.syntax unified
 879              		.thumb
 880              		.thumb_func
ARM GAS  C:\Users\zhangjd\AppData\Local\Temp\ccW4vp8f.s 			page 27


 881              		.fpu softvfp
 883              	atan2LUTif:
 884              	.LVL87:
 885              	.LFB78:
 611:Core/Src/main.c **** double atan2LUTif(double y, double x)
 612:Core/Src/main.c **** {
 886              		.loc 1 612 1 is_stmt 1 view -0
 887              		.cfi_startproc
 888              		@ args = 0, pretend = 0, frame = 0
 889              		@ frame_needed = 0, uses_anonymous_args = 0
 890              		.loc 1 612 1 is_stmt 0 view .LVU155
 891 0000 2DE9F843 		push	{r3, r4, r5, r6, r7, r8, r9, lr}
 892              	.LCFI9:
 893              		.cfi_def_cfa_offset 32
 894              		.cfi_offset 3, -32
 895              		.cfi_offset 4, -28
 896              		.cfi_offset 5, -24
 897              		.cfi_offset 6, -20
 898              		.cfi_offset 7, -16
 899              		.cfi_offset 8, -12
 900              		.cfi_offset 9, -8
 901              		.cfi_offset 14, -4
 902 0004 0446     		mov	r4, r0
 903 0006 0F46     		mov	r7, r1
 904 0008 1546     		mov	r5, r2
 905 000a 1E46     		mov	r6, r3
 613:Core/Src/main.c ****     //ÂèçÊ≠£ÂàáÂáΩÊï∞ÂÆûÔøΩ??.ËØØÂ∑Æ‰∏çÂ§ßÔøΩ??0.5¬∞.ÂÖ•Âè£ÂèÇÊï∞Ôºö‰∏§ÁÇπÈó¥y„ÄÅxÂùêÊ†áÁöÑÂ∑ÆÔøΩ??
 614:Core/Src/main.c ****     double absx, absy, val;
 906              		.loc 1 614 5 is_stmt 1 view .LVU156
 615:Core/Src/main.c ****     if (x == 0 && y == 0)
 907              		.loc 1 615 5 view .LVU157
 908              		.loc 1 615 8 is_stmt 0 view .LVU158
 909 000c 0022     		movs	r2, #0
 910              	.LVL88:
 911              		.loc 1 615 8 view .LVU159
 912 000e 0023     		movs	r3, #0
 913 0010 2846     		mov	r0, r5
 914              	.LVL89:
 915              		.loc 1 615 8 view .LVU160
 916 0012 3146     		mov	r1, r6
 917 0014 FFF7FEFF 		bl	__aeabi_dcmpeq
 918              	.LVL90:
 919 0018 40B1     		cbz	r0, .L53
 920              		.loc 1 615 16 discriminator 1 view .LVU161
 921 001a 0022     		movs	r2, #0
 922 001c 0023     		movs	r3, #0
 923 001e 2046     		mov	r0, r4
 924 0020 3946     		mov	r1, r7
 925 0022 FFF7FEFF 		bl	__aeabi_dcmpeq
 926              	.LVL91:
 927 0026 0028     		cmp	r0, #0
 928 0028 40F0E180 		bne	.L72
 929              	.L53:
 616:Core/Src/main.c ****     {
 617:Core/Src/main.c ****         return 0;
 618:Core/Src/main.c ****     }
 619:Core/Src/main.c ****     absy = fabs(y);
ARM GAS  C:\Users\zhangjd\AppData\Local\Temp\ccW4vp8f.s 			page 28


 930              		.loc 1 619 5 is_stmt 1 view .LVU162
 931              		.loc 1 619 10 is_stmt 0 view .LVU163
 932 002c 27F00048 		bic	r8, r7, #-2147483648
 933              	.LVL92:
 620:Core/Src/main.c ****     absx = fabs(x);
 934              		.loc 1 620 5 is_stmt 1 view .LVU164
 935              		.loc 1 620 10 is_stmt 0 view .LVU165
 936 0030 26F00049 		bic	r9, r6, #-2147483648
 937              	.LVL93:
 621:Core/Src/main.c ****     if (absy - absx == absy)
 938              		.loc 1 621 5 is_stmt 1 view .LVU166
 939              		.loc 1 621 14 is_stmt 0 view .LVU167
 940 0034 2A46     		mov	r2, r5
 941 0036 4B46     		mov	r3, r9
 942 0038 2046     		mov	r0, r4
 943 003a 4146     		mov	r1, r8
 944 003c FFF7FEFF 		bl	__aeabi_dsub
 945              	.LVL94:
 946              		.loc 1 621 8 view .LVU168
 947 0040 2246     		mov	r2, r4
 948 0042 4346     		mov	r3, r8
 949 0044 FFF7FEFF 		bl	__aeabi_dcmpeq
 950              	.LVL95:
 951 0048 0028     		cmp	r0, #0
 952 004a 40D1     		bne	.L90
 622:Core/Src/main.c ****     {
 623:Core/Src/main.c ****         return y < 0 ? -M_PI_2 : M_PI_2;
 624:Core/Src/main.c ****     }
 625:Core/Src/main.c ****     if (absx - absy == absx)
 953              		.loc 1 625 5 is_stmt 1 view .LVU169
 954              		.loc 1 625 14 is_stmt 0 view .LVU170
 955 004c 2246     		mov	r2, r4
 956 004e 4346     		mov	r3, r8
 957 0050 2846     		mov	r0, r5
 958 0052 4946     		mov	r1, r9
 959 0054 FFF7FEFF 		bl	__aeabi_dsub
 960              	.LVL96:
 961              		.loc 1 625 8 view .LVU171
 962 0058 2A46     		mov	r2, r5
 963 005a 4B46     		mov	r3, r9
 964 005c FFF7FEFF 		bl	__aeabi_dcmpeq
 965              	.LVL97:
 966 0060 0028     		cmp	r0, #0
 967 0062 40F0A380 		bne	.L74
 626:Core/Src/main.c ****     {
 627:Core/Src/main.c ****         val = 0.0;
 628:Core/Src/main.c ****     }
 629:Core/Src/main.c ****     else
 630:Core/Src/main.c ****     {
 631:Core/Src/main.c ****         if (y > 0)
 968              		.loc 1 631 9 is_stmt 1 view .LVU172
 969              		.loc 1 631 12 is_stmt 0 view .LVU173
 970 0066 0022     		movs	r2, #0
 971 0068 0023     		movs	r3, #0
 972 006a 2046     		mov	r0, r4
 973 006c 3946     		mov	r1, r7
 974 006e FFF7FEFF 		bl	__aeabi_dcmpgt
ARM GAS  C:\Users\zhangjd\AppData\Local\Temp\ccW4vp8f.s 			page 29


 975              	.LVL98:
 976 0072 0028     		cmp	r0, #0
 977 0074 54D0     		beq	.L86
 632:Core/Src/main.c ****         {
 633:Core/Src/main.c ****             if (absx > absy)
 978              		.loc 1 633 13 is_stmt 1 view .LVU174
 979              		.loc 1 633 16 is_stmt 0 view .LVU175
 980 0076 2A46     		mov	r2, r5
 981 0078 4B46     		mov	r3, r9
 982 007a 2046     		mov	r0, r4
 983 007c 4146     		mov	r1, r8
 984 007e FFF7FEFF 		bl	__aeabi_dcmplt
 985              	.LVL99:
 986 0082 98B3     		cbz	r0, .L87
 634:Core/Src/main.c ****                 val = ATAN_LUT[(int)(255 * absy / absx)]; //1st octant
 987              		.loc 1 634 17 is_stmt 1 view .LVU176
 988              		.loc 1 634 42 is_stmt 0 view .LVU177
 989 0084 5CA3     		adr	r3, .L93
 990 0086 D3E90023 		ldrd	r2, [r3]
 991 008a 2046     		mov	r0, r4
 992 008c 4146     		mov	r1, r8
 993 008e FFF7FEFF 		bl	__aeabi_dmul
 994              	.LVL100:
 995              		.loc 1 634 49 view .LVU178
 996 0092 2A46     		mov	r2, r5
 997 0094 4B46     		mov	r3, r9
 998 0096 FFF7FEFF 		bl	__aeabi_ddiv
 999              	.LVL101:
 1000              		.loc 1 634 32 view .LVU179
 1001 009a FFF7FEFF 		bl	__aeabi_d2iz
 1002              	.LVL102:
 1003              		.loc 1 634 21 view .LVU180
 1004 009e 604B     		ldr	r3, .L93+40
 1005 00a0 03EBC002 		add	r2, r3, r0, lsl #3
 1006 00a4 53F83040 		ldr	r4, [r3, r0, lsl #3]
 1007              	.LVL103:
 1008              		.loc 1 634 21 view .LVU181
 1009 00a8 5768     		ldr	r7, [r2, #4]
 1010              	.LVL104:
 1011              	.L65:
 635:Core/Src/main.c ****             else
 636:Core/Src/main.c ****                 val = M_PI_2 - ATAN_LUT[(int)(255 * absx / absy)]; //2nd octant
 637:Core/Src/main.c ****             val = x < 0 ? (M_PI - val) : val;                      //3-4th octants from 2-1
 1012              		.loc 1 637 13 is_stmt 1 view .LVU182
 1013              		.loc 1 637 40 is_stmt 0 view .LVU183
 1014 00aa 0022     		movs	r2, #0
 1015 00ac 0023     		movs	r3, #0
 1016 00ae 2846     		mov	r0, r5
 1017 00b0 3146     		mov	r1, r6
 1018 00b2 FFF7FEFF 		bl	__aeabi_dcmplt
 1019              	.LVL105:
 1020 00b6 0028     		cmp	r0, #0
 1021 00b8 7AD0     		beq	.L60
 1022              		.loc 1 637 40 discriminator 1 view .LVU184
 1023 00ba 2246     		mov	r2, r4
 1024 00bc 3B46     		mov	r3, r7
 1025 00be 50A1     		adr	r1, .L93+8
ARM GAS  C:\Users\zhangjd\AppData\Local\Temp\ccW4vp8f.s 			page 30


 1026 00c0 D1E90001 		ldrd	r0, [r1]
 1027 00c4 FFF7FEFF 		bl	__aeabi_dsub
 1028              	.LVL106:
 1029 00c8 0446     		mov	r4, r0
 1030              	.LVL107:
 1031              		.loc 1 637 40 discriminator 1 view .LVU185
 1032 00ca 0F46     		mov	r7, r1
 1033 00cc 70E0     		b	.L60
 1034              	.LVL108:
 1035              	.L90:
 623:Core/Src/main.c ****     }
 1036              		.loc 1 623 9 is_stmt 1 view .LVU186
 623:Core/Src/main.c ****     }
 1037              		.loc 1 623 32 is_stmt 0 view .LVU187
 1038 00ce 0022     		movs	r2, #0
 1039 00d0 0023     		movs	r3, #0
 1040 00d2 2046     		mov	r0, r4
 1041 00d4 3946     		mov	r1, r7
 1042 00d6 FFF7FEFF 		bl	__aeabi_dcmplt
 1043              	.LVL109:
 1044 00da 18B9     		cbnz	r0, .L91
 1045 00dc 4AA5     		adr	r5, .L93+16
 1046 00de D5E90045 		ldrd	r4, [r5]
 1047              	.LVL110:
 623:Core/Src/main.c ****     }
 1048              		.loc 1 623 32 view .LVU188
 1049 00e2 77E0     		b	.L52
 1050              	.LVL111:
 1051              	.L91:
 623:Core/Src/main.c ****     }
 1052              		.loc 1 623 32 view .LVU189
 1053 00e4 4AA5     		adr	r5, .L93+24
 1054 00e6 D5E90045 		ldrd	r4, [r5]
 1055              	.LVL112:
 623:Core/Src/main.c ****     }
 1056              		.loc 1 623 32 view .LVU190
 1057 00ea 73E0     		b	.L52
 1058              	.LVL113:
 1059              	.L87:
 636:Core/Src/main.c ****             val = x < 0 ? (M_PI - val) : val;                      //3-4th octants from 2-1
 1060              		.loc 1 636 17 is_stmt 1 view .LVU191
 636:Core/Src/main.c ****             val = x < 0 ? (M_PI - val) : val;                      //3-4th octants from 2-1
 1061              		.loc 1 636 51 is_stmt 0 view .LVU192
 1062 00ec 42A3     		adr	r3, .L93
 1063 00ee D3E90023 		ldrd	r2, [r3]
 1064 00f2 2846     		mov	r0, r5
 1065 00f4 4946     		mov	r1, r9
 1066 00f6 FFF7FEFF 		bl	__aeabi_dmul
 1067              	.LVL114:
 636:Core/Src/main.c ****             val = x < 0 ? (M_PI - val) : val;                      //3-4th octants from 2-1
 1068              		.loc 1 636 58 view .LVU193
 1069 00fa 2246     		mov	r2, r4
 1070 00fc 4346     		mov	r3, r8
 1071 00fe FFF7FEFF 		bl	__aeabi_ddiv
 1072              	.LVL115:
 636:Core/Src/main.c ****             val = x < 0 ? (M_PI - val) : val;                      //3-4th octants from 2-1
 1073              		.loc 1 636 41 view .LVU194
ARM GAS  C:\Users\zhangjd\AppData\Local\Temp\ccW4vp8f.s 			page 31


 1074 0102 FFF7FEFF 		bl	__aeabi_d2iz
 1075              	.LVL116:
 636:Core/Src/main.c ****             val = x < 0 ? (M_PI - val) : val;                      //3-4th octants from 2-1
 1076              		.loc 1 636 40 view .LVU195
 1077 0106 464B     		ldr	r3, .L93+40
 1078 0108 03EBC003 		add	r3, r3, r0, lsl #3
 636:Core/Src/main.c ****             val = x < 0 ? (M_PI - val) : val;                      //3-4th octants from 2-1
 1079              		.loc 1 636 21 view .LVU196
 1080 010c D3E90023 		ldrd	r2, [r3]
 1081 0110 3DA1     		adr	r1, .L93+16
 1082 0112 D1E90001 		ldrd	r0, [r1]
 1083 0116 FFF7FEFF 		bl	__aeabi_dsub
 1084              	.LVL117:
 1085 011a 0446     		mov	r4, r0
 1086              	.LVL118:
 636:Core/Src/main.c ****             val = x < 0 ? (M_PI - val) : val;                      //3-4th octants from 2-1
 1087              		.loc 1 636 21 view .LVU197
 1088 011c 0F46     		mov	r7, r1
 1089              	.LVL119:
 636:Core/Src/main.c ****             val = x < 0 ? (M_PI - val) : val;                      //3-4th octants from 2-1
 1090              		.loc 1 636 21 view .LVU198
 1091 011e C4E7     		b	.L65
 1092              	.LVL120:
 1093              	.L86:
 638:Core/Src/main.c ****         }
 639:Core/Src/main.c ****         else
 640:Core/Src/main.c ****         {
 641:Core/Src/main.c ****             if (absx > absy)
 1094              		.loc 1 641 13 is_stmt 1 view .LVU199
 1095              		.loc 1 641 16 is_stmt 0 view .LVU200
 1096 0120 2A46     		mov	r2, r5
 1097 0122 4B46     		mov	r3, r9
 1098 0124 2046     		mov	r0, r4
 1099 0126 4146     		mov	r1, r8
 1100 0128 FFF7FEFF 		bl	__aeabi_dcmplt
 1101              	.LVL121:
 1102 012c 28B3     		cbz	r0, .L88
 642:Core/Src/main.c ****                 val = -ATAN_LUT[(int)(255 * absy / absx)]; //8th octant
 1103              		.loc 1 642 17 is_stmt 1 view .LVU201
 1104              		.loc 1 642 43 is_stmt 0 view .LVU202
 1105 012e 32A3     		adr	r3, .L93
 1106 0130 D3E90023 		ldrd	r2, [r3]
 1107 0134 2046     		mov	r0, r4
 1108 0136 4146     		mov	r1, r8
 1109 0138 FFF7FEFF 		bl	__aeabi_dmul
 1110              	.LVL122:
 1111              		.loc 1 642 50 view .LVU203
 1112 013c 2A46     		mov	r2, r5
 1113 013e 4B46     		mov	r3, r9
 1114 0140 FFF7FEFF 		bl	__aeabi_ddiv
 1115              	.LVL123:
 1116              		.loc 1 642 33 view .LVU204
 1117 0144 FFF7FEFF 		bl	__aeabi_d2iz
 1118              	.LVL124:
 1119              		.loc 1 642 32 view .LVU205
 1120 0148 354B     		ldr	r3, .L93+40
 1121 014a 03EBC002 		add	r2, r3, r0, lsl #3
ARM GAS  C:\Users\zhangjd\AppData\Local\Temp\ccW4vp8f.s 			page 32


 1122 014e 5768     		ldr	r7, [r2, #4]
 1123              		.loc 1 642 21 view .LVU206
 1124 0150 53F83040 		ldr	r4, [r3, r0, lsl #3]
 1125              	.LVL125:
 1126              		.loc 1 642 21 view .LVU207
 1127 0154 07F10047 		add	r7, r7, #-2147483648
 1128              	.LVL126:
 1129              	.L69:
 643:Core/Src/main.c ****             else
 644:Core/Src/main.c ****                 val = -M_PI_2 + ATAN_LUT[(int)(255 * absx / absy)]; //7th octant
 645:Core/Src/main.c ****             val = x < 0 ? -M_PI - val : val;                        //5-6th octants from 8-7
 1130              		.loc 1 645 13 is_stmt 1 view .LVU208
 1131              		.loc 1 645 39 is_stmt 0 view .LVU209
 1132 0158 0022     		movs	r2, #0
 1133 015a 0023     		movs	r3, #0
 1134 015c 2846     		mov	r0, r5
 1135 015e 3146     		mov	r1, r6
 1136 0160 FFF7FEFF 		bl	__aeabi_dcmplt
 1137              	.LVL127:
 1138 0164 20B3     		cbz	r0, .L60
 1139              		.loc 1 645 39 discriminator 1 view .LVU210
 1140 0166 2246     		mov	r2, r4
 1141 0168 3B46     		mov	r3, r7
 1142 016a 2BA1     		adr	r1, .L93+32
 1143 016c D1E90001 		ldrd	r0, [r1]
 1144 0170 FFF7FEFF 		bl	__aeabi_dsub
 1145              	.LVL128:
 1146 0174 0446     		mov	r4, r0
 1147              	.LVL129:
 1148              		.loc 1 645 39 discriminator 1 view .LVU211
 1149 0176 0F46     		mov	r7, r1
 1150 0178 1AE0     		b	.L60
 1151              	.LVL130:
 1152              	.L88:
 644:Core/Src/main.c ****             val = x < 0 ? -M_PI - val : val;                        //5-6th octants from 8-7
 1153              		.loc 1 644 17 is_stmt 1 view .LVU212
 644:Core/Src/main.c ****             val = x < 0 ? -M_PI - val : val;                        //5-6th octants from 8-7
 1154              		.loc 1 644 52 is_stmt 0 view .LVU213
 1155 017a 1FA3     		adr	r3, .L93
 1156 017c D3E90023 		ldrd	r2, [r3]
 1157 0180 2846     		mov	r0, r5
 1158 0182 4946     		mov	r1, r9
 1159 0184 FFF7FEFF 		bl	__aeabi_dmul
 1160              	.LVL131:
 644:Core/Src/main.c ****             val = x < 0 ? -M_PI - val : val;                        //5-6th octants from 8-7
 1161              		.loc 1 644 59 view .LVU214
 1162 0188 2246     		mov	r2, r4
 1163 018a 4346     		mov	r3, r8
 1164 018c FFF7FEFF 		bl	__aeabi_ddiv
 1165              	.LVL132:
 644:Core/Src/main.c ****             val = x < 0 ? -M_PI - val : val;                        //5-6th octants from 8-7
 1166              		.loc 1 644 42 view .LVU215
 1167 0190 FFF7FEFF 		bl	__aeabi_d2iz
 1168              	.LVL133:
 644:Core/Src/main.c ****             val = x < 0 ? -M_PI - val : val;                        //5-6th octants from 8-7
 1169              		.loc 1 644 41 view .LVU216
 1170 0194 224B     		ldr	r3, .L93+40
ARM GAS  C:\Users\zhangjd\AppData\Local\Temp\ccW4vp8f.s 			page 33


 1171 0196 03EBC000 		add	r0, r3, r0, lsl #3
 644:Core/Src/main.c ****             val = x < 0 ? -M_PI - val : val;                        //5-6th octants from 8-7
 1172              		.loc 1 644 21 view .LVU217
 1173 019a 1BA3     		adr	r3, .L93+16
 1174 019c D3E90023 		ldrd	r2, [r3]
 1175 01a0 03C8     		ldmia	r0, {r0-r1}
 1176 01a2 FFF7FEFF 		bl	__aeabi_dsub
 1177              	.LVL134:
 1178 01a6 0446     		mov	r4, r0
 1179              	.LVL135:
 644:Core/Src/main.c ****             val = x < 0 ? -M_PI - val : val;                        //5-6th octants from 8-7
 1180              		.loc 1 644 21 view .LVU218
 1181 01a8 0F46     		mov	r7, r1
 1182              	.LVL136:
 644:Core/Src/main.c ****             val = x < 0 ? -M_PI - val : val;                        //5-6th octants from 8-7
 1183              		.loc 1 644 21 view .LVU219
 1184 01aa D5E7     		b	.L69
 1185              	.LVL137:
 1186              	.L74:
 627:Core/Src/main.c ****     }
 1187              		.loc 1 627 13 view .LVU220
 1188 01ac 0024     		movs	r4, #0
 1189              	.LVL138:
 627:Core/Src/main.c ****     }
 1190              		.loc 1 627 13 view .LVU221
 1191 01ae 2746     		mov	r7, r4
 1192              	.L60:
 1193              	.LVL139:
 646:Core/Src/main.c ****         }
 647:Core/Src/main.c ****     }
 648:Core/Src/main.c ****     val = val * 180 / M_PI;
 1194              		.loc 1 648 5 is_stmt 1 view .LVU222
 1195              		.loc 1 648 15 is_stmt 0 view .LVU223
 1196 01b0 0022     		movs	r2, #0
 1197 01b2 1C4B     		ldr	r3, .L93+44
 1198 01b4 2046     		mov	r0, r4
 1199 01b6 3946     		mov	r1, r7
 1200 01b8 FFF7FEFF 		bl	__aeabi_dmul
 1201              	.LVL140:
 1202              		.loc 1 648 9 view .LVU224
 1203 01bc 10A3     		adr	r3, .L93+8
 1204 01be D3E90023 		ldrd	r2, [r3]
 1205 01c2 FFF7FEFF 		bl	__aeabi_ddiv
 1206              	.LVL141:
 1207 01c6 0446     		mov	r4, r0
 1208              	.LVL142:
 1209              		.loc 1 648 9 view .LVU225
 1210 01c8 0D46     		mov	r5, r1
 1211              	.LVL143:
 649:Core/Src/main.c ****     return (val < 0) ? (val + 360) : val;
 1212              		.loc 1 649 5 is_stmt 1 view .LVU226
 1213              		.loc 1 649 36 is_stmt 0 view .LVU227
 1214 01ca 0022     		movs	r2, #0
 1215 01cc 0023     		movs	r3, #0
 1216 01ce FFF7FEFF 		bl	__aeabi_dcmplt
 1217              	.LVL144:
 1218 01d2 18B9     		cbnz	r0, .L92
ARM GAS  C:\Users\zhangjd\AppData\Local\Temp\ccW4vp8f.s 			page 34


 1219              	.LVL145:
 1220              	.L52:
 650:Core/Src/main.c **** }
 1221              		.loc 1 650 1 view .LVU228
 1222 01d4 2046     		mov	r0, r4
 1223 01d6 2946     		mov	r1, r5
 1224 01d8 BDE8F883 		pop	{r3, r4, r5, r6, r7, r8, r9, pc}
 1225              	.LVL146:
 1226              	.L92:
 649:Core/Src/main.c ****     return (val < 0) ? (val + 360) : val;
 1227              		.loc 1 649 36 discriminator 1 view .LVU229
 1228 01dc 0022     		movs	r2, #0
 1229 01de 124B     		ldr	r3, .L93+48
 1230 01e0 2046     		mov	r0, r4
 1231 01e2 2946     		mov	r1, r5
 1232 01e4 FFF7FEFF 		bl	__aeabi_dadd
 1233              	.LVL147:
 1234 01e8 0446     		mov	r4, r0
 1235              	.LVL148:
 649:Core/Src/main.c ****     return (val < 0) ? (val + 360) : val;
 1236              		.loc 1 649 36 discriminator 1 view .LVU230
 1237 01ea 0D46     		mov	r5, r1
 1238 01ec F2E7     		b	.L52
 1239              	.L72:
 617:Core/Src/main.c ****     }
 1240              		.loc 1 617 16 view .LVU231
 1241 01ee 0024     		movs	r4, #0
 1242 01f0 0025     		movs	r5, #0
 1243 01f2 EFE7     		b	.L52
 1244              	.L94:
 1245 01f4 AFF30080 		.align	3
 1246              	.L93:
 1247 01f8 00000000 		.word	0
 1248 01fc 00E06F40 		.word	1081073664
 1249 0200 50455254 		.word	1414677840
 1250 0204 FB210940 		.word	1074340347
 1251 0208 4AD8124D 		.word	1293080650
 1252 020c FB21F93F 		.word	1073291771
 1253 0210 4AD8124D 		.word	1293080650
 1254 0214 FB21F9BF 		.word	-1074191877
 1255 0218 50455254 		.word	1414677840
 1256 021c FB2109C0 		.word	-1073143301
 1257 0220 00000000 		.word	.LANCHOR1
 1258 0224 00806640 		.word	1080459264
 1259 0228 00807640 		.word	1081507840
 1260              		.cfi_endproc
 1261              	.LFE78:
 1263              		.global	__aeabi_i2d
 1264              		.global	__aeabi_ui2d
 1265              		.section	.text.Solve_Mine_Pos,"ax",%progbits
 1266              		.align	1
 1267              		.global	Solve_Mine_Pos
 1268              		.syntax unified
 1269              		.thumb
 1270              		.thumb_func
 1271              		.fpu softvfp
 1273              	Solve_Mine_Pos:
ARM GAS  C:\Users\zhangjd\AppData\Local\Temp\ccW4vp8f.s 			page 35


 1274              	.LVL149:
 1275              	.LFB79:
 651:Core/Src/main.c **** int Solve_Mine_Pos(uint16_t xx_1, uint16_t yy_1, uint32_t EE_1, uint16_t xx_2, uint16_t yy_2, uint3
 652:Core/Src/main.c **** {
 1276              		.loc 1 652 1 is_stmt 1 view -0
 1277              		.cfi_startproc
 1278              		@ args = 28, pretend = 0, frame = 56
 1279              		@ frame_needed = 0, uses_anonymous_args = 0
 1280              		.loc 1 652 1 is_stmt 0 view .LVU233
 1281 0000 2DE9F04F 		push	{r4, r5, r6, r7, r8, r9, r10, fp, lr}
 1282              	.LCFI10:
 1283              		.cfi_def_cfa_offset 36
 1284              		.cfi_offset 4, -36
 1285              		.cfi_offset 5, -32
 1286              		.cfi_offset 6, -28
 1287              		.cfi_offset 7, -24
 1288              		.cfi_offset 8, -20
 1289              		.cfi_offset 9, -16
 1290              		.cfi_offset 10, -12
 1291              		.cfi_offset 11, -8
 1292              		.cfi_offset 14, -4
 1293 0004 8FB0     		sub	sp, sp, #60
 1294              	.LCFI11:
 1295              		.cfi_def_cfa_offset 96
 1296 0006 8046     		mov	r8, r0
 1297 0008 8946     		mov	r9, r1
 1298 000a 1746     		mov	r7, r2
 1299 000c 1D46     		mov	r5, r3
 1300 000e BDF860A0 		ldrh	r10, [sp, #96]
 1301 0012 BDF86840 		ldrh	r4, [sp, #104]
 1302 0016 BDF86C30 		ldrh	r3, [sp, #108]
 1303              	.LVL150:
 653:Core/Src/main.c ****     /*
 654:Core/Src/main.c ****     ÂÖ•Âè£ÂèÇÊï∞Ôºöxx_i,yy_i,EE_i,(i=1,2,3)‰∏∫‰∏â‰∏™‰∏çÂêåÁÇπÁöÑÂùêÊ†á‰∏éÂú∫Âº∫„ÄÇdouble *coordinat
 655:Core/Src/main.c ****     Ê≠§ÂáΩÊï∞Ê†πÊçÆ‰∏âÁªÑÂùêÔøΩ??&Âú∫Âº∫Êï∞ÊçÆËøõË°åËß£ÁÆóÔºåÂ∞ÜÂæóÂà∞ÁöÑÁªìÊûúÂ≠òÂÇ®Âú®coordinateÊ
 656:Core/Src/main.c ****     ËøîÂõûÂÄº‰∏∫0or1„ÄÇcase 1ÔºöËÆ°ÁÆóÊó†ÊòéÊòæÂºÇÂ∏∏;case 0Ôºö‰∏â‰∏™ÁÇπÊï∞ÊçÆÈáè‰∏çÂ§üÔºåÊàñÊòØËÆ°
 657:Core/Src/main.c ****     */
 658:Core/Src/main.c ****     /*
 659:Core/Src/main.c ****     ËÆ°ÁÆóÂÖ¨Âºè‰∏∫Ôºö
 660:Core/Src/main.c ****     y=(A*((xx_2-xx_3)/EE_1+(xx_3-xx_1)/EE_2+(xx_1-xx_2)/EE_3)+(xx_1-xx_2)*(xx_2-xx_3)*(xx_3-xx_1)+y
 661:Core/Src/main.c ****     x=(xx_1+xx_2-((xx_2-xx_3)*(A/EE_1-A/EE_2)-(yy_1-yy_2)*(xx_2-xx_3)*(yy_1+yy_2-2*y))/(xx_1-xx_2)/
 662:Core/Src/main.c ****     Ê≠§ÂÖ¨ÂºèÂú®matlab‰∏äËøêÁÆóÊ≠£Â∏∏ÔºåÁ≤æÂ∫¶Êª°Ë∂≥Ë¶ÅÊ±Ç
 663:Core/Src/main.c ****     */
 664:Core/Src/main.c ****     double determinant = xx_1 * yy_2 - xx_2 * yy_1 + xx_3 * yy_1 - xx_1 * yy_3 + xx_2 * yy_3 - xx_3
 1304              		.loc 1 664 5 is_stmt 1 view .LVU234
 1305              		.loc 1 664 31 is_stmt 0 view .LVU235
 1306 001a 0AFB00F6 		mul	r6, r10, r0
 1307              		.loc 1 664 38 view .LVU236
 1308 001e 01FB1566 		mls	r6, r1, r5, r6
 1309              		.loc 1 664 52 view .LVU237
 1310 0022 04FB0166 		mla	r6, r4, r1, r6
 1311              		.loc 1 664 66 view .LVU238
 1312 0026 03FB1066 		mls	r6, r3, r0, r6
 1313              		.loc 1 664 80 view .LVU239
 1314 002a 0993     		str	r3, [sp, #36]
 1315 002c 03FB0566 		mla	r6, r3, r5, r6
 1316              		.loc 1 664 101 view .LVU240
ARM GAS  C:\Users\zhangjd\AppData\Local\Temp\ccW4vp8f.s 			page 36


 1317 0030 04FB0AFB 		mul	fp, r4, r10
 1318              		.loc 1 664 12 view .LVU241
 1319 0034 A6EB0B00 		sub	r0, r6, fp
 1320              	.LVL151:
 1321              		.loc 1 664 12 view .LVU242
 1322 0038 FFF7FEFF 		bl	__aeabi_i2d
 1323              	.LVL152:
 1324              		.loc 1 664 12 view .LVU243
 1325 003c CDE90001 		strd	r0, [sp]
 1326              	.LVL153:
 665:Core/Src/main.c ****     if (!determinant) //??????
 1327              		.loc 1 665 5 is_stmt 1 view .LVU244
 1328              		.loc 1 665 8 is_stmt 0 view .LVU245
 1329 0040 5E45     		cmp	r6, fp
 1330 0042 00F05381 		beq	.L97
 666:Core/Src/main.c ****         return 0;
 667:Core/Src/main.c ****     double y = (((double)(xx_2 - xx_3) * (A_COFFIENT / (double)EE_1) + (double)(xx_3 - xx_1) * (A_C
 1331              		.loc 1 667 5 is_stmt 1 view .LVU246
 1332              		.loc 1 667 32 is_stmt 0 view .LVU247
 1333 0046 A5EB040B 		sub	fp, r5, r4
 1334              		.loc 1 667 18 view .LVU248
 1335 004a 5846     		mov	r0, fp
 1336              	.LVL154:
 1337              		.loc 1 667 18 view .LVU249
 1338 004c FFF7FEFF 		bl	__aeabi_i2d
 1339              	.LVL155:
 1340 0050 CDE90201 		strd	r0, [sp, #8]
 1341              		.loc 1 667 56 view .LVU250
 1342 0054 3846     		mov	r0, r7
 1343 0056 FFF7FEFF 		bl	__aeabi_ui2d
 1344              	.LVL156:
 1345 005a 0246     		mov	r2, r0
 1346 005c 0B46     		mov	r3, r1
 1347              		.loc 1 667 54 view .LVU251
 1348 005e AAA1     		adr	r1, .L103
 1349 0060 D1E90001 		ldrd	r0, [r1]
 1350 0064 FFF7FEFF 		bl	__aeabi_ddiv
 1351              	.LVL157:
 1352 0068 0246     		mov	r2, r0
 1353 006a 0B46     		mov	r3, r1
 1354              		.loc 1 667 40 view .LVU252
 1355 006c CDE90A23 		strd	r2, [sp, #40]
 1356 0070 DDE90201 		ldrd	r0, [sp, #8]
 1357 0074 FFF7FEFF 		bl	__aeabi_dmul
 1358              	.LVL158:
 1359 0078 0646     		mov	r6, r0
 1360 007a 0F46     		mov	r7, r1
 1361              	.LVL159:
 1362              		.loc 1 667 72 view .LVU253
 1363 007c A4EB0800 		sub	r0, r4, r8
 1364 0080 FFF7FEFF 		bl	__aeabi_i2d
 1365              	.LVL160:
 1366 0084 CDE90601 		strd	r0, [sp, #24]
 1367              		.loc 1 667 110 view .LVU254
 1368 0088 1998     		ldr	r0, [sp, #100]
 1369 008a FFF7FEFF 		bl	__aeabi_ui2d
 1370              	.LVL161:
ARM GAS  C:\Users\zhangjd\AppData\Local\Temp\ccW4vp8f.s 			page 37


 1371 008e 0246     		mov	r2, r0
 1372 0090 0B46     		mov	r3, r1
 1373              		.loc 1 667 108 view .LVU255
 1374 0092 9DA1     		adr	r1, .L103
 1375 0094 D1E90001 		ldrd	r0, [r1]
 1376 0098 FFF7FEFF 		bl	__aeabi_ddiv
 1377              	.LVL162:
 1378 009c 0246     		mov	r2, r0
 1379 009e 0B46     		mov	r3, r1
 1380              		.loc 1 667 94 view .LVU256
 1381 00a0 CDE90C23 		strd	r2, [sp, #48]
 1382 00a4 DDE90601 		ldrd	r0, [sp, #24]
 1383 00a8 FFF7FEFF 		bl	__aeabi_dmul
 1384              	.LVL163:
 1385 00ac 0246     		mov	r2, r0
 1386 00ae 0B46     		mov	r3, r1
 1387              		.loc 1 667 70 view .LVU257
 1388 00b0 3046     		mov	r0, r6
 1389 00b2 3946     		mov	r1, r7
 1390 00b4 FFF7FEFF 		bl	__aeabi_dadd
 1391              	.LVL164:
 1392 00b8 0646     		mov	r6, r0
 1393 00ba 0F46     		mov	r7, r1
 1394              		.loc 1 667 126 view .LVU258
 1395 00bc A8EB0500 		sub	r0, r8, r5
 1396 00c0 FFF7FEFF 		bl	__aeabi_i2d
 1397              	.LVL165:
 1398 00c4 CDE90401 		strd	r0, [sp, #16]
 1399              		.loc 1 667 172 view .LVU259
 1400 00c8 1C98     		ldr	r0, [sp, #112]
 1401 00ca FFF7FEFF 		bl	__aeabi_ui2d
 1402              	.LVL166:
 1403 00ce 0246     		mov	r2, r0
 1404 00d0 0B46     		mov	r3, r1
 1405              		.loc 1 667 150 view .LVU260
 1406 00d2 8DA1     		adr	r1, .L103
 1407 00d4 D1E90001 		ldrd	r0, [r1]
 1408 00d8 FFF7FEFF 		bl	__aeabi_ddiv
 1409              	.LVL167:
 1410 00dc 0246     		mov	r2, r0
 1411 00de 0B46     		mov	r3, r1
 1412              		.loc 1 667 148 view .LVU261
 1413 00e0 DDE90401 		ldrd	r0, [sp, #16]
 1414 00e4 FFF7FEFF 		bl	__aeabi_dmul
 1415              	.LVL168:
 1416 00e8 0246     		mov	r2, r0
 1417 00ea 0B46     		mov	r3, r1
 1418              		.loc 1 667 124 view .LVU262
 1419 00ec 3046     		mov	r0, r6
 1420 00ee 3946     		mov	r1, r7
 1421 00f0 FFF7FEFF 		bl	__aeabi_dadd
 1422              	.LVL169:
 1423              		.loc 1 667 187 view .LVU263
 1424 00f4 DDE90023 		ldrd	r2, [sp]
 1425 00f8 FFF7FEFF 		bl	__aeabi_ddiv
 1426              	.LVL170:
 1427 00fc 0646     		mov	r6, r0
ARM GAS  C:\Users\zhangjd\AppData\Local\Temp\ccW4vp8f.s 			page 38


 1428 00fe 0F46     		mov	r7, r1
 1429              		.loc 1 667 217 view .LVU264
 1430 0100 DDE90423 		ldrd	r2, [sp, #16]
 1431 0104 DDE90201 		ldrd	r0, [sp, #8]
 1432 0108 FFF7FEFF 		bl	__aeabi_dmul
 1433              	.LVL171:
 1434              		.loc 1 667 241 view .LVU265
 1435 010c DDE90023 		ldrd	r2, [sp]
 1436 0110 FFF7FEFF 		bl	__aeabi_ddiv
 1437              	.LVL172:
 1438 0114 0246     		mov	r2, r0
 1439 0116 0B46     		mov	r3, r1
 1440              		.loc 1 667 255 view .LVU266
 1441 0118 DDE90601 		ldrd	r0, [sp, #24]
 1442 011c FFF7FEFF 		bl	__aeabi_dmul
 1443              	.LVL173:
 1444 0120 0246     		mov	r2, r0
 1445 0122 0B46     		mov	r3, r1
 1446              		.loc 1 667 201 view .LVU267
 1447 0124 3046     		mov	r0, r6
 1448 0126 3946     		mov	r1, r7
 1449 0128 FFF7FEFF 		bl	__aeabi_dadd
 1450              	.LVL174:
 1451 012c CDE90601 		strd	r0, [sp, #24]
 1452              		.loc 1 667 273 view .LVU268
 1453 0130 4846     		mov	r0, r9
 1454 0132 FFF7FEFF 		bl	__aeabi_ui2d
 1455              	.LVL175:
 1456              		.loc 1 667 286 view .LVU269
 1457 0136 DDE90023 		ldrd	r2, [sp]
 1458 013a FFF7FEFF 		bl	__aeabi_ddiv
 1459              	.LVL176:
 1460 013e 0646     		mov	r6, r0
 1461 0140 0F46     		mov	r7, r1
 1462              		.loc 1 667 300 view .LVU270
 1463 0142 4846     		mov	r0, r9
 1464 0144 FFF7FEFF 		bl	__aeabi_i2d
 1465              	.LVL177:
 1466 0148 3246     		mov	r2, r6
 1467 014a 3B46     		mov	r3, r7
 1468 014c FFF7FEFF 		bl	__aeabi_dmul
 1469              	.LVL178:
 1470 0150 0646     		mov	r6, r0
 1471 0152 0F46     		mov	r7, r1
 1472              		.loc 1 667 307 view .LVU271
 1473 0154 601B     		subs	r0, r4, r5
 1474 0156 FFF7FEFF 		bl	__aeabi_i2d
 1475              	.LVL179:
 1476 015a 3246     		mov	r2, r6
 1477 015c 3B46     		mov	r3, r7
 1478 015e FFF7FEFF 		bl	__aeabi_dmul
 1479              	.LVL180:
 1480 0162 0246     		mov	r2, r0
 1481 0164 0B46     		mov	r3, r1
 1482              		.loc 1 667 271 view .LVU272
 1483 0166 DDE90601 		ldrd	r0, [sp, #24]
 1484 016a FFF7FEFF 		bl	__aeabi_dadd
ARM GAS  C:\Users\zhangjd\AppData\Local\Temp\ccW4vp8f.s 			page 39


 1485              	.LVL181:
 1486 016e CDE90601 		strd	r0, [sp, #24]
 1487              		.loc 1 667 325 view .LVU273
 1488 0172 5046     		mov	r0, r10
 1489 0174 FFF7FEFF 		bl	__aeabi_ui2d
 1490              	.LVL182:
 1491 0178 0646     		mov	r6, r0
 1492 017a 0F46     		mov	r7, r1
 1493              		.loc 1 667 338 view .LVU274
 1494 017c 5046     		mov	r0, r10
 1495 017e FFF7FEFF 		bl	__aeabi_i2d
 1496              	.LVL183:
 1497 0182 3246     		mov	r2, r6
 1498 0184 3B46     		mov	r3, r7
 1499 0186 FFF7FEFF 		bl	__aeabi_dmul
 1500              	.LVL184:
 1501              		.loc 1 667 345 view .LVU275
 1502 018a DDE90023 		ldrd	r2, [sp]
 1503 018e FFF7FEFF 		bl	__aeabi_ddiv
 1504              	.LVL185:
 1505 0192 0646     		mov	r6, r0
 1506 0194 0F46     		mov	r7, r1
 1507              		.loc 1 667 359 view .LVU276
 1508 0196 A8EB0400 		sub	r0, r8, r4
 1509 019a FFF7FEFF 		bl	__aeabi_i2d
 1510              	.LVL186:
 1511 019e 3246     		mov	r2, r6
 1512 01a0 3B46     		mov	r3, r7
 1513 01a2 FFF7FEFF 		bl	__aeabi_dmul
 1514              	.LVL187:
 1515 01a6 0246     		mov	r2, r0
 1516 01a8 0B46     		mov	r3, r1
 1517              		.loc 1 667 323 view .LVU277
 1518 01aa DDE90601 		ldrd	r0, [sp, #24]
 1519 01ae FFF7FEFF 		bl	__aeabi_dadd
 1520              	.LVL188:
 1521 01b2 CDE90601 		strd	r0, [sp, #24]
 1522              		.loc 1 667 377 view .LVU278
 1523 01b6 099C     		ldr	r4, [sp, #36]
 1524 01b8 2046     		mov	r0, r4
 1525 01ba FFF7FEFF 		bl	__aeabi_ui2d
 1526              	.LVL189:
 1527 01be 0646     		mov	r6, r0
 1528 01c0 0F46     		mov	r7, r1
 1529              		.loc 1 667 390 view .LVU279
 1530 01c2 2046     		mov	r0, r4
 1531 01c4 FFF7FEFF 		bl	__aeabi_i2d
 1532              	.LVL190:
 1533 01c8 3246     		mov	r2, r6
 1534 01ca 3B46     		mov	r3, r7
 1535 01cc FFF7FEFF 		bl	__aeabi_dmul
 1536              	.LVL191:
 1537              		.loc 1 667 397 view .LVU280
 1538 01d0 DDE90023 		ldrd	r2, [sp]
 1539 01d4 FFF7FEFF 		bl	__aeabi_ddiv
 1540              	.LVL192:
 1541 01d8 0646     		mov	r6, r0
ARM GAS  C:\Users\zhangjd\AppData\Local\Temp\ccW4vp8f.s 			page 40


 1542 01da 0F46     		mov	r7, r1
 1543              		.loc 1 667 411 view .LVU281
 1544 01dc A5EB0800 		sub	r0, r5, r8
 1545 01e0 FFF7FEFF 		bl	__aeabi_i2d
 1546              	.LVL193:
 1547 01e4 3246     		mov	r2, r6
 1548 01e6 3B46     		mov	r3, r7
 1549 01e8 FFF7FEFF 		bl	__aeabi_dmul
 1550              	.LVL194:
 1551 01ec 0246     		mov	r2, r0
 1552 01ee 0B46     		mov	r3, r1
 1553              		.loc 1 667 375 view .LVU282
 1554 01f0 DDE90601 		ldrd	r0, [sp, #24]
 1555 01f4 FFF7FEFF 		bl	__aeabi_dadd
 1556              	.LVL195:
 1557              		.loc 1 667 12 view .LVU283
 1558 01f8 0022     		movs	r2, #0
 1559 01fa 474B     		ldr	r3, .L103+16
 1560 01fc FFF7FEFF 		bl	__aeabi_dmul
 1561              	.LVL196:
 1562 0200 0646     		mov	r6, r0
 1563 0202 0F46     		mov	r7, r1
 1564              	.LVL197:
 668:Core/Src/main.c ****     double x = (xx_1 + xx_2 - ((xx_2 - xx_3) * (A_COFFIENT / (double)EE_1 - A_COFFIENT / (double)EE
 1565              		.loc 1 668 5 is_stmt 1 view .LVU284
 1566              		.loc 1 668 22 is_stmt 0 view .LVU285
 1567 0204 08EB0504 		add	r4, r8, r5
 1568              		.loc 1 668 75 view .LVU286
 1569 0208 DDE90C23 		ldrd	r2, [sp, #48]
 1570 020c DDE90A01 		ldrd	r0, [sp, #40]
 1571 0210 FFF7FEFF 		bl	__aeabi_dsub
 1572              	.LVL198:
 1573 0214 0246     		mov	r2, r0
 1574 0216 0B46     		mov	r3, r1
 1575              		.loc 1 668 46 view .LVU287
 1576 0218 DDE90201 		ldrd	r0, [sp, #8]
 1577 021c FFF7FEFF 		bl	__aeabi_dmul
 1578              	.LVL199:
 1579 0220 CDE90001 		strd	r0, [sp]
 1580              	.LVL200:
 1581              		.loc 1 668 112 view .LVU288
 1582 0224 A9EB0A05 		sub	r5, r9, r10
 1583              		.loc 1 668 120 view .LVU289
 1584 0228 05FB0BF5 		mul	r5, r5, fp
 1585              		.loc 1 668 152 view .LVU290
 1586 022c CA44     		add	r10, r10, r9
 1587              		.loc 1 668 163 view .LVU291
 1588 022e 3246     		mov	r2, r6
 1589 0230 3B46     		mov	r3, r7
 1590 0232 3046     		mov	r0, r6
 1591 0234 3946     		mov	r1, r7
 1592 0236 FFF7FEFF 		bl	__aeabi_dadd
 1593              	.LVL201:
 1594 023a 8046     		mov	r8, r0
 1595 023c 8946     		mov	r9, r1
 1596              		.loc 1 668 138 view .LVU292
 1597 023e 5046     		mov	r0, r10
ARM GAS  C:\Users\zhangjd\AppData\Local\Temp\ccW4vp8f.s 			page 41


 1598 0240 FFF7FEFF 		bl	__aeabi_i2d
 1599              	.LVL202:
 1600 0244 4246     		mov	r2, r8
 1601 0246 4B46     		mov	r3, r9
 1602 0248 FFF7FEFF 		bl	__aeabi_dsub
 1603              	.LVL203:
 1604 024c 8046     		mov	r8, r0
 1605 024e 8946     		mov	r9, r1
 1606              		.loc 1 668 136 view .LVU293
 1607 0250 2846     		mov	r0, r5
 1608 0252 FFF7FEFF 		bl	__aeabi_i2d
 1609              	.LVL204:
 1610 0256 4246     		mov	r2, r8
 1611 0258 4B46     		mov	r3, r9
 1612 025a FFF7FEFF 		bl	__aeabi_dmul
 1613              	.LVL205:
 1614 025e 0246     		mov	r2, r0
 1615 0260 0B46     		mov	r3, r1
 1616              		.loc 1 668 104 view .LVU294
 1617 0262 DDE90001 		ldrd	r0, [sp]
 1618 0266 FFF7FEFF 		bl	__aeabi_dsub
 1619              	.LVL206:
 1620              		.loc 1 668 169 view .LVU295
 1621 026a DDE90423 		ldrd	r2, [sp, #16]
 1622 026e FFF7FEFF 		bl	__aeabi_ddiv
 1623              	.LVL207:
 1624              		.loc 1 668 185 view .LVU296
 1625 0272 DDE90223 		ldrd	r2, [sp, #8]
 1626 0276 FFF7FEFF 		bl	__aeabi_ddiv
 1627              	.LVL208:
 1628 027a 8046     		mov	r8, r0
 1629 027c 8946     		mov	r9, r1
 1630              		.loc 1 668 29 view .LVU297
 1631 027e 2046     		mov	r0, r4
 1632 0280 FFF7FEFF 		bl	__aeabi_i2d
 1633              	.LVL209:
 1634 0284 4246     		mov	r2, r8
 1635 0286 4B46     		mov	r3, r9
 1636 0288 FFF7FEFF 		bl	__aeabi_dsub
 1637              	.LVL210:
 1638              		.loc 1 668 12 view .LVU298
 1639 028c 0022     		movs	r2, #0
 1640 028e 224B     		ldr	r3, .L103+16
 1641 0290 FFF7FEFF 		bl	__aeabi_dmul
 1642              	.LVL211:
 1643 0294 0446     		mov	r4, r0
 1644 0296 0D46     		mov	r5, r1
 1645              	.LVL212:
 669:Core/Src/main.c **** 
 670:Core/Src/main.c ****     if (x < -POS_ERR_TOL || x > 254 + POS_ERR_TOL || y < -POS_ERR_TOL || y > 254 + POS_ERR_TOL) //?
 1646              		.loc 1 670 5 is_stmt 1 view .LVU299
 1647              		.loc 1 670 8 is_stmt 0 view .LVU300
 1648 0298 0022     		movs	r2, #0
 1649 029a 204B     		ldr	r3, .L103+20
 1650 029c FFF7FEFF 		bl	__aeabi_dcmplt
 1651              	.LVL213:
 1652 02a0 30BB     		cbnz	r0, .L98
ARM GAS  C:\Users\zhangjd\AppData\Local\Temp\ccW4vp8f.s 			page 42


 1653              		.loc 1 670 26 discriminator 1 view .LVU301
 1654 02a2 1BA3     		adr	r3, .L103+8
 1655 02a4 D3E90023 		ldrd	r2, [r3]
 1656 02a8 2046     		mov	r0, r4
 1657 02aa 2946     		mov	r1, r5
 1658 02ac FFF7FEFF 		bl	__aeabi_dcmpgt
 1659              	.LVL214:
 1660 02b0 10BB     		cbnz	r0, .L99
 1661              		.loc 1 670 51 discriminator 2 view .LVU302
 1662 02b2 0022     		movs	r2, #0
 1663 02b4 194B     		ldr	r3, .L103+20
 1664 02b6 3046     		mov	r0, r6
 1665 02b8 3946     		mov	r1, r7
 1666 02ba FFF7FEFF 		bl	__aeabi_dcmplt
 1667              	.LVL215:
 1668 02be E8B9     		cbnz	r0, .L100
 1669              		.loc 1 670 71 discriminator 3 view .LVU303
 1670 02c0 13A3     		adr	r3, .L103+8
 1671 02c2 D3E90023 		ldrd	r2, [r3]
 1672 02c6 3046     		mov	r0, r6
 1673 02c8 3946     		mov	r1, r7
 1674 02ca FFF7FEFF 		bl	__aeabi_dcmpgt
 1675              	.LVL216:
 1676 02ce B8B9     		cbnz	r0, .L101
 671:Core/Src/main.c ****         return 0;
 672:Core/Src/main.c **** 
 673:Core/Src/main.c ****     *coordinate_x = (int)x;
 1677              		.loc 1 673 5 is_stmt 1 view .LVU304
 1678              		.loc 1 673 21 is_stmt 0 view .LVU305
 1679 02d0 2046     		mov	r0, r4
 1680 02d2 2946     		mov	r1, r5
 1681 02d4 FFF7FEFF 		bl	__aeabi_d2iz
 1682              	.LVL217:
 1683              		.loc 1 673 19 view .LVU306
 1684 02d8 1D9B     		ldr	r3, [sp, #116]
 1685 02da 1860     		str	r0, [r3]
 674:Core/Src/main.c ****     *coordinate_y = (int)y;
 1686              		.loc 1 674 5 is_stmt 1 view .LVU307
 1687              		.loc 1 674 21 is_stmt 0 view .LVU308
 1688 02dc 3046     		mov	r0, r6
 1689 02de 3946     		mov	r1, r7
 1690 02e0 FFF7FEFF 		bl	__aeabi_d2iz
 1691              	.LVL218:
 1692              		.loc 1 674 19 view .LVU309
 1693 02e4 1E9B     		ldr	r3, [sp, #120]
 1694 02e6 1860     		str	r0, [r3]
 675:Core/Src/main.c ****     return 1;
 1695              		.loc 1 675 5 is_stmt 1 view .LVU310
 1696              		.loc 1 675 12 is_stmt 0 view .LVU311
 1697 02e8 0120     		movs	r0, #1
 1698 02ea 02E0     		b	.L95
 1699              	.LVL219:
 1700              	.L97:
 666:Core/Src/main.c ****     double y = (((double)(xx_2 - xx_3) * (A_COFFIENT / (double)EE_1) + (double)(xx_3 - xx_1) * (A_C
 1701              		.loc 1 666 16 view .LVU312
 1702 02ec 0020     		movs	r0, #0
 1703              	.LVL220:
ARM GAS  C:\Users\zhangjd\AppData\Local\Temp\ccW4vp8f.s 			page 43


 666:Core/Src/main.c ****     double y = (((double)(xx_2 - xx_3) * (A_COFFIENT / (double)EE_1) + (double)(xx_3 - xx_1) * (A_C
 1704              		.loc 1 666 16 view .LVU313
 1705 02ee 00E0     		b	.L95
 1706              	.LVL221:
 1707              	.L98:
 671:Core/Src/main.c **** 
 1708              		.loc 1 671 16 view .LVU314
 1709 02f0 0020     		movs	r0, #0
 1710              	.LVL222:
 1711              	.L95:
 676:Core/Src/main.c **** }
 1712              		.loc 1 676 1 view .LVU315
 1713 02f2 0FB0     		add	sp, sp, #60
 1714              	.LCFI12:
 1715              		.cfi_remember_state
 1716              		.cfi_def_cfa_offset 36
 1717              		@ sp needed
 1718 02f4 BDE8F08F 		pop	{r4, r5, r6, r7, r8, r9, r10, fp, pc}
 1719              	.LVL223:
 1720              	.L99:
 1721              	.LCFI13:
 1722              		.cfi_restore_state
 671:Core/Src/main.c **** 
 1723              		.loc 1 671 16 view .LVU316
 1724 02f8 0020     		movs	r0, #0
 1725 02fa FAE7     		b	.L95
 1726              	.L100:
 1727 02fc 0020     		movs	r0, #0
 1728 02fe F8E7     		b	.L95
 1729              	.L101:
 1730 0300 0020     		movs	r0, #0
 1731 0302 F6E7     		b	.L95
 1732              	.L104:
 1733 0304 AFF30080 		.align	3
 1734              	.L103:
 1735 0308 00000000 		.word	0
 1736 030c 65CDCD41 		.word	1104006501
 1737 0310 00000000 		.word	0
 1738 0314 00207040 		.word	1081090048
 1739 0318 0000E03F 		.word	1071644672
 1740 031c 000010C0 		.word	-1072693248
 1741              		.cfi_endproc
 1742              	.LFE79:
 1744              		.section	.text.Sol_Car_Pos_INIT,"ax",%progbits
 1745              		.align	1
 1746              		.global	Sol_Car_Pos_INIT
 1747              		.syntax unified
 1748              		.thumb
 1749              		.thumb_func
 1750              		.fpu softvfp
 1752              	Sol_Car_Pos_INIT:
 1753              	.LFB80:
 677:Core/Src/main.c **** void Sol_Car_Pos_INIT()
 678:Core/Src/main.c **** {
 1754              		.loc 1 678 1 is_stmt 1 view -0
 1755              		.cfi_startproc
 1756              		@ args = 0, pretend = 0, frame = 0
ARM GAS  C:\Users\zhangjd\AppData\Local\Temp\ccW4vp8f.s 			page 44


 1757              		@ frame_needed = 0, uses_anonymous_args = 0
 1758 0000 70B5     		push	{r4, r5, r6, lr}
 1759              	.LCFI14:
 1760              		.cfi_def_cfa_offset 16
 1761              		.cfi_offset 4, -16
 1762              		.cfi_offset 5, -12
 1763              		.cfi_offset 6, -8
 1764              		.cfi_offset 14, -4
 679:Core/Src/main.c ****     ///Sol_Car_Pos()ÂàùÂßãÂåñÔºåËµãÔøΩ?ÔøΩ‰∏≠Èó¥ÂèòÈáèbeacon_determinant
 680:Core/Src/main.c ****     ///ËøõÂÖ•Á¨¨‰∫åÂõûÂêàÊó∂Ë∞ÉÁî®Ê≠§ÂáΩÊï∞ËøõË°åËµãÔøΩ?ÔøΩÔºåÊàñÔøΩ?ÔøΩÊää‰∏ãÈù¢ÔøΩ??Ë°åÁ≤òËøáÂéª
 681:Core/Src/main.c ****     beacon_determinant = -beacon_Pos[0] * beacon_Pos[3] + beacon_Pos[2] * beacon_Pos[1] - beacon_Po
 1765              		.loc 1 681 5 view .LVU318
 1766              		.loc 1 681 37 is_stmt 0 view .LVU319
 1767 0002 0C4A     		ldr	r2, .L107
 1768 0004 1568     		ldr	r5, [r2]
 1769              		.loc 1 681 53 view .LVU320
 1770 0006 D168     		ldr	r1, [r2, #12]
 1771              		.loc 1 681 69 view .LVU321
 1772 0008 9468     		ldr	r4, [r2, #8]
 1773              		.loc 1 681 85 view .LVU322
 1774 000a 5668     		ldr	r6, [r2, #4]
 1775              		.loc 1 681 73 view .LVU323
 1776 000c 06FB04F3 		mul	r3, r6, r4
 1777              		.loc 1 681 57 view .LVU324
 1778 0010 05FB1133 		mls	r3, r5, r1, r3
 1779              		.loc 1 681 101 view .LVU325
 1780 0014 1069     		ldr	r0, [r2, #16]
 1781              		.loc 1 681 89 view .LVU326
 1782 0016 00FB1633 		mls	r3, r0, r6, r3
 1783              		.loc 1 681 149 view .LVU327
 1784 001a 5269     		ldr	r2, [r2, #20]
 1785              		.loc 1 681 121 view .LVU328
 1786 001c 02FB0533 		mla	r3, r2, r5, r3
 1787              		.loc 1 681 153 view .LVU329
 1788 0020 02FB1433 		mls	r3, r2, r4, r3
 1789              		.loc 1 681 24 view .LVU330
 1790 0024 00FB0130 		mla	r0, r0, r1, r3
 1791 0028 FFF7FEFF 		bl	__aeabi_i2d
 1792              	.LVL224:
 1793 002c 024B     		ldr	r3, .L107+4
 1794 002e C3E90001 		strd	r0, [r3]
 682:Core/Src/main.c **** }
 1795              		.loc 1 682 1 view .LVU331
 1796 0032 70BD     		pop	{r4, r5, r6, pc}
 1797              	.L108:
 1798              		.align	2
 1799              	.L107:
 1800 0034 00000000 		.word	.LANCHOR2
 1801 0038 00000000 		.word	.LANCHOR3
 1802              		.cfi_endproc
 1803              	.LFE80:
 1805              		.section	.text.Sol_Car_Pos,"ax",%progbits
 1806              		.align	1
 1807              		.global	Sol_Car_Pos
 1808              		.syntax unified
 1809              		.thumb
 1810              		.thumb_func
ARM GAS  C:\Users\zhangjd\AppData\Local\Temp\ccW4vp8f.s 			page 45


 1811              		.fpu softvfp
 1813              	Sol_Car_Pos:
 1814              	.LVL225:
 1815              	.LFB81:
 683:Core/Src/main.c **** void Sol_Car_Pos(double r_1, double r_2, double r_3)
 684:Core/Src/main.c **** {
 1816              		.loc 1 684 1 is_stmt 1 view -0
 1817              		.cfi_startproc
 1818              		@ args = 8, pretend = 0, frame = 32
 1819              		@ frame_needed = 0, uses_anonymous_args = 0
 1820              		.loc 1 684 1 is_stmt 0 view .LVU333
 1821 0000 2DE9F04F 		push	{r4, r5, r6, r7, r8, r9, r10, fp, lr}
 1822              	.LCFI15:
 1823              		.cfi_def_cfa_offset 36
 1824              		.cfi_offset 4, -36
 1825              		.cfi_offset 5, -32
 1826              		.cfi_offset 6, -28
 1827              		.cfi_offset 7, -24
 1828              		.cfi_offset 8, -20
 1829              		.cfi_offset 9, -16
 1830              		.cfi_offset 10, -12
 1831              		.cfi_offset 11, -8
 1832              		.cfi_offset 14, -4
 1833 0004 89B0     		sub	sp, sp, #36
 1834              	.LCFI16:
 1835              		.cfi_def_cfa_offset 72
 1836 0006 1646     		mov	r6, r2
 1837 0008 1F46     		mov	r7, r3
 1838 000a DDE91289 		ldrd	r8, [sp, #72]
 685:Core/Src/main.c ****     ///Á¨¨‰∫åÂõûÂêàËÆ°ÁÆóÂ∞èËΩ¶‰ΩçÁΩÆÂáΩÊï∞„ÄÇËÆ°ÁÆóÂá∫Â∞èËΩ¶ÂΩìÂâçÂùêÊ†áÔºåÂ≠òÂÇ®Âú®car_Pos[2]Êï∞Á
 686:Core/Src/main.c ****     ///ËøîÂõûÂÄºÔºöÔøΩ??
 687:Core/Src/main.c ****     car_Pos[1] = (r_1 * r_1 * (beacon_Pos[4] - beacon_Pos[2]) + r_3 * r_3 * (beacon_Pos[2] - beacon
 1839              		.loc 1 687 5 is_stmt 1 view .LVU334
 1840              		.loc 1 687 23 is_stmt 0 view .LVU335
 1841 000e 0246     		mov	r2, r0
 1842              	.LVL226:
 1843              		.loc 1 687 23 view .LVU336
 1844 0010 0B46     		mov	r3, r1
 1845 0012 FFF7FEFF 		bl	__aeabi_dmul
 1846              	.LVL227:
 1847              		.loc 1 687 23 view .LVU337
 1848 0016 CDE90201 		strd	r0, [sp, #8]
 1849              		.loc 1 687 42 view .LVU338
 1850 001a DFF8B0A1 		ldr	r10, .L111
 1851 001e DAF81040 		ldr	r4, [r10, #16]
 1852              		.loc 1 687 58 view .LVU339
 1853 0022 DAF80850 		ldr	r5, [r10, #8]
 1854              		.loc 1 687 29 view .LVU340
 1855 0026 601B     		subs	r0, r4, r5
 1856 0028 FFF7FEFF 		bl	__aeabi_i2d
 1857              	.LVL228:
 1858 002c DDE90223 		ldrd	r2, [sp, #8]
 1859 0030 FFF7FEFF 		bl	__aeabi_dmul
 1860              	.LVL229:
 1861 0034 CDE90001 		strd	r0, [sp]
 1862              		.loc 1 687 69 view .LVU341
 1863 0038 4246     		mov	r2, r8
ARM GAS  C:\Users\zhangjd\AppData\Local\Temp\ccW4vp8f.s 			page 46


 1864 003a 4B46     		mov	r3, r9
 1865 003c 4046     		mov	r0, r8
 1866 003e 4946     		mov	r1, r9
 1867 0040 FFF7FEFF 		bl	__aeabi_dmul
 1868              	.LVL230:
 1869 0044 CDE90401 		strd	r0, [sp, #16]
 1870              		.loc 1 687 104 view .LVU342
 1871 0048 DAF80080 		ldr	r8, [r10]
 1872              		.loc 1 687 75 view .LVU343
 1873 004c A5EB0800 		sub	r0, r5, r8
 1874 0050 FFF7FEFF 		bl	__aeabi_i2d
 1875              	.LVL231:
 1876 0054 DDE90423 		ldrd	r2, [sp, #16]
 1877 0058 FFF7FEFF 		bl	__aeabi_dmul
 1878              	.LVL232:
 1879 005c 0246     		mov	r2, r0
 1880 005e 0B46     		mov	r3, r1
 1881              		.loc 1 687 63 view .LVU344
 1882 0060 DDE90001 		ldrd	r0, [sp]
 1883 0064 FFF7FEFF 		bl	__aeabi_dadd
 1884              	.LVL233:
 1885 0068 CDE90001 		strd	r0, [sp]
 1886              		.loc 1 687 115 view .LVU345
 1887 006c 3246     		mov	r2, r6
 1888 006e 3B46     		mov	r3, r7
 1889 0070 3046     		mov	r0, r6
 1890 0072 3946     		mov	r1, r7
 1891 0074 FFF7FEFF 		bl	__aeabi_dmul
 1892              	.LVL234:
 1893 0078 0646     		mov	r6, r0
 1894 007a 0F46     		mov	r7, r1
 1895              		.loc 1 687 121 view .LVU346
 1896 007c A8EB0400 		sub	r0, r8, r4
 1897 0080 FFF7FEFF 		bl	__aeabi_i2d
 1898              	.LVL235:
 1899 0084 CDE90667 		strd	r6, [sp, #24]
 1900 0088 3246     		mov	r2, r6
 1901 008a 3B46     		mov	r3, r7
 1902 008c FFF7FEFF 		bl	__aeabi_dmul
 1903              	.LVL236:
 1904 0090 0246     		mov	r2, r0
 1905 0092 0B46     		mov	r3, r1
 1906              		.loc 1 687 109 view .LVU347
 1907 0094 DDE90001 		ldrd	r0, [sp]
 1908 0098 FFF7FEFF 		bl	__aeabi_dadd
 1909              	.LVL237:
 1910              		.loc 1 687 156 view .LVU348
 1911 009c 0022     		movs	r2, #0
 1912 009e 4C4B     		ldr	r3, .L111+4
 1913 00a0 FFF7FEFF 		bl	__aeabi_dmul
 1914              	.LVL238:
 1915              		.loc 1 687 160 view .LVU349
 1916 00a4 4B4B     		ldr	r3, .L111+8
 1917 00a6 D3E90067 		ldrd	r6, [r3]
 1918 00aa CDE90067 		strd	r6, [sp]
 1919 00ae 3246     		mov	r2, r6
 1920 00b0 3B46     		mov	r3, r7
ARM GAS  C:\Users\zhangjd\AppData\Local\Temp\ccW4vp8f.s 			page 47


 1921 00b2 FFF7FEFF 		bl	__aeabi_ddiv
 1922              	.LVL239:
 1923 00b6 0646     		mov	r6, r0
 1924 00b8 0F46     		mov	r7, r1
 1925              		.loc 1 687 199 view .LVU350
 1926 00ba 281B     		subs	r0, r5, r4
 1927              		.loc 1 687 228 view .LVU351
 1928 00bc DAF804B0 		ldr	fp, [r10, #4]
 1929              		.loc 1 687 216 view .LVU352
 1930 00c0 0BFB00F3 		mul	r3, fp, r0
 1931              		.loc 1 687 265 view .LVU353
 1932 00c4 A8EB0500 		sub	r0, r8, r5
 1933              		.loc 1 687 294 view .LVU354
 1934 00c8 DAF81490 		ldr	r9, [r10, #20]
 1935              		.loc 1 687 282 view .LVU355
 1936 00cc 09FB00F0 		mul	r0, r9, r0
 1937              		.loc 1 687 298 view .LVU356
 1938 00d0 00FB09F0 		mul	r0, r0, r9
 1939              		.loc 1 687 248 view .LVU357
 1940 00d4 03FB0B00 		mla	r0, r3, fp, r0
 1941              		.loc 1 687 331 view .LVU358
 1942 00d8 A4EB0803 		sub	r3, r4, r8
 1943              		.loc 1 687 360 view .LVU359
 1944 00dc DAF80CA0 		ldr	r10, [r10, #12]
 1945              		.loc 1 687 348 view .LVU360
 1946 00e0 0AFB03F3 		mul	r3, r10, r3
 1947              		.loc 1 687 314 view .LVU361
 1948 00e4 03FB0A00 		mla	r0, r3, r10, r0
 1949              		.loc 1 687 381 view .LVU362
 1950 00e8 00EBD070 		add	r0, r0, r0, lsr #31
 1951              		.loc 1 687 385 view .LVU363
 1952 00ec 4010     		asrs	r0, r0, #1
 1953 00ee FFF7FEFF 		bl	__aeabi_i2d
 1954              	.LVL240:
 1955 00f2 DDE90023 		ldrd	r2, [sp]
 1956 00f6 FFF7FEFF 		bl	__aeabi_ddiv
 1957              	.LVL241:
 1958 00fa 0246     		mov	r2, r0
 1959 00fc 0B46     		mov	r3, r1
 1960              		.loc 1 687 181 view .LVU364
 1961 00fe 3046     		mov	r0, r6
 1962 0100 3946     		mov	r1, r7
 1963 0102 FFF7FEFF 		bl	__aeabi_dadd
 1964              	.LVL242:
 1965              		.loc 1 687 16 view .LVU365
 1966 0106 FFF7FEFF 		bl	__aeabi_d2iz
 1967              	.LVL243:
 1968 010a 334B     		ldr	r3, .L111+12
 1969 010c 5860     		str	r0, [r3, #4]
 688:Core/Src/main.c ****     car_Pos[0] = -(r_1 * r_1 * (beacon_Pos[5] - beacon_Pos[3]) + r_3 * r_3 * (beacon_Pos[3] - beaco
 1970              		.loc 1 688 5 is_stmt 1 view .LVU366
 1971              		.loc 1 688 30 is_stmt 0 view .LVU367
 1972 010e A9EB0A00 		sub	r0, r9, r10
 1973 0112 FFF7FEFF 		bl	__aeabi_i2d
 1974              	.LVL244:
 1975 0116 DDE90223 		ldrd	r2, [sp, #8]
 1976 011a FFF7FEFF 		bl	__aeabi_dmul
ARM GAS  C:\Users\zhangjd\AppData\Local\Temp\ccW4vp8f.s 			page 48


 1977              	.LVL245:
 1978 011e 0646     		mov	r6, r0
 1979 0120 0F46     		mov	r7, r1
 1980              		.loc 1 688 76 view .LVU368
 1981 0122 AAEB0B00 		sub	r0, r10, fp
 1982 0126 FFF7FEFF 		bl	__aeabi_i2d
 1983              	.LVL246:
 1984 012a DDE90423 		ldrd	r2, [sp, #16]
 1985 012e FFF7FEFF 		bl	__aeabi_dmul
 1986              	.LVL247:
 1987 0132 0246     		mov	r2, r0
 1988 0134 0B46     		mov	r3, r1
 1989              		.loc 1 688 64 view .LVU369
 1990 0136 3046     		mov	r0, r6
 1991 0138 3946     		mov	r1, r7
 1992 013a FFF7FEFF 		bl	__aeabi_dadd
 1993              	.LVL248:
 1994 013e 0646     		mov	r6, r0
 1995 0140 0F46     		mov	r7, r1
 1996              		.loc 1 688 122 view .LVU370
 1997 0142 ABEB0900 		sub	r0, fp, r9
 1998 0146 FFF7FEFF 		bl	__aeabi_i2d
 1999              	.LVL249:
 2000 014a DDE90623 		ldrd	r2, [sp, #24]
 2001 014e FFF7FEFF 		bl	__aeabi_dmul
 2002              	.LVL250:
 2003 0152 0246     		mov	r2, r0
 2004 0154 0B46     		mov	r3, r1
 2005              		.loc 1 688 110 view .LVU371
 2006 0156 3046     		mov	r0, r6
 2007 0158 3946     		mov	r1, r7
 2008 015a FFF7FEFF 		bl	__aeabi_dadd
 2009              	.LVL251:
 2010 015e 0746     		mov	r7, r0
 2011 0160 0E46     		mov	r6, r1
 2012              		.loc 1 688 157 view .LVU372
 2013 0162 0022     		movs	r2, #0
 2014 0164 1A4B     		ldr	r3, .L111+4
 2015 0166 3846     		mov	r0, r7
 2016 0168 06F10041 		add	r1, r6, #-2147483648
 2017 016c FFF7FEFF 		bl	__aeabi_dmul
 2018              	.LVL252:
 2019              		.loc 1 688 161 view .LVU373
 2020 0170 DDE90023 		ldrd	r2, [sp]
 2021 0174 FFF7FEFF 		bl	__aeabi_ddiv
 2022              	.LVL253:
 2023 0178 0646     		mov	r6, r0
 2024 017a 0F46     		mov	r7, r1
 2025              		.loc 1 688 200 view .LVU374
 2026 017c AAEB0900 		sub	r0, r10, r9
 2027              		.loc 1 688 217 view .LVU375
 2028 0180 00FB08F0 		mul	r0, r0, r8
 2029              		.loc 1 688 266 view .LVU376
 2030 0184 ABEB0A0A 		sub	r10, fp, r10
 2031              		.loc 1 688 283 view .LVU377
 2032 0188 0AFB04FA 		mul	r10, r10, r4
 2033              		.loc 1 688 299 view .LVU378
ARM GAS  C:\Users\zhangjd\AppData\Local\Temp\ccW4vp8f.s 			page 49


 2034 018c 0AFB04F4 		mul	r4, r10, r4
 2035              		.loc 1 688 249 view .LVU379
 2036 0190 00FB0848 		mla	r8, r0, r8, r4
 2037              		.loc 1 688 332 view .LVU380
 2038 0194 A9EB0B09 		sub	r9, r9, fp
 2039              		.loc 1 688 349 view .LVU381
 2040 0198 09FB05F9 		mul	r9, r9, r5
 2041              		.loc 1 688 315 view .LVU382
 2042 019c 09FB0585 		mla	r5, r9, r5, r8
 2043              		.loc 1 688 382 view .LVU383
 2044 01a0 05EBD575 		add	r5, r5, r5, lsr #31
 2045              		.loc 1 688 386 view .LVU384
 2046 01a4 6810     		asrs	r0, r5, #1
 2047 01a6 FFF7FEFF 		bl	__aeabi_i2d
 2048              	.LVL254:
 2049 01aa DDE90023 		ldrd	r2, [sp]
 2050 01ae FFF7FEFF 		bl	__aeabi_ddiv
 2051              	.LVL255:
 2052 01b2 0246     		mov	r2, r0
 2053 01b4 0B46     		mov	r3, r1
 2054              		.loc 1 688 182 view .LVU385
 2055 01b6 3046     		mov	r0, r6
 2056 01b8 3946     		mov	r1, r7
 2057 01ba FFF7FEFF 		bl	__aeabi_dsub
 2058              	.LVL256:
 2059              		.loc 1 688 16 view .LVU386
 2060 01be FFF7FEFF 		bl	__aeabi_d2iz
 2061              	.LVL257:
 2062 01c2 054B     		ldr	r3, .L111+12
 2063 01c4 1860     		str	r0, [r3]
 689:Core/Src/main.c **** }
 2064              		.loc 1 689 1 view .LVU387
 2065 01c6 09B0     		add	sp, sp, #36
 2066              	.LCFI17:
 2067              		.cfi_def_cfa_offset 36
 2068              		@ sp needed
 2069 01c8 BDE8F08F 		pop	{r4, r5, r6, r7, r8, r9, r10, fp, pc}
 2070              	.LVL258:
 2071              	.L112:
 2072              		.loc 1 689 1 view .LVU388
 2073              		.align	2
 2074              	.L111:
 2075 01cc 00000000 		.word	.LANCHOR2
 2076 01d0 0000E03F 		.word	1071644672
 2077 01d4 00000000 		.word	.LANCHOR3
 2078 01d8 00000000 		.word	.LANCHOR4
 2079              		.cfi_endproc
 2080              	.LFE81:
 2082              		.global	__aeabi_d2f
 2083              		.global	__aeabi_f2d
 2084              		.global	__aeabi_dcmpge
 2085              		.global	__aeabi_dcmple
 2086              		.section	.text.Goto,"ax",%progbits
 2087              		.align	1
 2088              		.global	Goto
 2089              		.syntax unified
 2090              		.thumb
ARM GAS  C:\Users\zhangjd\AppData\Local\Temp\ccW4vp8f.s 			page 50


 2091              		.thumb_func
 2092              		.fpu softvfp
 2094              	Goto:
 2095              	.LVL259:
 2096              	.LFB82:
 690:Core/Src/main.c **** void Goto(int x, int y)
 691:Core/Src/main.c **** {
 2097              		.loc 1 691 1 is_stmt 1 view -0
 2098              		.cfi_startproc
 2099              		@ args = 0, pretend = 0, frame = 0
 2100              		@ frame_needed = 0, uses_anonymous_args = 0
 2101              		.loc 1 691 1 is_stmt 0 view .LVU390
 2102 0000 F8B5     		push	{r3, r4, r5, r6, r7, lr}
 2103              	.LCFI18:
 2104              		.cfi_def_cfa_offset 24
 2105              		.cfi_offset 3, -24
 2106              		.cfi_offset 4, -20
 2107              		.cfi_offset 5, -16
 2108              		.cfi_offset 6, -12
 2109              		.cfi_offset 7, -8
 2110              		.cfi_offset 14, -4
 692:Core/Src/main.c ****     float angle_obj;
 2111              		.loc 1 692 5 is_stmt 1 view .LVU391
 693:Core/Src/main.c ****     angle_obj = 360 - atan2LUTif(y - car_Pos[1], x - car_Pos[0]); ///ËÆ°ÁÆóÂà∞ÁõÆÊ†áÁÇπËøûÁ∫øÁöÑÂ§π
 2112              		.loc 1 693 5 view .LVU392
 2113              		.loc 1 693 45 is_stmt 0 view .LVU393
 2114 0002 4D4B     		ldr	r3, .L141
 2115 0004 5E68     		ldr	r6, [r3, #4]
 2116              		.loc 1 693 36 view .LVU394
 2117 0006 8E1B     		subs	r6, r1, r6
 2118              		.loc 1 693 61 view .LVU395
 2119 0008 1B68     		ldr	r3, [r3]
 2120              		.loc 1 693 23 view .LVU396
 2121 000a C01A     		subs	r0, r0, r3
 2122              	.LVL260:
 2123              		.loc 1 693 23 view .LVU397
 2124 000c FFF7FEFF 		bl	__aeabi_i2d
 2125              	.LVL261:
 2126              		.loc 1 693 23 view .LVU398
 2127 0010 0446     		mov	r4, r0
 2128 0012 0D46     		mov	r5, r1
 2129 0014 3046     		mov	r0, r6
 2130 0016 FFF7FEFF 		bl	__aeabi_i2d
 2131              	.LVL262:
 2132 001a 2246     		mov	r2, r4
 2133 001c 2B46     		mov	r3, r5
 2134 001e FFF7FEFF 		bl	atan2LUTif
 2135              	.LVL263:
 2136 0022 0246     		mov	r2, r0
 2137 0024 0B46     		mov	r3, r1
 2138              		.loc 1 693 21 view .LVU399
 2139 0026 0020     		movs	r0, #0
 2140 0028 4449     		ldr	r1, .L141+4
 2141 002a FFF7FEFF 		bl	__aeabi_dsub
 2142              	.LVL264:
 2143              		.loc 1 693 15 view .LVU400
 2144 002e FFF7FEFF 		bl	__aeabi_d2f
ARM GAS  C:\Users\zhangjd\AppData\Local\Temp\ccW4vp8f.s 			page 51


 2145              	.LVL265:
 2146 0032 0446     		mov	r4, r0
 2147              	.LVL266:
 694:Core/Src/main.c ****     float angle_car = GetYaw();
 2148              		.loc 1 694 5 is_stmt 1 view .LVU401
 2149              		.loc 1 694 23 is_stmt 0 view .LVU402
 2150 0034 FFF7FEFF 		bl	GetYaw
 2151              	.LVL267:
 2152              		.loc 1 694 23 view .LVU403
 2153 0038 0546     		mov	r5, r0
 2154              	.LVL268:
 695:Core/Src/main.c ****     if (angle_obj >= angle_err && angle_obj <= 360.0 - angle_err)
 2155              		.loc 1 695 5 is_stmt 1 view .LVU404
 2156              		.loc 1 695 8 is_stmt 0 view .LVU405
 2157 003a 4149     		ldr	r1, .L141+8
 2158 003c 2046     		mov	r0, r4
 2159              	.LVL269:
 2160              		.loc 1 695 8 view .LVU406
 2161 003e FFF7FEFF 		bl	__aeabi_fcmpge
 2162              	.LVL270:
 2163 0042 F0B1     		cbz	r0, .L114
 2164              		.loc 1 695 32 discriminator 1 view .LVU407
 2165 0044 3F49     		ldr	r1, .L141+12
 2166 0046 2046     		mov	r0, r4
 2167 0048 FFF7FEFF 		bl	__aeabi_fcmple
 2168              	.LVL271:
 2169 004c C8B1     		cbz	r0, .L114
 696:Core/Src/main.c ****     {
 697:Core/Src/main.c ****         if (angle_car >= angle_obj - angle_err && angle_car <= angle_obj + angle_err)
 2170              		.loc 1 697 9 is_stmt 1 view .LVU408
 2171              		.loc 1 697 36 is_stmt 0 view .LVU409
 2172 004e 3C49     		ldr	r1, .L141+8
 2173 0050 2046     		mov	r0, r4
 2174 0052 FFF7FEFF 		bl	__aeabi_fsub
 2175              	.LVL272:
 2176              		.loc 1 697 12 view .LVU410
 2177 0056 2946     		mov	r1, r5
 2178 0058 FFF7FEFF 		bl	__aeabi_fcmple
 2179              	.LVL273:
 2180 005c 38B1     		cbz	r0, .L117
 2181              		.loc 1 697 74 discriminator 1 view .LVU411
 2182 005e 3849     		ldr	r1, .L141+8
 2183 0060 2046     		mov	r0, r4
 2184 0062 FFF7FEFF 		bl	__aeabi_fadd
 2185              	.LVL274:
 2186              		.loc 1 697 48 discriminator 1 view .LVU412
 2187 0066 2946     		mov	r1, r5
 2188 0068 FFF7FEFF 		bl	__aeabi_fcmpge
 2189              	.LVL275:
 2190 006c 20B9     		cbnz	r0, .L140
 2191              	.L117:
 698:Core/Src/main.c ****         {
 699:Core/Src/main.c ****             forward(forward_speed);
 700:Core/Src/main.c ****         }
 701:Core/Src/main.c ****         else
 702:Core/Src/main.c ****         {
 703:Core/Src/main.c ****             rotate_clockwise(rotate_speed);
ARM GAS  C:\Users\zhangjd\AppData\Local\Temp\ccW4vp8f.s 			page 52


 2192              		.loc 1 703 13 is_stmt 1 view .LVU413
 2193 006e 4FF44870 		mov	r0, #800
 2194 0072 FFF7FEFF 		bl	rotate_clockwise
 2195              	.LVL276:
 2196 0076 2BE0     		b	.L113
 2197              	.L140:
 699:Core/Src/main.c ****         }
 2198              		.loc 1 699 13 view .LVU414
 2199 0078 40F2DC50 		movw	r0, #1500
 2200 007c FFF7FEFF 		bl	forward
 2201              	.LVL277:
 2202 0080 26E0     		b	.L113
 2203              	.L114:
 704:Core/Src/main.c ****         }
 705:Core/Src/main.c ****     }
 706:Core/Src/main.c ****     else
 707:Core/Src/main.c ****     {
 708:Core/Src/main.c ****         if (angle_obj < angle_err)
 2204              		.loc 1 708 9 view .LVU415
 2205              		.loc 1 708 12 is_stmt 0 view .LVU416
 2206 0082 2F49     		ldr	r1, .L141+8
 2207 0084 2046     		mov	r0, r4
 2208 0086 FFF7FEFF 		bl	__aeabi_fcmplt
 2209              	.LVL278:
 2210 008a 38B3     		cbz	r0, .L136
 709:Core/Src/main.c ****         {
 710:Core/Src/main.c ****             if ((angle_car >= angle_obj - angle_err + 360.0 || angle_car <= angle_obj + angle_err))
 2211              		.loc 1 710 13 is_stmt 1 view .LVU417
 2212              		.loc 1 710 28 is_stmt 0 view .LVU418
 2213 008c 2846     		mov	r0, r5
 2214 008e FFF7FEFF 		bl	__aeabi_f2d
 2215              	.LVL279:
 2216 0092 0646     		mov	r6, r0
 2217 0094 0F46     		mov	r7, r1
 2218              		.loc 1 710 41 view .LVU419
 2219 0096 2A49     		ldr	r1, .L141+8
 2220 0098 2046     		mov	r0, r4
 2221 009a FFF7FEFF 		bl	__aeabi_fsub
 2222              	.LVL280:
 2223 009e FFF7FEFF 		bl	__aeabi_f2d
 2224              	.LVL281:
 2225              		.loc 1 710 53 view .LVU420
 2226 00a2 0022     		movs	r2, #0
 2227 00a4 254B     		ldr	r3, .L141+4
 2228 00a6 FFF7FEFF 		bl	__aeabi_dadd
 2229              	.LVL282:
 2230 00aa 0246     		mov	r2, r0
 2231 00ac 0B46     		mov	r3, r1
 2232              		.loc 1 710 16 view .LVU421
 2233 00ae 3046     		mov	r0, r6
 2234 00b0 3946     		mov	r1, r7
 2235 00b2 FFF7FEFF 		bl	__aeabi_dcmpge
 2236              	.LVL283:
 2237 00b6 38B9     		cbnz	r0, .L123
 2238              		.loc 1 710 87 discriminator 1 view .LVU422
 2239 00b8 2149     		ldr	r1, .L141+8
 2240 00ba 2046     		mov	r0, r4
ARM GAS  C:\Users\zhangjd\AppData\Local\Temp\ccW4vp8f.s 			page 53


 2241 00bc FFF7FEFF 		bl	__aeabi_fadd
 2242              	.LVL284:
 2243              		.loc 1 710 61 discriminator 1 view .LVU423
 2244 00c0 2946     		mov	r1, r5
 2245 00c2 FFF7FEFF 		bl	__aeabi_fcmpge
 2246              	.LVL285:
 2247 00c6 20B1     		cbz	r0, .L137
 2248              	.L123:
 711:Core/Src/main.c ****             {
 712:Core/Src/main.c ****                 forward(forward_speed);
 2249              		.loc 1 712 17 is_stmt 1 view .LVU424
 2250 00c8 40F2DC50 		movw	r0, #1500
 2251 00cc FFF7FEFF 		bl	forward
 2252              	.LVL286:
 2253              	.L113:
 713:Core/Src/main.c ****             }
 714:Core/Src/main.c ****             else
 715:Core/Src/main.c ****             {
 716:Core/Src/main.c ****                 rotate_clockwise(rotate_speed);
 717:Core/Src/main.c ****             }
 718:Core/Src/main.c ****         }
 719:Core/Src/main.c ****         else if (angle_obj > 360 - angle_err)
 720:Core/Src/main.c ****         {
 721:Core/Src/main.c ****             if ((angle_car <= angle_obj + angle_err - 360.0 || angle_car >= angle_obj - angle_err))
 722:Core/Src/main.c ****             {
 723:Core/Src/main.c ****                 forward(forward_speed);
 724:Core/Src/main.c ****             }
 725:Core/Src/main.c ****             else
 726:Core/Src/main.c ****             {
 727:Core/Src/main.c ****                 rotate_clockwise(rotate_speed);
 728:Core/Src/main.c ****             }
 729:Core/Src/main.c ****         }
 730:Core/Src/main.c ****     }
 731:Core/Src/main.c **** }
 2254              		.loc 1 731 1 is_stmt 0 view .LVU425
 2255 00d0 F8BD     		pop	{r3, r4, r5, r6, r7, pc}
 2256              	.LVL287:
 2257              	.L137:
 716:Core/Src/main.c ****             }
 2258              		.loc 1 716 17 is_stmt 1 view .LVU426
 2259 00d2 4FF44870 		mov	r0, #800
 2260 00d6 FFF7FEFF 		bl	rotate_clockwise
 2261              	.LVL288:
 2262 00da F9E7     		b	.L113
 2263              	.L136:
 719:Core/Src/main.c ****         {
 2264              		.loc 1 719 14 view .LVU427
 719:Core/Src/main.c ****         {
 2265              		.loc 1 719 17 is_stmt 0 view .LVU428
 2266 00dc 1949     		ldr	r1, .L141+12
 2267 00de 2046     		mov	r0, r4
 2268 00e0 FFF7FEFF 		bl	__aeabi_fcmpgt
 2269              	.LVL289:
 2270 00e4 0028     		cmp	r0, #0
 2271 00e6 F3D0     		beq	.L113
 721:Core/Src/main.c ****             {
 2272              		.loc 1 721 13 is_stmt 1 view .LVU429
ARM GAS  C:\Users\zhangjd\AppData\Local\Temp\ccW4vp8f.s 			page 54


 721:Core/Src/main.c ****             {
 2273              		.loc 1 721 28 is_stmt 0 view .LVU430
 2274 00e8 2846     		mov	r0, r5
 2275 00ea FFF7FEFF 		bl	__aeabi_f2d
 2276              	.LVL290:
 2277 00ee 0646     		mov	r6, r0
 2278 00f0 0F46     		mov	r7, r1
 721:Core/Src/main.c ****             {
 2279              		.loc 1 721 41 view .LVU431
 2280 00f2 1349     		ldr	r1, .L141+8
 2281 00f4 2046     		mov	r0, r4
 2282 00f6 FFF7FEFF 		bl	__aeabi_fadd
 2283              	.LVL291:
 2284 00fa FFF7FEFF 		bl	__aeabi_f2d
 2285              	.LVL292:
 721:Core/Src/main.c ****             {
 2286              		.loc 1 721 53 view .LVU432
 2287 00fe 0022     		movs	r2, #0
 2288 0100 0E4B     		ldr	r3, .L141+4
 2289 0102 FFF7FEFF 		bl	__aeabi_dsub
 2290              	.LVL293:
 2291 0106 0246     		mov	r2, r0
 2292 0108 0B46     		mov	r3, r1
 721:Core/Src/main.c ****             {
 2293              		.loc 1 721 16 view .LVU433
 2294 010a 3046     		mov	r0, r6
 2295 010c 3946     		mov	r1, r7
 2296 010e FFF7FEFF 		bl	__aeabi_dcmple
 2297              	.LVL294:
 2298 0112 38B9     		cbnz	r0, .L127
 721:Core/Src/main.c ****             {
 2299              		.loc 1 721 87 discriminator 1 view .LVU434
 2300 0114 0A49     		ldr	r1, .L141+8
 2301 0116 2046     		mov	r0, r4
 2302 0118 FFF7FEFF 		bl	__aeabi_fsub
 2303              	.LVL295:
 721:Core/Src/main.c ****             {
 2304              		.loc 1 721 61 discriminator 1 view .LVU435
 2305 011c 2946     		mov	r1, r5
 2306 011e FFF7FEFF 		bl	__aeabi_fcmple
 2307              	.LVL296:
 2308 0122 20B1     		cbz	r0, .L138
 2309              	.L127:
 723:Core/Src/main.c ****             }
 2310              		.loc 1 723 17 is_stmt 1 view .LVU436
 2311 0124 40F2DC50 		movw	r0, #1500
 2312 0128 FFF7FEFF 		bl	forward
 2313              	.LVL297:
 2314 012c D0E7     		b	.L113
 2315              	.L138:
 727:Core/Src/main.c ****             }
 2316              		.loc 1 727 17 view .LVU437
 2317 012e 4FF44870 		mov	r0, #800
 2318 0132 FFF7FEFF 		bl	rotate_clockwise
 2319              	.LVL298:
 2320              		.loc 1 731 1 is_stmt 0 view .LVU438
 2321 0136 CBE7     		b	.L113
ARM GAS  C:\Users\zhangjd\AppData\Local\Temp\ccW4vp8f.s 			page 55


 2322              	.L142:
 2323              		.align	2
 2324              	.L141:
 2325 0138 00000000 		.word	.LANCHOR4
 2326 013c 00807640 		.word	1081507840
 2327 0140 0000A040 		.word	1084227584
 2328 0144 0080B143 		.word	1135706112
 2329              		.cfi_endproc
 2330              	.LFE82:
 2332              		.section	.text.HAL_TIM_PeriodElapsedCallback,"ax",%progbits
 2333              		.align	1
 2334              		.global	HAL_TIM_PeriodElapsedCallback
 2335              		.syntax unified
 2336              		.thumb
 2337              		.thumb_func
 2338              		.fpu softvfp
 2340              	HAL_TIM_PeriodElapsedCallback:
 2341              	.LVL299:
 2342              	.LFB65:
 182:Core/Src/main.c ****     HAL_UART_Receive_DMA(&huart2, jy62Receive, JY62_MESSAGE_LENGTH);
 2343              		.loc 1 182 1 is_stmt 1 view -0
 2344              		.cfi_startproc
 2345              		@ args = 0, pretend = 0, frame = 0
 2346              		@ frame_needed = 0, uses_anonymous_args = 0
 182:Core/Src/main.c ****     HAL_UART_Receive_DMA(&huart2, jy62Receive, JY62_MESSAGE_LENGTH);
 2347              		.loc 1 182 1 is_stmt 0 view .LVU440
 2348 0000 70B5     		push	{r4, r5, r6, lr}
 2349              	.LCFI19:
 2350              		.cfi_def_cfa_offset 16
 2351              		.cfi_offset 4, -16
 2352              		.cfi_offset 5, -12
 2353              		.cfi_offset 6, -8
 2354              		.cfi_offset 14, -4
 2355 0002 88B0     		sub	sp, sp, #32
 2356              	.LCFI20:
 2357              		.cfi_def_cfa_offset 48
 2358 0004 0446     		mov	r4, r0
 183:Core/Src/main.c ****     if (htim->Instance == TIM1)
 2359              		.loc 1 183 5 is_stmt 1 view .LVU441
 2360 0006 0B22     		movs	r2, #11
 2361 0008 A349     		ldr	r1, .L165
 2362 000a A448     		ldr	r0, .L165+4
 2363              	.LVL300:
 183:Core/Src/main.c ****     if (htim->Instance == TIM1)
 2364              		.loc 1 183 5 is_stmt 0 view .LVU442
 2365 000c FFF7FEFF 		bl	HAL_UART_Receive_DMA
 2366              	.LVL301:
 184:Core/Src/main.c ****     {
 2367              		.loc 1 184 5 is_stmt 1 view .LVU443
 184:Core/Src/main.c ****     {
 2368              		.loc 1 184 13 is_stmt 0 view .LVU444
 2369 0010 2268     		ldr	r2, [r4]
 184:Core/Src/main.c ****     {
 2370              		.loc 1 184 8 view .LVU445
 2371 0012 A34B     		ldr	r3, .L165+8
 2372 0014 9A42     		cmp	r2, r3
 2373 0016 01D0     		beq	.L163
ARM GAS  C:\Users\zhangjd\AppData\Local\Temp\ccW4vp8f.s 			page 56


 2374              	.LVL302:
 2375              	.L143:
 335:Core/Src/main.c **** /* USER CODE END 0 */
 2376              		.loc 1 335 1 view .LVU446
 2377 0018 08B0     		add	sp, sp, #32
 2378              	.LCFI21:
 2379              		.cfi_remember_state
 2380              		.cfi_def_cfa_offset 16
 2381              		@ sp needed
 2382 001a 70BD     		pop	{r4, r5, r6, pc}
 2383              	.LVL303:
 2384              	.L163:
 2385              	.LCFI22:
 2386              		.cfi_restore_state
 186:Core/Src/main.c ****         if (count_pos == 2)
 2387              		.loc 1 186 9 is_stmt 1 view .LVU447
 186:Core/Src/main.c ****         if (count_pos == 2)
 2388              		.loc 1 186 18 is_stmt 0 view .LVU448
 2389 001c A14A     		ldr	r2, .L165+12
 2390 001e 1368     		ldr	r3, [r2]
 2391 0020 0133     		adds	r3, r3, #1
 2392 0022 1360     		str	r3, [r2]
 187:Core/Src/main.c ****         {
 2393              		.loc 1 187 9 is_stmt 1 view .LVU449
 187:Core/Src/main.c ****         {
 2394              		.loc 1 187 12 is_stmt 0 view .LVU450
 2395 0024 022B     		cmp	r3, #2
 2396 0026 0CD0     		beq	.L164
 2397              	.LVL304:
 2398              	.L145:
 193:Core/Src/main.c ****         {
 2399              		.loc 1 193 9 is_stmt 1 view .LVU451
 2400 0028 9F4B     		ldr	r3, .L165+16
 2401 002a 1B68     		ldr	r3, [r3]
 2402 002c 062B     		cmp	r3, #6
 2403 002e F3D8     		bhi	.L143
 2404 0030 DFE813F0 		tbh	[pc, r3, lsl #1]
 2405              	.L147:
 2406 0034 1200     		.2byte	(.L153-.L147)/2
 2407 0036 9000     		.2byte	(.L152-.L147)/2
 2408 0038 A600     		.2byte	(.L151-.L147)/2
 2409 003a C100     		.2byte	(.L150-.L147)/2
 2410 003c ED00     		.2byte	(.L149-.L147)/2
 2411 003e 1901     		.2byte	(.L148-.L147)/2
 2412 0040 6101     		.2byte	(.L146-.L147)/2
 2413              	.LVL305:
 2414              		.p2align 1
 2415              	.L164:
 189:Core/Src/main.c ****             car_Pos[1] = getCarPosY(); ///Êõ¥Êñ∞Â∞èËΩ¶xyÂùêÊ†á
 2416              		.loc 1 189 13 view .LVU452
 189:Core/Src/main.c ****             car_Pos[1] = getCarPosY(); ///Êõ¥Êñ∞Â∞èËΩ¶xyÂùêÊ†á
 2417              		.loc 1 189 26 is_stmt 0 view .LVU453
 2418 0042 FFF7FEFF 		bl	getCarPosX
 2419              	.LVL306:
 189:Core/Src/main.c ****             car_Pos[1] = getCarPosY(); ///Êõ¥Êñ∞Â∞èËΩ¶xyÂùêÊ†á
 2420              		.loc 1 189 24 view .LVU454
 2421 0046 994C     		ldr	r4, .L165+20
ARM GAS  C:\Users\zhangjd\AppData\Local\Temp\ccW4vp8f.s 			page 57


 2422              	.LVL307:
 189:Core/Src/main.c ****             car_Pos[1] = getCarPosY(); ///Êõ¥Êñ∞Â∞èËΩ¶xyÂùêÊ†á
 2423              		.loc 1 189 24 view .LVU455
 2424 0048 2060     		str	r0, [r4]
 190:Core/Src/main.c ****             count_pos = 0;
 2425              		.loc 1 190 13 is_stmt 1 view .LVU456
 190:Core/Src/main.c ****             count_pos = 0;
 2426              		.loc 1 190 26 is_stmt 0 view .LVU457
 2427 004a FFF7FEFF 		bl	getCarPosY
 2428              	.LVL308:
 190:Core/Src/main.c ****             count_pos = 0;
 2429              		.loc 1 190 24 view .LVU458
 2430 004e 6060     		str	r0, [r4, #4]
 191:Core/Src/main.c ****         }
 2431              		.loc 1 191 13 is_stmt 1 view .LVU459
 191:Core/Src/main.c ****         }
 2432              		.loc 1 191 23 is_stmt 0 view .LVU460
 2433 0050 944B     		ldr	r3, .L165+12
 2434 0052 0022     		movs	r2, #0
 2435 0054 1A60     		str	r2, [r3]
 2436 0056 E7E7     		b	.L145
 2437              	.L153:
 201:Core/Src/main.c ****             //Ê≠•È™§2ÔºöËß£ÁÆó‰∏§‰∏™ËµÑÊ∫êÂùêÔøΩ?? =====ÂæÖÂÆûÔøΩ??=====
 2438              		.loc 1 201 13 is_stmt 1 view .LVU461
 2439 0058 4FF44870 		mov	r0, #800
 2440 005c FFF7FEFF 		bl	rotate_clockwise_plus_forward
 2441              	.LVL309:
 210:Core/Src/main.c ****             {
 2442              		.loc 1 210 13 view .LVU462
 210:Core/Src/main.c ****             {
 2443              		.loc 1 210 17 is_stmt 0 view .LVU463
 2444 0060 9348     		ldr	r0, .L165+24
 2445 0062 944B     		ldr	r3, .L165+28
 2446 0064 03F10802 		add	r2, r3, #8
 2447 0068 0692     		str	r2, [sp, #24]
 2448 006a 0593     		str	r3, [sp, #20]
 2449 006c C369     		ldr	r3, [r0, #28]
 2450 006e 0493     		str	r3, [sp, #16]
 2451 0070 438B     		ldrh	r3, [r0, #26]
 2452 0072 0393     		str	r3, [sp, #12]
 2453 0074 038B     		ldrh	r3, [r0, #24]
 2454 0076 0293     		str	r3, [sp, #8]
 2455 0078 0369     		ldr	r3, [r0, #16]
 2456 007a 0193     		str	r3, [sp, #4]
 2457 007c C389     		ldrh	r3, [r0, #14]
 2458 007e 0093     		str	r3, [sp]
 2459 0080 8389     		ldrh	r3, [r0, #12]
 2460 0082 4268     		ldr	r2, [r0, #4]
 2461 0084 4188     		ldrh	r1, [r0, #2]
 2462 0086 0088     		ldrh	r0, [r0]
 2463 0088 FFF7FEFF 		bl	Solve_Mine_Pos
 2464              	.LVL310:
 210:Core/Src/main.c ****             {
 2465              		.loc 1 210 16 view .LVU464
 2466 008c 0028     		cmp	r0, #0
 2467 008e 2DD0     		beq	.L154
 210:Core/Src/main.c ****             {
ARM GAS  C:\Users\zhangjd\AppData\Local\Temp\ccW4vp8f.s 			page 58


 2468              		.loc 1 210 218 discriminator 1 view .LVU465
 2469 0090 8748     		ldr	r0, .L165+24
 2470 0092 884B     		ldr	r3, .L165+28
 2471 0094 03F10C02 		add	r2, r3, #12
 2472 0098 0692     		str	r2, [sp, #24]
 2473 009a 0433     		adds	r3, r3, #4
 2474 009c 0593     		str	r3, [sp, #20]
 2475 009e 036A     		ldr	r3, [r0, #32]
 2476 00a0 0493     		str	r3, [sp, #16]
 2477 00a2 438B     		ldrh	r3, [r0, #26]
 2478 00a4 0393     		str	r3, [sp, #12]
 2479 00a6 038B     		ldrh	r3, [r0, #24]
 2480 00a8 0293     		str	r3, [sp, #8]
 2481 00aa 4369     		ldr	r3, [r0, #20]
 2482 00ac 0193     		str	r3, [sp, #4]
 2483 00ae C389     		ldrh	r3, [r0, #14]
 2484 00b0 0093     		str	r3, [sp]
 2485 00b2 8389     		ldrh	r3, [r0, #12]
 2486 00b4 8268     		ldr	r2, [r0, #8]
 2487 00b6 4188     		ldrh	r1, [r0, #2]
 2488 00b8 0088     		ldrh	r0, [r0]
 2489 00ba FFF7FEFF 		bl	Solve_Mine_Pos
 2490              	.LVL311:
 210:Core/Src/main.c ****             {
 2491              		.loc 1 210 215 discriminator 1 view .LVU466
 2492 00be A8B1     		cbz	r0, .L154
 213:Core/Src/main.c ****                 //Ê≠•È™§3ÔºöÁ°ÆÂÆöÁ¶ªËΩ¶ÊúÄËøëÁöÑÔøΩ??ÔøΩ??
 2493              		.loc 1 213 17 is_stmt 1 view .LVU467
 213:Core/Src/main.c ****                 //Ê≠•È™§3ÔºöÁ°ÆÂÆöÁ¶ªËΩ¶ÊúÄËøëÁöÑÔøΩ??ÔøΩ??
 2494              		.loc 1 213 23 is_stmt 0 view .LVU468
 2495 00c0 794B     		ldr	r3, .L165+16
 2496 00c2 0122     		movs	r2, #1
 2497 00c4 1A60     		str	r2, [r3]
 215:Core/Src/main.c ****                 break;
 2498              		.loc 1 215 17 is_stmt 1 view .LVU469
 215:Core/Src/main.c ****                 break;
 2499              		.loc 1 215 66 is_stmt 0 view .LVU470
 2500 00c6 7B4A     		ldr	r2, .L165+28
 2501 00c8 1368     		ldr	r3, [r2]
 215:Core/Src/main.c ****                 break;
 2502              		.loc 1 215 116 view .LVU471
 2503 00ca 9168     		ldr	r1, [r2, #8]
 215:Core/Src/main.c ****                 break;
 2504              		.loc 1 215 120 view .LVU472
 2505 00cc 01FB01F1 		mul	r1, r1, r1
 215:Core/Src/main.c ****                 break;
 2506              		.loc 1 215 95 view .LVU473
 2507 00d0 03FB0313 		mla	r3, r3, r3, r1
 215:Core/Src/main.c ****                 break;
 2508              		.loc 1 215 168 view .LVU474
 2509 00d4 5168     		ldr	r1, [r2, #4]
 215:Core/Src/main.c ****                 break;
 2510              		.loc 1 215 218 view .LVU475
 2511 00d6 D068     		ldr	r0, [r2, #12]
 215:Core/Src/main.c ****                 break;
 2512              		.loc 1 215 222 view .LVU476
 2513 00d8 00FB00F0 		mul	r0, r0, r0
ARM GAS  C:\Users\zhangjd\AppData\Local\Temp\ccW4vp8f.s 			page 59


 215:Core/Src/main.c ****                 break;
 2514              		.loc 1 215 197 view .LVU477
 2515 00dc 01FB0101 		mla	r1, r1, r1, r0
 215:Core/Src/main.c ****                 break;
 2516              		.loc 1 215 252 view .LVU478
 2517 00e0 8B42     		cmp	r3, r1
 2518 00e2 B4BF     		ite	lt
 2519 00e4 0023     		movlt	r3, #0
 2520 00e6 0123     		movge	r3, #1
 215:Core/Src/main.c ****                 break;
 2521              		.loc 1 215 44 view .LVU479
 2522 00e8 5361     		str	r3, [r2, #20]
 216:Core/Src/main.c ****             }
 2523              		.loc 1 216 17 is_stmt 1 view .LVU480
 2524 00ea 95E7     		b	.L143
 2525              	.L154:
 221:Core/Src/main.c ****                 Prev_Pos[Prev_Pos_head].y = getCarPosY();          //Âêå‰∏ä
 2526              		.loc 1 221 17 view .LVU481
 221:Core/Src/main.c ****                 Prev_Pos[Prev_Pos_head].y = getCarPosY();          //Âêå‰∏ä
 2527              		.loc 1 221 40 is_stmt 0 view .LVU482
 2528 00ec 724C     		ldr	r4, .L165+32
 2529 00ee B4F90060 		ldrsh	r6, [r4]
 221:Core/Src/main.c ****                 Prev_Pos[Prev_Pos_head].y = getCarPosY();          //Âêå‰∏ä
 2530              		.loc 1 221 45 view .LVU483
 2531 00f2 FFF7FEFF 		bl	getCarPosX
 2532              	.LVL312:
 221:Core/Src/main.c ****                 Prev_Pos[Prev_Pos_head].y = getCarPosY();          //Âêå‰∏ä
 2533              		.loc 1 221 43 view .LVU484
 2534 00f6 6E4D     		ldr	r5, .L165+24
 2535 00f8 06EB4606 		add	r6, r6, r6, lsl #1
 2536 00fc 25F82600 		strh	r0, [r5, r6, lsl #2]	@ movhi
 222:Core/Src/main.c ****                 Prev_Pos[Prev_Pos_head].E_1 = getMineIntensity(0); //Âà©Áî®getMineIntensityÂáΩÊï∞Êõ
 2537              		.loc 1 222 17 is_stmt 1 view .LVU485
 222:Core/Src/main.c ****                 Prev_Pos[Prev_Pos_head].E_1 = getMineIntensity(0); //Âà©Áî®getMineIntensityÂáΩÊï∞Êõ
 2538              		.loc 1 222 40 is_stmt 0 view .LVU486
 2539 0100 B4F90060 		ldrsh	r6, [r4]
 222:Core/Src/main.c ****                 Prev_Pos[Prev_Pos_head].E_1 = getMineIntensity(0); //Âà©Áî®getMineIntensityÂáΩÊï∞Êõ
 2540              		.loc 1 222 45 view .LVU487
 2541 0104 FFF7FEFF 		bl	getCarPosY
 2542              	.LVL313:
 222:Core/Src/main.c ****                 Prev_Pos[Prev_Pos_head].E_1 = getMineIntensity(0); //Âà©Áî®getMineIntensityÂáΩÊï∞Êõ
 2543              		.loc 1 222 43 view .LVU488
 2544 0108 06EB4606 		add	r6, r6, r6, lsl #1
 2545 010c 05EB8606 		add	r6, r5, r6, lsl #2
 2546 0110 7080     		strh	r0, [r6, #2]	@ movhi
 223:Core/Src/main.c ****                 Prev_Pos[Prev_Pos_head].E_2 = getMineIntensity(1); //Âêå‰∏ä
 2547              		.loc 1 223 17 is_stmt 1 view .LVU489
 223:Core/Src/main.c ****                 Prev_Pos[Prev_Pos_head].E_2 = getMineIntensity(1); //Âêå‰∏ä
 2548              		.loc 1 223 40 is_stmt 0 view .LVU490
 2549 0112 B4F90060 		ldrsh	r6, [r4]
 223:Core/Src/main.c ****                 Prev_Pos[Prev_Pos_head].E_2 = getMineIntensity(1); //Âêå‰∏ä
 2550              		.loc 1 223 47 view .LVU491
 2551 0116 0020     		movs	r0, #0
 2552 0118 FFF7FEFF 		bl	getMineIntensity
 2553              	.LVL314:
 223:Core/Src/main.c ****                 Prev_Pos[Prev_Pos_head].E_2 = getMineIntensity(1); //Âêå‰∏ä
 2554              		.loc 1 223 45 view .LVU492
ARM GAS  C:\Users\zhangjd\AppData\Local\Temp\ccW4vp8f.s 			page 60


 2555 011c 06EB4606 		add	r6, r6, r6, lsl #1
 2556 0120 05EB8606 		add	r6, r5, r6, lsl #2
 2557 0124 7060     		str	r0, [r6, #4]
 224:Core/Src/main.c ****                 Prev_Pos_head = (Prev_Pos_head + 1) % 3;           //Â§¥ÊåáÈíàÂæ™ÁéØÂú∞ÂêéÁßª
 2558              		.loc 1 224 17 is_stmt 1 view .LVU493
 224:Core/Src/main.c ****                 Prev_Pos_head = (Prev_Pos_head + 1) % 3;           //Â§¥ÊåáÈíàÂæ™ÁéØÂú∞ÂêéÁßª
 2559              		.loc 1 224 40 is_stmt 0 view .LVU494
 2560 0126 B4F90060 		ldrsh	r6, [r4]
 224:Core/Src/main.c ****                 Prev_Pos_head = (Prev_Pos_head + 1) % 3;           //Â§¥ÊåáÈíàÂæ™ÁéØÂú∞ÂêéÁßª
 2561              		.loc 1 224 47 view .LVU495
 2562 012a 0120     		movs	r0, #1
 2563 012c FFF7FEFF 		bl	getMineIntensity
 2564              	.LVL315:
 224:Core/Src/main.c ****                 Prev_Pos_head = (Prev_Pos_head + 1) % 3;           //Â§¥ÊåáÈíàÂæ™ÁéØÂú∞ÂêéÁßª
 2565              		.loc 1 224 45 view .LVU496
 2566 0130 06EB4606 		add	r6, r6, r6, lsl #1
 2567 0134 05EB8605 		add	r5, r5, r6, lsl #2
 2568 0138 A860     		str	r0, [r5, #8]
 225:Core/Src/main.c ****                 break;
 2569              		.loc 1 225 17 is_stmt 1 view .LVU497
 225:Core/Src/main.c ****                 break;
 2570              		.loc 1 225 48 is_stmt 0 view .LVU498
 2571 013a B4F90020 		ldrsh	r2, [r4]
 2572 013e 0132     		adds	r2, r2, #1
 225:Core/Src/main.c ****                 break;
 2573              		.loc 1 225 53 view .LVU499
 2574 0140 5E4B     		ldr	r3, .L165+36
 2575 0142 83FB0213 		smull	r1, r3, r3, r2
 2576 0146 A3EBE273 		sub	r3, r3, r2, asr #31
 2577 014a 03EB4303 		add	r3, r3, r3, lsl #1
 2578 014e D31A     		subs	r3, r2, r3
 225:Core/Src/main.c ****                 break;
 2579              		.loc 1 225 31 view .LVU500
 2580 0150 2380     		strh	r3, [r4]	@ movhi
 226:Core/Src/main.c ****             }
 2581              		.loc 1 226 17 is_stmt 1 view .LVU501
 2582 0152 61E7     		b	.L143
 2583              	.L152:
 232:Core/Src/main.c ****             if (getCarScore() > 0)
 2584              		.loc 1 232 13 view .LVU502
 232:Core/Src/main.c ****             if (getCarScore() > 0)
 2585              		.loc 1 232 55 is_stmt 0 view .LVU503
 2586 0154 574B     		ldr	r3, .L165+28
 2587 0156 5A69     		ldr	r2, [r3, #20]
 232:Core/Src/main.c ****             if (getCarScore() > 0)
 2588              		.loc 1 232 13 view .LVU504
 2589 0158 911C     		adds	r1, r2, #2
 2590 015a 53F82110 		ldr	r1, [r3, r1, lsl #2]
 2591 015e 53F82200 		ldr	r0, [r3, r2, lsl #2]
 2592 0162 FFF7FEFF 		bl	Goto
 2593              	.LVL316:
 233:Core/Src/main.c ****             {
 2594              		.loc 1 233 13 is_stmt 1 view .LVU505
 233:Core/Src/main.c ****             {
 2595              		.loc 1 233 17 is_stmt 0 view .LVU506
 2596 0166 FFF7FEFF 		bl	getCarScore
 2597              	.LVL317:
ARM GAS  C:\Users\zhangjd\AppData\Local\Temp\ccW4vp8f.s 			page 61


 233:Core/Src/main.c ****             {
 2598              		.loc 1 233 16 view .LVU507
 2599 016a 0028     		cmp	r0, #0
 2600 016c 7FF754AF 		ble	.L143
 235:Core/Src/main.c ****                 score = getCarScore(); //Êõ¥Êñ∞ÂΩìÂâçÂàÜÊï∞
 2601              		.loc 1 235 17 is_stmt 1 view .LVU508
 235:Core/Src/main.c ****                 score = getCarScore(); //Êõ¥Êñ∞ÂΩìÂâçÂàÜÊï∞
 2602              		.loc 1 235 23 is_stmt 0 view .LVU509
 2603 0170 4D4B     		ldr	r3, .L165+16
 2604 0172 0222     		movs	r2, #2
 2605 0174 1A60     		str	r2, [r3]
 236:Core/Src/main.c ****             }
 2606              		.loc 1 236 17 is_stmt 1 view .LVU510
 236:Core/Src/main.c ****             }
 2607              		.loc 1 236 25 is_stmt 0 view .LVU511
 2608 0176 FFF7FEFF 		bl	getCarScore
 2609              	.LVL318:
 236:Core/Src/main.c ****             }
 2610              		.loc 1 236 23 view .LVU512
 2611 017a 514B     		ldr	r3, .L165+40
 2612 017c 1860     		str	r0, [r3]
 2613 017e 4BE7     		b	.L143
 2614              	.L151:
 243:Core/Src/main.c ****             if (getCarScore() > score)
 2615              		.loc 1 243 13 is_stmt 1 view .LVU513
 243:Core/Src/main.c ****             if (getCarScore() > score)
 2616              		.loc 1 243 56 is_stmt 0 view .LVU514
 2617 0180 4C4A     		ldr	r2, .L165+28
 2618 0182 5369     		ldr	r3, [r2, #20]
 243:Core/Src/main.c ****             if (getCarScore() > score)
 2619              		.loc 1 243 38 view .LVU515
 2620 0184 B3FA83F3 		clz	r3, r3
 2621 0188 5B09     		lsrs	r3, r3, #5
 243:Core/Src/main.c ****             if (getCarScore() > score)
 2622              		.loc 1 243 13 view .LVU516
 2623 018a 991C     		adds	r1, r3, #2
 2624 018c 52F82110 		ldr	r1, [r2, r1, lsl #2]
 2625 0190 52F82300 		ldr	r0, [r2, r3, lsl #2]
 2626 0194 FFF7FEFF 		bl	Goto
 2627              	.LVL319:
 244:Core/Src/main.c ****             {
 2628              		.loc 1 244 13 is_stmt 1 view .LVU517
 244:Core/Src/main.c ****             {
 2629              		.loc 1 244 17 is_stmt 0 view .LVU518
 2630 0198 FFF7FEFF 		bl	getCarScore
 2631              	.LVL320:
 244:Core/Src/main.c ****             {
 2632              		.loc 1 244 31 view .LVU519
 2633 019c 484B     		ldr	r3, .L165+40
 2634 019e 1B68     		ldr	r3, [r3]
 244:Core/Src/main.c ****             {
 2635              		.loc 1 244 16 view .LVU520
 2636 01a0 9842     		cmp	r0, r3
 2637 01a2 7FF739AF 		ble	.L143
 246:Core/Src/main.c ****                 score = getCarScore(); //Êõ¥Êñ∞ÂΩìÂâçÂàÜÊï∞
 2638              		.loc 1 246 17 is_stmt 1 view .LVU521
 246:Core/Src/main.c ****                 score = getCarScore(); //Êõ¥Êñ∞ÂΩìÂâçÂàÜÊï∞
ARM GAS  C:\Users\zhangjd\AppData\Local\Temp\ccW4vp8f.s 			page 62


 2639              		.loc 1 246 23 is_stmt 0 view .LVU522
 2640 01a6 404B     		ldr	r3, .L165+16
 2641 01a8 0322     		movs	r2, #3
 2642 01aa 1A60     		str	r2, [r3]
 247:Core/Src/main.c ****             }
 2643              		.loc 1 247 17 is_stmt 1 view .LVU523
 247:Core/Src/main.c ****             }
 2644              		.loc 1 247 25 is_stmt 0 view .LVU524
 2645 01ac FFF7FEFF 		bl	getCarScore
 2646              	.LVL321:
 247:Core/Src/main.c ****             }
 2647              		.loc 1 247 23 view .LVU525
 2648 01b0 434B     		ldr	r3, .L165+40
 2649 01b2 1860     		str	r0, [r3]
 2650 01b4 30E7     		b	.L143
 2651              	.L150:
 254:Core/Src/main.c ****             {
 2652              		.loc 1 254 13 is_stmt 1 view .LVU526
 254:Core/Src/main.c ****             {
 2653              		.loc 1 254 25 is_stmt 0 view .LVU527
 2654 01b6 3D4A     		ldr	r2, .L165+20
 2655 01b8 1368     		ldr	r3, [r2]
 254:Core/Src/main.c ****             {
 2656              		.loc 1 254 29 view .LVU528
 2657 01ba 7F3B     		subs	r3, r3, #127
 254:Core/Src/main.c ****             {
 2658              		.loc 1 254 67 view .LVU529
 2659 01bc 5268     		ldr	r2, [r2, #4]
 254:Core/Src/main.c ****             {
 2660              		.loc 1 254 71 view .LVU530
 2661 01be 1E3A     		subs	r2, r2, #30
 254:Core/Src/main.c ****             {
 2662              		.loc 1 254 77 view .LVU531
 2663 01c0 02FB02F2 		mul	r2, r2, r2
 254:Core/Src/main.c ****             {
 2664              		.loc 1 254 57 view .LVU532
 2665 01c4 03FB0323 		mla	r3, r3, r3, r2
 254:Core/Src/main.c ****             {
 2666              		.loc 1 254 16 view .LVU533
 2667 01c8 092B     		cmp	r3, #9
 2668 01ca 1BDC     		bgt	.L155
 256:Core/Src/main.c ****                 count_beacon++;
 2669              		.loc 1 256 17 is_stmt 1 view .LVU534
 2670 01cc FFF7FEFF 		bl	brake
 2671              	.LVL322:
 257:Core/Src/main.c ****                 if (count_beacon <= 20)
 2672              		.loc 1 257 17 view .LVU535
 257:Core/Src/main.c ****                 if (count_beacon <= 20)
 2673              		.loc 1 257 29 is_stmt 0 view .LVU536
 2674 01d0 3C4A     		ldr	r2, .L165+44
 2675 01d2 1368     		ldr	r3, [r2]
 2676 01d4 0133     		adds	r3, r3, #1
 2677 01d6 1360     		str	r3, [r2]
 258:Core/Src/main.c ****                 {
 2678              		.loc 1 258 17 is_stmt 1 view .LVU537
 258:Core/Src/main.c ****                 {
 2679              		.loc 1 258 20 is_stmt 0 view .LVU538
ARM GAS  C:\Users\zhangjd\AppData\Local\Temp\ccW4vp8f.s 			page 63


 2680 01d8 142B     		cmp	r3, #20
 2681 01da 05DC     		bgt	.L156
 260:Core/Src/main.c ****                 }
 2682              		.loc 1 260 21 is_stmt 1 view .LVU539
 2683 01dc 0122     		movs	r2, #1
 2684 01de 1146     		mov	r1, r2
 2685 01e0 3948     		ldr	r0, .L165+48
 2686 01e2 FFF7FEFF 		bl	HAL_GPIO_WritePin
 2687              	.LVL323:
 2688 01e6 17E7     		b	.L143
 2689              	.L156:
 264:Core/Src/main.c ****                     count_beacon = 0;
 2690              		.loc 1 264 21 view .LVU540
 264:Core/Src/main.c ****                     count_beacon = 0;
 2691              		.loc 1 264 27 is_stmt 0 view .LVU541
 2692 01e8 2F4B     		ldr	r3, .L165+16
 2693 01ea 0422     		movs	r2, #4
 2694 01ec 1A60     		str	r2, [r3]
 265:Core/Src/main.c ****                     beacon_Pos[0] = getCarPosX();
 2695              		.loc 1 265 21 is_stmt 1 view .LVU542
 265:Core/Src/main.c ****                     beacon_Pos[0] = getCarPosX();
 2696              		.loc 1 265 34 is_stmt 0 view .LVU543
 2697 01ee 354B     		ldr	r3, .L165+44
 2698 01f0 0022     		movs	r2, #0
 2699 01f2 1A60     		str	r2, [r3]
 266:Core/Src/main.c ****                     beacon_Pos[1] = getCarPosY(); //Áªôbeacon_PosËµãÔøΩ?ÔøΩÔºåÁî®‰∫éÁ¨¨‰∫åÂõûÂêàÁ≤æ
 2700              		.loc 1 266 21 is_stmt 1 view .LVU544
 266:Core/Src/main.c ****                     beacon_Pos[1] = getCarPosY(); //Áªôbeacon_PosËµãÔøΩ?ÔøΩÔºåÁî®‰∫éÁ¨¨‰∫åÂõûÂêàÁ≤æ
 2701              		.loc 1 266 37 is_stmt 0 view .LVU545
 2702 01f4 FFF7FEFF 		bl	getCarPosX
 2703              	.LVL324:
 266:Core/Src/main.c ****                     beacon_Pos[1] = getCarPosY(); //Áªôbeacon_PosËµãÔøΩ?ÔøΩÔºåÁî®‰∫éÁ¨¨‰∫åÂõûÂêàÁ≤æ
 2704              		.loc 1 266 35 view .LVU546
 2705 01f8 344C     		ldr	r4, .L165+52
 2706 01fa 2060     		str	r0, [r4]
 267:Core/Src/main.c ****                 }
 2707              		.loc 1 267 21 is_stmt 1 view .LVU547
 267:Core/Src/main.c ****                 }
 2708              		.loc 1 267 37 is_stmt 0 view .LVU548
 2709 01fc FFF7FEFF 		bl	getCarPosY
 2710              	.LVL325:
 267:Core/Src/main.c ****                 }
 2711              		.loc 1 267 35 view .LVU549
 2712 0200 6060     		str	r0, [r4, #4]
 2713 0202 09E7     		b	.L143
 2714              	.L155:
 271:Core/Src/main.c ****             break;
 2715              		.loc 1 271 17 is_stmt 1 view .LVU550
 2716 0204 1E21     		movs	r1, #30
 2717 0206 7F20     		movs	r0, #127
 2718 0208 FFF7FEFF 		bl	Goto
 2719              	.LVL326:
 2720 020c 04E7     		b	.L143
 2721              	.L149:
 277:Core/Src/main.c ****             {
 2722              		.loc 1 277 13 view .LVU551
 277:Core/Src/main.c ****             {
ARM GAS  C:\Users\zhangjd\AppData\Local\Temp\ccW4vp8f.s 			page 64


 2723              		.loc 1 277 25 is_stmt 0 view .LVU552
 2724 020e 274A     		ldr	r2, .L165+20
 2725 0210 1368     		ldr	r3, [r2]
 277:Core/Src/main.c ****             {
 2726              		.loc 1 277 29 view .LVU553
 2727 0212 7F3B     		subs	r3, r3, #127
 277:Core/Src/main.c ****             {
 2728              		.loc 1 277 67 view .LVU554
 2729 0214 5268     		ldr	r2, [r2, #4]
 277:Core/Src/main.c ****             {
 2730              		.loc 1 277 71 view .LVU555
 2731 0216 7F3A     		subs	r2, r2, #127
 277:Core/Src/main.c ****             {
 2732              		.loc 1 277 78 view .LVU556
 2733 0218 02FB02F2 		mul	r2, r2, r2
 277:Core/Src/main.c ****             {
 2734              		.loc 1 277 57 view .LVU557
 2735 021c 03FB0323 		mla	r3, r3, r3, r2
 277:Core/Src/main.c ****             {
 2736              		.loc 1 277 16 view .LVU558
 2737 0220 0E2B     		cmp	r3, #14
 2738 0222 1BDC     		bgt	.L157
 279:Core/Src/main.c ****                 count_beacon++;
 2739              		.loc 1 279 17 is_stmt 1 view .LVU559
 2740 0224 FFF7FEFF 		bl	brake
 2741              	.LVL327:
 280:Core/Src/main.c ****                 if (count_beacon <= 20)
 2742              		.loc 1 280 17 view .LVU560
 280:Core/Src/main.c ****                 if (count_beacon <= 20)
 2743              		.loc 1 280 29 is_stmt 0 view .LVU561
 2744 0228 264A     		ldr	r2, .L165+44
 2745 022a 1368     		ldr	r3, [r2]
 2746 022c 0133     		adds	r3, r3, #1
 2747 022e 1360     		str	r3, [r2]
 281:Core/Src/main.c ****                 {
 2748              		.loc 1 281 17 is_stmt 1 view .LVU562
 281:Core/Src/main.c ****                 {
 2749              		.loc 1 281 20 is_stmt 0 view .LVU563
 2750 0230 142B     		cmp	r3, #20
 2751 0232 05DC     		bgt	.L158
 283:Core/Src/main.c ****                 }
 2752              		.loc 1 283 21 is_stmt 1 view .LVU564
 2753 0234 0122     		movs	r2, #1
 2754 0236 1146     		mov	r1, r2
 2755 0238 2348     		ldr	r0, .L165+48
 2756 023a FFF7FEFF 		bl	HAL_GPIO_WritePin
 2757              	.LVL328:
 2758 023e EBE6     		b	.L143
 2759              	.L158:
 287:Core/Src/main.c ****                     count_beacon = 0;
 2760              		.loc 1 287 21 view .LVU565
 287:Core/Src/main.c ****                     count_beacon = 0;
 2761              		.loc 1 287 27 is_stmt 0 view .LVU566
 2762 0240 194B     		ldr	r3, .L165+16
 2763 0242 0522     		movs	r2, #5
 2764 0244 1A60     		str	r2, [r3]
 288:Core/Src/main.c ****                     beacon_Pos[2] = getCarPosX();
ARM GAS  C:\Users\zhangjd\AppData\Local\Temp\ccW4vp8f.s 			page 65


 2765              		.loc 1 288 21 is_stmt 1 view .LVU567
 288:Core/Src/main.c ****                     beacon_Pos[2] = getCarPosX();
 2766              		.loc 1 288 34 is_stmt 0 view .LVU568
 2767 0246 1F4B     		ldr	r3, .L165+44
 2768 0248 0022     		movs	r2, #0
 2769 024a 1A60     		str	r2, [r3]
 289:Core/Src/main.c ****                     beacon_Pos[3] = getCarPosY(); //Áªôbeacon_PosËµãÔøΩ?ÔøΩÔºåÁî®‰∫éÁ¨¨‰∫åÂõûÂêàÁ≤æ
 2770              		.loc 1 289 21 is_stmt 1 view .LVU569
 289:Core/Src/main.c ****                     beacon_Pos[3] = getCarPosY(); //Áªôbeacon_PosËµãÔøΩ?ÔøΩÔºåÁî®‰∫éÁ¨¨‰∫åÂõûÂêàÁ≤æ
 2771              		.loc 1 289 37 is_stmt 0 view .LVU570
 2772 024c FFF7FEFF 		bl	getCarPosX
 2773              	.LVL329:
 289:Core/Src/main.c ****                     beacon_Pos[3] = getCarPosY(); //Áªôbeacon_PosËµãÔøΩ?ÔøΩÔºåÁî®‰∫éÁ¨¨‰∫åÂõûÂêàÁ≤æ
 2774              		.loc 1 289 35 view .LVU571
 2775 0250 1E4C     		ldr	r4, .L165+52
 2776 0252 A060     		str	r0, [r4, #8]
 290:Core/Src/main.c ****                 }
 2777              		.loc 1 290 21 is_stmt 1 view .LVU572
 290:Core/Src/main.c ****                 }
 2778              		.loc 1 290 37 is_stmt 0 view .LVU573
 2779 0254 FFF7FEFF 		bl	getCarPosY
 2780              	.LVL330:
 290:Core/Src/main.c ****                 }
 2781              		.loc 1 290 35 view .LVU574
 2782 0258 E060     		str	r0, [r4, #12]
 2783 025a DDE6     		b	.L143
 2784              	.L157:
 294:Core/Src/main.c ****             break;
 2785              		.loc 1 294 17 is_stmt 1 view .LVU575
 2786 025c 3C21     		movs	r1, #60
 2787 025e 7F20     		movs	r0, #127
 2788 0260 FFF7FEFF 		bl	Goto
 2789              	.LVL331:
 2790 0264 D8E6     		b	.L143
 2791              	.L148:
 300:Core/Src/main.c ****             {
 2792              		.loc 1 300 13 view .LVU576
 300:Core/Src/main.c ****             {
 2793              		.loc 1 300 25 is_stmt 0 view .LVU577
 2794 0266 114A     		ldr	r2, .L165+20
 2795 0268 1368     		ldr	r3, [r2]
 300:Core/Src/main.c ****             {
 2796              		.loc 1 300 29 view .LVU578
 2797 026a 3C3B     		subs	r3, r3, #60
 300:Core/Src/main.c ****             {
 2798              		.loc 1 300 65 view .LVU579
 2799 026c 5268     		ldr	r2, [r2, #4]
 300:Core/Src/main.c ****             {
 2800              		.loc 1 300 69 view .LVU580
 2801 026e 7F3A     		subs	r2, r2, #127
 300:Core/Src/main.c ****             {
 2802              		.loc 1 300 76 view .LVU581
 2803 0270 02FB02F2 		mul	r2, r2, r2
 300:Core/Src/main.c ****             {
 2804              		.loc 1 300 55 view .LVU582
 2805 0274 03FB0323 		mla	r3, r3, r3, r2
 300:Core/Src/main.c ****             {
ARM GAS  C:\Users\zhangjd\AppData\Local\Temp\ccW4vp8f.s 			page 66


 2806              		.loc 1 300 16 view .LVU583
 2807 0278 0E2B     		cmp	r3, #14
 2808 027a 37DC     		bgt	.L159
 302:Core/Src/main.c ****                 count_beacon++;
 2809              		.loc 1 302 17 is_stmt 1 view .LVU584
 2810 027c FFF7FEFF 		bl	brake
 2811              	.LVL332:
 303:Core/Src/main.c ****                 if (count_beacon <= 20)
 2812              		.loc 1 303 17 view .LVU585
 303:Core/Src/main.c ****                 if (count_beacon <= 20)
 2813              		.loc 1 303 29 is_stmt 0 view .LVU586
 2814 0280 104A     		ldr	r2, .L165+44
 2815 0282 1368     		ldr	r3, [r2]
 2816 0284 0133     		adds	r3, r3, #1
 2817 0286 1360     		str	r3, [r2]
 304:Core/Src/main.c ****                 {
 2818              		.loc 1 304 17 is_stmt 1 view .LVU587
 304:Core/Src/main.c ****                 {
 2819              		.loc 1 304 20 is_stmt 0 view .LVU588
 2820 0288 142B     		cmp	r3, #20
 2821 028a 21DC     		bgt	.L160
 306:Core/Src/main.c ****                 }
 2822              		.loc 1 306 21 is_stmt 1 view .LVU589
 2823 028c 0122     		movs	r2, #1
 2824 028e 1146     		mov	r1, r2
 2825 0290 0D48     		ldr	r0, .L165+48
 2826 0292 FFF7FEFF 		bl	HAL_GPIO_WritePin
 2827              	.LVL333:
 2828 0296 BFE6     		b	.L143
 2829              	.L166:
 2830              		.align	2
 2831              	.L165:
 2832 0298 00000000 		.word	jy62Receive
 2833 029c 00000000 		.word	huart2
 2834 02a0 002C0140 		.word	1073818624
 2835 02a4 00000000 		.word	.LANCHOR5
 2836 02a8 00000000 		.word	.LANCHOR6
 2837 02ac 00000000 		.word	.LANCHOR4
 2838 02b0 00000000 		.word	.LANCHOR7
 2839 02b4 00000000 		.word	.LANCHOR8
 2840 02b8 00000000 		.word	.LANCHOR9
 2841 02bc 56555555 		.word	1431655766
 2842 02c0 00000000 		.word	.LANCHOR10
 2843 02c4 00000000 		.word	.LANCHOR11
 2844 02c8 00100140 		.word	1073811456
 2845 02cc 00000000 		.word	.LANCHOR2
 2846              	.L160:
 310:Core/Src/main.c ****                     count_beacon = 0;
 2847              		.loc 1 310 21 view .LVU590
 310:Core/Src/main.c ****                     count_beacon = 0;
 2848              		.loc 1 310 27 is_stmt 0 view .LVU591
 2849 02d0 144B     		ldr	r3, .L167
 2850 02d2 0622     		movs	r2, #6
 2851 02d4 1A60     		str	r2, [r3]
 311:Core/Src/main.c ****                     beacon_Pos[4] = getCarPosX();
 2852              		.loc 1 311 21 is_stmt 1 view .LVU592
 311:Core/Src/main.c ****                     beacon_Pos[4] = getCarPosX();
ARM GAS  C:\Users\zhangjd\AppData\Local\Temp\ccW4vp8f.s 			page 67


 2853              		.loc 1 311 34 is_stmt 0 view .LVU593
 2854 02d6 144B     		ldr	r3, .L167+4
 2855 02d8 0022     		movs	r2, #0
 2856 02da 1A60     		str	r2, [r3]
 312:Core/Src/main.c ****                     beacon_Pos[5] = getCarPosY(); //Áªôbeacon_PosËµãÔøΩ?ÔøΩÔºåÁî®‰∫éÁ¨¨‰∫åÂõûÂêàÁ≤æ
 2857              		.loc 1 312 21 is_stmt 1 view .LVU594
 312:Core/Src/main.c ****                     beacon_Pos[5] = getCarPosY(); //Áªôbeacon_PosËµãÔøΩ?ÔøΩÔºåÁî®‰∫éÁ¨¨‰∫åÂõûÂêàÁ≤æ
 2858              		.loc 1 312 37 is_stmt 0 view .LVU595
 2859 02dc FFF7FEFF 		bl	getCarPosX
 2860              	.LVL334:
 312:Core/Src/main.c ****                     beacon_Pos[5] = getCarPosY(); //Áªôbeacon_PosËµãÔøΩ?ÔøΩÔºåÁî®‰∫éÁ¨¨‰∫åÂõûÂêàÁ≤æ
 2861              		.loc 1 312 35 view .LVU596
 2862 02e0 124C     		ldr	r4, .L167+8
 2863 02e2 2061     		str	r0, [r4, #16]
 313:Core/Src/main.c ****                 }
 2864              		.loc 1 313 21 is_stmt 1 view .LVU597
 313:Core/Src/main.c ****                 }
 2865              		.loc 1 313 37 is_stmt 0 view .LVU598
 2866 02e4 FFF7FEFF 		bl	getCarPosY
 2867              	.LVL335:
 313:Core/Src/main.c ****                 }
 2868              		.loc 1 313 35 view .LVU599
 2869 02e8 6061     		str	r0, [r4, #20]
 2870 02ea 95E6     		b	.L143
 2871              	.L159:
 317:Core/Src/main.c ****             break;
 2872              		.loc 1 317 17 is_stmt 1 view .LVU600
 2873 02ec 1E21     		movs	r1, #30
 2874 02ee 7F20     		movs	r0, #127
 2875 02f0 FFF7FEFF 		bl	Goto
 2876              	.LVL336:
 2877 02f4 90E6     		b	.L143
 2878              	.L146:
 324:Core/Src/main.c ****             {
 2879              		.loc 1 324 13 view .LVU601
 324:Core/Src/main.c ****             {
 2880              		.loc 1 324 25 is_stmt 0 view .LVU602
 2881 02f6 0E4A     		ldr	r2, .L167+12
 2882 02f8 1368     		ldr	r3, [r2]
 324:Core/Src/main.c ****             {
 2883              		.loc 1 324 29 view .LVU603
 2884 02fa 0F3B     		subs	r3, r3, #15
 324:Core/Src/main.c ****             {
 2885              		.loc 1 324 65 view .LVU604
 2886 02fc 5268     		ldr	r2, [r2, #4]
 324:Core/Src/main.c ****             {
 2887              		.loc 1 324 69 view .LVU605
 2888 02fe 7F3A     		subs	r2, r2, #127
 324:Core/Src/main.c ****             {
 2889              		.loc 1 324 76 view .LVU606
 2890 0300 02FB02F2 		mul	r2, r2, r2
 324:Core/Src/main.c ****             {
 2891              		.loc 1 324 55 view .LVU607
 2892 0304 03FB0323 		mla	r3, r3, r3, r2
 324:Core/Src/main.c ****             {
 2893              		.loc 1 324 16 view .LVU608
 2894 0308 0E2B     		cmp	r3, #14
ARM GAS  C:\Users\zhangjd\AppData\Local\Temp\ccW4vp8f.s 			page 68


 2895 030a 06DC     		bgt	.L161
 326:Core/Src/main.c ****                 State = -1; //Á¨¨‰∏ÄÂõûÂêàÁªìÊùü
 2896              		.loc 1 326 17 is_stmt 1 view .LVU609
 2897 030c FFF7FEFF 		bl	brake
 2898              	.LVL337:
 327:Core/Src/main.c ****             }
 2899              		.loc 1 327 17 view .LVU610
 327:Core/Src/main.c ****             }
 2900              		.loc 1 327 23 is_stmt 0 view .LVU611
 2901 0310 044B     		ldr	r3, .L167
 2902 0312 4FF0FF32 		mov	r2, #-1
 2903 0316 1A60     		str	r2, [r3]
 2904 0318 7EE6     		b	.L143
 2905              	.L161:
 330:Core/Src/main.c ****             break;
 2906              		.loc 1 330 17 is_stmt 1 view .LVU612
 2907 031a 7F21     		movs	r1, #127
 2908 031c 0F20     		movs	r0, #15
 2909 031e FFF7FEFF 		bl	Goto
 2910              	.LVL338:
 335:Core/Src/main.c **** /* USER CODE END 0 */
 2911              		.loc 1 335 1 is_stmt 0 view .LVU613
 2912 0322 79E6     		b	.L143
 2913              	.L168:
 2914              		.align	2
 2915              	.L167:
 2916 0324 00000000 		.word	.LANCHOR6
 2917 0328 00000000 		.word	.LANCHOR11
 2918 032c 00000000 		.word	.LANCHOR2
 2919 0330 00000000 		.word	.LANCHOR4
 2920              		.cfi_endproc
 2921              	.LFE65:
 2923              		.section	.text.Get_Rep_opt,"ax",%progbits
 2924              		.align	1
 2925              		.global	Get_Rep_opt
 2926              		.syntax unified
 2927              		.thumb
 2928              		.thumb_func
 2929              		.fpu softvfp
 2931              	Get_Rep_opt:
 2932              	.LVL339:
 2933              	.LFB83:
 732:Core/Src/main.c **** 
 733:Core/Src/main.c **** //ÂØªÊâæÔøΩ??ËøëÁöÑ‰ªìÂ∫ìÂùêÊ†á
 734:Core/Src/main.c **** // Parameters: Â∞èËΩ¶ÂùêÊ†á
 735:Core/Src/main.c **** // Return: ÔøΩ??ËøëÁöÑ‰ªìÂ∫ìÂùêÊ†áÁöÑÊï∞ÁªÑÊåáÔøΩ??
 736:Core/Src/main.c **** int *Get_Rep_opt(int x, int y)
 737:Core/Src/main.c **** {
 2934              		.loc 1 737 1 is_stmt 1 view -0
 2935              		.cfi_startproc
 2936              		@ args = 0, pretend = 0, frame = 0
 2937              		@ frame_needed = 0, uses_anonymous_args = 0
 2938              		.loc 1 737 1 is_stmt 0 view .LVU615
 2939 0000 10B5     		push	{r4, lr}
 2940              	.LCFI23:
 2941              		.cfi_def_cfa_offset 8
 2942              		.cfi_offset 4, -8
ARM GAS  C:\Users\zhangjd\AppData\Local\Temp\ccW4vp8f.s 			page 69


 2943              		.cfi_offset 14, -4
 738:Core/Src/main.c **** 
 739:Core/Src/main.c ****     int min;
 2944              		.loc 1 739 5 is_stmt 1 view .LVU616
 740:Core/Src/main.c ****     int min_rep;
 2945              		.loc 1 740 5 view .LVU617
 741:Core/Src/main.c ****     int i = 0;
 2946              		.loc 1 741 5 view .LVU618
 2947              	.LVL340:
 742:Core/Src/main.c ****     min = (x - 15) * (x - 15) + (y - 15) * (y - 15);
 2948              		.loc 1 742 5 view .LVU619
 2949              		.loc 1 742 14 is_stmt 0 view .LVU620
 2950 0002 A0F10F0E 		sub	lr, r0, #15
 2951              		.loc 1 742 36 view .LVU621
 2952 0006 A1F10F03 		sub	r3, r1, #15
 2953              		.loc 1 742 42 view .LVU622
 2954 000a 03FB03F3 		mul	r3, r3, r3
 2955              		.loc 1 742 9 view .LVU623
 2956 000e 0EFB0E3E 		mla	lr, lr, lr, r3
 2957              	.LVL341:
 743:Core/Src/main.c ****     min_rep = 0;
 2958              		.loc 1 743 5 is_stmt 1 view .LVU624
 744:Core/Src/main.c ****     for (i = 0; i < 8; ++i)
 2959              		.loc 1 744 5 view .LVU625
 2960              		.loc 1 744 12 is_stmt 0 view .LVU626
 2961 0012 4FF0000C 		mov	ip, #0
 743:Core/Src/main.c ****     min_rep = 0;
 2962              		.loc 1 743 13 view .LVU627
 2963 0016 6446     		mov	r4, ip
 2964              		.loc 1 744 5 view .LVU628
 2965 0018 01E0     		b	.L170
 2966              	.LVL342:
 2967              	.L171:
 2968              		.loc 1 744 24 is_stmt 1 discriminator 2 view .LVU629
 2969 001a 0CF1010C 		add	ip, ip, #1
 2970              	.LVL343:
 2971              	.L170:
 2972              		.loc 1 744 17 discriminator 1 view .LVU630
 2973              		.loc 1 744 5 is_stmt 0 discriminator 1 view .LVU631
 2974 001e BCF1070F 		cmp	ip, #7
 2975 0022 10DC     		bgt	.L175
 745:Core/Src/main.c ****     {
 746:Core/Src/main.c ****         if (((rep[i][0] - x) * (rep[i][0] - x) + (rep[i][1] - y) * (rep[i][1] - y)) < min)
 2976              		.loc 1 746 9 is_stmt 1 view .LVU632
 2977              		.loc 1 746 21 is_stmt 0 view .LVU633
 2978 0024 0A4A     		ldr	r2, .L176
 2979 0026 52F83C30 		ldr	r3, [r2, ip, lsl #3]
 2980              		.loc 1 746 25 view .LVU634
 2981 002a 1B1A     		subs	r3, r3, r0
 2982              		.loc 1 746 57 view .LVU635
 2983 002c 02EBCC02 		add	r2, r2, ip, lsl #3
 2984 0030 5268     		ldr	r2, [r2, #4]
 2985              		.loc 1 746 61 view .LVU636
 2986 0032 521A     		subs	r2, r2, r1
 2987              		.loc 1 746 66 view .LVU637
 2988 0034 02FB02F2 		mul	r2, r2, r2
 2989              		.loc 1 746 48 view .LVU638
ARM GAS  C:\Users\zhangjd\AppData\Local\Temp\ccW4vp8f.s 			page 70


 2990 0038 03FB0323 		mla	r3, r3, r3, r2
 2991              		.loc 1 746 12 view .LVU639
 2992 003c 7345     		cmp	r3, lr
 2993 003e ECDA     		bge	.L171
 747:Core/Src/main.c ****         {
 748:Core/Src/main.c ****             min_rep = i;
 2994              		.loc 1 748 21 view .LVU640
 2995 0040 6446     		mov	r4, ip
 2996              	.LVL344:
 749:Core/Src/main.c ****             min = (rep[i][0] - x) * (rep[i][0] - x) + (rep[i][1] - y) * (rep[i][1] - y);
 2997              		.loc 1 749 17 view .LVU641
 2998 0042 9E46     		mov	lr, r3
 2999              	.LVL345:
 3000              		.loc 1 749 17 view .LVU642
 3001 0044 E9E7     		b	.L171
 3002              	.LVL346:
 3003              	.L175:
 750:Core/Src/main.c ****         }
 751:Core/Src/main.c ****     }
 752:Core/Src/main.c ****     return rep[min_rep];
 3004              		.loc 1 752 5 is_stmt 1 view .LVU643
 753:Core/Src/main.c **** }
 3005              		.loc 1 753 1 is_stmt 0 view .LVU644
 3006 0046 0248     		ldr	r0, .L176
 3007              	.LVL347:
 3008              		.loc 1 753 1 view .LVU645
 3009 0048 00EBC400 		add	r0, r0, r4, lsl #3
 3010 004c 10BD     		pop	{r4, pc}
 3011              	.LVL348:
 3012              	.L177:
 3013              		.loc 1 753 1 view .LVU646
 3014 004e 00BF     		.align	2
 3015              	.L176:
 3016 0050 00000000 		.word	.LANCHOR12
 3017              		.cfi_endproc
 3018              	.LFE83:
 3020              		.section	.text.Error_Handler,"ax",%progbits
 3021              		.align	1
 3022              		.global	Error_Handler
 3023              		.syntax unified
 3024              		.thumb
 3025              		.thumb_func
 3026              		.fpu softvfp
 3028              	Error_Handler:
 3029              	.LFB84:
 754:Core/Src/main.c **** /* USER CODE END 4 */
 755:Core/Src/main.c **** 
 756:Core/Src/main.c **** /**
 757:Core/Src/main.c ****   * @brief  This function is executed in case of error occurrence.
 758:Core/Src/main.c ****   * @retval None
 759:Core/Src/main.c ****   */
 760:Core/Src/main.c **** void Error_Handler(void)
 761:Core/Src/main.c **** {
 3030              		.loc 1 761 1 is_stmt 1 view -0
 3031              		.cfi_startproc
 3032              		@ Volatile: function does not return.
 3033              		@ args = 0, pretend = 0, frame = 0
ARM GAS  C:\Users\zhangjd\AppData\Local\Temp\ccW4vp8f.s 			page 71


 3034              		@ frame_needed = 0, uses_anonymous_args = 0
 3035              		@ link register save eliminated.
 762:Core/Src/main.c ****     /* USER CODE BEGIN Error_Handler_Debug */
 763:Core/Src/main.c ****     /* User can add his own implementation to report the HAL error return state */
 764:Core/Src/main.c ****     __disable_irq();
 3036              		.loc 1 764 5 view .LVU648
 3037              	.LBB4:
 3038              	.LBI4:
 3039              		.file 2 "Drivers/CMSIS/Include/cmsis_gcc.h"
   1:Drivers/CMSIS/Include/cmsis_gcc.h **** /**************************************************************************//**
   2:Drivers/CMSIS/Include/cmsis_gcc.h ****  * @file     cmsis_gcc.h
   3:Drivers/CMSIS/Include/cmsis_gcc.h ****  * @brief    CMSIS compiler GCC header file
   4:Drivers/CMSIS/Include/cmsis_gcc.h ****  * @version  V5.0.4
   5:Drivers/CMSIS/Include/cmsis_gcc.h ****  * @date     09. April 2018
   6:Drivers/CMSIS/Include/cmsis_gcc.h ****  ******************************************************************************/
   7:Drivers/CMSIS/Include/cmsis_gcc.h **** /*
   8:Drivers/CMSIS/Include/cmsis_gcc.h ****  * Copyright (c) 2009-2018 Arm Limited. All rights reserved.
   9:Drivers/CMSIS/Include/cmsis_gcc.h ****  *
  10:Drivers/CMSIS/Include/cmsis_gcc.h ****  * SPDX-License-Identifier: Apache-2.0
  11:Drivers/CMSIS/Include/cmsis_gcc.h ****  *
  12:Drivers/CMSIS/Include/cmsis_gcc.h ****  * Licensed under the Apache License, Version 2.0 (the License); you may
  13:Drivers/CMSIS/Include/cmsis_gcc.h ****  * not use this file except in compliance with the License.
  14:Drivers/CMSIS/Include/cmsis_gcc.h ****  * You may obtain a copy of the License at
  15:Drivers/CMSIS/Include/cmsis_gcc.h ****  *
  16:Drivers/CMSIS/Include/cmsis_gcc.h ****  * www.apache.org/licenses/LICENSE-2.0
  17:Drivers/CMSIS/Include/cmsis_gcc.h ****  *
  18:Drivers/CMSIS/Include/cmsis_gcc.h ****  * Unless required by applicable law or agreed to in writing, software
  19:Drivers/CMSIS/Include/cmsis_gcc.h ****  * distributed under the License is distributed on an AS IS BASIS, WITHOUT
  20:Drivers/CMSIS/Include/cmsis_gcc.h ****  * WARRANTIES OR CONDITIONS OF ANY KIND, either express or implied.
  21:Drivers/CMSIS/Include/cmsis_gcc.h ****  * See the License for the specific language governing permissions and
  22:Drivers/CMSIS/Include/cmsis_gcc.h ****  * limitations under the License.
  23:Drivers/CMSIS/Include/cmsis_gcc.h ****  */
  24:Drivers/CMSIS/Include/cmsis_gcc.h **** 
  25:Drivers/CMSIS/Include/cmsis_gcc.h **** #ifndef __CMSIS_GCC_H
  26:Drivers/CMSIS/Include/cmsis_gcc.h **** #define __CMSIS_GCC_H
  27:Drivers/CMSIS/Include/cmsis_gcc.h **** 
  28:Drivers/CMSIS/Include/cmsis_gcc.h **** /* ignore some GCC warnings */
  29:Drivers/CMSIS/Include/cmsis_gcc.h **** #pragma GCC diagnostic push
  30:Drivers/CMSIS/Include/cmsis_gcc.h **** #pragma GCC diagnostic ignored "-Wsign-conversion"
  31:Drivers/CMSIS/Include/cmsis_gcc.h **** #pragma GCC diagnostic ignored "-Wconversion"
  32:Drivers/CMSIS/Include/cmsis_gcc.h **** #pragma GCC diagnostic ignored "-Wunused-parameter"
  33:Drivers/CMSIS/Include/cmsis_gcc.h **** 
  34:Drivers/CMSIS/Include/cmsis_gcc.h **** /* Fallback for __has_builtin */
  35:Drivers/CMSIS/Include/cmsis_gcc.h **** #ifndef __has_builtin
  36:Drivers/CMSIS/Include/cmsis_gcc.h ****   #define __has_builtin(x) (0)
  37:Drivers/CMSIS/Include/cmsis_gcc.h **** #endif
  38:Drivers/CMSIS/Include/cmsis_gcc.h **** 
  39:Drivers/CMSIS/Include/cmsis_gcc.h **** /* CMSIS compiler specific defines */
  40:Drivers/CMSIS/Include/cmsis_gcc.h **** #ifndef   __ASM
  41:Drivers/CMSIS/Include/cmsis_gcc.h ****   #define __ASM                                  __asm
  42:Drivers/CMSIS/Include/cmsis_gcc.h **** #endif
  43:Drivers/CMSIS/Include/cmsis_gcc.h **** #ifndef   __INLINE
  44:Drivers/CMSIS/Include/cmsis_gcc.h ****   #define __INLINE                               inline
  45:Drivers/CMSIS/Include/cmsis_gcc.h **** #endif
  46:Drivers/CMSIS/Include/cmsis_gcc.h **** #ifndef   __STATIC_INLINE
  47:Drivers/CMSIS/Include/cmsis_gcc.h ****   #define __STATIC_INLINE                        static inline
  48:Drivers/CMSIS/Include/cmsis_gcc.h **** #endif
ARM GAS  C:\Users\zhangjd\AppData\Local\Temp\ccW4vp8f.s 			page 72


  49:Drivers/CMSIS/Include/cmsis_gcc.h **** #ifndef   __STATIC_FORCEINLINE                 
  50:Drivers/CMSIS/Include/cmsis_gcc.h ****   #define __STATIC_FORCEINLINE                   __attribute__((always_inline)) static inline
  51:Drivers/CMSIS/Include/cmsis_gcc.h **** #endif                                           
  52:Drivers/CMSIS/Include/cmsis_gcc.h **** #ifndef   __NO_RETURN
  53:Drivers/CMSIS/Include/cmsis_gcc.h ****   #define __NO_RETURN                            __attribute__((__noreturn__))
  54:Drivers/CMSIS/Include/cmsis_gcc.h **** #endif
  55:Drivers/CMSIS/Include/cmsis_gcc.h **** #ifndef   __USED
  56:Drivers/CMSIS/Include/cmsis_gcc.h ****   #define __USED                                 __attribute__((used))
  57:Drivers/CMSIS/Include/cmsis_gcc.h **** #endif
  58:Drivers/CMSIS/Include/cmsis_gcc.h **** #ifndef   __WEAK
  59:Drivers/CMSIS/Include/cmsis_gcc.h ****   #define __WEAK                                 __attribute__((weak))
  60:Drivers/CMSIS/Include/cmsis_gcc.h **** #endif
  61:Drivers/CMSIS/Include/cmsis_gcc.h **** #ifndef   __PACKED
  62:Drivers/CMSIS/Include/cmsis_gcc.h ****   #define __PACKED                               __attribute__((packed, aligned(1)))
  63:Drivers/CMSIS/Include/cmsis_gcc.h **** #endif
  64:Drivers/CMSIS/Include/cmsis_gcc.h **** #ifndef   __PACKED_STRUCT
  65:Drivers/CMSIS/Include/cmsis_gcc.h ****   #define __PACKED_STRUCT                        struct __attribute__((packed, aligned(1)))
  66:Drivers/CMSIS/Include/cmsis_gcc.h **** #endif
  67:Drivers/CMSIS/Include/cmsis_gcc.h **** #ifndef   __PACKED_UNION
  68:Drivers/CMSIS/Include/cmsis_gcc.h ****   #define __PACKED_UNION                         union __attribute__((packed, aligned(1)))
  69:Drivers/CMSIS/Include/cmsis_gcc.h **** #endif
  70:Drivers/CMSIS/Include/cmsis_gcc.h **** #ifndef   __UNALIGNED_UINT32        /* deprecated */
  71:Drivers/CMSIS/Include/cmsis_gcc.h ****   #pragma GCC diagnostic push
  72:Drivers/CMSIS/Include/cmsis_gcc.h ****   #pragma GCC diagnostic ignored "-Wpacked"
  73:Drivers/CMSIS/Include/cmsis_gcc.h ****   #pragma GCC diagnostic ignored "-Wattributes"
  74:Drivers/CMSIS/Include/cmsis_gcc.h ****   struct __attribute__((packed)) T_UINT32 { uint32_t v; };
  75:Drivers/CMSIS/Include/cmsis_gcc.h ****   #pragma GCC diagnostic pop
  76:Drivers/CMSIS/Include/cmsis_gcc.h ****   #define __UNALIGNED_UINT32(x)                  (((struct T_UINT32 *)(x))->v)
  77:Drivers/CMSIS/Include/cmsis_gcc.h **** #endif
  78:Drivers/CMSIS/Include/cmsis_gcc.h **** #ifndef   __UNALIGNED_UINT16_WRITE
  79:Drivers/CMSIS/Include/cmsis_gcc.h ****   #pragma GCC diagnostic push
  80:Drivers/CMSIS/Include/cmsis_gcc.h ****   #pragma GCC diagnostic ignored "-Wpacked"
  81:Drivers/CMSIS/Include/cmsis_gcc.h ****   #pragma GCC diagnostic ignored "-Wattributes"
  82:Drivers/CMSIS/Include/cmsis_gcc.h ****   __PACKED_STRUCT T_UINT16_WRITE { uint16_t v; };
  83:Drivers/CMSIS/Include/cmsis_gcc.h ****   #pragma GCC diagnostic pop
  84:Drivers/CMSIS/Include/cmsis_gcc.h ****   #define __UNALIGNED_UINT16_WRITE(addr, val)    (void)((((struct T_UINT16_WRITE *)(void *)(addr))-
  85:Drivers/CMSIS/Include/cmsis_gcc.h **** #endif
  86:Drivers/CMSIS/Include/cmsis_gcc.h **** #ifndef   __UNALIGNED_UINT16_READ
  87:Drivers/CMSIS/Include/cmsis_gcc.h ****   #pragma GCC diagnostic push
  88:Drivers/CMSIS/Include/cmsis_gcc.h ****   #pragma GCC diagnostic ignored "-Wpacked"
  89:Drivers/CMSIS/Include/cmsis_gcc.h ****   #pragma GCC diagnostic ignored "-Wattributes"
  90:Drivers/CMSIS/Include/cmsis_gcc.h ****   __PACKED_STRUCT T_UINT16_READ { uint16_t v; };
  91:Drivers/CMSIS/Include/cmsis_gcc.h ****   #pragma GCC diagnostic pop
  92:Drivers/CMSIS/Include/cmsis_gcc.h ****   #define __UNALIGNED_UINT16_READ(addr)          (((const struct T_UINT16_READ *)(const void *)(add
  93:Drivers/CMSIS/Include/cmsis_gcc.h **** #endif
  94:Drivers/CMSIS/Include/cmsis_gcc.h **** #ifndef   __UNALIGNED_UINT32_WRITE
  95:Drivers/CMSIS/Include/cmsis_gcc.h ****   #pragma GCC diagnostic push
  96:Drivers/CMSIS/Include/cmsis_gcc.h ****   #pragma GCC diagnostic ignored "-Wpacked"
  97:Drivers/CMSIS/Include/cmsis_gcc.h ****   #pragma GCC diagnostic ignored "-Wattributes"
  98:Drivers/CMSIS/Include/cmsis_gcc.h ****   __PACKED_STRUCT T_UINT32_WRITE { uint32_t v; };
  99:Drivers/CMSIS/Include/cmsis_gcc.h ****   #pragma GCC diagnostic pop
 100:Drivers/CMSIS/Include/cmsis_gcc.h ****   #define __UNALIGNED_UINT32_WRITE(addr, val)    (void)((((struct T_UINT32_WRITE *)(void *)(addr))-
 101:Drivers/CMSIS/Include/cmsis_gcc.h **** #endif
 102:Drivers/CMSIS/Include/cmsis_gcc.h **** #ifndef   __UNALIGNED_UINT32_READ
 103:Drivers/CMSIS/Include/cmsis_gcc.h ****   #pragma GCC diagnostic push
 104:Drivers/CMSIS/Include/cmsis_gcc.h ****   #pragma GCC diagnostic ignored "-Wpacked"
 105:Drivers/CMSIS/Include/cmsis_gcc.h ****   #pragma GCC diagnostic ignored "-Wattributes"
ARM GAS  C:\Users\zhangjd\AppData\Local\Temp\ccW4vp8f.s 			page 73


 106:Drivers/CMSIS/Include/cmsis_gcc.h ****   __PACKED_STRUCT T_UINT32_READ { uint32_t v; };
 107:Drivers/CMSIS/Include/cmsis_gcc.h ****   #pragma GCC diagnostic pop
 108:Drivers/CMSIS/Include/cmsis_gcc.h ****   #define __UNALIGNED_UINT32_READ(addr)          (((const struct T_UINT32_READ *)(const void *)(add
 109:Drivers/CMSIS/Include/cmsis_gcc.h **** #endif
 110:Drivers/CMSIS/Include/cmsis_gcc.h **** #ifndef   __ALIGNED
 111:Drivers/CMSIS/Include/cmsis_gcc.h ****   #define __ALIGNED(x)                           __attribute__((aligned(x)))
 112:Drivers/CMSIS/Include/cmsis_gcc.h **** #endif
 113:Drivers/CMSIS/Include/cmsis_gcc.h **** #ifndef   __RESTRICT
 114:Drivers/CMSIS/Include/cmsis_gcc.h ****   #define __RESTRICT                             __restrict
 115:Drivers/CMSIS/Include/cmsis_gcc.h **** #endif
 116:Drivers/CMSIS/Include/cmsis_gcc.h **** 
 117:Drivers/CMSIS/Include/cmsis_gcc.h **** 
 118:Drivers/CMSIS/Include/cmsis_gcc.h **** /* ###########################  Core Function Access  ########################### */
 119:Drivers/CMSIS/Include/cmsis_gcc.h **** /** \ingroup  CMSIS_Core_FunctionInterface
 120:Drivers/CMSIS/Include/cmsis_gcc.h ****     \defgroup CMSIS_Core_RegAccFunctions CMSIS Core Register Access Functions
 121:Drivers/CMSIS/Include/cmsis_gcc.h ****   @{
 122:Drivers/CMSIS/Include/cmsis_gcc.h ****  */
 123:Drivers/CMSIS/Include/cmsis_gcc.h **** 
 124:Drivers/CMSIS/Include/cmsis_gcc.h **** /**
 125:Drivers/CMSIS/Include/cmsis_gcc.h ****   \brief   Enable IRQ Interrupts
 126:Drivers/CMSIS/Include/cmsis_gcc.h ****   \details Enables IRQ interrupts by clearing the I-bit in the CPSR.
 127:Drivers/CMSIS/Include/cmsis_gcc.h ****            Can only be executed in Privileged modes.
 128:Drivers/CMSIS/Include/cmsis_gcc.h ****  */
 129:Drivers/CMSIS/Include/cmsis_gcc.h **** __STATIC_FORCEINLINE void __enable_irq(void)
 130:Drivers/CMSIS/Include/cmsis_gcc.h **** {
 131:Drivers/CMSIS/Include/cmsis_gcc.h ****   __ASM volatile ("cpsie i" : : : "memory");
 132:Drivers/CMSIS/Include/cmsis_gcc.h **** }
 133:Drivers/CMSIS/Include/cmsis_gcc.h **** 
 134:Drivers/CMSIS/Include/cmsis_gcc.h **** 
 135:Drivers/CMSIS/Include/cmsis_gcc.h **** /**
 136:Drivers/CMSIS/Include/cmsis_gcc.h ****   \brief   Disable IRQ Interrupts
 137:Drivers/CMSIS/Include/cmsis_gcc.h ****   \details Disables IRQ interrupts by setting the I-bit in the CPSR.
 138:Drivers/CMSIS/Include/cmsis_gcc.h ****            Can only be executed in Privileged modes.
 139:Drivers/CMSIS/Include/cmsis_gcc.h ****  */
 140:Drivers/CMSIS/Include/cmsis_gcc.h **** __STATIC_FORCEINLINE void __disable_irq(void)
 3040              		.loc 2 140 27 view .LVU649
 3041              	.LBB5:
 141:Drivers/CMSIS/Include/cmsis_gcc.h **** {
 142:Drivers/CMSIS/Include/cmsis_gcc.h ****   __ASM volatile ("cpsid i" : : : "memory");
 3042              		.loc 2 142 3 view .LVU650
 3043              		.syntax unified
 3044              	@ 142 "Drivers/CMSIS/Include/cmsis_gcc.h" 1
 3045 0000 72B6     		cpsid i
 3046              	@ 0 "" 2
 3047              		.thumb
 3048              		.syntax unified
 3049              	.L179:
 3050              	.LBE5:
 3051              	.LBE4:
 765:Core/Src/main.c ****     while (1)
 3052              		.loc 1 765 5 discriminator 1 view .LVU651
 766:Core/Src/main.c ****     {
 767:Core/Src/main.c ****     }
 3053              		.loc 1 767 5 discriminator 1 view .LVU652
 765:Core/Src/main.c ****     while (1)
 3054              		.loc 1 765 11 discriminator 1 view .LVU653
 3055 0002 FEE7     		b	.L179
ARM GAS  C:\Users\zhangjd\AppData\Local\Temp\ccW4vp8f.s 			page 74


 3056              		.cfi_endproc
 3057              	.LFE84:
 3059              		.section	.text.SystemClock_Config,"ax",%progbits
 3060              		.align	1
 3061              		.global	SystemClock_Config
 3062              		.syntax unified
 3063              		.thumb
 3064              		.thumb_func
 3065              		.fpu softvfp
 3067              	SystemClock_Config:
 3068              	.LFB67:
 437:Core/Src/main.c ****     RCC_OscInitTypeDef RCC_OscInitStruct = {0};
 3069              		.loc 1 437 1 view -0
 3070              		.cfi_startproc
 3071              		@ args = 0, pretend = 0, frame = 64
 3072              		@ frame_needed = 0, uses_anonymous_args = 0
 3073 0000 00B5     		push	{lr}
 3074              	.LCFI24:
 3075              		.cfi_def_cfa_offset 4
 3076              		.cfi_offset 14, -4
 3077 0002 91B0     		sub	sp, sp, #68
 3078              	.LCFI25:
 3079              		.cfi_def_cfa_offset 72
 438:Core/Src/main.c ****     RCC_ClkInitTypeDef RCC_ClkInitStruct = {0};
 3080              		.loc 1 438 5 view .LVU655
 438:Core/Src/main.c ****     RCC_ClkInitTypeDef RCC_ClkInitStruct = {0};
 3081              		.loc 1 438 24 is_stmt 0 view .LVU656
 3082 0004 2822     		movs	r2, #40
 3083 0006 0021     		movs	r1, #0
 3084 0008 06A8     		add	r0, sp, #24
 3085 000a FFF7FEFF 		bl	memset
 3086              	.LVL349:
 439:Core/Src/main.c **** 
 3087              		.loc 1 439 5 is_stmt 1 view .LVU657
 439:Core/Src/main.c **** 
 3088              		.loc 1 439 24 is_stmt 0 view .LVU658
 3089 000e 0023     		movs	r3, #0
 3090 0010 0193     		str	r3, [sp, #4]
 3091 0012 0293     		str	r3, [sp, #8]
 3092 0014 0393     		str	r3, [sp, #12]
 3093 0016 0493     		str	r3, [sp, #16]
 3094 0018 0593     		str	r3, [sp, #20]
 444:Core/Src/main.c ****     RCC_OscInitStruct.HSEState = RCC_HSE_ON;
 3095              		.loc 1 444 5 is_stmt 1 view .LVU659
 444:Core/Src/main.c ****     RCC_OscInitStruct.HSEState = RCC_HSE_ON;
 3096              		.loc 1 444 38 is_stmt 0 view .LVU660
 3097 001a 0122     		movs	r2, #1
 3098 001c 0692     		str	r2, [sp, #24]
 445:Core/Src/main.c ****     RCC_OscInitStruct.HSEPredivValue = RCC_HSE_PREDIV_DIV1;
 3099              		.loc 1 445 5 is_stmt 1 view .LVU661
 445:Core/Src/main.c ****     RCC_OscInitStruct.HSEPredivValue = RCC_HSE_PREDIV_DIV1;
 3100              		.loc 1 445 32 is_stmt 0 view .LVU662
 3101 001e 4FF48033 		mov	r3, #65536
 3102 0022 0793     		str	r3, [sp, #28]
 446:Core/Src/main.c ****     RCC_OscInitStruct.HSIState = RCC_HSI_ON;
 3103              		.loc 1 446 5 is_stmt 1 view .LVU663
 447:Core/Src/main.c ****     RCC_OscInitStruct.PLL.PLLState = RCC_PLL_ON;
ARM GAS  C:\Users\zhangjd\AppData\Local\Temp\ccW4vp8f.s 			page 75


 3104              		.loc 1 447 5 view .LVU664
 447:Core/Src/main.c ****     RCC_OscInitStruct.PLL.PLLState = RCC_PLL_ON;
 3105              		.loc 1 447 32 is_stmt 0 view .LVU665
 3106 0024 0A92     		str	r2, [sp, #40]
 448:Core/Src/main.c ****     RCC_OscInitStruct.PLL.PLLSource = RCC_PLLSOURCE_HSE;
 3107              		.loc 1 448 5 is_stmt 1 view .LVU666
 448:Core/Src/main.c ****     RCC_OscInitStruct.PLL.PLLSource = RCC_PLLSOURCE_HSE;
 3108              		.loc 1 448 36 is_stmt 0 view .LVU667
 3109 0026 0222     		movs	r2, #2
 3110 0028 0D92     		str	r2, [sp, #52]
 449:Core/Src/main.c ****     RCC_OscInitStruct.PLL.PLLMUL = RCC_PLL_MUL9;
 3111              		.loc 1 449 5 is_stmt 1 view .LVU668
 449:Core/Src/main.c ****     RCC_OscInitStruct.PLL.PLLMUL = RCC_PLL_MUL9;
 3112              		.loc 1 449 37 is_stmt 0 view .LVU669
 3113 002a 0E93     		str	r3, [sp, #56]
 450:Core/Src/main.c ****     if (HAL_RCC_OscConfig(&RCC_OscInitStruct) != HAL_OK)
 3114              		.loc 1 450 5 is_stmt 1 view .LVU670
 450:Core/Src/main.c ****     if (HAL_RCC_OscConfig(&RCC_OscInitStruct) != HAL_OK)
 3115              		.loc 1 450 34 is_stmt 0 view .LVU671
 3116 002c 4FF4E013 		mov	r3, #1835008
 3117 0030 0F93     		str	r3, [sp, #60]
 451:Core/Src/main.c ****     {
 3118              		.loc 1 451 5 is_stmt 1 view .LVU672
 451:Core/Src/main.c ****     {
 3119              		.loc 1 451 9 is_stmt 0 view .LVU673
 3120 0032 06A8     		add	r0, sp, #24
 3121 0034 FFF7FEFF 		bl	HAL_RCC_OscConfig
 3122              	.LVL350:
 451:Core/Src/main.c ****     {
 3123              		.loc 1 451 8 view .LVU674
 3124 0038 80B9     		cbnz	r0, .L184
 457:Core/Src/main.c ****     RCC_ClkInitStruct.SYSCLKSource = RCC_SYSCLKSOURCE_PLLCLK;
 3125              		.loc 1 457 5 is_stmt 1 view .LVU675
 457:Core/Src/main.c ****     RCC_ClkInitStruct.SYSCLKSource = RCC_SYSCLKSOURCE_PLLCLK;
 3126              		.loc 1 457 33 is_stmt 0 view .LVU676
 3127 003a 0F23     		movs	r3, #15
 3128 003c 0193     		str	r3, [sp, #4]
 458:Core/Src/main.c ****     RCC_ClkInitStruct.AHBCLKDivider = RCC_SYSCLK_DIV1;
 3129              		.loc 1 458 5 is_stmt 1 view .LVU677
 458:Core/Src/main.c ****     RCC_ClkInitStruct.AHBCLKDivider = RCC_SYSCLK_DIV1;
 3130              		.loc 1 458 36 is_stmt 0 view .LVU678
 3131 003e 0221     		movs	r1, #2
 3132 0040 0291     		str	r1, [sp, #8]
 459:Core/Src/main.c ****     RCC_ClkInitStruct.APB1CLKDivider = RCC_HCLK_DIV2;
 3133              		.loc 1 459 5 is_stmt 1 view .LVU679
 459:Core/Src/main.c ****     RCC_ClkInitStruct.APB1CLKDivider = RCC_HCLK_DIV2;
 3134              		.loc 1 459 37 is_stmt 0 view .LVU680
 3135 0042 0023     		movs	r3, #0
 3136 0044 0393     		str	r3, [sp, #12]
 460:Core/Src/main.c ****     RCC_ClkInitStruct.APB2CLKDivider = RCC_HCLK_DIV1;
 3137              		.loc 1 460 5 is_stmt 1 view .LVU681
 460:Core/Src/main.c ****     RCC_ClkInitStruct.APB2CLKDivider = RCC_HCLK_DIV1;
 3138              		.loc 1 460 38 is_stmt 0 view .LVU682
 3139 0046 4FF48062 		mov	r2, #1024
 3140 004a 0492     		str	r2, [sp, #16]
 461:Core/Src/main.c **** 
 3141              		.loc 1 461 5 is_stmt 1 view .LVU683
ARM GAS  C:\Users\zhangjd\AppData\Local\Temp\ccW4vp8f.s 			page 76


 461:Core/Src/main.c **** 
 3142              		.loc 1 461 38 is_stmt 0 view .LVU684
 3143 004c 0593     		str	r3, [sp, #20]
 463:Core/Src/main.c ****     {
 3144              		.loc 1 463 5 is_stmt 1 view .LVU685
 463:Core/Src/main.c ****     {
 3145              		.loc 1 463 9 is_stmt 0 view .LVU686
 3146 004e 01A8     		add	r0, sp, #4
 3147 0050 FFF7FEFF 		bl	HAL_RCC_ClockConfig
 3148              	.LVL351:
 463:Core/Src/main.c ****     {
 3149              		.loc 1 463 8 view .LVU687
 3150 0054 20B9     		cbnz	r0, .L185
 467:Core/Src/main.c **** 
 3151              		.loc 1 467 1 view .LVU688
 3152 0056 11B0     		add	sp, sp, #68
 3153              	.LCFI26:
 3154              		.cfi_remember_state
 3155              		.cfi_def_cfa_offset 4
 3156              		@ sp needed
 3157 0058 5DF804FB 		ldr	pc, [sp], #4
 3158              	.L184:
 3159              	.LCFI27:
 3160              		.cfi_restore_state
 453:Core/Src/main.c ****     }
 3161              		.loc 1 453 9 is_stmt 1 view .LVU689
 3162 005c FFF7FEFF 		bl	Error_Handler
 3163              	.LVL352:
 3164              	.L185:
 465:Core/Src/main.c ****     }
 3165              		.loc 1 465 9 view .LVU690
 3166 0060 FFF7FEFF 		bl	Error_Handler
 3167              	.LVL353:
 3168              		.cfi_endproc
 3169              	.LFE67:
 3171              		.section	.text.main,"ax",%progbits
 3172              		.align	1
 3173              		.global	main
 3174              		.syntax unified
 3175              		.thumb
 3176              		.thumb_func
 3177              		.fpu softvfp
 3179              	main:
 3180              	.LFB66:
 343:Core/Src/main.c ****     /* USER CODE BEGIN 1 */
 3181              		.loc 1 343 1 view -0
 3182              		.cfi_startproc
 3183              		@ Volatile: function does not return.
 3184              		@ args = 0, pretend = 0, frame = 0
 3185              		@ frame_needed = 0, uses_anonymous_args = 0
 3186 0000 08B5     		push	{r3, lr}
 3187              	.LCFI28:
 3188              		.cfi_def_cfa_offset 8
 3189              		.cfi_offset 3, -8
 3190              		.cfi_offset 14, -4
 350:Core/Src/main.c **** 
 3191              		.loc 1 350 5 view .LVU692
ARM GAS  C:\Users\zhangjd\AppData\Local\Temp\ccW4vp8f.s 			page 77


 3192 0002 FFF7FEFF 		bl	HAL_Init
 3193              	.LVL354:
 353:Core/Src/main.c ****     SetBaud(115200);
 3194              		.loc 1 353 5 view .LVU693
 3195 0006 614D     		ldr	r5, .L196
 3196 0008 2846     		mov	r0, r5
 3197 000a FFF7FEFF 		bl	jy62_Init
 3198              	.LVL355:
 354:Core/Src/main.c ****     SetHorizontal();
 3199              		.loc 1 354 5 view .LVU694
 3200 000e 4FF4E130 		mov	r0, #115200
 3201 0012 FFF7FEFF 		bl	SetBaud
 3202              	.LVL356:
 355:Core/Src/main.c ****     InitAngle();
 3203              		.loc 1 355 5 view .LVU695
 3204 0016 FFF7FEFF 		bl	SetHorizontal
 3205              	.LVL357:
 356:Core/Src/main.c ****     Calibrate();
 3206              		.loc 1 356 5 view .LVU696
 3207 001a FFF7FEFF 		bl	InitAngle
 3208              	.LVL358:
 357:Core/Src/main.c ****     SleepOrAwake();
 3209              		.loc 1 357 5 view .LVU697
 3210 001e FFF7FEFF 		bl	Calibrate
 3211              	.LVL359:
 358:Core/Src/main.c ****     /* USER CODE END Init */
 3212              		.loc 1 358 5 view .LVU698
 3213 0022 FFF7FEFF 		bl	SleepOrAwake
 3214              	.LVL360:
 362:Core/Src/main.c **** 
 3215              		.loc 1 362 5 view .LVU699
 3216 0026 FFF7FEFF 		bl	SystemClock_Config
 3217              	.LVL361:
 369:Core/Src/main.c ****     MX_TIM1_Init();
 3218              		.loc 1 369 5 view .LVU700
 3219 002a FFF7FEFF 		bl	MX_GPIO_Init
 3220              	.LVL362:
 370:Core/Src/main.c ****     MX_TIM2_Init();
 3221              		.loc 1 370 5 view .LVU701
 3222 002e FFF7FEFF 		bl	MX_TIM1_Init
 3223              	.LVL363:
 371:Core/Src/main.c ****     MX_TIM8_Init();
 3224              		.loc 1 371 5 view .LVU702
 3225 0032 FFF7FEFF 		bl	MX_TIM2_Init
 3226              	.LVL364:
 372:Core/Src/main.c ****     MX_TIM3_Init();
 3227              		.loc 1 372 5 view .LVU703
 3228 0036 FFF7FEFF 		bl	MX_TIM8_Init
 3229              	.LVL365:
 373:Core/Src/main.c ****     MX_TIM4_Init();
 3230              		.loc 1 373 5 view .LVU704
 3231 003a FFF7FEFF 		bl	MX_TIM3_Init
 3232              	.LVL366:
 374:Core/Src/main.c ****     MX_DMA_Init();
 3233              		.loc 1 374 5 view .LVU705
 3234 003e FFF7FEFF 		bl	MX_TIM4_Init
 3235              	.LVL367:
ARM GAS  C:\Users\zhangjd\AppData\Local\Temp\ccW4vp8f.s 			page 78


 375:Core/Src/main.c ****     MX_USART2_UART_Init();
 3236              		.loc 1 375 5 view .LVU706
 3237 0042 FFF7FEFF 		bl	MX_DMA_Init
 3238              	.LVL368:
 376:Core/Src/main.c ****     MX_USART1_UART_Init();
 3239              		.loc 1 376 5 view .LVU707
 3240 0046 FFF7FEFF 		bl	MX_USART2_UART_Init
 3241              	.LVL369:
 377:Core/Src/main.c ****     MX_TIM5_Init();
 3242              		.loc 1 377 5 view .LVU708
 3243 004a FFF7FEFF 		bl	MX_USART1_UART_Init
 3244              	.LVL370:
 378:Core/Src/main.c ****     /* USER CODE BEGIN 2 */
 3245              		.loc 1 378 5 view .LVU709
 3246 004e FFF7FEFF 		bl	MX_TIM5_Init
 3247              	.LVL371:
 380:Core/Src/main.c ****     HAL_TIM_Base_Start_IT(&htim1);
 3248              		.loc 1 380 5 view .LVU710
 3249 0052 4F48     		ldr	r0, .L196+4
 3250 0054 FFF7FEFF 		bl	zigbee_Init
 3251              	.LVL372:
 381:Core/Src/main.c ****     HAL_TIM_PWM_Start(&htim8, TIM_CHANNEL_1);
 3252              		.loc 1 381 5 view .LVU711
 3253 0058 4E48     		ldr	r0, .L196+8
 3254 005a FFF7FEFF 		bl	HAL_TIM_Base_Start_IT
 3255              	.LVL373:
 382:Core/Src/main.c ****     HAL_TIM_PWM_Start(&htim8, TIM_CHANNEL_2);
 3256              		.loc 1 382 5 view .LVU712
 3257 005e 4E4C     		ldr	r4, .L196+12
 3258 0060 0021     		movs	r1, #0
 3259 0062 2046     		mov	r0, r4
 3260 0064 FFF7FEFF 		bl	HAL_TIM_PWM_Start
 3261              	.LVL374:
 383:Core/Src/main.c ****     HAL_TIM_PWM_Start(&htim8, TIM_CHANNEL_3);
 3262              		.loc 1 383 5 view .LVU713
 3263 0068 0421     		movs	r1, #4
 3264 006a 2046     		mov	r0, r4
 3265 006c FFF7FEFF 		bl	HAL_TIM_PWM_Start
 3266              	.LVL375:
 384:Core/Src/main.c ****     HAL_TIM_PWM_Start(&htim8, TIM_CHANNEL_4);
 3267              		.loc 1 384 5 view .LVU714
 3268 0070 0821     		movs	r1, #8
 3269 0072 2046     		mov	r0, r4
 3270 0074 FFF7FEFF 		bl	HAL_TIM_PWM_Start
 3271              	.LVL376:
 385:Core/Src/main.c ****     HAL_TIM_Encoder_Start(&htim2, TIM_CHANNEL_1);
 3272              		.loc 1 385 5 view .LVU715
 3273 0078 0C21     		movs	r1, #12
 3274 007a 2046     		mov	r0, r4
 3275 007c FFF7FEFF 		bl	HAL_TIM_PWM_Start
 3276              	.LVL377:
 386:Core/Src/main.c ****     HAL_TIM_Encoder_Start(&htim2, TIM_CHANNEL_2);
 3277              		.loc 1 386 5 view .LVU716
 3278 0080 464C     		ldr	r4, .L196+16
 3279 0082 0021     		movs	r1, #0
 3280 0084 2046     		mov	r0, r4
 3281 0086 FFF7FEFF 		bl	HAL_TIM_Encoder_Start
ARM GAS  C:\Users\zhangjd\AppData\Local\Temp\ccW4vp8f.s 			page 79


 3282              	.LVL378:
 387:Core/Src/main.c ****     HAL_TIM_Encoder_Start(&htim3, TIM_CHANNEL_1);
 3283              		.loc 1 387 5 view .LVU717
 3284 008a 0421     		movs	r1, #4
 3285 008c 2046     		mov	r0, r4
 3286 008e FFF7FEFF 		bl	HAL_TIM_Encoder_Start
 3287              	.LVL379:
 388:Core/Src/main.c ****     HAL_TIM_Encoder_Start(&htim3, TIM_CHANNEL_2);
 3288              		.loc 1 388 5 view .LVU718
 3289 0092 434C     		ldr	r4, .L196+20
 3290 0094 0021     		movs	r1, #0
 3291 0096 2046     		mov	r0, r4
 3292 0098 FFF7FEFF 		bl	HAL_TIM_Encoder_Start
 3293              	.LVL380:
 389:Core/Src/main.c ****     HAL_TIM_Encoder_Start(&htim4, TIM_CHANNEL_1);
 3294              		.loc 1 389 5 view .LVU719
 3295 009c 0421     		movs	r1, #4
 3296 009e 2046     		mov	r0, r4
 3297 00a0 FFF7FEFF 		bl	HAL_TIM_Encoder_Start
 3298              	.LVL381:
 390:Core/Src/main.c ****     HAL_TIM_Encoder_Start(&htim4, TIM_CHANNEL_2);
 3299              		.loc 1 390 5 view .LVU720
 3300 00a4 3F4C     		ldr	r4, .L196+24
 3301 00a6 0021     		movs	r1, #0
 3302 00a8 2046     		mov	r0, r4
 3303 00aa FFF7FEFF 		bl	HAL_TIM_Encoder_Start
 3304              	.LVL382:
 391:Core/Src/main.c ****     HAL_TIM_Encoder_Start(&htim5, TIM_CHANNEL_1);
 3305              		.loc 1 391 5 view .LVU721
 3306 00ae 0421     		movs	r1, #4
 3307 00b0 2046     		mov	r0, r4
 3308 00b2 FFF7FEFF 		bl	HAL_TIM_Encoder_Start
 3309              	.LVL383:
 392:Core/Src/main.c ****     HAL_TIM_Encoder_Start(&htim5, TIM_CHANNEL_2);
 3310              		.loc 1 392 5 view .LVU722
 3311 00b6 3C4C     		ldr	r4, .L196+28
 3312 00b8 0021     		movs	r1, #0
 3313 00ba 2046     		mov	r0, r4
 3314 00bc FFF7FEFF 		bl	HAL_TIM_Encoder_Start
 3315              	.LVL384:
 393:Core/Src/main.c ****     jy62_Init(&huart2);
 3316              		.loc 1 393 5 view .LVU723
 3317 00c0 0421     		movs	r1, #4
 3318 00c2 2046     		mov	r0, r4
 3319 00c4 FFF7FEFF 		bl	HAL_TIM_Encoder_Start
 3320              	.LVL385:
 394:Core/Src/main.c ****     void jy62_Init(UART_HandleTypeDef * huart);
 3321              		.loc 1 394 5 view .LVU724
 3322 00c8 2846     		mov	r0, r5
 3323 00ca FFF7FEFF 		bl	jy62_Init
 3324              	.LVL386:
 395:Core/Src/main.c **** 
 3325              		.loc 1 395 5 view .LVU725
 397:Core/Src/main.c ****     HAL_GPIO_WritePin(GPIOB, GPIO_PIN_1, GPIO_PIN_RESET);
 3326              		.loc 1 397 5 view .LVU726
 3327 00ce 374C     		ldr	r4, .L196+32
 3328 00d0 0122     		movs	r2, #1
ARM GAS  C:\Users\zhangjd\AppData\Local\Temp\ccW4vp8f.s 			page 80


 3329 00d2 1146     		mov	r1, r2
 3330 00d4 2046     		mov	r0, r4
 3331 00d6 FFF7FEFF 		bl	HAL_GPIO_WritePin
 3332              	.LVL387:
 398:Core/Src/main.c ****     HAL_GPIO_WritePin(GPIOB, GPIO_PIN_2, GPIO_PIN_RESET);
 3333              		.loc 1 398 5 view .LVU727
 3334 00da 0022     		movs	r2, #0
 3335 00dc 0221     		movs	r1, #2
 3336 00de 2046     		mov	r0, r4
 3337 00e0 FFF7FEFF 		bl	HAL_GPIO_WritePin
 3338              	.LVL388:
 399:Core/Src/main.c ****     HAL_GPIO_WritePin(GPIOB, GPIO_PIN_10, GPIO_PIN_SET);
 3339              		.loc 1 399 5 view .LVU728
 3340 00e4 0022     		movs	r2, #0
 3341 00e6 0421     		movs	r1, #4
 3342 00e8 2046     		mov	r0, r4
 3343 00ea FFF7FEFF 		bl	HAL_GPIO_WritePin
 3344              	.LVL389:
 400:Core/Src/main.c ****     HAL_GPIO_WritePin(GPIOB, GPIO_PIN_11, GPIO_PIN_SET);
 3345              		.loc 1 400 5 view .LVU729
 3346 00ee 0122     		movs	r2, #1
 3347 00f0 4FF48061 		mov	r1, #1024
 3348 00f4 2046     		mov	r0, r4
 3349 00f6 FFF7FEFF 		bl	HAL_GPIO_WritePin
 3350              	.LVL390:
 401:Core/Src/main.c ****     HAL_GPIO_WritePin(GPIOB, GPIO_PIN_12, GPIO_PIN_RESET);
 3351              		.loc 1 401 5 view .LVU730
 3352 00fa 0122     		movs	r2, #1
 3353 00fc 4FF40061 		mov	r1, #2048
 3354 0100 2046     		mov	r0, r4
 3355 0102 FFF7FEFF 		bl	HAL_GPIO_WritePin
 3356              	.LVL391:
 402:Core/Src/main.c ****     HAL_GPIO_WritePin(GPIOB, GPIO_PIN_13, GPIO_PIN_RESET);
 3357              		.loc 1 402 5 view .LVU731
 3358 0106 0022     		movs	r2, #0
 3359 0108 4FF48051 		mov	r1, #4096
 3360 010c 2046     		mov	r0, r4
 3361 010e FFF7FEFF 		bl	HAL_GPIO_WritePin
 3362              	.LVL392:
 403:Core/Src/main.c ****     HAL_GPIO_WritePin(GPIOB, GPIO_PIN_14, GPIO_PIN_SET);
 3363              		.loc 1 403 5 view .LVU732
 3364 0112 0022     		movs	r2, #0
 3365 0114 4FF40051 		mov	r1, #8192
 3366 0118 2046     		mov	r0, r4
 3367 011a FFF7FEFF 		bl	HAL_GPIO_WritePin
 3368              	.LVL393:
 404:Core/Src/main.c ****     /* USER CODE END 2 */
 3369              		.loc 1 404 5 view .LVU733
 3370 011e 0122     		movs	r2, #1
 3371 0120 4FF48041 		mov	r1, #16384
 3372 0124 2046     		mov	r0, r4
 3373 0126 FFF7FEFF 		bl	HAL_GPIO_WritePin
 3374              	.LVL394:
 3375 012a 03E0     		b	.L189
 3376              	.L188:
 418:Core/Src/main.c ****         {
 3377              		.loc 1 418 9 view .LVU734
ARM GAS  C:\Users\zhangjd\AppData\Local\Temp\ccW4vp8f.s 			page 81


 418:Core/Src/main.c ****         {
 3378              		.loc 1 418 14 is_stmt 0 view .LVU735
 3379 012c FFF7FEFF 		bl	getGameState
 3380              	.LVL395:
 418:Core/Src/main.c ****         {
 3381              		.loc 1 418 12 view .LVU736
 3382 0130 0128     		cmp	r0, #1
 3383 0132 0FD0     		beq	.L194
 3384              	.L189:
 409:Core/Src/main.c ****     {
 3385              		.loc 1 409 5 is_stmt 1 view .LVU737
 414:Core/Src/main.c ****         {
 3386              		.loc 1 414 9 view .LVU738
 414:Core/Src/main.c ****         {
 3387              		.loc 1 414 14 is_stmt 0 view .LVU739
 3388 0134 FFF7FEFF 		bl	getGameState
 3389              	.LVL396:
 414:Core/Src/main.c ****         {
 3390              		.loc 1 414 12 view .LVU740
 3391 0138 0128     		cmp	r0, #1
 3392 013a F7D1     		bne	.L188
 414:Core/Src/main.c ****         {
 3393              		.loc 1 414 39 discriminator 1 view .LVU741
 3394 013c FFF7FEFF 		bl	getCarTask
 3395              	.LVL397:
 414:Core/Src/main.c ****         {
 3396              		.loc 1 414 35 discriminator 1 view .LVU742
 3397 0140 0028     		cmp	r0, #0
 3398 0142 F3D1     		bne	.L188
 414:Core/Src/main.c ****         {
 3399              		.loc 1 414 68 discriminator 2 view .LVU743
 3400 0144 1A4B     		ldr	r3, .L196+36
 3401 0146 1B68     		ldr	r3, [r3]
 414:Core/Src/main.c ****         {
 3402              		.loc 1 414 58 discriminator 2 view .LVU744
 3403 0148 002B     		cmp	r3, #0
 3404 014a EFDA     		bge	.L188
 416:Core/Src/main.c ****         }
 3405              		.loc 1 416 13 is_stmt 1 view .LVU745
 416:Core/Src/main.c ****         }
 3406              		.loc 1 416 19 is_stmt 0 view .LVU746
 3407 014c 184B     		ldr	r3, .L196+36
 3408 014e 0022     		movs	r2, #0
 3409 0150 1A60     		str	r2, [r3]
 3410 0152 EBE7     		b	.L188
 3411              	.L194:
 418:Core/Src/main.c ****         {
 3412              		.loc 1 418 39 discriminator 1 view .LVU747
 3413 0154 FFF7FEFF 		bl	getCarTask
 3414              	.LVL398:
 418:Core/Src/main.c ****         {
 3415              		.loc 1 418 35 discriminator 1 view .LVU748
 3416 0158 0128     		cmp	r0, #1
 3417 015a EBD1     		bne	.L189
 420:Core/Src/main.c ****             {
 3418              		.loc 1 420 13 is_stmt 1 view .LVU749
 420:Core/Src/main.c ****             {
ARM GAS  C:\Users\zhangjd\AppData\Local\Temp\ccW4vp8f.s 			page 82


 3419              		.loc 1 420 23 is_stmt 0 view .LVU750
 3420 015c 144B     		ldr	r3, .L196+36
 3421 015e 1B68     		ldr	r3, [r3]
 420:Core/Src/main.c ****             {
 3422              		.loc 1 420 16 view .LVU751
 3423 0160 092B     		cmp	r3, #9
 3424 0162 0CDD     		ble	.L195
 3425              	.L191:
 425:Core/Src/main.c ****                 State = 12;
 3426              		.loc 1 425 13 is_stmt 1 view .LVU752
 425:Core/Src/main.c ****                 State = 12;
 3427              		.loc 1 425 18 is_stmt 0 view .LVU753
 3428 0164 FFF7FEFF 		bl	getGameTime
 3429              	.LVL399:
 425:Core/Src/main.c ****                 State = 12;
 3430              		.loc 1 425 16 view .LVU754
 3431 0168 B0F57A7F 		cmp	r0, #1000
 3432 016c E2D9     		bls	.L189
 425:Core/Src/main.c ****                 State = 12;
 3433              		.loc 1 425 50 discriminator 1 view .LVU755
 3434 016e 104B     		ldr	r3, .L196+36
 3435 0170 1B68     		ldr	r3, [r3]
 425:Core/Src/main.c ****                 State = 12;
 3436              		.loc 1 425 40 discriminator 1 view .LVU756
 3437 0172 0B2B     		cmp	r3, #11
 3438 0174 DEDC     		bgt	.L189
 426:Core/Src/main.c ****         }
 3439              		.loc 1 426 17 is_stmt 1 view .LVU757
 426:Core/Src/main.c ****         }
 3440              		.loc 1 426 23 is_stmt 0 view .LVU758
 3441 0176 0E4B     		ldr	r3, .L196+36
 3442 0178 0C22     		movs	r2, #12
 3443 017a 1A60     		str	r2, [r3]
 3444 017c DAE7     		b	.L189
 3445              	.L195:
 422:Core/Src/main.c ****                 Sol_Car_Pos_INIT();
 3446              		.loc 1 422 17 is_stmt 1 view .LVU759
 422:Core/Src/main.c ****                 Sol_Car_Pos_INIT();
 3447              		.loc 1 422 23 is_stmt 0 view .LVU760
 3448 017e 0C4B     		ldr	r3, .L196+36
 3449 0180 0A22     		movs	r2, #10
 3450 0182 1A60     		str	r2, [r3]
 423:Core/Src/main.c ****             }
 3451              		.loc 1 423 17 is_stmt 1 view .LVU761
 3452 0184 FFF7FEFF 		bl	Sol_Car_Pos_INIT
 3453              	.LVL400:
 3454 0188 ECE7     		b	.L191
 3455              	.L197:
 3456 018a 00BF     		.align	2
 3457              	.L196:
 3458 018c 00000000 		.word	huart2
 3459 0190 00000000 		.word	huart1
 3460 0194 00000000 		.word	htim1
 3461 0198 00000000 		.word	htim8
 3462 019c 00000000 		.word	htim2
 3463 01a0 00000000 		.word	htim3
 3464 01a4 00000000 		.word	htim4
ARM GAS  C:\Users\zhangjd\AppData\Local\Temp\ccW4vp8f.s 			page 83


 3465 01a8 00000000 		.word	htim5
 3466 01ac 000C0140 		.word	1073810432
 3467 01b0 00000000 		.word	.LANCHOR6
 3468              		.cfi_endproc
 3469              	.LFE66:
 3471              		.global	state
 3472              		.global	Kd
 3473              		.global	Ki
 3474              		.global	Kp
 3475              		.global	ATAN_LUT
 3476              		.global	State
 3477              		.global	rep
 3478              		.global	now
 3479              		.global	count_storehouse
 3480              		.global	count_beacon
 3481              		.global	count_pos
 3482              		.global	score
 3483              		.global	resource_location
 3484              		.global	Prev_Pos_head
 3485              		.global	Prev_Pos
 3486              		.global	beacon_determinant
 3487              		.global	car_Pos
 3488              		.global	beacon_Pos
 3489              		.global	car_y
 3490              		.global	car_x
 3491              		.global	obj_y
 3492              		.global	obj_x
 3493              		.global	dis_obj
 3494              		.global	angle_obj
 3495              		.global	distance4
 3496              		.global	distance3
 3497              		.global	distance2
 3498              		.global	distance1
 3499              		.section	.bss.Prev_Pos,"aw",%nobits
 3500              		.align	2
 3501              		.set	.LANCHOR7,. + 0
 3504              	Prev_Pos:
 3505 0000 00000000 		.space	36
 3505      00000000 
 3505      00000000 
 3505      00000000 
 3505      00000000 
 3506              		.section	.bss.Prev_Pos_head,"aw",%nobits
 3507              		.align	1
 3508              		.set	.LANCHOR9,. + 0
 3511              	Prev_Pos_head:
 3512 0000 0000     		.space	2
 3513              		.section	.bss.angle_obj,"aw",%nobits
 3514              		.align	2
 3517              	angle_obj:
 3518 0000 00000000 		.space	4
 3519              		.section	.bss.beacon_Pos,"aw",%nobits
 3520              		.align	2
 3521              		.set	.LANCHOR2,. + 0
 3524              	beacon_Pos:
 3525 0000 00000000 		.space	24
 3525      00000000 
ARM GAS  C:\Users\zhangjd\AppData\Local\Temp\ccW4vp8f.s 			page 84


 3525      00000000 
 3525      00000000 
 3525      00000000 
 3526              		.section	.bss.beacon_determinant,"aw",%nobits
 3527              		.align	3
 3528              		.set	.LANCHOR3,. + 0
 3531              	beacon_determinant:
 3532 0000 00000000 		.space	8
 3532      00000000 
 3533              		.section	.bss.car_Pos,"aw",%nobits
 3534              		.align	2
 3535              		.set	.LANCHOR4,. + 0
 3538              	car_Pos:
 3539 0000 00000000 		.space	8
 3539      00000000 
 3540              		.section	.bss.car_x,"aw",%nobits
 3541              		.align	2
 3544              	car_x:
 3545 0000 00000000 		.space	4
 3546              		.section	.bss.car_y,"aw",%nobits
 3547              		.align	2
 3550              	car_y:
 3551 0000 00000000 		.space	4
 3552              		.section	.bss.count_beacon,"aw",%nobits
 3553              		.align	2
 3554              		.set	.LANCHOR11,. + 0
 3557              	count_beacon:
 3558 0000 00000000 		.space	4
 3559              		.section	.bss.count_pos,"aw",%nobits
 3560              		.align	2
 3561              		.set	.LANCHOR5,. + 0
 3564              	count_pos:
 3565 0000 00000000 		.space	4
 3566              		.section	.bss.count_storehouse,"aw",%nobits
 3567              		.align	2
 3570              	count_storehouse:
 3571 0000 00000000 		.space	4
 3572              		.section	.bss.dis_obj,"aw",%nobits
 3573              		.align	2
 3576              	dis_obj:
 3577 0000 00000000 		.space	4
 3578              		.section	.bss.distance1,"aw",%nobits
 3579              		.align	2
 3582              	distance1:
 3583 0000 00000000 		.space	4
 3584              		.section	.bss.distance2,"aw",%nobits
 3585              		.align	2
 3588              	distance2:
 3589 0000 00000000 		.space	4
 3590              		.section	.bss.distance3,"aw",%nobits
 3591              		.align	2
 3594              	distance3:
 3595 0000 00000000 		.space	4
 3596              		.section	.bss.distance4,"aw",%nobits
 3597              		.align	2
 3600              	distance4:
 3601 0000 00000000 		.space	4
ARM GAS  C:\Users\zhangjd\AppData\Local\Temp\ccW4vp8f.s 			page 85


 3602              		.section	.bss.now,"aw",%nobits
 3603              		.align	1
 3606              	now:
 3607 0000 0000     		.space	2
 3608              		.section	.bss.obj_x,"aw",%nobits
 3609              		.align	2
 3612              	obj_x:
 3613 0000 00000000 		.space	4
 3614              		.section	.bss.obj_y,"aw",%nobits
 3615              		.align	2
 3618              	obj_y:
 3619 0000 00000000 		.space	4
 3620              		.section	.bss.score,"aw",%nobits
 3621              		.align	2
 3622              		.set	.LANCHOR10,. + 0
 3625              	score:
 3626 0000 00000000 		.space	4
 3627              		.section	.bss.state,"aw",%nobits
 3628              		.align	2
 3629              		.set	.LANCHOR0,. + 0
 3632              	state:
 3633 0000 00000000 		.space	12
 3633      00000000 
 3633      00000000 
 3634              		.section	.data.State,"aw"
 3635              		.align	2
 3636              		.set	.LANCHOR6,. + 0
 3639              	State:
 3640 0000 FFFFFFFF 		.word	-1
 3641              		.section	.data.rep,"aw"
 3642              		.align	2
 3643              		.set	.LANCHOR12,. + 0
 3646              	rep:
 3647 0000 0F000000 		.word	15
 3648 0004 0F000000 		.word	15
 3649 0008 7F000000 		.word	127
 3650 000c 0F000000 		.word	15
 3651 0010 EF000000 		.word	239
 3652 0014 7F000000 		.word	127
 3653 0018 EF000000 		.word	239
 3654 001c EF000000 		.word	239
 3655 0020 7F000000 		.word	127
 3656 0024 EF000000 		.word	239
 3657 0028 0F000000 		.word	15
 3658 002c EF000000 		.word	239
 3659 0030 0F000000 		.word	15
 3660 0034 7F000000 		.word	127
 3661 0038 00000000 		.space	8
 3661      00000000 
 3662              		.section	.data.resource_location,"aw"
 3663              		.align	2
 3664              		.set	.LANCHOR8,. + 0
 3667              	resource_location:
 3668 0000 FFFFFFFF 		.word	-1
 3669 0004 FFFFFFFF 		.word	-1
 3670 0008 FFFFFFFF 		.word	-1
 3671 000c FFFFFFFF 		.word	-1
ARM GAS  C:\Users\zhangjd\AppData\Local\Temp\ccW4vp8f.s 			page 86


 3672 0010 00000000 		.word	0
 3673 0014 FFFFFFFF 		.word	-1
 3674              		.section	.rodata.ATAN_LUT,"a"
 3675              		.align	3
 3676              		.set	.LANCHOR1,. + 0
 3679              	ATAN_LUT:
 3680 0000 00000000 		.word	0
 3681 0004 00000000 		.word	0
 3682 0008 5433EAA8 		.word	-1461046444
 3683 000c 0A10703F 		.word	1064308746
 3684 0010 CC612179 		.word	2032230860
 3685 0014 FA0F803F 		.word	1065357306
 3686 0018 DF063C3E 		.word	1044121311
 3687 001c CF17883F 		.word	1065883599
 3688 0020 AAE9B5BB 		.word	-1145706070
 3689 0024 B90F903F 		.word	1066405817
 3690 0028 D1C82B7C 		.word	2083244241
 3691 002c 6B13943F 		.word	1066668907
 3692 0030 1E0653CA 		.word	-900528610
 3693 0034 F416983F 		.word	1066931956
 3694 0038 C2702695 		.word	-1792642878
 3695 003c 4D1A9C3F 		.word	1067194957
 3696 0040 F752ACE6 		.word	-424914185
 3697 0044 B60EA03F 		.word	1067454134
 3698 0048 6808AAB2 		.word	-1297479576
 3699 004c 2610A23F 		.word	1067585574
 3700 0050 4A759D28 		.word	681407818
 3701 0054 7211A43F 		.word	1067716978
 3702 0058 2D520746 		.word	1174884909
 3703 005c 9512A63F 		.word	1067848341
 3704 0060 A3576808 		.word	141055907
 3705 0064 8C13A83F 		.word	1067979660
 3706 0068 36C18C71 		.word	1905049910
 3707 006c 5214AA3F 		.word	1068110930
 3708 0070 73E36482 		.word	-2107317389
 3709 0074 E414AC3F 		.word	1068242148
 3710 0078 DE63E441 		.word	1105486814
 3711 007c 3E15AE3F 		.word	1068373310
 3712 0080 FD737FDB 		.word	-612404227
 3713 0084 AD0AB03F 		.word	1068501677
 3714 0088 22CC7976 		.word	1987693602
 3715 008c 9C0AB13F 		.word	1068567196
 3716 0090 9DB55CF8 		.word	-128141923
 3717 0094 680AB23F 		.word	1068632680
 3718 0098 286DC969 		.word	1774808360
 3719 009c 110AB33F 		.word	1068698129
 3720 00a0 FC09ABD4 		.word	-726988292
 3721 00a4 9309B43F 		.word	1068763539
 3722 00a8 4E588045 		.word	1166039118
 3723 00ac EE08B53F 		.word	1068828910
 3724 00b0 D41736C9 		.word	-919201836
 3725 00b4 1E08B63F 		.word	1068894238
 3726 00b8 BDB0BA6F 		.word	1874505917
 3727 00bc 2307B73F 		.word	1068959523
 3728 00c0 B84C224B 		.word	1260539064
 3729 00c4 FA05B83F 		.word	1069024762
 3730 00c8 6FE3386F 		.word	1865999215
ARM GAS  C:\Users\zhangjd\AppData\Local\Temp\ccW4vp8f.s 			page 87


 3731 00cc A104B93F 		.word	1069089953
 3732 00d0 0D4714F1 		.word	-250329331
 3733 00d4 1603BA3F 		.word	1069155094
 3734 00d8 B5CC15EA 		.word	-367670091
 3735 00dc 5801BB3F 		.word	1069220184
 3736 00e0 88B07A74 		.word	1954197640
 3737 00e4 65FFBB3F 		.word	1069285221
 3738 00e8 A6E313AD 		.word	-1391205466
 3739 00ec 3AFDBC3F 		.word	1069350202
 3740 00f0 29F321B4 		.word	-1272843479
 3741 00f4 D6FABD3F 		.word	1069415126
 3742 00f8 A9462FAB 		.word	-1422965079
 3743 00fc 37F8BE3F 		.word	1069479991
 3744 0100 1832D5CE 		.word	-824888808
 3745 0104 5BF5BF3F 		.word	1069544795
 3746 0108 34B81880 		.word	-2145863628
 3747 010c 2079C03F 		.word	1069578528
 3748 0110 22B021D8 		.word	-668880862
 3749 0114 72F7C03F 		.word	1069610866
 3750 0118 695D7EFA 		.word	-92381847
 3751 011c A375C13F 		.word	1069643171
 3752 0120 4C1F41FF 		.word	-12509364
 3753 0124 B2F3C13F 		.word	1069675442
 3754 0128 CA1C6B00 		.word	7019722
 3755 012c 9F71C23F 		.word	1069707679
 3756 0130 216AA218 		.word	413297185
 3757 0134 67EFC23F 		.word	1069739879
 3758 0138 4CCA5765 		.word	1700252236
 3759 013c 0A6DC33F 		.word	1069772042
 3760 0140 43E7D704 		.word	81258307
 3761 0144 88EAC33F 		.word	1069804168
 3762 0148 3F3FF016 		.word	384843583
 3763 014c DF67C43F 		.word	1069836255
 3764 0150 730502BE 		.word	-1107163789
 3765 0154 0EE5C43F 		.word	1069868302
 3766 0158 525A131D 		.word	487807570
 3767 015c 1662C53F 		.word	1069900310
 3768 0160 4A13BE59 		.word	1505629002
 3769 0164 F4DEC53F 		.word	1069932276
 3770 0168 09DA1C9B 		.word	-1692607991
 3771 016c A85BC63F 		.word	1069964200
 3772 0170 3A26020A 		.word	167913018
 3773 0174 32D8C63F 		.word	1069996082
 3774 0178 843DF8D0 		.word	-789037692
 3775 017c 8F54C73F 		.word	1070027919
 3776 0180 CE20E61C 		.word	484843726
 3777 0184 C1D0C73F 		.word	1070059713
 3778 0188 F99E6A1C 		.word	476749561
 3779 018c C54CC83F 		.word	1070091461
 3780 0190 275BA5FF 		.word	-5940441
 3781 0194 9AC8C83F 		.word	1070123162
 3782 0198 F4B9DBF8 		.word	-119817740
 3783 019c 4144C93F 		.word	1070154817
 3784 01a0 FBD4E63C 		.word	1021760763
 3785 01a4 B9BFC93F 		.word	1070186425
 3786 01a8 53A0E901 		.word	32088147
 3787 01ac 003BCA3F 		.word	1070217984
ARM GAS  C:\Users\zhangjd\AppData\Local\Temp\ccW4vp8f.s 			page 88


 3788 01b0 93D12C80 		.word	-2144546413
 3789 01b4 15B6CA3F 		.word	1070249493
 3790 01b8 8DD955F2 		.word	-229254771
 3791 01bc F830CB3F 		.word	1070280952
 3792 01c0 0EF7C194 		.word	-1799227634
 3793 01c4 A9ABCB3F 		.word	1070312361
 3794 01c8 662AF4A5 		.word	-1510725018
 3795 01cc 2626CC3F 		.word	1070343718
 3796 01d0 DB280367 		.word	1728260315
 3797 01d4 6FA0CC3F 		.word	1070375023
 3798 01d8 36824F1A 		.word	441418294
 3799 01dc 831ACD3F 		.word	1070406275
 3800 01e0 FA740405 		.word	84178170
 3801 01e4 6194CD3F 		.word	1070437473
 3802 01e8 68073C6E 		.word	1849427816
 3803 01ec 080ECE3F 		.word	1070468616
 3804 01f0 BCF4A39F 		.word	-1616644932
 3805 01f4 7887CE3F 		.word	1070499704
 3806 01f8 B3D233E4 		.word	-466365773
 3807 01fc B000CF3F 		.word	1070530736
 3808 0200 42D91B8A 		.word	-1977886398
 3809 0204 B079CF3F 		.word	1070561712
 3810 0208 9E140DE1 		.word	-519236450
 3811 020c 76F2CF3F 		.word	1070592630
 3812 0210 DD9FC19D 		.word	-1648255011
 3813 0214 8135D03F 		.word	1070609793
 3814 0218 A06EF476 		.word	1995730592
 3815 021c AA71D03F 		.word	1070625194
 3816 0220 B01867A7 		.word	-1486415696
 3817 0224 B5ADD03F 		.word	1070640565
 3818 0228 7F17C7DB 		.word	-607709313
 3819 022c A2E9D03F 		.word	1070655906
 3820 0230 81CB9DC1 		.word	-1046623359
 3821 0234 7125D13F 		.word	1070671217
 3822 0238 85ECD907 		.word	131722373
 3823 023c 2261D13F 		.word	1070686498
 3824 0240 5A19465E 		.word	1581652314
 3825 0244 B39CD13F 		.word	1070701747
 3826 0248 0FC52D76 		.word	1982711055
 3827 024c 25D8D13F 		.word	1070716965
 3828 0250 6F43EF01 		.word	32457583
 3829 0254 7813D23F 		.word	1070732152
 3830 0258 45CFC4B4 		.word	-1262170299
 3831 025c AA4ED23F 		.word	1070747306
 3832 0260 78F48443 		.word	1132786808
 3833 0264 BD89D23F 		.word	1070762429
 3834 0268 D0A2FD63 		.word	1677566672
 3835 026c AFC4D23F 		.word	1070777519
 3836 0270 D2AA0FCD 		.word	-854611246
 3837 0274 80FFD23F 		.word	1070792576
 3838 0278 63340137 		.word	922825827
 3839 027c 313AD33F 		.word	1070807601
 3840 0280 43CB0F5B 		.word	1527761731
 3841 0284 C074D33F 		.word	1070822592
 3842 0288 74CFF9F3 		.word	-201732236
 3843 028c 2DAFD33F 		.word	1070837549
 3844 0290 F48759BD 		.word	-1118205964
ARM GAS  C:\Users\zhangjd\AppData\Local\Temp\ccW4vp8f.s 			page 89


 3845 0294 79E9D33F 		.word	1070852473
 3846 0298 2E5F21AF 		.word	-1356767442
 3847 029c A323D43F 		.word	1070867363
 3848 02a0 74F938D6 		.word	-700909196
 3849 02a4 AA5DD43F 		.word	1070882218
 3850 02a8 2A8B27A3 		.word	-1557689558
 3851 02ac 8F97D43F 		.word	1070897039
 3852 02b0 BA054E9B 		.word	-1689385542
 3853 02b4 51D1D43F 		.word	1070911825
 3854 02b8 1A014A80 		.word	-2142633702
 3855 02bc F00AD53F 		.word	1070926576
 3856 02c0 BFEF0215 		.word	352513983
 3857 02c4 6C44D53F 		.word	1070941292
 3858 02c8 DD24731D 		.word	494085341
 3859 02cc C47DD53F 		.word	1070955972
 3860 02d0 4551C35E 		.word	1589858629
 3861 02d4 F8B6D53F 		.word	1070970616
 3862 02d8 68834A9F 		.word	-1622506648
 3863 02dc 08F0D53F 		.word	1070985224
 3864 02e0 1321C5A6 		.word	-1497030381
 3865 02e4 F428D63F 		.word	1070999796
 3866 02e8 1377CB3D 		.word	1036744467
 3867 02ec BC61D63F 		.word	1071014332
 3868 02f0 B4AC3F2E 		.word	775924916
 3869 02f4 5F9AD63F 		.word	1071028831
 3870 02f8 BEC34D43 		.word	1129169854
 3871 02fc DDD2D63F 		.word	1071043293
 3872 0300 DB211949 		.word	1226383835
 3873 0304 360BD73F 		.word	1071057718
 3874 0308 2F070F0D 		.word	219088687
 3875 030c 6A43D73F 		.word	1071072106
 3876 0310 A094AF5D 		.word	1571787936
 3877 0314 787BD73F 		.word	1071086456
 3878 0318 7042E00A 		.word	182469232
 3879 031c 61B3D73F 		.word	1071100769
 3880 0320 FA434AEB 		.word	-347454470
 3881 0324 23EBD73F 		.word	1071115043
 3882 0328 D4D925BF 		.word	-1088038444
 3883 032c C022D83F 		.word	1071129280
 3884 0330 A617646B 		.word	1801721766
 3885 0334 375AD83F 		.word	1071143479
 3886 0338 73A169BE 		.word	-1100373645
 3887 033c 8791D83F 		.word	1071157639
 3888 0340 17D0958D 		.word	-1919561705
 3889 0344 B1C8D83F 		.word	1071171761
 3890 0348 ECD691AF 		.word	-1349396756
 3891 034c B4FFD83F 		.word	1071185844
 3892 0350 49D0E2FB 		.word	-69021623
 3893 0354 9036D93F 		.word	1071199888
 3894 0358 06B1574B 		.word	1264038150
 3895 035c 466DD93F 		.word	1071213894
 3896 0360 96CBED77 		.word	2012072854
 3897 0364 D4A3D93F 		.word	1071227860
 3898 0368 6D597E5C 		.word	1551784301
 3899 036c 3BDAD93F 		.word	1071241787
 3900 0370 7D6E2CD5 		.word	-718508419
 3901 0374 7A10DA3F 		.word	1071255674
ARM GAS  C:\Users\zhangjd\AppData\Local\Temp\ccW4vp8f.s 			page 90


 3902 0378 978212BF 		.word	-1089305961
 3903 037c 9246DA3F 		.word	1071269522
 3904 0380 09E894F8 		.word	-124458999
 3905 0384 827CDA3F 		.word	1071283330
 3906 0388 21D8F360 		.word	1626593313
 3907 038c 4BB2DA3F 		.word	1071297099
 3908 0390 CAE99DD8 		.word	-660739638
 3909 0394 EBE7DA3F 		.word	1071310827
 3910 0398 CF17F940 		.word	1090066383
 3911 039c 641DDB3F 		.word	1071324516
 3912 03a0 B93D7E7C 		.word	2088648121
 3913 03a4 B452DB3F 		.word	1071338164
 3914 03a8 AF94D46E 		.word	1859425455
 3915 03ac DC87DB3F 		.word	1071351772
 3916 03b0 F8BF63FC 		.word	-60571656
 3917 03b4 DBBCDB3F 		.word	1071365339
 3918 03b8 38BAF80A 		.word	184072760
 3919 03bc B3F1DB3F 		.word	1071378867
 3920 03c0 32E82081 		.word	-2128549838
 3921 03c4 6126DC3F 		.word	1071392353
 3922 03c8 688F7C46 		.word	1182568296
 3923 03cc E75ADC3F 		.word	1071405799
 3924 03d0 1BD6BE43 		.word	1136580123
 3925 03d4 448FDC3F 		.word	1071419204
 3926 03d8 69469262 		.word	1653753449
 3927 03dc 78C3DC3F 		.word	1071432568
 3928 03e0 70517D8D 		.word	-1921166992
 3929 03e4 83F7DC3F 		.word	1071445891
 3930 03e8 0D4919B0 		.word	-1340520179
 3931 03ec 652BDD3F 		.word	1071459173
 3932 03f0 DB5F12B7 		.word	-1223532581
 3933 03f4 1E5FDD3F 		.word	1071472414
 3934 03f8 9232D58F 		.word	-1881853294
 3935 03fc AE92DD3F 		.word	1071485614
 3936 0400 AD3EE128 		.word	685850285
 3937 0404 15C6DD3F 		.word	1071498773
 3938 0408 60E2C871 		.word	1908990560
 3939 040c 52F9DD3F 		.word	1071511890
 3940 0410 2369C35A 		.word	1522755875
 3941 0414 662CDE3F 		.word	1071524966
 3942 0418 4982FFD4 		.word	-721452471
 3943 041c 505FDE3F 		.word	1071538000
 3944 0420 A6B7F5D2 		.word	-755648602
 3945 0424 1192DE3F 		.word	1071550993
 3946 0428 AC097147 		.word	1198590380
 3947 042c A9C4DE3F 		.word	1071563945
 3948 0430 2BD0A126 		.word	648138795
 3949 0434 17F7DE3F 		.word	1071576855
 3950 0438 53D34165 		.word	1698812755
 3951 043c 5B29DF3F 		.word	1071589723
 3952 0440 F23839F9 		.word	-113690382
 3953 0444 755BDF3F 		.word	1071602549
 3954 0448 3597F9D8 		.word	-654731467
 3955 044c 668DDF3F 		.word	1071615334
 3956 0450 096507FC 		.word	-66624247
 3957 0454 2DBFDF3F 		.word	1071628077
 3958 0458 7783A75A 		.word	1520927607
ARM GAS  C:\Users\zhangjd\AppData\Local\Temp\ccW4vp8f.s 			page 91


 3959 045c CBF0DF3F 		.word	1071640779
 3960 0460 B41B0B77 		.word	1997216692
 3961 0464 1F11E03F 		.word	1071649055
 3962 0468 F4172858 		.word	1479022580
 3963 046c C429E03F 		.word	1071655364
 3964 0470 9D84FB4D 		.word	1308329117
 3965 0474 5442E03F 		.word	1071661652
 3966 0478 C3E15156 		.word	1448206787
 3967 047c CF5AE03F 		.word	1071667919
 3968 0480 6961736F 		.word	1869832553
 3969 0484 3573E03F 		.word	1071674165
 3970 0488 502FDF97 		.word	-1746981040
 3971 048c 868BE03F 		.word	1071680390
 3972 0490 2A2990CE 		.word	-829413078
 3973 0494 C2A3E03F 		.word	1071686594
 3974 0498 2820EF12 		.word	317661224
 3975 049c EABBE03F 		.word	1071692778
 3976 04a0 3ADF9B64 		.word	1687936826
 3977 04a4 FCD3E03F 		.word	1071698940
 3978 04a8 2060CDC3 		.word	-1009950688
 3979 04ac F9EBE03F 		.word	1071705081
 3980 04b0 5996F130 		.word	821139033
 3981 04b4 E203E13F 		.word	1071711202
 3982 04b8 05ECC8AC 		.word	-1396118523
 3983 04bc B51BE13F 		.word	1071717301
 3984 04c0 A13B9D38 		.word	949828513
 3985 04c4 7433E13F 		.word	1071723380
 3986 04c8 DB17FDD5 		.word	-704833573
 3987 04cc 1D4BE13F 		.word	1071729437
 3988 04d0 220DAE86 		.word	-2035413726
 3989 04d4 B262E13F 		.word	1071735474
 3990 04d8 4118FF4C 		.word	1291786305
 3991 04dc 327AE13F 		.word	1071741490
 3992 04e0 35EE832B 		.word	730066485
 3993 04e4 9D91E13F 		.word	1071747485
 3994 04e8 2AFC1425 		.word	622132266
 3995 04ec F3A8E13F 		.word	1071753459
 3996 04f0 CCA2F83C 		.word	1022927564
 3997 04f4 34C0E13F 		.word	1071759412
 3998 04f8 F6FAB976 		.word	1991899894
 3999 04fc 60D7E13F 		.word	1071765344
 4000 0500 B2D528D6 		.word	-701966926
 4001 0504 77EEE13F 		.word	1071771255
 4002 0508 8BF7825F 		.word	1602418571
 4003 050c 7A05E23F 		.word	1071777146
 4004 0510 5A602F17 		.word	388980826
 4005 0514 681CE23F 		.word	1071783016
 4006 0518 E8C11002 		.word	34652648
 4007 051c 4133E23F 		.word	1071788865
 4008 0520 50093325 		.word	624101712
 4009 0524 054AE23F 		.word	1071794693
 4010 0528 489AF485 		.word	-2047567288
 4011 052c B460E23F 		.word	1071800500
 4012 0530 BA90F829 		.word	704155834
 4013 0534 4F77E23F 		.word	1071806287
 4014 0538 2D7F3417 		.word	389316397
 4015 053c D58DE23F 		.word	1071812053
ARM GAS  C:\Users\zhangjd\AppData\Local\Temp\ccW4vp8f.s 			page 92


 4016 0540 C86EF053 		.word	1408265928
 4017 0544 46A4E23F 		.word	1071817798
 4018 0548 02A49DE6 		.word	-425876478
 4019 054c A2BAE23F 		.word	1071823522
 4020 0550 F3D9FFD5 		.word	-704652813
 4021 0554 EAD0E23F 		.word	1071829226
 4022 0558 50422D29 		.word	690831952
 4023 055c 1EE7E23F 		.word	1071834910
 4024 0560 1F4A65E7 		.word	-412792289
 4025 0564 3CFDE23F 		.word	1071840572
 4026 0568 95162C18 		.word	405542549
 4027 056c 4713E33F 		.word	1071846215
 4028 0570 F90166C3 		.word	-1016724999
 4029 0574 3C29E33F 		.word	1071851836
 4030 0578 FE2405F1 		.word	-251321090
 4031 057c 1D3FE33F 		.word	1071857437
 4032 0580 F90E4EA9 		.word	-1454502151
 4033 0584 EA54E33F 		.word	1071863018
 4034 0588 4F84E5F4 		.word	-186284977
 4035 058c A26AE33F 		.word	1071868578
 4036 0590 624970DC 		.word	-596620958
 4037 0594 4680E33F 		.word	1071874118
 4038 0598 3899E568 		.word	1759877432
 4039 059c D695E33F 		.word	1071879638
 4040 05a0 72258FA3 		.word	-1550899854
 4041 05a4 51ABE33F 		.word	1071885137
 4042 05a8 941CD295 		.word	-1781392236
 4043 05ac B8C0E33F 		.word	1071890616
 4044 05b0 71E83C49 		.word	1228728433
 4045 05b4 0BD6E33F 		.word	1071896075
 4046 05b8 7B69B0C7 		.word	-944739973
 4047 05bc 49EBE33F 		.word	1071901513
 4048 05c0 5338521B 		.word	458373203
 4049 05c4 7400E43F 		.word	1071906932
 4050 05c8 2D2F3A4E 		.word	1312436013
 4051 05cc 8A15E43F 		.word	1071912330
 4052 05d0 B81BEE6A 		.word	1793989560
 4053 05d4 8C2AE43F 		.word	1071917708
 4054 05d8 F7061D7C 		.word	2082277111
 4055 05dc 7A3FE43F 		.word	1071923066
 4056 05e0 5AB8838C 		.word	-1937524646
 4057 05e4 5454E43F 		.word	1071928404
 4058 05e8 622C3FA7 		.word	-1489032094
 4059 05ec 1A69E43F 		.word	1071933722
 4060 05f0 905F6CD7 		.word	-680763504
 4061 05f4 CC7DE43F 		.word	1071939020
 4062 05f8 94066D28 		.word	678233748
 4063 05fc 6B92E43F 		.word	1071944299
 4064 0600 6D11CCA5 		.word	-1513352851
 4065 0604 F5A6E43F 		.word	1071949557
 4066 0608 DC694B5B 		.word	1531668956
 4067 060c 6CBBE43F 		.word	1071954796
 4068 0610 7F76C854 		.word	1422423679
 4069 0614 CFCFE43F 		.word	1071960015
 4070 0618 D71A3C9E 		.word	-1640228137
 4071 061c 1EE4E43F 		.word	1071965214
 4072 0620 93F2E343 		.word	1139012243
ARM GAS  C:\Users\zhangjd\AppData\Local\Temp\ccW4vp8f.s 			page 93


 4073 0624 5AF8E43F 		.word	1071970394
 4074 0628 B0D42652 		.word	1378276528
 4075 062c 820CE53F 		.word	1071975554
 4076 0630 2F986BD5 		.word	-714368977
 4077 0634 9620E53F 		.word	1071980694
 4078 0638 AC8A6BDA 		.word	-630486356
 4079 063c 9734E53F 		.word	1071985815
 4080 0640 C8F9DF6D 		.word	1843395016
 4081 0644 8548E53F 		.word	1071990917
 4082 0648 DF2CB99C 		.word	-1665585953
 4083 064c 5F5CE53F 		.word	1071995999
 4084 0650 9FA61074 		.word	1947248287
 4085 0654 2670E53F 		.word	1072001062
 4086 0658 26A80D01 		.word	17672230
 4087 065c DA83E53F 		.word	1072006106
 4088 0660 E3AD0051 		.word	1358999011
 4089 0664 7A97E53F 		.word	1072011130
 4090 0668 916F6371 		.word	1902342033
 4091 066c 07ABE53F 		.word	1072016135
 4092 0670 CE21CB6F 		.word	1875583438
 4093 0674 81BEE53F 		.word	1072021121
 4094 0678 A8B7DA59 		.word	1507506088
 4095 067c E8D1E53F 		.word	1072026088
 4096 0680 7B5F5E3D 		.word	1029595003
 4097 0684 3CE5E53F 		.word	1072031036
 4098 0688 F3824B28 		.word	676037363
 4099 068c 7DF8E53F 		.word	1072035965
 4100 0690 BE8B9728 		.word	681020350
 4101 0694 AB0BE63F 		.word	1072040875
 4102 0698 47DD6E4C 		.word	1282334023
 4103 069c C61EE63F 		.word	1072045766
 4104 06a0 6B990BA2 		.word	-1576298133
 4105 06a4 CE31E63F 		.word	1072050638
 4106 06a8 07E2A737 		.word	933749255
 4107 06ac C444E63F 		.word	1072055492
 4108 06b0 954FD01B 		.word	466636693
 4109 06b4 A757E63F 		.word	1072060327
 4110 06b8 B2FDF55C 		.word	1559625138
 4111 06bc 776AE63F 		.word	1072065143
 4112 06c0 BA01C109 		.word	163643834
 4113 06c4 357DE63F 		.word	1072069941
 4114 06c8 98B2CB30 		.word	818655896
 4115 06cc E08FE63F 		.word	1072074720
 4116 06d0 F860E7E0 		.word	-521707272
 4117 06d4 78A2E63F 		.word	1072079480
 4118 06d8 F51BF328 		.word	687021045
 4119 06dc FFB4E63F 		.word	1072084223
 4120 06e0 1AB1DB17 		.word	400273690
 4121 06e4 73C7E63F 		.word	1072088947
 4122 06e8 62AC9BBC 		.word	-1130648478
 4123 06ec D4D9E63F 		.word	1072093652
 4124 06f0 AA164926 		.word	642324138
 4125 06f4 24ECE63F 		.word	1072098340
 4126 06f8 AA751564 		.word	1679127978
 4127 06fc 61FEE63F 		.word	1072103009
 4128 0700 B0902485 		.word	-2061201232
 4129 0704 8C10E73F 		.word	1072107660
ARM GAS  C:\Users\zhangjd\AppData\Local\Temp\ccW4vp8f.s 			page 94


 4130 0708 C428D198 		.word	-1731123004
 4131 070c A522E73F 		.word	1072112293
 4132 0710 834068AE 		.word	-1368899453
 4133 0714 AC34E73F 		.word	1072116908
 4134 0718 665752D5 		.word	-716023962
 4135 071c A146E73F 		.word	1072121505
 4136 0720 58AB051D 		.word	486910808
 4137 0724 8558E73F 		.word	1072126085
 4138 0728 B4380695 		.word	-1794754380
 4139 072c 566AE73F 		.word	1072130646
 4140 0730 43BAE54C 		.word	1290123843
 4141 0734 167CE73F 		.word	1072135190
 4142 0738 41A94354 		.word	1413720385
 4143 073c C48DE73F 		.word	1072139716
 4144 0740 573DCDBA 		.word	-1160954537
 4145 0744 609FE73F 		.word	1072144224
 4146 0748 31AE2F90 		.word	-1875923407
 4147 074c EBB0E73F 		.word	1072148715
 4148 0750 E7F125E4 		.word	-467275289
 4149 0754 64C2E73F 		.word	1072153188
 4150 0758 747B86C6 		.word	-964265100
 4151 075c CCD3E73F 		.word	1072157644
 4152 0760 D1BD2747 		.word	1193786833
 4153 0764 23E5E73F 		.word	1072162083
 4154 0768 FA2BE075 		.word	1977625594
 4155 076c 68F6E73F 		.word	1072166504
 4156 0770 58F79362 		.word	1653864280
 4157 0774 9C07E83F 		.word	1072170908
 4158 0778 C40F351D 		.word	490016708
 4159 077c BF18E83F 		.word	1072175295
 4160 0780 8923C3B5 		.word	-1245502583
 4161 0784 D029E83F 		.word	1072179664
 4162 0788 8122303C 		.word	1009787521
 4163 078c D13AE83F 		.word	1072184017
 4164 0790 F4BA7BC0 		.word	-1065633036
 4165 0794 C04BE83F 		.word	1072188352
 4166 0798 0E18C152 		.word	1388386318
 4167 079c 9F5CE83F 		.word	1072192671
 4168 07a0 17E8FF02 		.word	50325527
 4169 07a4 6D6DE83F 		.word	1072196973
 4170 07a8 395653E1 		.word	-514632135
 4171 07ac 297EE83F 		.word	1072201257
 4172 07b0 9E8DD6FD 		.word	-36270690
 4173 07b4 D58EE83F 		.word	1072205525
 4174 07b8 E077B268 		.word	1756526560
 4175 07bc 719FE83F 		.word	1072209777
 4176 07c0 B881F431 		.word	838107576
 4177 07c4 FCAFE83F 		.word	1072214012
 4178 07c8 C094C569 		.word	1774556352
 4179 07cc 76C0E83F 		.word	1072218230
 4180 07d0 01595C20 		.word	542923009
 4181 07d4 E0D0E83F 		.word	1072222432
 4182 07d8 A5F9D365 		.word	1708390821
 4183 07dc 39E1E83F 		.word	1072226617
 4184 07e0 B51E634A 		.word	1248009909
 4185 07e4 82F1E83F 		.word	1072230786
 4186 07e8 CBB132DE 		.word	-567103029
ARM GAS  C:\Users\zhangjd\AppData\Local\Temp\ccW4vp8f.s 			page 95


 4187 07ec BA01E93F 		.word	1072234938
 4188 07f0 819C6B31 		.word	829136001
 4189 07f4 E311E93F 		.word	1072239075
 4190 07f8 E0864454 		.word	1413777120
 4191 07fc FB21E93F 		.word	1072243195
 4192              		.section	.rodata.Kd,"a"
 4193              		.align	2
 4196              	Kd:
 4197 0000 00004842 		.word	1112014848
 4198              		.section	.rodata.Ki,"a"
 4199              		.align	2
 4202              	Ki:
 4203 0000 0000ECC2 		.word	-1024720896
 4204              		.section	.rodata.Kp,"a"
 4205              		.align	2
 4208              	Kp:
 4209 0000 00009643 		.word	1133903872
 4210              		.text
 4211              	.Letext0:
 4212              		.file 3 "d:\\program files (x86)\\gnu arm embedded toolchain\\10 2021.07\\arm-none-eabi\\include\\
 4213              		.file 4 "d:\\program files (x86)\\gnu arm embedded toolchain\\10 2021.07\\arm-none-eabi\\include\\
 4214              		.file 5 "Drivers/CMSIS/Device/ST/STM32F1xx/Include/stm32f103xe.h"
 4215              		.file 6 "Drivers/STM32F1xx_HAL_Driver/Inc/stm32f1xx_hal_def.h"
 4216              		.file 7 "Drivers/STM32F1xx_HAL_Driver/Inc/stm32f1xx_hal_rcc.h"
 4217              		.file 8 "Drivers/STM32F1xx_HAL_Driver/Inc/stm32f1xx_hal_rcc_ex.h"
 4218              		.file 9 "Drivers/STM32F1xx_HAL_Driver/Inc/stm32f1xx_hal_gpio.h"
 4219              		.file 10 "Drivers/STM32F1xx_HAL_Driver/Inc/stm32f1xx_hal_dma.h"
 4220              		.file 11 "Drivers/STM32F1xx_HAL_Driver/Inc/stm32f1xx_hal_tim.h"
 4221              		.file 12 "Drivers/STM32F1xx_HAL_Driver/Inc/stm32f1xx_hal_uart.h"
 4222              		.file 13 "Core/Inc/tim.h"
 4223              		.file 14 "Core/Inc/usart.h"
 4224              		.file 15 "Core/Inc/jy62.h"
 4225              		.file 16 "Drivers/STM32F1xx_HAL_Driver/Inc/stm32f1xx_hal.h"
 4226              		.file 17 "Core/Inc/gpio.h"
 4227              		.file 18 "Core/Inc/dma.h"
 4228              		.file 19 "Core/Inc/zigbee.h"
 4229              		.file 20 "<built-in>"
ARM GAS  C:\Users\zhangjd\AppData\Local\Temp\ccW4vp8f.s 			page 96


DEFINED SYMBOLS
                            *ABS*:00000000 main.c
C:\Users\zhangjd\AppData\Local\Temp\ccW4vp8f.s:20     .text.pid:00000000 $t
C:\Users\zhangjd\AppData\Local\Temp\ccW4vp8f.s:28     .text.pid:00000000 pid
C:\Users\zhangjd\AppData\Local\Temp\ccW4vp8f.s:128    .text.pid:00000064 $d
C:\Users\zhangjd\AppData\Local\Temp\ccW4vp8f.s:137    .text.Abs:00000000 $t
C:\Users\zhangjd\AppData\Local\Temp\ccW4vp8f.s:144    .text.Abs:00000000 Abs
C:\Users\zhangjd\AppData\Local\Temp\ccW4vp8f.s:168    .text.qiuyu360:00000000 $t
C:\Users\zhangjd\AppData\Local\Temp\ccW4vp8f.s:175    .text.qiuyu360:00000000 qiuyu360
C:\Users\zhangjd\AppData\Local\Temp\ccW4vp8f.s:240    .text.qiuyu360:00000038 $d
C:\Users\zhangjd\AppData\Local\Temp\ccW4vp8f.s:245    .text.forward:00000000 $t
C:\Users\zhangjd\AppData\Local\Temp\ccW4vp8f.s:252    .text.forward:00000000 forward
C:\Users\zhangjd\AppData\Local\Temp\ccW4vp8f.s:336    .text.forward:00000070 $d
C:\Users\zhangjd\AppData\Local\Temp\ccW4vp8f.s:342    .text.backward:00000000 $t
C:\Users\zhangjd\AppData\Local\Temp\ccW4vp8f.s:349    .text.backward:00000000 backward
C:\Users\zhangjd\AppData\Local\Temp\ccW4vp8f.s:433    .text.backward:00000070 $d
C:\Users\zhangjd\AppData\Local\Temp\ccW4vp8f.s:439    .text.rotate_counterclockwise:00000000 $t
C:\Users\zhangjd\AppData\Local\Temp\ccW4vp8f.s:446    .text.rotate_counterclockwise:00000000 rotate_counterclockwise
C:\Users\zhangjd\AppData\Local\Temp\ccW4vp8f.s:530    .text.rotate_counterclockwise:00000070 $d
C:\Users\zhangjd\AppData\Local\Temp\ccW4vp8f.s:536    .text.rotate_clockwise:00000000 $t
C:\Users\zhangjd\AppData\Local\Temp\ccW4vp8f.s:543    .text.rotate_clockwise:00000000 rotate_clockwise
C:\Users\zhangjd\AppData\Local\Temp\ccW4vp8f.s:627    .text.rotate_clockwise:00000070 $d
C:\Users\zhangjd\AppData\Local\Temp\ccW4vp8f.s:633    .text.rotate_clockwise_plus_forward:00000000 $t
C:\Users\zhangjd\AppData\Local\Temp\ccW4vp8f.s:640    .text.rotate_clockwise_plus_forward:00000000 rotate_clockwise_plus_forward
C:\Users\zhangjd\AppData\Local\Temp\ccW4vp8f.s:725    .text.rotate_clockwise_plus_forward:00000070 $d
C:\Users\zhangjd\AppData\Local\Temp\ccW4vp8f.s:731    .text.brake:00000000 $t
C:\Users\zhangjd\AppData\Local\Temp\ccW4vp8f.s:738    .text.brake:00000000 brake
C:\Users\zhangjd\AppData\Local\Temp\ccW4vp8f.s:814    .text.brake:00000070 $d
C:\Users\zhangjd\AppData\Local\Temp\ccW4vp8f.s:821    .text.fabs:00000000 $t
C:\Users\zhangjd\AppData\Local\Temp\ccW4vp8f.s:828    .text.fabs:00000000 fabs
C:\Users\zhangjd\AppData\Local\Temp\ccW4vp8f.s:876    .text.atan2LUTif:00000000 $t
C:\Users\zhangjd\AppData\Local\Temp\ccW4vp8f.s:883    .text.atan2LUTif:00000000 atan2LUTif
C:\Users\zhangjd\AppData\Local\Temp\ccW4vp8f.s:1247   .text.atan2LUTif:000001f8 $d
C:\Users\zhangjd\AppData\Local\Temp\ccW4vp8f.s:1266   .text.Solve_Mine_Pos:00000000 $t
C:\Users\zhangjd\AppData\Local\Temp\ccW4vp8f.s:1273   .text.Solve_Mine_Pos:00000000 Solve_Mine_Pos
C:\Users\zhangjd\AppData\Local\Temp\ccW4vp8f.s:1735   .text.Solve_Mine_Pos:00000308 $d
C:\Users\zhangjd\AppData\Local\Temp\ccW4vp8f.s:1745   .text.Sol_Car_Pos_INIT:00000000 $t
C:\Users\zhangjd\AppData\Local\Temp\ccW4vp8f.s:1752   .text.Sol_Car_Pos_INIT:00000000 Sol_Car_Pos_INIT
C:\Users\zhangjd\AppData\Local\Temp\ccW4vp8f.s:1800   .text.Sol_Car_Pos_INIT:00000034 $d
C:\Users\zhangjd\AppData\Local\Temp\ccW4vp8f.s:1806   .text.Sol_Car_Pos:00000000 $t
C:\Users\zhangjd\AppData\Local\Temp\ccW4vp8f.s:1813   .text.Sol_Car_Pos:00000000 Sol_Car_Pos
C:\Users\zhangjd\AppData\Local\Temp\ccW4vp8f.s:2075   .text.Sol_Car_Pos:000001cc $d
C:\Users\zhangjd\AppData\Local\Temp\ccW4vp8f.s:2087   .text.Goto:00000000 $t
C:\Users\zhangjd\AppData\Local\Temp\ccW4vp8f.s:2094   .text.Goto:00000000 Goto
C:\Users\zhangjd\AppData\Local\Temp\ccW4vp8f.s:2325   .text.Goto:00000138 $d
C:\Users\zhangjd\AppData\Local\Temp\ccW4vp8f.s:2333   .text.HAL_TIM_PeriodElapsedCallback:00000000 $t
C:\Users\zhangjd\AppData\Local\Temp\ccW4vp8f.s:2340   .text.HAL_TIM_PeriodElapsedCallback:00000000 HAL_TIM_PeriodElapsedCallback
C:\Users\zhangjd\AppData\Local\Temp\ccW4vp8f.s:2406   .text.HAL_TIM_PeriodElapsedCallback:00000034 $d
C:\Users\zhangjd\AppData\Local\Temp\ccW4vp8f.s:2414   .text.HAL_TIM_PeriodElapsedCallback:00000042 $t
C:\Users\zhangjd\AppData\Local\Temp\ccW4vp8f.s:2832   .text.HAL_TIM_PeriodElapsedCallback:00000298 $d
C:\Users\zhangjd\AppData\Local\Temp\ccW4vp8f.s:2849   .text.HAL_TIM_PeriodElapsedCallback:000002d0 $t
C:\Users\zhangjd\AppData\Local\Temp\ccW4vp8f.s:2916   .text.HAL_TIM_PeriodElapsedCallback:00000324 $d
C:\Users\zhangjd\AppData\Local\Temp\ccW4vp8f.s:2924   .text.Get_Rep_opt:00000000 $t
C:\Users\zhangjd\AppData\Local\Temp\ccW4vp8f.s:2931   .text.Get_Rep_opt:00000000 Get_Rep_opt
C:\Users\zhangjd\AppData\Local\Temp\ccW4vp8f.s:3016   .text.Get_Rep_opt:00000050 $d
C:\Users\zhangjd\AppData\Local\Temp\ccW4vp8f.s:3021   .text.Error_Handler:00000000 $t
C:\Users\zhangjd\AppData\Local\Temp\ccW4vp8f.s:3028   .text.Error_Handler:00000000 Error_Handler
ARM GAS  C:\Users\zhangjd\AppData\Local\Temp\ccW4vp8f.s 			page 97


C:\Users\zhangjd\AppData\Local\Temp\ccW4vp8f.s:3060   .text.SystemClock_Config:00000000 $t
C:\Users\zhangjd\AppData\Local\Temp\ccW4vp8f.s:3067   .text.SystemClock_Config:00000000 SystemClock_Config
C:\Users\zhangjd\AppData\Local\Temp\ccW4vp8f.s:3172   .text.main:00000000 $t
C:\Users\zhangjd\AppData\Local\Temp\ccW4vp8f.s:3179   .text.main:00000000 main
C:\Users\zhangjd\AppData\Local\Temp\ccW4vp8f.s:3458   .text.main:0000018c $d
C:\Users\zhangjd\AppData\Local\Temp\ccW4vp8f.s:3632   .bss.state:00000000 state
C:\Users\zhangjd\AppData\Local\Temp\ccW4vp8f.s:4196   .rodata.Kd:00000000 Kd
C:\Users\zhangjd\AppData\Local\Temp\ccW4vp8f.s:4202   .rodata.Ki:00000000 Ki
C:\Users\zhangjd\AppData\Local\Temp\ccW4vp8f.s:4208   .rodata.Kp:00000000 Kp
C:\Users\zhangjd\AppData\Local\Temp\ccW4vp8f.s:3679   .rodata.ATAN_LUT:00000000 ATAN_LUT
C:\Users\zhangjd\AppData\Local\Temp\ccW4vp8f.s:3639   .data.State:00000000 State
C:\Users\zhangjd\AppData\Local\Temp\ccW4vp8f.s:3646   .data.rep:00000000 rep
C:\Users\zhangjd\AppData\Local\Temp\ccW4vp8f.s:3606   .bss.now:00000000 now
C:\Users\zhangjd\AppData\Local\Temp\ccW4vp8f.s:3570   .bss.count_storehouse:00000000 count_storehouse
C:\Users\zhangjd\AppData\Local\Temp\ccW4vp8f.s:3557   .bss.count_beacon:00000000 count_beacon
C:\Users\zhangjd\AppData\Local\Temp\ccW4vp8f.s:3564   .bss.count_pos:00000000 count_pos
C:\Users\zhangjd\AppData\Local\Temp\ccW4vp8f.s:3625   .bss.score:00000000 score
C:\Users\zhangjd\AppData\Local\Temp\ccW4vp8f.s:3667   .data.resource_location:00000000 resource_location
C:\Users\zhangjd\AppData\Local\Temp\ccW4vp8f.s:3511   .bss.Prev_Pos_head:00000000 Prev_Pos_head
C:\Users\zhangjd\AppData\Local\Temp\ccW4vp8f.s:3504   .bss.Prev_Pos:00000000 Prev_Pos
C:\Users\zhangjd\AppData\Local\Temp\ccW4vp8f.s:3531   .bss.beacon_determinant:00000000 beacon_determinant
C:\Users\zhangjd\AppData\Local\Temp\ccW4vp8f.s:3538   .bss.car_Pos:00000000 car_Pos
C:\Users\zhangjd\AppData\Local\Temp\ccW4vp8f.s:3524   .bss.beacon_Pos:00000000 beacon_Pos
C:\Users\zhangjd\AppData\Local\Temp\ccW4vp8f.s:3550   .bss.car_y:00000000 car_y
C:\Users\zhangjd\AppData\Local\Temp\ccW4vp8f.s:3544   .bss.car_x:00000000 car_x
C:\Users\zhangjd\AppData\Local\Temp\ccW4vp8f.s:3618   .bss.obj_y:00000000 obj_y
C:\Users\zhangjd\AppData\Local\Temp\ccW4vp8f.s:3612   .bss.obj_x:00000000 obj_x
C:\Users\zhangjd\AppData\Local\Temp\ccW4vp8f.s:3576   .bss.dis_obj:00000000 dis_obj
C:\Users\zhangjd\AppData\Local\Temp\ccW4vp8f.s:3517   .bss.angle_obj:00000000 angle_obj
C:\Users\zhangjd\AppData\Local\Temp\ccW4vp8f.s:3600   .bss.distance4:00000000 distance4
C:\Users\zhangjd\AppData\Local\Temp\ccW4vp8f.s:3594   .bss.distance3:00000000 distance3
C:\Users\zhangjd\AppData\Local\Temp\ccW4vp8f.s:3588   .bss.distance2:00000000 distance2
C:\Users\zhangjd\AppData\Local\Temp\ccW4vp8f.s:3582   .bss.distance1:00000000 distance1
C:\Users\zhangjd\AppData\Local\Temp\ccW4vp8f.s:3500   .bss.Prev_Pos:00000000 $d
C:\Users\zhangjd\AppData\Local\Temp\ccW4vp8f.s:3507   .bss.Prev_Pos_head:00000000 $d
C:\Users\zhangjd\AppData\Local\Temp\ccW4vp8f.s:3514   .bss.angle_obj:00000000 $d
C:\Users\zhangjd\AppData\Local\Temp\ccW4vp8f.s:3520   .bss.beacon_Pos:00000000 $d
C:\Users\zhangjd\AppData\Local\Temp\ccW4vp8f.s:3527   .bss.beacon_determinant:00000000 $d
C:\Users\zhangjd\AppData\Local\Temp\ccW4vp8f.s:3534   .bss.car_Pos:00000000 $d
C:\Users\zhangjd\AppData\Local\Temp\ccW4vp8f.s:3541   .bss.car_x:00000000 $d
C:\Users\zhangjd\AppData\Local\Temp\ccW4vp8f.s:3547   .bss.car_y:00000000 $d
C:\Users\zhangjd\AppData\Local\Temp\ccW4vp8f.s:3553   .bss.count_beacon:00000000 $d
C:\Users\zhangjd\AppData\Local\Temp\ccW4vp8f.s:3560   .bss.count_pos:00000000 $d
C:\Users\zhangjd\AppData\Local\Temp\ccW4vp8f.s:3567   .bss.count_storehouse:00000000 $d
C:\Users\zhangjd\AppData\Local\Temp\ccW4vp8f.s:3573   .bss.dis_obj:00000000 $d
C:\Users\zhangjd\AppData\Local\Temp\ccW4vp8f.s:3579   .bss.distance1:00000000 $d
C:\Users\zhangjd\AppData\Local\Temp\ccW4vp8f.s:3585   .bss.distance2:00000000 $d
C:\Users\zhangjd\AppData\Local\Temp\ccW4vp8f.s:3591   .bss.distance3:00000000 $d
C:\Users\zhangjd\AppData\Local\Temp\ccW4vp8f.s:3597   .bss.distance4:00000000 $d
C:\Users\zhangjd\AppData\Local\Temp\ccW4vp8f.s:3603   .bss.now:00000000 $d
C:\Users\zhangjd\AppData\Local\Temp\ccW4vp8f.s:3609   .bss.obj_x:00000000 $d
C:\Users\zhangjd\AppData\Local\Temp\ccW4vp8f.s:3615   .bss.obj_y:00000000 $d
C:\Users\zhangjd\AppData\Local\Temp\ccW4vp8f.s:3621   .bss.score:00000000 $d
C:\Users\zhangjd\AppData\Local\Temp\ccW4vp8f.s:3628   .bss.state:00000000 $d
C:\Users\zhangjd\AppData\Local\Temp\ccW4vp8f.s:3635   .data.State:00000000 $d
C:\Users\zhangjd\AppData\Local\Temp\ccW4vp8f.s:3642   .data.rep:00000000 $d
C:\Users\zhangjd\AppData\Local\Temp\ccW4vp8f.s:3663   .data.resource_location:00000000 $d
ARM GAS  C:\Users\zhangjd\AppData\Local\Temp\ccW4vp8f.s 			page 98


C:\Users\zhangjd\AppData\Local\Temp\ccW4vp8f.s:3675   .rodata.ATAN_LUT:00000000 $d
C:\Users\zhangjd\AppData\Local\Temp\ccW4vp8f.s:4193   .rodata.Kd:00000000 $d
C:\Users\zhangjd\AppData\Local\Temp\ccW4vp8f.s:4199   .rodata.Ki:00000000 $d
C:\Users\zhangjd\AppData\Local\Temp\ccW4vp8f.s:4205   .rodata.Kp:00000000 $d

UNDEFINED SYMBOLS
__aeabi_fmul
__aeabi_fadd
__aeabi_fcmpge
__aeabi_fcmple
__aeabi_fsub
__aeabi_fcmpgt
__aeabi_fcmplt
HAL_GPIO_WritePin
htim8
__aeabi_dcmpgt
__aeabi_dcmpeq
__aeabi_dsub
__aeabi_dcmplt
__aeabi_dmul
__aeabi_ddiv
__aeabi_d2iz
__aeabi_dadd
__aeabi_i2d
__aeabi_ui2d
__aeabi_d2f
__aeabi_f2d
__aeabi_dcmpge
__aeabi_dcmple
GetYaw
HAL_UART_Receive_DMA
getCarPosX
getCarPosY
getMineIntensity
getCarScore
jy62Receive
huart2
memset
HAL_RCC_OscConfig
HAL_RCC_ClockConfig
HAL_Init
jy62_Init
SetBaud
SetHorizontal
InitAngle
Calibrate
SleepOrAwake
MX_GPIO_Init
MX_TIM1_Init
MX_TIM2_Init
MX_TIM8_Init
MX_TIM3_Init
MX_TIM4_Init
MX_DMA_Init
MX_USART2_UART_Init
MX_USART1_UART_Init
MX_TIM5_Init
ARM GAS  C:\Users\zhangjd\AppData\Local\Temp\ccW4vp8f.s 			page 99


zigbee_Init
HAL_TIM_Base_Start_IT
HAL_TIM_PWM_Start
HAL_TIM_Encoder_Start
getGameState
getCarTask
getGameTime
huart1
htim1
htim2
htim3
htim4
htim5
