ARM GAS  C:\Users\30592\AppData\Local\Temp\ccG1iZqh.s 			page 1


   1              		.cpu cortex-m3
   2              		.eabi_attribute 20, 1
   3              		.eabi_attribute 21, 1
   4              		.eabi_attribute 23, 3
   5              		.eabi_attribute 24, 1
   6              		.eabi_attribute 25, 1
   7              		.eabi_attribute 26, 1
   8              		.eabi_attribute 30, 1
   9              		.eabi_attribute 34, 1
  10              		.eabi_attribute 18, 4
  11              		.file	"stm32f1xx_hal_dma.c"
  12              		.text
  13              	.Ltext0:
  14              		.cfi_sections	.debug_frame
  15              		.section	.text.DMA_SetConfig,"ax",%progbits
  16              		.align	1
  17              		.arch armv7-m
  18              		.syntax unified
  19              		.thumb
  20              		.thumb_func
  21              		.fpu softvfp
  23              	DMA_SetConfig:
  24              	.LVL0:
  25              	.LFB77:
  26              		.file 1 "Drivers/STM32F1xx_HAL_Driver/Src/stm32f1xx_hal_dma.c"
   1:Drivers/STM32F1xx_HAL_Driver/Src/stm32f1xx_hal_dma.c **** /**
   2:Drivers/STM32F1xx_HAL_Driver/Src/stm32f1xx_hal_dma.c ****   ******************************************************************************
   3:Drivers/STM32F1xx_HAL_Driver/Src/stm32f1xx_hal_dma.c ****   * @file    stm32f1xx_hal_dma.c
   4:Drivers/STM32F1xx_HAL_Driver/Src/stm32f1xx_hal_dma.c ****   * @author  MCD Application Team
   5:Drivers/STM32F1xx_HAL_Driver/Src/stm32f1xx_hal_dma.c ****   * @brief   DMA HAL module driver.
   6:Drivers/STM32F1xx_HAL_Driver/Src/stm32f1xx_hal_dma.c ****   *         This file provides firmware functions to manage the following
   7:Drivers/STM32F1xx_HAL_Driver/Src/stm32f1xx_hal_dma.c ****   *         functionalities of the Direct Memory Access (DMA) peripheral:
   8:Drivers/STM32F1xx_HAL_Driver/Src/stm32f1xx_hal_dma.c ****   *           + Initialization and de-initialization functions
   9:Drivers/STM32F1xx_HAL_Driver/Src/stm32f1xx_hal_dma.c ****   *           + IO operation functions
  10:Drivers/STM32F1xx_HAL_Driver/Src/stm32f1xx_hal_dma.c ****   *           + Peripheral State and errors functions
  11:Drivers/STM32F1xx_HAL_Driver/Src/stm32f1xx_hal_dma.c ****   @verbatim
  12:Drivers/STM32F1xx_HAL_Driver/Src/stm32f1xx_hal_dma.c ****   ==============================================================================
  13:Drivers/STM32F1xx_HAL_Driver/Src/stm32f1xx_hal_dma.c ****                         ##### How to use this driver #####
  14:Drivers/STM32F1xx_HAL_Driver/Src/stm32f1xx_hal_dma.c ****   ==============================================================================
  15:Drivers/STM32F1xx_HAL_Driver/Src/stm32f1xx_hal_dma.c ****   [..]
  16:Drivers/STM32F1xx_HAL_Driver/Src/stm32f1xx_hal_dma.c ****    (#) Enable and configure the peripheral to be connected to the DMA Channel
  17:Drivers/STM32F1xx_HAL_Driver/Src/stm32f1xx_hal_dma.c ****        (except for internal SRAM / FLASH memories: no initialization is 
  18:Drivers/STM32F1xx_HAL_Driver/Src/stm32f1xx_hal_dma.c ****        necessary). Please refer to the Reference manual for connection between peripherals
  19:Drivers/STM32F1xx_HAL_Driver/Src/stm32f1xx_hal_dma.c ****        and DMA requests.
  20:Drivers/STM32F1xx_HAL_Driver/Src/stm32f1xx_hal_dma.c **** 
  21:Drivers/STM32F1xx_HAL_Driver/Src/stm32f1xx_hal_dma.c ****    (#) For a given Channel, program the required configuration through the following parameters:
  22:Drivers/STM32F1xx_HAL_Driver/Src/stm32f1xx_hal_dma.c ****        Channel request, Transfer Direction, Source and Destination data formats,
  23:Drivers/STM32F1xx_HAL_Driver/Src/stm32f1xx_hal_dma.c ****        Circular or Normal mode, Channel Priority level, Source and Destination Increment mode
  24:Drivers/STM32F1xx_HAL_Driver/Src/stm32f1xx_hal_dma.c ****        using HAL_DMA_Init() function.
  25:Drivers/STM32F1xx_HAL_Driver/Src/stm32f1xx_hal_dma.c **** 
  26:Drivers/STM32F1xx_HAL_Driver/Src/stm32f1xx_hal_dma.c ****    (#) Use HAL_DMA_GetState() function to return the DMA state and HAL_DMA_GetError() in case of er
  27:Drivers/STM32F1xx_HAL_Driver/Src/stm32f1xx_hal_dma.c ****        detection.
  28:Drivers/STM32F1xx_HAL_Driver/Src/stm32f1xx_hal_dma.c ****                     
  29:Drivers/STM32F1xx_HAL_Driver/Src/stm32f1xx_hal_dma.c ****    (#) Use HAL_DMA_Abort() function to abort the current transfer
  30:Drivers/STM32F1xx_HAL_Driver/Src/stm32f1xx_hal_dma.c ****                    
  31:Drivers/STM32F1xx_HAL_Driver/Src/stm32f1xx_hal_dma.c ****      -@-   In Memory-to-Memory transfer mode, Circular mode is not allowed.
  32:Drivers/STM32F1xx_HAL_Driver/Src/stm32f1xx_hal_dma.c ****      *** Polling mode IO operation ***
ARM GAS  C:\Users\30592\AppData\Local\Temp\ccG1iZqh.s 			page 2


  33:Drivers/STM32F1xx_HAL_Driver/Src/stm32f1xx_hal_dma.c ****      =================================
  34:Drivers/STM32F1xx_HAL_Driver/Src/stm32f1xx_hal_dma.c ****     [..]
  35:Drivers/STM32F1xx_HAL_Driver/Src/stm32f1xx_hal_dma.c ****           (+) Use HAL_DMA_Start() to start DMA transfer after the configuration of Source
  36:Drivers/STM32F1xx_HAL_Driver/Src/stm32f1xx_hal_dma.c ****               address and destination address and the Length of data to be transferred
  37:Drivers/STM32F1xx_HAL_Driver/Src/stm32f1xx_hal_dma.c ****           (+) Use HAL_DMA_PollForTransfer() to poll for the end of current transfer, in this
  38:Drivers/STM32F1xx_HAL_Driver/Src/stm32f1xx_hal_dma.c ****               case a fixed Timeout can be configured by User depending from his application.
  39:Drivers/STM32F1xx_HAL_Driver/Src/stm32f1xx_hal_dma.c **** 
  40:Drivers/STM32F1xx_HAL_Driver/Src/stm32f1xx_hal_dma.c ****      *** Interrupt mode IO operation ***
  41:Drivers/STM32F1xx_HAL_Driver/Src/stm32f1xx_hal_dma.c ****      ===================================
  42:Drivers/STM32F1xx_HAL_Driver/Src/stm32f1xx_hal_dma.c ****     [..]
  43:Drivers/STM32F1xx_HAL_Driver/Src/stm32f1xx_hal_dma.c ****           (+) Configure the DMA interrupt priority using HAL_NVIC_SetPriority()
  44:Drivers/STM32F1xx_HAL_Driver/Src/stm32f1xx_hal_dma.c ****           (+) Enable the DMA IRQ handler using HAL_NVIC_EnableIRQ()
  45:Drivers/STM32F1xx_HAL_Driver/Src/stm32f1xx_hal_dma.c ****           (+) Use HAL_DMA_Start_IT() to start DMA transfer after the configuration of
  46:Drivers/STM32F1xx_HAL_Driver/Src/stm32f1xx_hal_dma.c ****               Source address and destination address and the Length of data to be transferred.
  47:Drivers/STM32F1xx_HAL_Driver/Src/stm32f1xx_hal_dma.c ****               In this case the DMA interrupt is configured
  48:Drivers/STM32F1xx_HAL_Driver/Src/stm32f1xx_hal_dma.c ****           (+) Use HAL_DMA_IRQHandler() called under DMA_IRQHandler() Interrupt subroutine
  49:Drivers/STM32F1xx_HAL_Driver/Src/stm32f1xx_hal_dma.c ****           (+) At the end of data transfer HAL_DMA_IRQHandler() function is executed and user can
  50:Drivers/STM32F1xx_HAL_Driver/Src/stm32f1xx_hal_dma.c ****               add his own function by customization of function pointer XferCpltCallback and
  51:Drivers/STM32F1xx_HAL_Driver/Src/stm32f1xx_hal_dma.c ****               XferErrorCallback (i.e. a member of DMA handle structure).
  52:Drivers/STM32F1xx_HAL_Driver/Src/stm32f1xx_hal_dma.c **** 
  53:Drivers/STM32F1xx_HAL_Driver/Src/stm32f1xx_hal_dma.c ****      *** DMA HAL driver macros list ***
  54:Drivers/STM32F1xx_HAL_Driver/Src/stm32f1xx_hal_dma.c ****      ============================================= 
  55:Drivers/STM32F1xx_HAL_Driver/Src/stm32f1xx_hal_dma.c ****       [..]
  56:Drivers/STM32F1xx_HAL_Driver/Src/stm32f1xx_hal_dma.c ****        Below the list of most used macros in DMA HAL driver.
  57:Drivers/STM32F1xx_HAL_Driver/Src/stm32f1xx_hal_dma.c **** 
  58:Drivers/STM32F1xx_HAL_Driver/Src/stm32f1xx_hal_dma.c ****        (+) __HAL_DMA_ENABLE: Enable the specified DMA Channel.
  59:Drivers/STM32F1xx_HAL_Driver/Src/stm32f1xx_hal_dma.c ****        (+) __HAL_DMA_DISABLE: Disable the specified DMA Channel.
  60:Drivers/STM32F1xx_HAL_Driver/Src/stm32f1xx_hal_dma.c ****        (+) __HAL_DMA_GET_FLAG: Get the DMA Channel pending flags.
  61:Drivers/STM32F1xx_HAL_Driver/Src/stm32f1xx_hal_dma.c ****        (+) __HAL_DMA_CLEAR_FLAG: Clear the DMA Channel pending flags.
  62:Drivers/STM32F1xx_HAL_Driver/Src/stm32f1xx_hal_dma.c ****        (+) __HAL_DMA_ENABLE_IT: Enable the specified DMA Channel interrupts.
  63:Drivers/STM32F1xx_HAL_Driver/Src/stm32f1xx_hal_dma.c ****        (+) __HAL_DMA_DISABLE_IT: Disable the specified DMA Channel interrupts.
  64:Drivers/STM32F1xx_HAL_Driver/Src/stm32f1xx_hal_dma.c ****        (+) __HAL_DMA_GET_IT_SOURCE: Check whether the specified DMA Channel interrupt has occurred 
  65:Drivers/STM32F1xx_HAL_Driver/Src/stm32f1xx_hal_dma.c **** 
  66:Drivers/STM32F1xx_HAL_Driver/Src/stm32f1xx_hal_dma.c ****      [..] 
  67:Drivers/STM32F1xx_HAL_Driver/Src/stm32f1xx_hal_dma.c ****       (@) You can refer to the DMA HAL driver header file for more useful macros  
  68:Drivers/STM32F1xx_HAL_Driver/Src/stm32f1xx_hal_dma.c **** 
  69:Drivers/STM32F1xx_HAL_Driver/Src/stm32f1xx_hal_dma.c ****   @endverbatim
  70:Drivers/STM32F1xx_HAL_Driver/Src/stm32f1xx_hal_dma.c ****   ******************************************************************************
  71:Drivers/STM32F1xx_HAL_Driver/Src/stm32f1xx_hal_dma.c ****   * @attention
  72:Drivers/STM32F1xx_HAL_Driver/Src/stm32f1xx_hal_dma.c ****   *
  73:Drivers/STM32F1xx_HAL_Driver/Src/stm32f1xx_hal_dma.c ****   * <h2><center>&copy; Copyright (c) 2016 STMicroelectronics.
  74:Drivers/STM32F1xx_HAL_Driver/Src/stm32f1xx_hal_dma.c ****   * All rights reserved.</center></h2>
  75:Drivers/STM32F1xx_HAL_Driver/Src/stm32f1xx_hal_dma.c ****   *
  76:Drivers/STM32F1xx_HAL_Driver/Src/stm32f1xx_hal_dma.c ****   * This software component is licensed by ST under BSD 3-Clause license,
  77:Drivers/STM32F1xx_HAL_Driver/Src/stm32f1xx_hal_dma.c ****   * the "License"; You may not use this file except in compliance with the
  78:Drivers/STM32F1xx_HAL_Driver/Src/stm32f1xx_hal_dma.c ****   * License. You may obtain a copy of the License at:
  79:Drivers/STM32F1xx_HAL_Driver/Src/stm32f1xx_hal_dma.c ****   *                        opensource.org/licenses/BSD-3-Clause
  80:Drivers/STM32F1xx_HAL_Driver/Src/stm32f1xx_hal_dma.c ****   *
  81:Drivers/STM32F1xx_HAL_Driver/Src/stm32f1xx_hal_dma.c ****   ******************************************************************************
  82:Drivers/STM32F1xx_HAL_Driver/Src/stm32f1xx_hal_dma.c ****   */
  83:Drivers/STM32F1xx_HAL_Driver/Src/stm32f1xx_hal_dma.c **** 
  84:Drivers/STM32F1xx_HAL_Driver/Src/stm32f1xx_hal_dma.c **** /* Includes ------------------------------------------------------------------*/
  85:Drivers/STM32F1xx_HAL_Driver/Src/stm32f1xx_hal_dma.c **** #include "stm32f1xx_hal.h"
  86:Drivers/STM32F1xx_HAL_Driver/Src/stm32f1xx_hal_dma.c **** 
  87:Drivers/STM32F1xx_HAL_Driver/Src/stm32f1xx_hal_dma.c **** /** @addtogroup STM32F1xx_HAL_Driver
  88:Drivers/STM32F1xx_HAL_Driver/Src/stm32f1xx_hal_dma.c ****   * @{
  89:Drivers/STM32F1xx_HAL_Driver/Src/stm32f1xx_hal_dma.c ****   */
ARM GAS  C:\Users\30592\AppData\Local\Temp\ccG1iZqh.s 			page 3


  90:Drivers/STM32F1xx_HAL_Driver/Src/stm32f1xx_hal_dma.c **** 
  91:Drivers/STM32F1xx_HAL_Driver/Src/stm32f1xx_hal_dma.c **** /** @defgroup DMA DMA
  92:Drivers/STM32F1xx_HAL_Driver/Src/stm32f1xx_hal_dma.c ****   * @brief DMA HAL module driver
  93:Drivers/STM32F1xx_HAL_Driver/Src/stm32f1xx_hal_dma.c ****   * @{
  94:Drivers/STM32F1xx_HAL_Driver/Src/stm32f1xx_hal_dma.c ****   */
  95:Drivers/STM32F1xx_HAL_Driver/Src/stm32f1xx_hal_dma.c **** 
  96:Drivers/STM32F1xx_HAL_Driver/Src/stm32f1xx_hal_dma.c **** #ifdef HAL_DMA_MODULE_ENABLED
  97:Drivers/STM32F1xx_HAL_Driver/Src/stm32f1xx_hal_dma.c **** 
  98:Drivers/STM32F1xx_HAL_Driver/Src/stm32f1xx_hal_dma.c **** /* Private typedef -----------------------------------------------------------*/
  99:Drivers/STM32F1xx_HAL_Driver/Src/stm32f1xx_hal_dma.c **** /* Private define ------------------------------------------------------------*/
 100:Drivers/STM32F1xx_HAL_Driver/Src/stm32f1xx_hal_dma.c **** /* Private macro -------------------------------------------------------------*/
 101:Drivers/STM32F1xx_HAL_Driver/Src/stm32f1xx_hal_dma.c **** /* Private variables ---------------------------------------------------------*/
 102:Drivers/STM32F1xx_HAL_Driver/Src/stm32f1xx_hal_dma.c **** /* Private function prototypes -----------------------------------------------*/
 103:Drivers/STM32F1xx_HAL_Driver/Src/stm32f1xx_hal_dma.c **** /** @defgroup DMA_Private_Functions DMA Private Functions
 104:Drivers/STM32F1xx_HAL_Driver/Src/stm32f1xx_hal_dma.c ****   * @{
 105:Drivers/STM32F1xx_HAL_Driver/Src/stm32f1xx_hal_dma.c ****   */
 106:Drivers/STM32F1xx_HAL_Driver/Src/stm32f1xx_hal_dma.c **** static void DMA_SetConfig(DMA_HandleTypeDef *hdma, uint32_t SrcAddress, uint32_t DstAddress, uint32
 107:Drivers/STM32F1xx_HAL_Driver/Src/stm32f1xx_hal_dma.c **** /**
 108:Drivers/STM32F1xx_HAL_Driver/Src/stm32f1xx_hal_dma.c ****   * @}
 109:Drivers/STM32F1xx_HAL_Driver/Src/stm32f1xx_hal_dma.c ****   */
 110:Drivers/STM32F1xx_HAL_Driver/Src/stm32f1xx_hal_dma.c **** 
 111:Drivers/STM32F1xx_HAL_Driver/Src/stm32f1xx_hal_dma.c **** /* Exported functions ---------------------------------------------------------*/
 112:Drivers/STM32F1xx_HAL_Driver/Src/stm32f1xx_hal_dma.c **** 
 113:Drivers/STM32F1xx_HAL_Driver/Src/stm32f1xx_hal_dma.c **** /** @defgroup DMA_Exported_Functions DMA Exported Functions
 114:Drivers/STM32F1xx_HAL_Driver/Src/stm32f1xx_hal_dma.c ****   * @{
 115:Drivers/STM32F1xx_HAL_Driver/Src/stm32f1xx_hal_dma.c ****   */
 116:Drivers/STM32F1xx_HAL_Driver/Src/stm32f1xx_hal_dma.c **** 
 117:Drivers/STM32F1xx_HAL_Driver/Src/stm32f1xx_hal_dma.c **** /** @defgroup DMA_Exported_Functions_Group1 Initialization and de-initialization functions
 118:Drivers/STM32F1xx_HAL_Driver/Src/stm32f1xx_hal_dma.c ****   *  @brief   Initialization and de-initialization functions 
 119:Drivers/STM32F1xx_HAL_Driver/Src/stm32f1xx_hal_dma.c ****   *
 120:Drivers/STM32F1xx_HAL_Driver/Src/stm32f1xx_hal_dma.c **** @verbatim
 121:Drivers/STM32F1xx_HAL_Driver/Src/stm32f1xx_hal_dma.c ****  ===============================================================================
 122:Drivers/STM32F1xx_HAL_Driver/Src/stm32f1xx_hal_dma.c ****              ##### Initialization and de-initialization functions  #####
 123:Drivers/STM32F1xx_HAL_Driver/Src/stm32f1xx_hal_dma.c ****  ===============================================================================
 124:Drivers/STM32F1xx_HAL_Driver/Src/stm32f1xx_hal_dma.c ****     [..]
 125:Drivers/STM32F1xx_HAL_Driver/Src/stm32f1xx_hal_dma.c ****     This section provides functions allowing to initialize the DMA Channel source
 126:Drivers/STM32F1xx_HAL_Driver/Src/stm32f1xx_hal_dma.c ****     and destination addresses, incrementation and data sizes, transfer direction, 
 127:Drivers/STM32F1xx_HAL_Driver/Src/stm32f1xx_hal_dma.c ****     circular/normal mode selection, memory-to-memory mode selection and Channel priority value.
 128:Drivers/STM32F1xx_HAL_Driver/Src/stm32f1xx_hal_dma.c ****     [..]
 129:Drivers/STM32F1xx_HAL_Driver/Src/stm32f1xx_hal_dma.c ****     The HAL_DMA_Init() function follows the DMA configuration procedures as described in
 130:Drivers/STM32F1xx_HAL_Driver/Src/stm32f1xx_hal_dma.c ****     reference manual.  
 131:Drivers/STM32F1xx_HAL_Driver/Src/stm32f1xx_hal_dma.c **** 
 132:Drivers/STM32F1xx_HAL_Driver/Src/stm32f1xx_hal_dma.c **** @endverbatim
 133:Drivers/STM32F1xx_HAL_Driver/Src/stm32f1xx_hal_dma.c ****   * @{
 134:Drivers/STM32F1xx_HAL_Driver/Src/stm32f1xx_hal_dma.c ****   */
 135:Drivers/STM32F1xx_HAL_Driver/Src/stm32f1xx_hal_dma.c **** 
 136:Drivers/STM32F1xx_HAL_Driver/Src/stm32f1xx_hal_dma.c **** /**
 137:Drivers/STM32F1xx_HAL_Driver/Src/stm32f1xx_hal_dma.c ****   * @brief  Initialize the DMA according to the specified
 138:Drivers/STM32F1xx_HAL_Driver/Src/stm32f1xx_hal_dma.c ****   *         parameters in the DMA_InitTypeDef and initialize the associated handle.
 139:Drivers/STM32F1xx_HAL_Driver/Src/stm32f1xx_hal_dma.c ****   * @param  hdma: Pointer to a DMA_HandleTypeDef structure that contains
 140:Drivers/STM32F1xx_HAL_Driver/Src/stm32f1xx_hal_dma.c ****   *               the configuration information for the specified DMA Channel.
 141:Drivers/STM32F1xx_HAL_Driver/Src/stm32f1xx_hal_dma.c ****   * @retval HAL status
 142:Drivers/STM32F1xx_HAL_Driver/Src/stm32f1xx_hal_dma.c ****   */
 143:Drivers/STM32F1xx_HAL_Driver/Src/stm32f1xx_hal_dma.c **** HAL_StatusTypeDef HAL_DMA_Init(DMA_HandleTypeDef *hdma)
 144:Drivers/STM32F1xx_HAL_Driver/Src/stm32f1xx_hal_dma.c **** {
 145:Drivers/STM32F1xx_HAL_Driver/Src/stm32f1xx_hal_dma.c ****   uint32_t tmp = 0U;
 146:Drivers/STM32F1xx_HAL_Driver/Src/stm32f1xx_hal_dma.c **** 
ARM GAS  C:\Users\30592\AppData\Local\Temp\ccG1iZqh.s 			page 4


 147:Drivers/STM32F1xx_HAL_Driver/Src/stm32f1xx_hal_dma.c ****   /* Check the DMA handle allocation */
 148:Drivers/STM32F1xx_HAL_Driver/Src/stm32f1xx_hal_dma.c ****   if(hdma == NULL)
 149:Drivers/STM32F1xx_HAL_Driver/Src/stm32f1xx_hal_dma.c ****   {
 150:Drivers/STM32F1xx_HAL_Driver/Src/stm32f1xx_hal_dma.c ****     return HAL_ERROR;
 151:Drivers/STM32F1xx_HAL_Driver/Src/stm32f1xx_hal_dma.c ****   }
 152:Drivers/STM32F1xx_HAL_Driver/Src/stm32f1xx_hal_dma.c **** 
 153:Drivers/STM32F1xx_HAL_Driver/Src/stm32f1xx_hal_dma.c ****   /* Check the parameters */
 154:Drivers/STM32F1xx_HAL_Driver/Src/stm32f1xx_hal_dma.c ****   assert_param(IS_DMA_ALL_INSTANCE(hdma->Instance));
 155:Drivers/STM32F1xx_HAL_Driver/Src/stm32f1xx_hal_dma.c ****   assert_param(IS_DMA_DIRECTION(hdma->Init.Direction));
 156:Drivers/STM32F1xx_HAL_Driver/Src/stm32f1xx_hal_dma.c ****   assert_param(IS_DMA_PERIPHERAL_INC_STATE(hdma->Init.PeriphInc));
 157:Drivers/STM32F1xx_HAL_Driver/Src/stm32f1xx_hal_dma.c ****   assert_param(IS_DMA_MEMORY_INC_STATE(hdma->Init.MemInc));
 158:Drivers/STM32F1xx_HAL_Driver/Src/stm32f1xx_hal_dma.c ****   assert_param(IS_DMA_PERIPHERAL_DATA_SIZE(hdma->Init.PeriphDataAlignment));
 159:Drivers/STM32F1xx_HAL_Driver/Src/stm32f1xx_hal_dma.c ****   assert_param(IS_DMA_MEMORY_DATA_SIZE(hdma->Init.MemDataAlignment));
 160:Drivers/STM32F1xx_HAL_Driver/Src/stm32f1xx_hal_dma.c ****   assert_param(IS_DMA_MODE(hdma->Init.Mode));
 161:Drivers/STM32F1xx_HAL_Driver/Src/stm32f1xx_hal_dma.c ****   assert_param(IS_DMA_PRIORITY(hdma->Init.Priority));
 162:Drivers/STM32F1xx_HAL_Driver/Src/stm32f1xx_hal_dma.c **** 
 163:Drivers/STM32F1xx_HAL_Driver/Src/stm32f1xx_hal_dma.c **** #if defined (DMA2)
 164:Drivers/STM32F1xx_HAL_Driver/Src/stm32f1xx_hal_dma.c ****   /* calculation of the channel index */
 165:Drivers/STM32F1xx_HAL_Driver/Src/stm32f1xx_hal_dma.c ****   if ((uint32_t)(hdma->Instance) < (uint32_t)(DMA2_Channel1))
 166:Drivers/STM32F1xx_HAL_Driver/Src/stm32f1xx_hal_dma.c ****   {
 167:Drivers/STM32F1xx_HAL_Driver/Src/stm32f1xx_hal_dma.c ****     /* DMA1 */
 168:Drivers/STM32F1xx_HAL_Driver/Src/stm32f1xx_hal_dma.c ****     hdma->ChannelIndex = (((uint32_t)hdma->Instance - (uint32_t)DMA1_Channel1) / ((uint32_t)DMA1_Ch
 169:Drivers/STM32F1xx_HAL_Driver/Src/stm32f1xx_hal_dma.c ****     hdma->DmaBaseAddress = DMA1;
 170:Drivers/STM32F1xx_HAL_Driver/Src/stm32f1xx_hal_dma.c ****   }
 171:Drivers/STM32F1xx_HAL_Driver/Src/stm32f1xx_hal_dma.c ****   else 
 172:Drivers/STM32F1xx_HAL_Driver/Src/stm32f1xx_hal_dma.c ****   {
 173:Drivers/STM32F1xx_HAL_Driver/Src/stm32f1xx_hal_dma.c ****     /* DMA2 */
 174:Drivers/STM32F1xx_HAL_Driver/Src/stm32f1xx_hal_dma.c ****     hdma->ChannelIndex = (((uint32_t)hdma->Instance - (uint32_t)DMA2_Channel1) / ((uint32_t)DMA2_Ch
 175:Drivers/STM32F1xx_HAL_Driver/Src/stm32f1xx_hal_dma.c ****     hdma->DmaBaseAddress = DMA2;
 176:Drivers/STM32F1xx_HAL_Driver/Src/stm32f1xx_hal_dma.c ****   }
 177:Drivers/STM32F1xx_HAL_Driver/Src/stm32f1xx_hal_dma.c **** #else
 178:Drivers/STM32F1xx_HAL_Driver/Src/stm32f1xx_hal_dma.c ****   /* DMA1 */
 179:Drivers/STM32F1xx_HAL_Driver/Src/stm32f1xx_hal_dma.c ****   hdma->ChannelIndex = (((uint32_t)hdma->Instance - (uint32_t)DMA1_Channel1) / ((uint32_t)DMA1_Chan
 180:Drivers/STM32F1xx_HAL_Driver/Src/stm32f1xx_hal_dma.c ****   hdma->DmaBaseAddress = DMA1;
 181:Drivers/STM32F1xx_HAL_Driver/Src/stm32f1xx_hal_dma.c **** #endif /* DMA2 */
 182:Drivers/STM32F1xx_HAL_Driver/Src/stm32f1xx_hal_dma.c **** 
 183:Drivers/STM32F1xx_HAL_Driver/Src/stm32f1xx_hal_dma.c ****   /* Change DMA peripheral state */
 184:Drivers/STM32F1xx_HAL_Driver/Src/stm32f1xx_hal_dma.c ****   hdma->State = HAL_DMA_STATE_BUSY;
 185:Drivers/STM32F1xx_HAL_Driver/Src/stm32f1xx_hal_dma.c **** 
 186:Drivers/STM32F1xx_HAL_Driver/Src/stm32f1xx_hal_dma.c ****   /* Get the CR register value */
 187:Drivers/STM32F1xx_HAL_Driver/Src/stm32f1xx_hal_dma.c ****   tmp = hdma->Instance->CCR;
 188:Drivers/STM32F1xx_HAL_Driver/Src/stm32f1xx_hal_dma.c **** 
 189:Drivers/STM32F1xx_HAL_Driver/Src/stm32f1xx_hal_dma.c ****   /* Clear PL, MSIZE, PSIZE, MINC, PINC, CIRC and DIR bits */
 190:Drivers/STM32F1xx_HAL_Driver/Src/stm32f1xx_hal_dma.c ****   tmp &= ((uint32_t)~(DMA_CCR_PL    | DMA_CCR_MSIZE  | DMA_CCR_PSIZE  | \
 191:Drivers/STM32F1xx_HAL_Driver/Src/stm32f1xx_hal_dma.c ****                       DMA_CCR_MINC  | DMA_CCR_PINC   | DMA_CCR_CIRC   | \
 192:Drivers/STM32F1xx_HAL_Driver/Src/stm32f1xx_hal_dma.c ****                       DMA_CCR_DIR));
 193:Drivers/STM32F1xx_HAL_Driver/Src/stm32f1xx_hal_dma.c **** 
 194:Drivers/STM32F1xx_HAL_Driver/Src/stm32f1xx_hal_dma.c ****   /* Prepare the DMA Channel configuration */
 195:Drivers/STM32F1xx_HAL_Driver/Src/stm32f1xx_hal_dma.c ****   tmp |=  hdma->Init.Direction        |
 196:Drivers/STM32F1xx_HAL_Driver/Src/stm32f1xx_hal_dma.c ****           hdma->Init.PeriphInc           | hdma->Init.MemInc           |
 197:Drivers/STM32F1xx_HAL_Driver/Src/stm32f1xx_hal_dma.c ****           hdma->Init.PeriphDataAlignment | hdma->Init.MemDataAlignment |
 198:Drivers/STM32F1xx_HAL_Driver/Src/stm32f1xx_hal_dma.c ****           hdma->Init.Mode                | hdma->Init.Priority;
 199:Drivers/STM32F1xx_HAL_Driver/Src/stm32f1xx_hal_dma.c **** 
 200:Drivers/STM32F1xx_HAL_Driver/Src/stm32f1xx_hal_dma.c ****   /* Write to DMA Channel CR register */
 201:Drivers/STM32F1xx_HAL_Driver/Src/stm32f1xx_hal_dma.c ****   hdma->Instance->CCR = tmp;
 202:Drivers/STM32F1xx_HAL_Driver/Src/stm32f1xx_hal_dma.c **** 
 203:Drivers/STM32F1xx_HAL_Driver/Src/stm32f1xx_hal_dma.c ****   /* Initialise the error code */
ARM GAS  C:\Users\30592\AppData\Local\Temp\ccG1iZqh.s 			page 5


 204:Drivers/STM32F1xx_HAL_Driver/Src/stm32f1xx_hal_dma.c ****   hdma->ErrorCode = HAL_DMA_ERROR_NONE;
 205:Drivers/STM32F1xx_HAL_Driver/Src/stm32f1xx_hal_dma.c **** 
 206:Drivers/STM32F1xx_HAL_Driver/Src/stm32f1xx_hal_dma.c ****   /* Initialize the DMA state*/
 207:Drivers/STM32F1xx_HAL_Driver/Src/stm32f1xx_hal_dma.c ****   hdma->State = HAL_DMA_STATE_READY;
 208:Drivers/STM32F1xx_HAL_Driver/Src/stm32f1xx_hal_dma.c ****   /* Allocate lock resource and initialize it */
 209:Drivers/STM32F1xx_HAL_Driver/Src/stm32f1xx_hal_dma.c ****   hdma->Lock = HAL_UNLOCKED;
 210:Drivers/STM32F1xx_HAL_Driver/Src/stm32f1xx_hal_dma.c **** 
 211:Drivers/STM32F1xx_HAL_Driver/Src/stm32f1xx_hal_dma.c ****   return HAL_OK;
 212:Drivers/STM32F1xx_HAL_Driver/Src/stm32f1xx_hal_dma.c **** }
 213:Drivers/STM32F1xx_HAL_Driver/Src/stm32f1xx_hal_dma.c **** 
 214:Drivers/STM32F1xx_HAL_Driver/Src/stm32f1xx_hal_dma.c **** /**
 215:Drivers/STM32F1xx_HAL_Driver/Src/stm32f1xx_hal_dma.c ****   * @brief  DeInitialize the DMA peripheral.
 216:Drivers/STM32F1xx_HAL_Driver/Src/stm32f1xx_hal_dma.c ****   * @param  hdma: pointer to a DMA_HandleTypeDef structure that contains
 217:Drivers/STM32F1xx_HAL_Driver/Src/stm32f1xx_hal_dma.c ****   *               the configuration information for the specified DMA Channel.
 218:Drivers/STM32F1xx_HAL_Driver/Src/stm32f1xx_hal_dma.c ****   * @retval HAL status
 219:Drivers/STM32F1xx_HAL_Driver/Src/stm32f1xx_hal_dma.c ****   */
 220:Drivers/STM32F1xx_HAL_Driver/Src/stm32f1xx_hal_dma.c **** HAL_StatusTypeDef HAL_DMA_DeInit(DMA_HandleTypeDef *hdma)
 221:Drivers/STM32F1xx_HAL_Driver/Src/stm32f1xx_hal_dma.c **** {
 222:Drivers/STM32F1xx_HAL_Driver/Src/stm32f1xx_hal_dma.c ****   /* Check the DMA handle allocation */
 223:Drivers/STM32F1xx_HAL_Driver/Src/stm32f1xx_hal_dma.c ****   if(hdma == NULL)
 224:Drivers/STM32F1xx_HAL_Driver/Src/stm32f1xx_hal_dma.c ****   {
 225:Drivers/STM32F1xx_HAL_Driver/Src/stm32f1xx_hal_dma.c ****     return HAL_ERROR;
 226:Drivers/STM32F1xx_HAL_Driver/Src/stm32f1xx_hal_dma.c ****   }
 227:Drivers/STM32F1xx_HAL_Driver/Src/stm32f1xx_hal_dma.c **** 
 228:Drivers/STM32F1xx_HAL_Driver/Src/stm32f1xx_hal_dma.c ****   /* Check the parameters */
 229:Drivers/STM32F1xx_HAL_Driver/Src/stm32f1xx_hal_dma.c ****   assert_param(IS_DMA_ALL_INSTANCE(hdma->Instance));
 230:Drivers/STM32F1xx_HAL_Driver/Src/stm32f1xx_hal_dma.c **** 
 231:Drivers/STM32F1xx_HAL_Driver/Src/stm32f1xx_hal_dma.c ****   /* Disable the selected DMA Channelx */
 232:Drivers/STM32F1xx_HAL_Driver/Src/stm32f1xx_hal_dma.c ****   __HAL_DMA_DISABLE(hdma);
 233:Drivers/STM32F1xx_HAL_Driver/Src/stm32f1xx_hal_dma.c **** 
 234:Drivers/STM32F1xx_HAL_Driver/Src/stm32f1xx_hal_dma.c ****   /* Reset DMA Channel control register */
 235:Drivers/STM32F1xx_HAL_Driver/Src/stm32f1xx_hal_dma.c ****   hdma->Instance->CCR  = 0U;
 236:Drivers/STM32F1xx_HAL_Driver/Src/stm32f1xx_hal_dma.c **** 
 237:Drivers/STM32F1xx_HAL_Driver/Src/stm32f1xx_hal_dma.c ****   /* Reset DMA Channel Number of Data to Transfer register */
 238:Drivers/STM32F1xx_HAL_Driver/Src/stm32f1xx_hal_dma.c ****   hdma->Instance->CNDTR = 0U;
 239:Drivers/STM32F1xx_HAL_Driver/Src/stm32f1xx_hal_dma.c **** 
 240:Drivers/STM32F1xx_HAL_Driver/Src/stm32f1xx_hal_dma.c ****   /* Reset DMA Channel peripheral address register */
 241:Drivers/STM32F1xx_HAL_Driver/Src/stm32f1xx_hal_dma.c ****   hdma->Instance->CPAR  = 0U;
 242:Drivers/STM32F1xx_HAL_Driver/Src/stm32f1xx_hal_dma.c **** 
 243:Drivers/STM32F1xx_HAL_Driver/Src/stm32f1xx_hal_dma.c ****   /* Reset DMA Channel memory address register */
 244:Drivers/STM32F1xx_HAL_Driver/Src/stm32f1xx_hal_dma.c ****   hdma->Instance->CMAR = 0U;
 245:Drivers/STM32F1xx_HAL_Driver/Src/stm32f1xx_hal_dma.c **** 
 246:Drivers/STM32F1xx_HAL_Driver/Src/stm32f1xx_hal_dma.c **** #if defined (DMA2)
 247:Drivers/STM32F1xx_HAL_Driver/Src/stm32f1xx_hal_dma.c ****   /* calculation of the channel index */
 248:Drivers/STM32F1xx_HAL_Driver/Src/stm32f1xx_hal_dma.c ****   if ((uint32_t)(hdma->Instance) < (uint32_t)(DMA2_Channel1))
 249:Drivers/STM32F1xx_HAL_Driver/Src/stm32f1xx_hal_dma.c ****   {
 250:Drivers/STM32F1xx_HAL_Driver/Src/stm32f1xx_hal_dma.c ****     /* DMA1 */
 251:Drivers/STM32F1xx_HAL_Driver/Src/stm32f1xx_hal_dma.c ****     hdma->ChannelIndex = (((uint32_t)hdma->Instance - (uint32_t)DMA1_Channel1) / ((uint32_t)DMA1_Ch
 252:Drivers/STM32F1xx_HAL_Driver/Src/stm32f1xx_hal_dma.c ****     hdma->DmaBaseAddress = DMA1;
 253:Drivers/STM32F1xx_HAL_Driver/Src/stm32f1xx_hal_dma.c ****   }
 254:Drivers/STM32F1xx_HAL_Driver/Src/stm32f1xx_hal_dma.c ****   else
 255:Drivers/STM32F1xx_HAL_Driver/Src/stm32f1xx_hal_dma.c ****   {
 256:Drivers/STM32F1xx_HAL_Driver/Src/stm32f1xx_hal_dma.c ****     /* DMA2 */
 257:Drivers/STM32F1xx_HAL_Driver/Src/stm32f1xx_hal_dma.c ****     hdma->ChannelIndex = (((uint32_t)hdma->Instance - (uint32_t)DMA2_Channel1) / ((uint32_t)DMA2_Ch
 258:Drivers/STM32F1xx_HAL_Driver/Src/stm32f1xx_hal_dma.c ****     hdma->DmaBaseAddress = DMA2;
 259:Drivers/STM32F1xx_HAL_Driver/Src/stm32f1xx_hal_dma.c ****   }
 260:Drivers/STM32F1xx_HAL_Driver/Src/stm32f1xx_hal_dma.c **** #else
ARM GAS  C:\Users\30592\AppData\Local\Temp\ccG1iZqh.s 			page 6


 261:Drivers/STM32F1xx_HAL_Driver/Src/stm32f1xx_hal_dma.c ****   /* DMA1 */
 262:Drivers/STM32F1xx_HAL_Driver/Src/stm32f1xx_hal_dma.c ****   hdma->ChannelIndex = (((uint32_t)hdma->Instance - (uint32_t)DMA1_Channel1) / ((uint32_t)DMA1_Chan
 263:Drivers/STM32F1xx_HAL_Driver/Src/stm32f1xx_hal_dma.c ****   hdma->DmaBaseAddress = DMA1;
 264:Drivers/STM32F1xx_HAL_Driver/Src/stm32f1xx_hal_dma.c **** #endif /* DMA2 */
 265:Drivers/STM32F1xx_HAL_Driver/Src/stm32f1xx_hal_dma.c **** 
 266:Drivers/STM32F1xx_HAL_Driver/Src/stm32f1xx_hal_dma.c ****   /* Clear all flags */
 267:Drivers/STM32F1xx_HAL_Driver/Src/stm32f1xx_hal_dma.c ****   hdma->DmaBaseAddress->IFCR = (DMA_ISR_GIF1 << (hdma->ChannelIndex));
 268:Drivers/STM32F1xx_HAL_Driver/Src/stm32f1xx_hal_dma.c **** 
 269:Drivers/STM32F1xx_HAL_Driver/Src/stm32f1xx_hal_dma.c ****   /* Clean all callbacks */
 270:Drivers/STM32F1xx_HAL_Driver/Src/stm32f1xx_hal_dma.c ****   hdma->XferCpltCallback = NULL;
 271:Drivers/STM32F1xx_HAL_Driver/Src/stm32f1xx_hal_dma.c ****   hdma->XferHalfCpltCallback = NULL;
 272:Drivers/STM32F1xx_HAL_Driver/Src/stm32f1xx_hal_dma.c ****   hdma->XferErrorCallback = NULL;
 273:Drivers/STM32F1xx_HAL_Driver/Src/stm32f1xx_hal_dma.c ****   hdma->XferAbortCallback = NULL;
 274:Drivers/STM32F1xx_HAL_Driver/Src/stm32f1xx_hal_dma.c **** 
 275:Drivers/STM32F1xx_HAL_Driver/Src/stm32f1xx_hal_dma.c ****   /* Reset the error code */
 276:Drivers/STM32F1xx_HAL_Driver/Src/stm32f1xx_hal_dma.c ****   hdma->ErrorCode = HAL_DMA_ERROR_NONE;
 277:Drivers/STM32F1xx_HAL_Driver/Src/stm32f1xx_hal_dma.c **** 
 278:Drivers/STM32F1xx_HAL_Driver/Src/stm32f1xx_hal_dma.c ****   /* Reset the DMA state */
 279:Drivers/STM32F1xx_HAL_Driver/Src/stm32f1xx_hal_dma.c ****   hdma->State = HAL_DMA_STATE_RESET;
 280:Drivers/STM32F1xx_HAL_Driver/Src/stm32f1xx_hal_dma.c **** 
 281:Drivers/STM32F1xx_HAL_Driver/Src/stm32f1xx_hal_dma.c ****   /* Release Lock */
 282:Drivers/STM32F1xx_HAL_Driver/Src/stm32f1xx_hal_dma.c ****   __HAL_UNLOCK(hdma);
 283:Drivers/STM32F1xx_HAL_Driver/Src/stm32f1xx_hal_dma.c **** 
 284:Drivers/STM32F1xx_HAL_Driver/Src/stm32f1xx_hal_dma.c ****   return HAL_OK;
 285:Drivers/STM32F1xx_HAL_Driver/Src/stm32f1xx_hal_dma.c **** }
 286:Drivers/STM32F1xx_HAL_Driver/Src/stm32f1xx_hal_dma.c **** 
 287:Drivers/STM32F1xx_HAL_Driver/Src/stm32f1xx_hal_dma.c **** /**
 288:Drivers/STM32F1xx_HAL_Driver/Src/stm32f1xx_hal_dma.c ****   * @}
 289:Drivers/STM32F1xx_HAL_Driver/Src/stm32f1xx_hal_dma.c ****   */
 290:Drivers/STM32F1xx_HAL_Driver/Src/stm32f1xx_hal_dma.c **** 
 291:Drivers/STM32F1xx_HAL_Driver/Src/stm32f1xx_hal_dma.c **** /** @defgroup DMA_Exported_Functions_Group2 Input and Output operation functions
 292:Drivers/STM32F1xx_HAL_Driver/Src/stm32f1xx_hal_dma.c ****   *  @brief   Input and Output operation functions
 293:Drivers/STM32F1xx_HAL_Driver/Src/stm32f1xx_hal_dma.c ****   *
 294:Drivers/STM32F1xx_HAL_Driver/Src/stm32f1xx_hal_dma.c **** @verbatim
 295:Drivers/STM32F1xx_HAL_Driver/Src/stm32f1xx_hal_dma.c ****  ===============================================================================
 296:Drivers/STM32F1xx_HAL_Driver/Src/stm32f1xx_hal_dma.c ****                       #####  IO operation functions  #####
 297:Drivers/STM32F1xx_HAL_Driver/Src/stm32f1xx_hal_dma.c ****  ===============================================================================
 298:Drivers/STM32F1xx_HAL_Driver/Src/stm32f1xx_hal_dma.c ****     [..]  This section provides functions allowing to:
 299:Drivers/STM32F1xx_HAL_Driver/Src/stm32f1xx_hal_dma.c ****       (+) Configure the source, destination address and data length and Start DMA transfer
 300:Drivers/STM32F1xx_HAL_Driver/Src/stm32f1xx_hal_dma.c ****       (+) Configure the source, destination address and data length and
 301:Drivers/STM32F1xx_HAL_Driver/Src/stm32f1xx_hal_dma.c ****           Start DMA transfer with interrupt
 302:Drivers/STM32F1xx_HAL_Driver/Src/stm32f1xx_hal_dma.c ****       (+) Abort DMA transfer
 303:Drivers/STM32F1xx_HAL_Driver/Src/stm32f1xx_hal_dma.c ****       (+) Poll for transfer complete
 304:Drivers/STM32F1xx_HAL_Driver/Src/stm32f1xx_hal_dma.c ****       (+) Handle DMA interrupt request
 305:Drivers/STM32F1xx_HAL_Driver/Src/stm32f1xx_hal_dma.c **** 
 306:Drivers/STM32F1xx_HAL_Driver/Src/stm32f1xx_hal_dma.c **** @endverbatim
 307:Drivers/STM32F1xx_HAL_Driver/Src/stm32f1xx_hal_dma.c ****   * @{
 308:Drivers/STM32F1xx_HAL_Driver/Src/stm32f1xx_hal_dma.c ****   */
 309:Drivers/STM32F1xx_HAL_Driver/Src/stm32f1xx_hal_dma.c **** 
 310:Drivers/STM32F1xx_HAL_Driver/Src/stm32f1xx_hal_dma.c **** /**
 311:Drivers/STM32F1xx_HAL_Driver/Src/stm32f1xx_hal_dma.c ****   * @brief  Start the DMA Transfer.
 312:Drivers/STM32F1xx_HAL_Driver/Src/stm32f1xx_hal_dma.c ****   * @param  hdma: pointer to a DMA_HandleTypeDef structure that contains
 313:Drivers/STM32F1xx_HAL_Driver/Src/stm32f1xx_hal_dma.c ****   *               the configuration information for the specified DMA Channel.
 314:Drivers/STM32F1xx_HAL_Driver/Src/stm32f1xx_hal_dma.c ****   * @param  SrcAddress: The source memory Buffer address
 315:Drivers/STM32F1xx_HAL_Driver/Src/stm32f1xx_hal_dma.c ****   * @param  DstAddress: The destination memory Buffer address
 316:Drivers/STM32F1xx_HAL_Driver/Src/stm32f1xx_hal_dma.c ****   * @param  DataLength: The length of data to be transferred from source to destination
 317:Drivers/STM32F1xx_HAL_Driver/Src/stm32f1xx_hal_dma.c ****   * @retval HAL status
ARM GAS  C:\Users\30592\AppData\Local\Temp\ccG1iZqh.s 			page 7


 318:Drivers/STM32F1xx_HAL_Driver/Src/stm32f1xx_hal_dma.c ****   */
 319:Drivers/STM32F1xx_HAL_Driver/Src/stm32f1xx_hal_dma.c **** HAL_StatusTypeDef HAL_DMA_Start(DMA_HandleTypeDef *hdma, uint32_t SrcAddress, uint32_t DstAddress, 
 320:Drivers/STM32F1xx_HAL_Driver/Src/stm32f1xx_hal_dma.c **** {
 321:Drivers/STM32F1xx_HAL_Driver/Src/stm32f1xx_hal_dma.c ****   HAL_StatusTypeDef status = HAL_OK;
 322:Drivers/STM32F1xx_HAL_Driver/Src/stm32f1xx_hal_dma.c **** 
 323:Drivers/STM32F1xx_HAL_Driver/Src/stm32f1xx_hal_dma.c ****   /* Check the parameters */
 324:Drivers/STM32F1xx_HAL_Driver/Src/stm32f1xx_hal_dma.c ****   assert_param(IS_DMA_BUFFER_SIZE(DataLength));
 325:Drivers/STM32F1xx_HAL_Driver/Src/stm32f1xx_hal_dma.c **** 
 326:Drivers/STM32F1xx_HAL_Driver/Src/stm32f1xx_hal_dma.c ****   /* Process locked */
 327:Drivers/STM32F1xx_HAL_Driver/Src/stm32f1xx_hal_dma.c ****   __HAL_LOCK(hdma);
 328:Drivers/STM32F1xx_HAL_Driver/Src/stm32f1xx_hal_dma.c **** 
 329:Drivers/STM32F1xx_HAL_Driver/Src/stm32f1xx_hal_dma.c ****   if(HAL_DMA_STATE_READY == hdma->State)
 330:Drivers/STM32F1xx_HAL_Driver/Src/stm32f1xx_hal_dma.c ****   {
 331:Drivers/STM32F1xx_HAL_Driver/Src/stm32f1xx_hal_dma.c ****     /* Change DMA peripheral state */
 332:Drivers/STM32F1xx_HAL_Driver/Src/stm32f1xx_hal_dma.c ****     hdma->State = HAL_DMA_STATE_BUSY;
 333:Drivers/STM32F1xx_HAL_Driver/Src/stm32f1xx_hal_dma.c ****     hdma->ErrorCode = HAL_DMA_ERROR_NONE;
 334:Drivers/STM32F1xx_HAL_Driver/Src/stm32f1xx_hal_dma.c ****             
 335:Drivers/STM32F1xx_HAL_Driver/Src/stm32f1xx_hal_dma.c ****     /* Disable the peripheral */
 336:Drivers/STM32F1xx_HAL_Driver/Src/stm32f1xx_hal_dma.c ****     __HAL_DMA_DISABLE(hdma);
 337:Drivers/STM32F1xx_HAL_Driver/Src/stm32f1xx_hal_dma.c ****     
 338:Drivers/STM32F1xx_HAL_Driver/Src/stm32f1xx_hal_dma.c ****     /* Configure the source, destination address and the data length & clear flags*/
 339:Drivers/STM32F1xx_HAL_Driver/Src/stm32f1xx_hal_dma.c ****     DMA_SetConfig(hdma, SrcAddress, DstAddress, DataLength);
 340:Drivers/STM32F1xx_HAL_Driver/Src/stm32f1xx_hal_dma.c ****     
 341:Drivers/STM32F1xx_HAL_Driver/Src/stm32f1xx_hal_dma.c ****     /* Enable the Peripheral */
 342:Drivers/STM32F1xx_HAL_Driver/Src/stm32f1xx_hal_dma.c ****     __HAL_DMA_ENABLE(hdma);
 343:Drivers/STM32F1xx_HAL_Driver/Src/stm32f1xx_hal_dma.c ****   }
 344:Drivers/STM32F1xx_HAL_Driver/Src/stm32f1xx_hal_dma.c ****   else
 345:Drivers/STM32F1xx_HAL_Driver/Src/stm32f1xx_hal_dma.c ****   {
 346:Drivers/STM32F1xx_HAL_Driver/Src/stm32f1xx_hal_dma.c ****    /* Process Unlocked */
 347:Drivers/STM32F1xx_HAL_Driver/Src/stm32f1xx_hal_dma.c ****    __HAL_UNLOCK(hdma);  
 348:Drivers/STM32F1xx_HAL_Driver/Src/stm32f1xx_hal_dma.c ****    status = HAL_BUSY;
 349:Drivers/STM32F1xx_HAL_Driver/Src/stm32f1xx_hal_dma.c ****   }  
 350:Drivers/STM32F1xx_HAL_Driver/Src/stm32f1xx_hal_dma.c ****   return status;
 351:Drivers/STM32F1xx_HAL_Driver/Src/stm32f1xx_hal_dma.c **** }
 352:Drivers/STM32F1xx_HAL_Driver/Src/stm32f1xx_hal_dma.c **** 
 353:Drivers/STM32F1xx_HAL_Driver/Src/stm32f1xx_hal_dma.c **** /**
 354:Drivers/STM32F1xx_HAL_Driver/Src/stm32f1xx_hal_dma.c ****   * @brief  Start the DMA Transfer with interrupt enabled.
 355:Drivers/STM32F1xx_HAL_Driver/Src/stm32f1xx_hal_dma.c ****   * @param  hdma: pointer to a DMA_HandleTypeDef structure that contains
 356:Drivers/STM32F1xx_HAL_Driver/Src/stm32f1xx_hal_dma.c ****   *               the configuration information for the specified DMA Channel.
 357:Drivers/STM32F1xx_HAL_Driver/Src/stm32f1xx_hal_dma.c ****   * @param  SrcAddress: The source memory Buffer address
 358:Drivers/STM32F1xx_HAL_Driver/Src/stm32f1xx_hal_dma.c ****   * @param  DstAddress: The destination memory Buffer address
 359:Drivers/STM32F1xx_HAL_Driver/Src/stm32f1xx_hal_dma.c ****   * @param  DataLength: The length of data to be transferred from source to destination
 360:Drivers/STM32F1xx_HAL_Driver/Src/stm32f1xx_hal_dma.c ****   * @retval HAL status
 361:Drivers/STM32F1xx_HAL_Driver/Src/stm32f1xx_hal_dma.c ****   */
 362:Drivers/STM32F1xx_HAL_Driver/Src/stm32f1xx_hal_dma.c **** HAL_StatusTypeDef HAL_DMA_Start_IT(DMA_HandleTypeDef *hdma, uint32_t SrcAddress, uint32_t DstAddres
 363:Drivers/STM32F1xx_HAL_Driver/Src/stm32f1xx_hal_dma.c **** {
 364:Drivers/STM32F1xx_HAL_Driver/Src/stm32f1xx_hal_dma.c ****   HAL_StatusTypeDef status = HAL_OK;
 365:Drivers/STM32F1xx_HAL_Driver/Src/stm32f1xx_hal_dma.c **** 
 366:Drivers/STM32F1xx_HAL_Driver/Src/stm32f1xx_hal_dma.c ****   /* Check the parameters */
 367:Drivers/STM32F1xx_HAL_Driver/Src/stm32f1xx_hal_dma.c ****   assert_param(IS_DMA_BUFFER_SIZE(DataLength));
 368:Drivers/STM32F1xx_HAL_Driver/Src/stm32f1xx_hal_dma.c **** 
 369:Drivers/STM32F1xx_HAL_Driver/Src/stm32f1xx_hal_dma.c ****   /* Process locked */
 370:Drivers/STM32F1xx_HAL_Driver/Src/stm32f1xx_hal_dma.c ****   __HAL_LOCK(hdma);
 371:Drivers/STM32F1xx_HAL_Driver/Src/stm32f1xx_hal_dma.c ****   
 372:Drivers/STM32F1xx_HAL_Driver/Src/stm32f1xx_hal_dma.c ****   if(HAL_DMA_STATE_READY == hdma->State)
 373:Drivers/STM32F1xx_HAL_Driver/Src/stm32f1xx_hal_dma.c ****   {
 374:Drivers/STM32F1xx_HAL_Driver/Src/stm32f1xx_hal_dma.c ****     /* Change DMA peripheral state */
ARM GAS  C:\Users\30592\AppData\Local\Temp\ccG1iZqh.s 			page 8


 375:Drivers/STM32F1xx_HAL_Driver/Src/stm32f1xx_hal_dma.c ****     hdma->State = HAL_DMA_STATE_BUSY;
 376:Drivers/STM32F1xx_HAL_Driver/Src/stm32f1xx_hal_dma.c ****     hdma->ErrorCode = HAL_DMA_ERROR_NONE;
 377:Drivers/STM32F1xx_HAL_Driver/Src/stm32f1xx_hal_dma.c ****     
 378:Drivers/STM32F1xx_HAL_Driver/Src/stm32f1xx_hal_dma.c ****     /* Disable the peripheral */
 379:Drivers/STM32F1xx_HAL_Driver/Src/stm32f1xx_hal_dma.c ****     __HAL_DMA_DISABLE(hdma);
 380:Drivers/STM32F1xx_HAL_Driver/Src/stm32f1xx_hal_dma.c ****     
 381:Drivers/STM32F1xx_HAL_Driver/Src/stm32f1xx_hal_dma.c ****     /* Configure the source, destination address and the data length & clear flags*/
 382:Drivers/STM32F1xx_HAL_Driver/Src/stm32f1xx_hal_dma.c ****     DMA_SetConfig(hdma, SrcAddress, DstAddress, DataLength);
 383:Drivers/STM32F1xx_HAL_Driver/Src/stm32f1xx_hal_dma.c ****     
 384:Drivers/STM32F1xx_HAL_Driver/Src/stm32f1xx_hal_dma.c ****     /* Enable the transfer complete interrupt */
 385:Drivers/STM32F1xx_HAL_Driver/Src/stm32f1xx_hal_dma.c ****     /* Enable the transfer Error interrupt */
 386:Drivers/STM32F1xx_HAL_Driver/Src/stm32f1xx_hal_dma.c ****     if(NULL != hdma->XferHalfCpltCallback)
 387:Drivers/STM32F1xx_HAL_Driver/Src/stm32f1xx_hal_dma.c ****     {
 388:Drivers/STM32F1xx_HAL_Driver/Src/stm32f1xx_hal_dma.c ****       /* Enable the Half transfer complete interrupt as well */
 389:Drivers/STM32F1xx_HAL_Driver/Src/stm32f1xx_hal_dma.c ****       __HAL_DMA_ENABLE_IT(hdma, (DMA_IT_TC | DMA_IT_HT | DMA_IT_TE));
 390:Drivers/STM32F1xx_HAL_Driver/Src/stm32f1xx_hal_dma.c ****     }
 391:Drivers/STM32F1xx_HAL_Driver/Src/stm32f1xx_hal_dma.c ****     else
 392:Drivers/STM32F1xx_HAL_Driver/Src/stm32f1xx_hal_dma.c ****     {
 393:Drivers/STM32F1xx_HAL_Driver/Src/stm32f1xx_hal_dma.c ****       __HAL_DMA_DISABLE_IT(hdma, DMA_IT_HT);
 394:Drivers/STM32F1xx_HAL_Driver/Src/stm32f1xx_hal_dma.c ****       __HAL_DMA_ENABLE_IT(hdma, (DMA_IT_TC | DMA_IT_TE));
 395:Drivers/STM32F1xx_HAL_Driver/Src/stm32f1xx_hal_dma.c ****     }
 396:Drivers/STM32F1xx_HAL_Driver/Src/stm32f1xx_hal_dma.c ****     /* Enable the Peripheral */
 397:Drivers/STM32F1xx_HAL_Driver/Src/stm32f1xx_hal_dma.c ****     __HAL_DMA_ENABLE(hdma);
 398:Drivers/STM32F1xx_HAL_Driver/Src/stm32f1xx_hal_dma.c ****   }
 399:Drivers/STM32F1xx_HAL_Driver/Src/stm32f1xx_hal_dma.c ****   else
 400:Drivers/STM32F1xx_HAL_Driver/Src/stm32f1xx_hal_dma.c ****   {      
 401:Drivers/STM32F1xx_HAL_Driver/Src/stm32f1xx_hal_dma.c ****     /* Process Unlocked */
 402:Drivers/STM32F1xx_HAL_Driver/Src/stm32f1xx_hal_dma.c ****     __HAL_UNLOCK(hdma); 
 403:Drivers/STM32F1xx_HAL_Driver/Src/stm32f1xx_hal_dma.c **** 
 404:Drivers/STM32F1xx_HAL_Driver/Src/stm32f1xx_hal_dma.c ****     /* Remain BUSY */
 405:Drivers/STM32F1xx_HAL_Driver/Src/stm32f1xx_hal_dma.c ****     status = HAL_BUSY;
 406:Drivers/STM32F1xx_HAL_Driver/Src/stm32f1xx_hal_dma.c ****   }    
 407:Drivers/STM32F1xx_HAL_Driver/Src/stm32f1xx_hal_dma.c ****   return status;
 408:Drivers/STM32F1xx_HAL_Driver/Src/stm32f1xx_hal_dma.c **** }
 409:Drivers/STM32F1xx_HAL_Driver/Src/stm32f1xx_hal_dma.c **** 
 410:Drivers/STM32F1xx_HAL_Driver/Src/stm32f1xx_hal_dma.c **** /**
 411:Drivers/STM32F1xx_HAL_Driver/Src/stm32f1xx_hal_dma.c ****   * @brief  Abort the DMA Transfer.
 412:Drivers/STM32F1xx_HAL_Driver/Src/stm32f1xx_hal_dma.c ****   * @param  hdma: pointer to a DMA_HandleTypeDef structure that contains
 413:Drivers/STM32F1xx_HAL_Driver/Src/stm32f1xx_hal_dma.c ****   *               the configuration information for the specified DMA Channel.
 414:Drivers/STM32F1xx_HAL_Driver/Src/stm32f1xx_hal_dma.c ****   * @retval HAL status
 415:Drivers/STM32F1xx_HAL_Driver/Src/stm32f1xx_hal_dma.c ****   */
 416:Drivers/STM32F1xx_HAL_Driver/Src/stm32f1xx_hal_dma.c **** HAL_StatusTypeDef HAL_DMA_Abort(DMA_HandleTypeDef *hdma)
 417:Drivers/STM32F1xx_HAL_Driver/Src/stm32f1xx_hal_dma.c **** {
 418:Drivers/STM32F1xx_HAL_Driver/Src/stm32f1xx_hal_dma.c ****   HAL_StatusTypeDef status = HAL_OK;
 419:Drivers/STM32F1xx_HAL_Driver/Src/stm32f1xx_hal_dma.c ****   
 420:Drivers/STM32F1xx_HAL_Driver/Src/stm32f1xx_hal_dma.c ****   if(hdma->State != HAL_DMA_STATE_BUSY)
 421:Drivers/STM32F1xx_HAL_Driver/Src/stm32f1xx_hal_dma.c ****   {
 422:Drivers/STM32F1xx_HAL_Driver/Src/stm32f1xx_hal_dma.c ****     /* no transfer ongoing */
 423:Drivers/STM32F1xx_HAL_Driver/Src/stm32f1xx_hal_dma.c ****     hdma->ErrorCode = HAL_DMA_ERROR_NO_XFER;
 424:Drivers/STM32F1xx_HAL_Driver/Src/stm32f1xx_hal_dma.c ****     
 425:Drivers/STM32F1xx_HAL_Driver/Src/stm32f1xx_hal_dma.c ****     /* Process Unlocked */
 426:Drivers/STM32F1xx_HAL_Driver/Src/stm32f1xx_hal_dma.c ****     __HAL_UNLOCK(hdma);
 427:Drivers/STM32F1xx_HAL_Driver/Src/stm32f1xx_hal_dma.c ****     
 428:Drivers/STM32F1xx_HAL_Driver/Src/stm32f1xx_hal_dma.c ****     return HAL_ERROR;
 429:Drivers/STM32F1xx_HAL_Driver/Src/stm32f1xx_hal_dma.c ****   }
 430:Drivers/STM32F1xx_HAL_Driver/Src/stm32f1xx_hal_dma.c ****   else
 431:Drivers/STM32F1xx_HAL_Driver/Src/stm32f1xx_hal_dma.c **** 
ARM GAS  C:\Users\30592\AppData\Local\Temp\ccG1iZqh.s 			page 9


 432:Drivers/STM32F1xx_HAL_Driver/Src/stm32f1xx_hal_dma.c ****   {
 433:Drivers/STM32F1xx_HAL_Driver/Src/stm32f1xx_hal_dma.c ****     /* Disable DMA IT */
 434:Drivers/STM32F1xx_HAL_Driver/Src/stm32f1xx_hal_dma.c ****     __HAL_DMA_DISABLE_IT(hdma, (DMA_IT_TC | DMA_IT_HT | DMA_IT_TE));
 435:Drivers/STM32F1xx_HAL_Driver/Src/stm32f1xx_hal_dma.c ****       
 436:Drivers/STM32F1xx_HAL_Driver/Src/stm32f1xx_hal_dma.c ****     /* Disable the channel */
 437:Drivers/STM32F1xx_HAL_Driver/Src/stm32f1xx_hal_dma.c ****     __HAL_DMA_DISABLE(hdma);
 438:Drivers/STM32F1xx_HAL_Driver/Src/stm32f1xx_hal_dma.c ****       
 439:Drivers/STM32F1xx_HAL_Driver/Src/stm32f1xx_hal_dma.c ****     /* Clear all flags */
 440:Drivers/STM32F1xx_HAL_Driver/Src/stm32f1xx_hal_dma.c ****     hdma->DmaBaseAddress->IFCR = (DMA_ISR_GIF1 << hdma->ChannelIndex);
 441:Drivers/STM32F1xx_HAL_Driver/Src/stm32f1xx_hal_dma.c ****   }
 442:Drivers/STM32F1xx_HAL_Driver/Src/stm32f1xx_hal_dma.c ****   /* Change the DMA state */
 443:Drivers/STM32F1xx_HAL_Driver/Src/stm32f1xx_hal_dma.c ****   hdma->State = HAL_DMA_STATE_READY;
 444:Drivers/STM32F1xx_HAL_Driver/Src/stm32f1xx_hal_dma.c **** 
 445:Drivers/STM32F1xx_HAL_Driver/Src/stm32f1xx_hal_dma.c ****   /* Process Unlocked */
 446:Drivers/STM32F1xx_HAL_Driver/Src/stm32f1xx_hal_dma.c ****   __HAL_UNLOCK(hdma);      
 447:Drivers/STM32F1xx_HAL_Driver/Src/stm32f1xx_hal_dma.c ****   
 448:Drivers/STM32F1xx_HAL_Driver/Src/stm32f1xx_hal_dma.c ****   return status; 
 449:Drivers/STM32F1xx_HAL_Driver/Src/stm32f1xx_hal_dma.c **** }
 450:Drivers/STM32F1xx_HAL_Driver/Src/stm32f1xx_hal_dma.c **** 
 451:Drivers/STM32F1xx_HAL_Driver/Src/stm32f1xx_hal_dma.c **** /**
 452:Drivers/STM32F1xx_HAL_Driver/Src/stm32f1xx_hal_dma.c ****   * @brief  Aborts the DMA Transfer in Interrupt mode.
 453:Drivers/STM32F1xx_HAL_Driver/Src/stm32f1xx_hal_dma.c ****   * @param  hdma  : pointer to a DMA_HandleTypeDef structure that contains
 454:Drivers/STM32F1xx_HAL_Driver/Src/stm32f1xx_hal_dma.c ****   *                 the configuration information for the specified DMA Channel.
 455:Drivers/STM32F1xx_HAL_Driver/Src/stm32f1xx_hal_dma.c ****   * @retval HAL status
 456:Drivers/STM32F1xx_HAL_Driver/Src/stm32f1xx_hal_dma.c ****   */
 457:Drivers/STM32F1xx_HAL_Driver/Src/stm32f1xx_hal_dma.c **** HAL_StatusTypeDef HAL_DMA_Abort_IT(DMA_HandleTypeDef *hdma)
 458:Drivers/STM32F1xx_HAL_Driver/Src/stm32f1xx_hal_dma.c **** {  
 459:Drivers/STM32F1xx_HAL_Driver/Src/stm32f1xx_hal_dma.c ****   HAL_StatusTypeDef status = HAL_OK;
 460:Drivers/STM32F1xx_HAL_Driver/Src/stm32f1xx_hal_dma.c ****   
 461:Drivers/STM32F1xx_HAL_Driver/Src/stm32f1xx_hal_dma.c ****   if(HAL_DMA_STATE_BUSY != hdma->State)
 462:Drivers/STM32F1xx_HAL_Driver/Src/stm32f1xx_hal_dma.c ****   {
 463:Drivers/STM32F1xx_HAL_Driver/Src/stm32f1xx_hal_dma.c ****     /* no transfer ongoing */
 464:Drivers/STM32F1xx_HAL_Driver/Src/stm32f1xx_hal_dma.c ****     hdma->ErrorCode = HAL_DMA_ERROR_NO_XFER;
 465:Drivers/STM32F1xx_HAL_Driver/Src/stm32f1xx_hal_dma.c ****         
 466:Drivers/STM32F1xx_HAL_Driver/Src/stm32f1xx_hal_dma.c ****     status = HAL_ERROR;
 467:Drivers/STM32F1xx_HAL_Driver/Src/stm32f1xx_hal_dma.c ****   }
 468:Drivers/STM32F1xx_HAL_Driver/Src/stm32f1xx_hal_dma.c ****   else
 469:Drivers/STM32F1xx_HAL_Driver/Src/stm32f1xx_hal_dma.c ****   { 
 470:Drivers/STM32F1xx_HAL_Driver/Src/stm32f1xx_hal_dma.c ****     /* Disable DMA IT */
 471:Drivers/STM32F1xx_HAL_Driver/Src/stm32f1xx_hal_dma.c ****     __HAL_DMA_DISABLE_IT(hdma, (DMA_IT_TC | DMA_IT_HT | DMA_IT_TE));
 472:Drivers/STM32F1xx_HAL_Driver/Src/stm32f1xx_hal_dma.c **** 
 473:Drivers/STM32F1xx_HAL_Driver/Src/stm32f1xx_hal_dma.c ****     /* Disable the channel */
 474:Drivers/STM32F1xx_HAL_Driver/Src/stm32f1xx_hal_dma.c ****     __HAL_DMA_DISABLE(hdma);
 475:Drivers/STM32F1xx_HAL_Driver/Src/stm32f1xx_hal_dma.c **** 
 476:Drivers/STM32F1xx_HAL_Driver/Src/stm32f1xx_hal_dma.c ****     /* Clear all flags */
 477:Drivers/STM32F1xx_HAL_Driver/Src/stm32f1xx_hal_dma.c ****     __HAL_DMA_CLEAR_FLAG(hdma, __HAL_DMA_GET_GI_FLAG_INDEX(hdma));
 478:Drivers/STM32F1xx_HAL_Driver/Src/stm32f1xx_hal_dma.c **** 
 479:Drivers/STM32F1xx_HAL_Driver/Src/stm32f1xx_hal_dma.c ****     /* Change the DMA state */
 480:Drivers/STM32F1xx_HAL_Driver/Src/stm32f1xx_hal_dma.c ****     hdma->State = HAL_DMA_STATE_READY;
 481:Drivers/STM32F1xx_HAL_Driver/Src/stm32f1xx_hal_dma.c **** 
 482:Drivers/STM32F1xx_HAL_Driver/Src/stm32f1xx_hal_dma.c ****     /* Process Unlocked */
 483:Drivers/STM32F1xx_HAL_Driver/Src/stm32f1xx_hal_dma.c ****     __HAL_UNLOCK(hdma);
 484:Drivers/STM32F1xx_HAL_Driver/Src/stm32f1xx_hal_dma.c **** 
 485:Drivers/STM32F1xx_HAL_Driver/Src/stm32f1xx_hal_dma.c ****     /* Call User Abort callback */
 486:Drivers/STM32F1xx_HAL_Driver/Src/stm32f1xx_hal_dma.c ****     if(hdma->XferAbortCallback != NULL)
 487:Drivers/STM32F1xx_HAL_Driver/Src/stm32f1xx_hal_dma.c ****     {
 488:Drivers/STM32F1xx_HAL_Driver/Src/stm32f1xx_hal_dma.c ****       hdma->XferAbortCallback(hdma);
ARM GAS  C:\Users\30592\AppData\Local\Temp\ccG1iZqh.s 			page 10


 489:Drivers/STM32F1xx_HAL_Driver/Src/stm32f1xx_hal_dma.c ****     } 
 490:Drivers/STM32F1xx_HAL_Driver/Src/stm32f1xx_hal_dma.c ****   }
 491:Drivers/STM32F1xx_HAL_Driver/Src/stm32f1xx_hal_dma.c ****   return status;
 492:Drivers/STM32F1xx_HAL_Driver/Src/stm32f1xx_hal_dma.c **** }
 493:Drivers/STM32F1xx_HAL_Driver/Src/stm32f1xx_hal_dma.c **** 
 494:Drivers/STM32F1xx_HAL_Driver/Src/stm32f1xx_hal_dma.c **** /**
 495:Drivers/STM32F1xx_HAL_Driver/Src/stm32f1xx_hal_dma.c ****   * @brief  Polling for transfer complete.
 496:Drivers/STM32F1xx_HAL_Driver/Src/stm32f1xx_hal_dma.c ****   * @param  hdma:    pointer to a DMA_HandleTypeDef structure that contains
 497:Drivers/STM32F1xx_HAL_Driver/Src/stm32f1xx_hal_dma.c ****   *                  the configuration information for the specified DMA Channel.
 498:Drivers/STM32F1xx_HAL_Driver/Src/stm32f1xx_hal_dma.c ****   * @param  CompleteLevel: Specifies the DMA level complete.
 499:Drivers/STM32F1xx_HAL_Driver/Src/stm32f1xx_hal_dma.c ****   * @param  Timeout:       Timeout duration.
 500:Drivers/STM32F1xx_HAL_Driver/Src/stm32f1xx_hal_dma.c ****   * @retval HAL status
 501:Drivers/STM32F1xx_HAL_Driver/Src/stm32f1xx_hal_dma.c ****   */
 502:Drivers/STM32F1xx_HAL_Driver/Src/stm32f1xx_hal_dma.c **** HAL_StatusTypeDef HAL_DMA_PollForTransfer(DMA_HandleTypeDef *hdma, uint32_t CompleteLevel, uint32_t
 503:Drivers/STM32F1xx_HAL_Driver/Src/stm32f1xx_hal_dma.c **** {
 504:Drivers/STM32F1xx_HAL_Driver/Src/stm32f1xx_hal_dma.c ****   uint32_t temp;
 505:Drivers/STM32F1xx_HAL_Driver/Src/stm32f1xx_hal_dma.c ****   uint32_t tickstart = 0U;
 506:Drivers/STM32F1xx_HAL_Driver/Src/stm32f1xx_hal_dma.c **** 
 507:Drivers/STM32F1xx_HAL_Driver/Src/stm32f1xx_hal_dma.c ****   if(HAL_DMA_STATE_BUSY != hdma->State)
 508:Drivers/STM32F1xx_HAL_Driver/Src/stm32f1xx_hal_dma.c ****   {
 509:Drivers/STM32F1xx_HAL_Driver/Src/stm32f1xx_hal_dma.c ****     /* no transfer ongoing */
 510:Drivers/STM32F1xx_HAL_Driver/Src/stm32f1xx_hal_dma.c ****     hdma->ErrorCode = HAL_DMA_ERROR_NO_XFER;
 511:Drivers/STM32F1xx_HAL_Driver/Src/stm32f1xx_hal_dma.c ****     __HAL_UNLOCK(hdma);
 512:Drivers/STM32F1xx_HAL_Driver/Src/stm32f1xx_hal_dma.c ****     return HAL_ERROR;
 513:Drivers/STM32F1xx_HAL_Driver/Src/stm32f1xx_hal_dma.c ****   }
 514:Drivers/STM32F1xx_HAL_Driver/Src/stm32f1xx_hal_dma.c **** 
 515:Drivers/STM32F1xx_HAL_Driver/Src/stm32f1xx_hal_dma.c ****   /* Polling mode not supported in circular mode */
 516:Drivers/STM32F1xx_HAL_Driver/Src/stm32f1xx_hal_dma.c ****   if (RESET != (hdma->Instance->CCR & DMA_CCR_CIRC))
 517:Drivers/STM32F1xx_HAL_Driver/Src/stm32f1xx_hal_dma.c ****   {
 518:Drivers/STM32F1xx_HAL_Driver/Src/stm32f1xx_hal_dma.c ****     hdma->ErrorCode = HAL_DMA_ERROR_NOT_SUPPORTED;
 519:Drivers/STM32F1xx_HAL_Driver/Src/stm32f1xx_hal_dma.c ****     return HAL_ERROR;
 520:Drivers/STM32F1xx_HAL_Driver/Src/stm32f1xx_hal_dma.c ****   }
 521:Drivers/STM32F1xx_HAL_Driver/Src/stm32f1xx_hal_dma.c ****   
 522:Drivers/STM32F1xx_HAL_Driver/Src/stm32f1xx_hal_dma.c ****   /* Get the level transfer complete flag */
 523:Drivers/STM32F1xx_HAL_Driver/Src/stm32f1xx_hal_dma.c ****   if(CompleteLevel == HAL_DMA_FULL_TRANSFER)
 524:Drivers/STM32F1xx_HAL_Driver/Src/stm32f1xx_hal_dma.c ****   {
 525:Drivers/STM32F1xx_HAL_Driver/Src/stm32f1xx_hal_dma.c ****     /* Transfer Complete flag */
 526:Drivers/STM32F1xx_HAL_Driver/Src/stm32f1xx_hal_dma.c ****     temp = __HAL_DMA_GET_TC_FLAG_INDEX(hdma);
 527:Drivers/STM32F1xx_HAL_Driver/Src/stm32f1xx_hal_dma.c ****   }
 528:Drivers/STM32F1xx_HAL_Driver/Src/stm32f1xx_hal_dma.c ****   else
 529:Drivers/STM32F1xx_HAL_Driver/Src/stm32f1xx_hal_dma.c ****   {
 530:Drivers/STM32F1xx_HAL_Driver/Src/stm32f1xx_hal_dma.c ****     /* Half Transfer Complete flag */
 531:Drivers/STM32F1xx_HAL_Driver/Src/stm32f1xx_hal_dma.c ****     temp = __HAL_DMA_GET_HT_FLAG_INDEX(hdma);
 532:Drivers/STM32F1xx_HAL_Driver/Src/stm32f1xx_hal_dma.c ****   }
 533:Drivers/STM32F1xx_HAL_Driver/Src/stm32f1xx_hal_dma.c **** 
 534:Drivers/STM32F1xx_HAL_Driver/Src/stm32f1xx_hal_dma.c ****   /* Get tick */
 535:Drivers/STM32F1xx_HAL_Driver/Src/stm32f1xx_hal_dma.c ****   tickstart = HAL_GetTick();
 536:Drivers/STM32F1xx_HAL_Driver/Src/stm32f1xx_hal_dma.c **** 
 537:Drivers/STM32F1xx_HAL_Driver/Src/stm32f1xx_hal_dma.c ****   while(__HAL_DMA_GET_FLAG(hdma, temp) == RESET)
 538:Drivers/STM32F1xx_HAL_Driver/Src/stm32f1xx_hal_dma.c ****   {
 539:Drivers/STM32F1xx_HAL_Driver/Src/stm32f1xx_hal_dma.c ****     if((__HAL_DMA_GET_FLAG(hdma, __HAL_DMA_GET_TE_FLAG_INDEX(hdma)) != RESET))
 540:Drivers/STM32F1xx_HAL_Driver/Src/stm32f1xx_hal_dma.c ****     {
 541:Drivers/STM32F1xx_HAL_Driver/Src/stm32f1xx_hal_dma.c ****       /* When a DMA transfer error occurs */
 542:Drivers/STM32F1xx_HAL_Driver/Src/stm32f1xx_hal_dma.c ****       /* A hardware clear of its EN bits is performed */
 543:Drivers/STM32F1xx_HAL_Driver/Src/stm32f1xx_hal_dma.c ****       /* Clear all flags */
 544:Drivers/STM32F1xx_HAL_Driver/Src/stm32f1xx_hal_dma.c ****       hdma->DmaBaseAddress->IFCR = (DMA_ISR_GIF1 << hdma->ChannelIndex);
 545:Drivers/STM32F1xx_HAL_Driver/Src/stm32f1xx_hal_dma.c **** 
ARM GAS  C:\Users\30592\AppData\Local\Temp\ccG1iZqh.s 			page 11


 546:Drivers/STM32F1xx_HAL_Driver/Src/stm32f1xx_hal_dma.c ****       /* Update error code */
 547:Drivers/STM32F1xx_HAL_Driver/Src/stm32f1xx_hal_dma.c ****       SET_BIT(hdma->ErrorCode, HAL_DMA_ERROR_TE);
 548:Drivers/STM32F1xx_HAL_Driver/Src/stm32f1xx_hal_dma.c **** 
 549:Drivers/STM32F1xx_HAL_Driver/Src/stm32f1xx_hal_dma.c ****       /* Change the DMA state */
 550:Drivers/STM32F1xx_HAL_Driver/Src/stm32f1xx_hal_dma.c ****       hdma->State= HAL_DMA_STATE_READY;
 551:Drivers/STM32F1xx_HAL_Driver/Src/stm32f1xx_hal_dma.c **** 
 552:Drivers/STM32F1xx_HAL_Driver/Src/stm32f1xx_hal_dma.c ****       /* Process Unlocked */
 553:Drivers/STM32F1xx_HAL_Driver/Src/stm32f1xx_hal_dma.c ****       __HAL_UNLOCK(hdma);
 554:Drivers/STM32F1xx_HAL_Driver/Src/stm32f1xx_hal_dma.c **** 
 555:Drivers/STM32F1xx_HAL_Driver/Src/stm32f1xx_hal_dma.c ****       return HAL_ERROR;
 556:Drivers/STM32F1xx_HAL_Driver/Src/stm32f1xx_hal_dma.c ****     }
 557:Drivers/STM32F1xx_HAL_Driver/Src/stm32f1xx_hal_dma.c ****     /* Check for the Timeout */
 558:Drivers/STM32F1xx_HAL_Driver/Src/stm32f1xx_hal_dma.c ****     if(Timeout != HAL_MAX_DELAY)
 559:Drivers/STM32F1xx_HAL_Driver/Src/stm32f1xx_hal_dma.c ****     {
 560:Drivers/STM32F1xx_HAL_Driver/Src/stm32f1xx_hal_dma.c ****       if((Timeout == 0U) || ((HAL_GetTick() - tickstart) > Timeout))
 561:Drivers/STM32F1xx_HAL_Driver/Src/stm32f1xx_hal_dma.c ****       {
 562:Drivers/STM32F1xx_HAL_Driver/Src/stm32f1xx_hal_dma.c ****         /* Update error code */
 563:Drivers/STM32F1xx_HAL_Driver/Src/stm32f1xx_hal_dma.c ****         SET_BIT(hdma->ErrorCode, HAL_DMA_ERROR_TIMEOUT);
 564:Drivers/STM32F1xx_HAL_Driver/Src/stm32f1xx_hal_dma.c **** 
 565:Drivers/STM32F1xx_HAL_Driver/Src/stm32f1xx_hal_dma.c ****         /* Change the DMA state */
 566:Drivers/STM32F1xx_HAL_Driver/Src/stm32f1xx_hal_dma.c ****         hdma->State = HAL_DMA_STATE_READY;
 567:Drivers/STM32F1xx_HAL_Driver/Src/stm32f1xx_hal_dma.c **** 
 568:Drivers/STM32F1xx_HAL_Driver/Src/stm32f1xx_hal_dma.c ****         /* Process Unlocked */
 569:Drivers/STM32F1xx_HAL_Driver/Src/stm32f1xx_hal_dma.c ****         __HAL_UNLOCK(hdma);
 570:Drivers/STM32F1xx_HAL_Driver/Src/stm32f1xx_hal_dma.c **** 
 571:Drivers/STM32F1xx_HAL_Driver/Src/stm32f1xx_hal_dma.c ****         return HAL_ERROR;
 572:Drivers/STM32F1xx_HAL_Driver/Src/stm32f1xx_hal_dma.c ****       }
 573:Drivers/STM32F1xx_HAL_Driver/Src/stm32f1xx_hal_dma.c ****     }
 574:Drivers/STM32F1xx_HAL_Driver/Src/stm32f1xx_hal_dma.c ****   }
 575:Drivers/STM32F1xx_HAL_Driver/Src/stm32f1xx_hal_dma.c **** 
 576:Drivers/STM32F1xx_HAL_Driver/Src/stm32f1xx_hal_dma.c ****   if(CompleteLevel == HAL_DMA_FULL_TRANSFER)
 577:Drivers/STM32F1xx_HAL_Driver/Src/stm32f1xx_hal_dma.c ****   {
 578:Drivers/STM32F1xx_HAL_Driver/Src/stm32f1xx_hal_dma.c ****     /* Clear the transfer complete flag */
 579:Drivers/STM32F1xx_HAL_Driver/Src/stm32f1xx_hal_dma.c ****     __HAL_DMA_CLEAR_FLAG(hdma, __HAL_DMA_GET_TC_FLAG_INDEX(hdma));
 580:Drivers/STM32F1xx_HAL_Driver/Src/stm32f1xx_hal_dma.c **** 
 581:Drivers/STM32F1xx_HAL_Driver/Src/stm32f1xx_hal_dma.c ****     /* The selected Channelx EN bit is cleared (DMA is disabled and
 582:Drivers/STM32F1xx_HAL_Driver/Src/stm32f1xx_hal_dma.c ****     all transfers are complete) */
 583:Drivers/STM32F1xx_HAL_Driver/Src/stm32f1xx_hal_dma.c ****     hdma->State = HAL_DMA_STATE_READY;
 584:Drivers/STM32F1xx_HAL_Driver/Src/stm32f1xx_hal_dma.c ****   }
 585:Drivers/STM32F1xx_HAL_Driver/Src/stm32f1xx_hal_dma.c ****   else
 586:Drivers/STM32F1xx_HAL_Driver/Src/stm32f1xx_hal_dma.c ****   {
 587:Drivers/STM32F1xx_HAL_Driver/Src/stm32f1xx_hal_dma.c ****     /* Clear the half transfer complete flag */
 588:Drivers/STM32F1xx_HAL_Driver/Src/stm32f1xx_hal_dma.c ****     __HAL_DMA_CLEAR_FLAG(hdma, __HAL_DMA_GET_HT_FLAG_INDEX(hdma));
 589:Drivers/STM32F1xx_HAL_Driver/Src/stm32f1xx_hal_dma.c ****   }
 590:Drivers/STM32F1xx_HAL_Driver/Src/stm32f1xx_hal_dma.c ****   
 591:Drivers/STM32F1xx_HAL_Driver/Src/stm32f1xx_hal_dma.c ****   /* Process unlocked */
 592:Drivers/STM32F1xx_HAL_Driver/Src/stm32f1xx_hal_dma.c ****   __HAL_UNLOCK(hdma);
 593:Drivers/STM32F1xx_HAL_Driver/Src/stm32f1xx_hal_dma.c **** 
 594:Drivers/STM32F1xx_HAL_Driver/Src/stm32f1xx_hal_dma.c ****   return HAL_OK;
 595:Drivers/STM32F1xx_HAL_Driver/Src/stm32f1xx_hal_dma.c **** }
 596:Drivers/STM32F1xx_HAL_Driver/Src/stm32f1xx_hal_dma.c **** 
 597:Drivers/STM32F1xx_HAL_Driver/Src/stm32f1xx_hal_dma.c **** /**
 598:Drivers/STM32F1xx_HAL_Driver/Src/stm32f1xx_hal_dma.c ****   * @brief  Handles DMA interrupt request.
 599:Drivers/STM32F1xx_HAL_Driver/Src/stm32f1xx_hal_dma.c ****   * @param  hdma: pointer to a DMA_HandleTypeDef structure that contains
 600:Drivers/STM32F1xx_HAL_Driver/Src/stm32f1xx_hal_dma.c ****   *               the configuration information for the specified DMA Channel.  
 601:Drivers/STM32F1xx_HAL_Driver/Src/stm32f1xx_hal_dma.c ****   * @retval None
 602:Drivers/STM32F1xx_HAL_Driver/Src/stm32f1xx_hal_dma.c ****   */
ARM GAS  C:\Users\30592\AppData\Local\Temp\ccG1iZqh.s 			page 12


 603:Drivers/STM32F1xx_HAL_Driver/Src/stm32f1xx_hal_dma.c **** void HAL_DMA_IRQHandler(DMA_HandleTypeDef *hdma)
 604:Drivers/STM32F1xx_HAL_Driver/Src/stm32f1xx_hal_dma.c **** {
 605:Drivers/STM32F1xx_HAL_Driver/Src/stm32f1xx_hal_dma.c ****   uint32_t flag_it = hdma->DmaBaseAddress->ISR;
 606:Drivers/STM32F1xx_HAL_Driver/Src/stm32f1xx_hal_dma.c ****   uint32_t source_it = hdma->Instance->CCR;
 607:Drivers/STM32F1xx_HAL_Driver/Src/stm32f1xx_hal_dma.c ****   
 608:Drivers/STM32F1xx_HAL_Driver/Src/stm32f1xx_hal_dma.c ****   /* Half Transfer Complete Interrupt management ******************************/
 609:Drivers/STM32F1xx_HAL_Driver/Src/stm32f1xx_hal_dma.c ****   if (((flag_it & (DMA_FLAG_HT1 << hdma->ChannelIndex)) != RESET) && ((source_it & DMA_IT_HT) != RE
 610:Drivers/STM32F1xx_HAL_Driver/Src/stm32f1xx_hal_dma.c ****   {
 611:Drivers/STM32F1xx_HAL_Driver/Src/stm32f1xx_hal_dma.c ****     /* Disable the half transfer interrupt if the DMA mode is not CIRCULAR */
 612:Drivers/STM32F1xx_HAL_Driver/Src/stm32f1xx_hal_dma.c ****     if((hdma->Instance->CCR & DMA_CCR_CIRC) == 0U)
 613:Drivers/STM32F1xx_HAL_Driver/Src/stm32f1xx_hal_dma.c ****     {
 614:Drivers/STM32F1xx_HAL_Driver/Src/stm32f1xx_hal_dma.c ****       /* Disable the half transfer interrupt */
 615:Drivers/STM32F1xx_HAL_Driver/Src/stm32f1xx_hal_dma.c ****       __HAL_DMA_DISABLE_IT(hdma, DMA_IT_HT);
 616:Drivers/STM32F1xx_HAL_Driver/Src/stm32f1xx_hal_dma.c ****     }
 617:Drivers/STM32F1xx_HAL_Driver/Src/stm32f1xx_hal_dma.c ****     /* Clear the half transfer complete flag */
 618:Drivers/STM32F1xx_HAL_Driver/Src/stm32f1xx_hal_dma.c ****     __HAL_DMA_CLEAR_FLAG(hdma, __HAL_DMA_GET_HT_FLAG_INDEX(hdma));
 619:Drivers/STM32F1xx_HAL_Driver/Src/stm32f1xx_hal_dma.c **** 
 620:Drivers/STM32F1xx_HAL_Driver/Src/stm32f1xx_hal_dma.c ****     /* DMA peripheral state is not updated in Half Transfer */
 621:Drivers/STM32F1xx_HAL_Driver/Src/stm32f1xx_hal_dma.c ****     /* but in Transfer Complete case */
 622:Drivers/STM32F1xx_HAL_Driver/Src/stm32f1xx_hal_dma.c **** 
 623:Drivers/STM32F1xx_HAL_Driver/Src/stm32f1xx_hal_dma.c ****     if(hdma->XferHalfCpltCallback != NULL)
 624:Drivers/STM32F1xx_HAL_Driver/Src/stm32f1xx_hal_dma.c ****     {
 625:Drivers/STM32F1xx_HAL_Driver/Src/stm32f1xx_hal_dma.c ****       /* Half transfer callback */
 626:Drivers/STM32F1xx_HAL_Driver/Src/stm32f1xx_hal_dma.c ****       hdma->XferHalfCpltCallback(hdma);
 627:Drivers/STM32F1xx_HAL_Driver/Src/stm32f1xx_hal_dma.c ****     }
 628:Drivers/STM32F1xx_HAL_Driver/Src/stm32f1xx_hal_dma.c ****   }
 629:Drivers/STM32F1xx_HAL_Driver/Src/stm32f1xx_hal_dma.c **** 
 630:Drivers/STM32F1xx_HAL_Driver/Src/stm32f1xx_hal_dma.c ****   /* Transfer Complete Interrupt management ***********************************/
 631:Drivers/STM32F1xx_HAL_Driver/Src/stm32f1xx_hal_dma.c ****   else if (((flag_it & (DMA_FLAG_TC1 << hdma->ChannelIndex)) != RESET) && ((source_it & DMA_IT_TC) 
 632:Drivers/STM32F1xx_HAL_Driver/Src/stm32f1xx_hal_dma.c ****   {
 633:Drivers/STM32F1xx_HAL_Driver/Src/stm32f1xx_hal_dma.c ****     if((hdma->Instance->CCR & DMA_CCR_CIRC) == 0U)
 634:Drivers/STM32F1xx_HAL_Driver/Src/stm32f1xx_hal_dma.c ****     {
 635:Drivers/STM32F1xx_HAL_Driver/Src/stm32f1xx_hal_dma.c ****       /* Disable the transfer complete and error interrupt */
 636:Drivers/STM32F1xx_HAL_Driver/Src/stm32f1xx_hal_dma.c ****       __HAL_DMA_DISABLE_IT(hdma, DMA_IT_TE | DMA_IT_TC);  
 637:Drivers/STM32F1xx_HAL_Driver/Src/stm32f1xx_hal_dma.c **** 
 638:Drivers/STM32F1xx_HAL_Driver/Src/stm32f1xx_hal_dma.c ****       /* Change the DMA state */
 639:Drivers/STM32F1xx_HAL_Driver/Src/stm32f1xx_hal_dma.c ****       hdma->State = HAL_DMA_STATE_READY;
 640:Drivers/STM32F1xx_HAL_Driver/Src/stm32f1xx_hal_dma.c ****     }
 641:Drivers/STM32F1xx_HAL_Driver/Src/stm32f1xx_hal_dma.c ****     /* Clear the transfer complete flag */
 642:Drivers/STM32F1xx_HAL_Driver/Src/stm32f1xx_hal_dma.c ****       __HAL_DMA_CLEAR_FLAG(hdma, __HAL_DMA_GET_TC_FLAG_INDEX(hdma));
 643:Drivers/STM32F1xx_HAL_Driver/Src/stm32f1xx_hal_dma.c **** 
 644:Drivers/STM32F1xx_HAL_Driver/Src/stm32f1xx_hal_dma.c ****     /* Process Unlocked */
 645:Drivers/STM32F1xx_HAL_Driver/Src/stm32f1xx_hal_dma.c ****     __HAL_UNLOCK(hdma);
 646:Drivers/STM32F1xx_HAL_Driver/Src/stm32f1xx_hal_dma.c **** 
 647:Drivers/STM32F1xx_HAL_Driver/Src/stm32f1xx_hal_dma.c ****     if(hdma->XferCpltCallback != NULL)
 648:Drivers/STM32F1xx_HAL_Driver/Src/stm32f1xx_hal_dma.c ****     {
 649:Drivers/STM32F1xx_HAL_Driver/Src/stm32f1xx_hal_dma.c ****       /* Transfer complete callback */
 650:Drivers/STM32F1xx_HAL_Driver/Src/stm32f1xx_hal_dma.c ****       hdma->XferCpltCallback(hdma);
 651:Drivers/STM32F1xx_HAL_Driver/Src/stm32f1xx_hal_dma.c ****     }
 652:Drivers/STM32F1xx_HAL_Driver/Src/stm32f1xx_hal_dma.c ****   }
 653:Drivers/STM32F1xx_HAL_Driver/Src/stm32f1xx_hal_dma.c **** 
 654:Drivers/STM32F1xx_HAL_Driver/Src/stm32f1xx_hal_dma.c ****   /* Transfer Error Interrupt management **************************************/
 655:Drivers/STM32F1xx_HAL_Driver/Src/stm32f1xx_hal_dma.c ****   else if (( RESET != (flag_it & (DMA_FLAG_TE1 << hdma->ChannelIndex))) && (RESET != (source_it & D
 656:Drivers/STM32F1xx_HAL_Driver/Src/stm32f1xx_hal_dma.c ****   {
 657:Drivers/STM32F1xx_HAL_Driver/Src/stm32f1xx_hal_dma.c ****     /* When a DMA transfer error occurs */
 658:Drivers/STM32F1xx_HAL_Driver/Src/stm32f1xx_hal_dma.c ****     /* A hardware clear of its EN bits is performed */
 659:Drivers/STM32F1xx_HAL_Driver/Src/stm32f1xx_hal_dma.c ****     /* Disable ALL DMA IT */
ARM GAS  C:\Users\30592\AppData\Local\Temp\ccG1iZqh.s 			page 13


 660:Drivers/STM32F1xx_HAL_Driver/Src/stm32f1xx_hal_dma.c ****     __HAL_DMA_DISABLE_IT(hdma, (DMA_IT_TC | DMA_IT_HT | DMA_IT_TE));
 661:Drivers/STM32F1xx_HAL_Driver/Src/stm32f1xx_hal_dma.c **** 
 662:Drivers/STM32F1xx_HAL_Driver/Src/stm32f1xx_hal_dma.c ****     /* Clear all flags */
 663:Drivers/STM32F1xx_HAL_Driver/Src/stm32f1xx_hal_dma.c ****     hdma->DmaBaseAddress->IFCR = (DMA_ISR_GIF1 << hdma->ChannelIndex);
 664:Drivers/STM32F1xx_HAL_Driver/Src/stm32f1xx_hal_dma.c **** 
 665:Drivers/STM32F1xx_HAL_Driver/Src/stm32f1xx_hal_dma.c ****     /* Update error code */
 666:Drivers/STM32F1xx_HAL_Driver/Src/stm32f1xx_hal_dma.c ****     hdma->ErrorCode = HAL_DMA_ERROR_TE;
 667:Drivers/STM32F1xx_HAL_Driver/Src/stm32f1xx_hal_dma.c **** 
 668:Drivers/STM32F1xx_HAL_Driver/Src/stm32f1xx_hal_dma.c ****     /* Change the DMA state */
 669:Drivers/STM32F1xx_HAL_Driver/Src/stm32f1xx_hal_dma.c ****     hdma->State = HAL_DMA_STATE_READY;
 670:Drivers/STM32F1xx_HAL_Driver/Src/stm32f1xx_hal_dma.c **** 
 671:Drivers/STM32F1xx_HAL_Driver/Src/stm32f1xx_hal_dma.c ****     /* Process Unlocked */
 672:Drivers/STM32F1xx_HAL_Driver/Src/stm32f1xx_hal_dma.c ****     __HAL_UNLOCK(hdma);
 673:Drivers/STM32F1xx_HAL_Driver/Src/stm32f1xx_hal_dma.c **** 
 674:Drivers/STM32F1xx_HAL_Driver/Src/stm32f1xx_hal_dma.c ****     if (hdma->XferErrorCallback != NULL)
 675:Drivers/STM32F1xx_HAL_Driver/Src/stm32f1xx_hal_dma.c ****     {
 676:Drivers/STM32F1xx_HAL_Driver/Src/stm32f1xx_hal_dma.c ****       /* Transfer error callback */
 677:Drivers/STM32F1xx_HAL_Driver/Src/stm32f1xx_hal_dma.c ****       hdma->XferErrorCallback(hdma);
 678:Drivers/STM32F1xx_HAL_Driver/Src/stm32f1xx_hal_dma.c ****     }
 679:Drivers/STM32F1xx_HAL_Driver/Src/stm32f1xx_hal_dma.c ****   }
 680:Drivers/STM32F1xx_HAL_Driver/Src/stm32f1xx_hal_dma.c ****   return;
 681:Drivers/STM32F1xx_HAL_Driver/Src/stm32f1xx_hal_dma.c **** }
 682:Drivers/STM32F1xx_HAL_Driver/Src/stm32f1xx_hal_dma.c **** 
 683:Drivers/STM32F1xx_HAL_Driver/Src/stm32f1xx_hal_dma.c **** /**
 684:Drivers/STM32F1xx_HAL_Driver/Src/stm32f1xx_hal_dma.c ****   * @brief Register callbacks
 685:Drivers/STM32F1xx_HAL_Driver/Src/stm32f1xx_hal_dma.c ****   * @param hdma: pointer to a DMA_HandleTypeDef structure that contains
 686:Drivers/STM32F1xx_HAL_Driver/Src/stm32f1xx_hal_dma.c ****   *              the configuration information for the specified DMA Channel.
 687:Drivers/STM32F1xx_HAL_Driver/Src/stm32f1xx_hal_dma.c ****   * @param CallbackID: User Callback identifer
 688:Drivers/STM32F1xx_HAL_Driver/Src/stm32f1xx_hal_dma.c ****   *                    a HAL_DMA_CallbackIDTypeDef ENUM as parameter.
 689:Drivers/STM32F1xx_HAL_Driver/Src/stm32f1xx_hal_dma.c ****   * @param pCallback: pointer to private callbacsk function which has pointer to 
 690:Drivers/STM32F1xx_HAL_Driver/Src/stm32f1xx_hal_dma.c ****   *                   a DMA_HandleTypeDef structure as parameter.
 691:Drivers/STM32F1xx_HAL_Driver/Src/stm32f1xx_hal_dma.c ****   * @retval HAL status
 692:Drivers/STM32F1xx_HAL_Driver/Src/stm32f1xx_hal_dma.c ****   */                          
 693:Drivers/STM32F1xx_HAL_Driver/Src/stm32f1xx_hal_dma.c **** HAL_StatusTypeDef HAL_DMA_RegisterCallback(DMA_HandleTypeDef *hdma, HAL_DMA_CallbackIDTypeDef Callb
 694:Drivers/STM32F1xx_HAL_Driver/Src/stm32f1xx_hal_dma.c **** {
 695:Drivers/STM32F1xx_HAL_Driver/Src/stm32f1xx_hal_dma.c ****   HAL_StatusTypeDef status = HAL_OK;
 696:Drivers/STM32F1xx_HAL_Driver/Src/stm32f1xx_hal_dma.c ****   
 697:Drivers/STM32F1xx_HAL_Driver/Src/stm32f1xx_hal_dma.c ****   /* Process locked */
 698:Drivers/STM32F1xx_HAL_Driver/Src/stm32f1xx_hal_dma.c ****   __HAL_LOCK(hdma);
 699:Drivers/STM32F1xx_HAL_Driver/Src/stm32f1xx_hal_dma.c ****   
 700:Drivers/STM32F1xx_HAL_Driver/Src/stm32f1xx_hal_dma.c ****   if(HAL_DMA_STATE_READY == hdma->State)
 701:Drivers/STM32F1xx_HAL_Driver/Src/stm32f1xx_hal_dma.c ****   {
 702:Drivers/STM32F1xx_HAL_Driver/Src/stm32f1xx_hal_dma.c ****     switch (CallbackID)
 703:Drivers/STM32F1xx_HAL_Driver/Src/stm32f1xx_hal_dma.c ****     {
 704:Drivers/STM32F1xx_HAL_Driver/Src/stm32f1xx_hal_dma.c ****     case  HAL_DMA_XFER_CPLT_CB_ID:
 705:Drivers/STM32F1xx_HAL_Driver/Src/stm32f1xx_hal_dma.c ****       hdma->XferCpltCallback = pCallback;
 706:Drivers/STM32F1xx_HAL_Driver/Src/stm32f1xx_hal_dma.c ****       break;
 707:Drivers/STM32F1xx_HAL_Driver/Src/stm32f1xx_hal_dma.c ****       
 708:Drivers/STM32F1xx_HAL_Driver/Src/stm32f1xx_hal_dma.c ****     case  HAL_DMA_XFER_HALFCPLT_CB_ID:
 709:Drivers/STM32F1xx_HAL_Driver/Src/stm32f1xx_hal_dma.c ****       hdma->XferHalfCpltCallback = pCallback;
 710:Drivers/STM32F1xx_HAL_Driver/Src/stm32f1xx_hal_dma.c ****       break;         
 711:Drivers/STM32F1xx_HAL_Driver/Src/stm32f1xx_hal_dma.c **** 
 712:Drivers/STM32F1xx_HAL_Driver/Src/stm32f1xx_hal_dma.c ****     case  HAL_DMA_XFER_ERROR_CB_ID:
 713:Drivers/STM32F1xx_HAL_Driver/Src/stm32f1xx_hal_dma.c ****       hdma->XferErrorCallback = pCallback;
 714:Drivers/STM32F1xx_HAL_Driver/Src/stm32f1xx_hal_dma.c ****       break;         
 715:Drivers/STM32F1xx_HAL_Driver/Src/stm32f1xx_hal_dma.c ****       
 716:Drivers/STM32F1xx_HAL_Driver/Src/stm32f1xx_hal_dma.c ****     case  HAL_DMA_XFER_ABORT_CB_ID:
ARM GAS  C:\Users\30592\AppData\Local\Temp\ccG1iZqh.s 			page 14


 717:Drivers/STM32F1xx_HAL_Driver/Src/stm32f1xx_hal_dma.c ****       hdma->XferAbortCallback = pCallback;
 718:Drivers/STM32F1xx_HAL_Driver/Src/stm32f1xx_hal_dma.c ****       break; 
 719:Drivers/STM32F1xx_HAL_Driver/Src/stm32f1xx_hal_dma.c ****       
 720:Drivers/STM32F1xx_HAL_Driver/Src/stm32f1xx_hal_dma.c ****     default:
 721:Drivers/STM32F1xx_HAL_Driver/Src/stm32f1xx_hal_dma.c ****       status = HAL_ERROR;
 722:Drivers/STM32F1xx_HAL_Driver/Src/stm32f1xx_hal_dma.c ****       break;                                                            
 723:Drivers/STM32F1xx_HAL_Driver/Src/stm32f1xx_hal_dma.c ****     }
 724:Drivers/STM32F1xx_HAL_Driver/Src/stm32f1xx_hal_dma.c ****   }
 725:Drivers/STM32F1xx_HAL_Driver/Src/stm32f1xx_hal_dma.c ****   else
 726:Drivers/STM32F1xx_HAL_Driver/Src/stm32f1xx_hal_dma.c ****   {
 727:Drivers/STM32F1xx_HAL_Driver/Src/stm32f1xx_hal_dma.c ****     status = HAL_ERROR;
 728:Drivers/STM32F1xx_HAL_Driver/Src/stm32f1xx_hal_dma.c ****   } 
 729:Drivers/STM32F1xx_HAL_Driver/Src/stm32f1xx_hal_dma.c ****   
 730:Drivers/STM32F1xx_HAL_Driver/Src/stm32f1xx_hal_dma.c ****   /* Release Lock */
 731:Drivers/STM32F1xx_HAL_Driver/Src/stm32f1xx_hal_dma.c ****   __HAL_UNLOCK(hdma);
 732:Drivers/STM32F1xx_HAL_Driver/Src/stm32f1xx_hal_dma.c ****   
 733:Drivers/STM32F1xx_HAL_Driver/Src/stm32f1xx_hal_dma.c ****   return status;
 734:Drivers/STM32F1xx_HAL_Driver/Src/stm32f1xx_hal_dma.c **** }
 735:Drivers/STM32F1xx_HAL_Driver/Src/stm32f1xx_hal_dma.c **** 
 736:Drivers/STM32F1xx_HAL_Driver/Src/stm32f1xx_hal_dma.c **** /**
 737:Drivers/STM32F1xx_HAL_Driver/Src/stm32f1xx_hal_dma.c ****   * @brief UnRegister callbacks
 738:Drivers/STM32F1xx_HAL_Driver/Src/stm32f1xx_hal_dma.c ****   * @param hdma: pointer to a DMA_HandleTypeDef structure that contains
 739:Drivers/STM32F1xx_HAL_Driver/Src/stm32f1xx_hal_dma.c ****   *              the configuration information for the specified DMA Channel.
 740:Drivers/STM32F1xx_HAL_Driver/Src/stm32f1xx_hal_dma.c ****   * @param CallbackID: User Callback identifer
 741:Drivers/STM32F1xx_HAL_Driver/Src/stm32f1xx_hal_dma.c ****   *                    a HAL_DMA_CallbackIDTypeDef ENUM as parameter.
 742:Drivers/STM32F1xx_HAL_Driver/Src/stm32f1xx_hal_dma.c ****   * @retval HAL status
 743:Drivers/STM32F1xx_HAL_Driver/Src/stm32f1xx_hal_dma.c ****   */              
 744:Drivers/STM32F1xx_HAL_Driver/Src/stm32f1xx_hal_dma.c **** HAL_StatusTypeDef HAL_DMA_UnRegisterCallback(DMA_HandleTypeDef *hdma, HAL_DMA_CallbackIDTypeDef Cal
 745:Drivers/STM32F1xx_HAL_Driver/Src/stm32f1xx_hal_dma.c **** {
 746:Drivers/STM32F1xx_HAL_Driver/Src/stm32f1xx_hal_dma.c ****   HAL_StatusTypeDef status = HAL_OK;
 747:Drivers/STM32F1xx_HAL_Driver/Src/stm32f1xx_hal_dma.c **** 
 748:Drivers/STM32F1xx_HAL_Driver/Src/stm32f1xx_hal_dma.c ****   /* Process locked */
 749:Drivers/STM32F1xx_HAL_Driver/Src/stm32f1xx_hal_dma.c ****   __HAL_LOCK(hdma);
 750:Drivers/STM32F1xx_HAL_Driver/Src/stm32f1xx_hal_dma.c ****   
 751:Drivers/STM32F1xx_HAL_Driver/Src/stm32f1xx_hal_dma.c ****   if(HAL_DMA_STATE_READY == hdma->State)
 752:Drivers/STM32F1xx_HAL_Driver/Src/stm32f1xx_hal_dma.c ****   {
 753:Drivers/STM32F1xx_HAL_Driver/Src/stm32f1xx_hal_dma.c ****     switch (CallbackID)
 754:Drivers/STM32F1xx_HAL_Driver/Src/stm32f1xx_hal_dma.c ****     {
 755:Drivers/STM32F1xx_HAL_Driver/Src/stm32f1xx_hal_dma.c ****     case  HAL_DMA_XFER_CPLT_CB_ID:
 756:Drivers/STM32F1xx_HAL_Driver/Src/stm32f1xx_hal_dma.c ****       hdma->XferCpltCallback = NULL;
 757:Drivers/STM32F1xx_HAL_Driver/Src/stm32f1xx_hal_dma.c ****       break;
 758:Drivers/STM32F1xx_HAL_Driver/Src/stm32f1xx_hal_dma.c **** 
 759:Drivers/STM32F1xx_HAL_Driver/Src/stm32f1xx_hal_dma.c ****     case  HAL_DMA_XFER_HALFCPLT_CB_ID:
 760:Drivers/STM32F1xx_HAL_Driver/Src/stm32f1xx_hal_dma.c ****       hdma->XferHalfCpltCallback = NULL;
 761:Drivers/STM32F1xx_HAL_Driver/Src/stm32f1xx_hal_dma.c ****       break;         
 762:Drivers/STM32F1xx_HAL_Driver/Src/stm32f1xx_hal_dma.c **** 
 763:Drivers/STM32F1xx_HAL_Driver/Src/stm32f1xx_hal_dma.c ****     case  HAL_DMA_XFER_ERROR_CB_ID:
 764:Drivers/STM32F1xx_HAL_Driver/Src/stm32f1xx_hal_dma.c ****       hdma->XferErrorCallback = NULL;
 765:Drivers/STM32F1xx_HAL_Driver/Src/stm32f1xx_hal_dma.c ****       break;         
 766:Drivers/STM32F1xx_HAL_Driver/Src/stm32f1xx_hal_dma.c **** 
 767:Drivers/STM32F1xx_HAL_Driver/Src/stm32f1xx_hal_dma.c ****     case  HAL_DMA_XFER_ABORT_CB_ID:
 768:Drivers/STM32F1xx_HAL_Driver/Src/stm32f1xx_hal_dma.c ****       hdma->XferAbortCallback = NULL;
 769:Drivers/STM32F1xx_HAL_Driver/Src/stm32f1xx_hal_dma.c ****       break; 
 770:Drivers/STM32F1xx_HAL_Driver/Src/stm32f1xx_hal_dma.c **** 
 771:Drivers/STM32F1xx_HAL_Driver/Src/stm32f1xx_hal_dma.c ****     case   HAL_DMA_XFER_ALL_CB_ID:
 772:Drivers/STM32F1xx_HAL_Driver/Src/stm32f1xx_hal_dma.c ****       hdma->XferCpltCallback = NULL;
 773:Drivers/STM32F1xx_HAL_Driver/Src/stm32f1xx_hal_dma.c ****       hdma->XferHalfCpltCallback = NULL;
ARM GAS  C:\Users\30592\AppData\Local\Temp\ccG1iZqh.s 			page 15


 774:Drivers/STM32F1xx_HAL_Driver/Src/stm32f1xx_hal_dma.c ****       hdma->XferErrorCallback = NULL;
 775:Drivers/STM32F1xx_HAL_Driver/Src/stm32f1xx_hal_dma.c ****       hdma->XferAbortCallback = NULL;
 776:Drivers/STM32F1xx_HAL_Driver/Src/stm32f1xx_hal_dma.c ****       break; 
 777:Drivers/STM32F1xx_HAL_Driver/Src/stm32f1xx_hal_dma.c **** 
 778:Drivers/STM32F1xx_HAL_Driver/Src/stm32f1xx_hal_dma.c ****     default:
 779:Drivers/STM32F1xx_HAL_Driver/Src/stm32f1xx_hal_dma.c ****       status = HAL_ERROR;
 780:Drivers/STM32F1xx_HAL_Driver/Src/stm32f1xx_hal_dma.c ****       break;
 781:Drivers/STM32F1xx_HAL_Driver/Src/stm32f1xx_hal_dma.c ****     }
 782:Drivers/STM32F1xx_HAL_Driver/Src/stm32f1xx_hal_dma.c ****   }
 783:Drivers/STM32F1xx_HAL_Driver/Src/stm32f1xx_hal_dma.c ****   else
 784:Drivers/STM32F1xx_HAL_Driver/Src/stm32f1xx_hal_dma.c ****   {
 785:Drivers/STM32F1xx_HAL_Driver/Src/stm32f1xx_hal_dma.c ****     status = HAL_ERROR;
 786:Drivers/STM32F1xx_HAL_Driver/Src/stm32f1xx_hal_dma.c ****   } 
 787:Drivers/STM32F1xx_HAL_Driver/Src/stm32f1xx_hal_dma.c ****   
 788:Drivers/STM32F1xx_HAL_Driver/Src/stm32f1xx_hal_dma.c ****   /* Release Lock */
 789:Drivers/STM32F1xx_HAL_Driver/Src/stm32f1xx_hal_dma.c ****   __HAL_UNLOCK(hdma);
 790:Drivers/STM32F1xx_HAL_Driver/Src/stm32f1xx_hal_dma.c ****   
 791:Drivers/STM32F1xx_HAL_Driver/Src/stm32f1xx_hal_dma.c ****   return status;
 792:Drivers/STM32F1xx_HAL_Driver/Src/stm32f1xx_hal_dma.c **** }
 793:Drivers/STM32F1xx_HAL_Driver/Src/stm32f1xx_hal_dma.c ****   
 794:Drivers/STM32F1xx_HAL_Driver/Src/stm32f1xx_hal_dma.c **** /**
 795:Drivers/STM32F1xx_HAL_Driver/Src/stm32f1xx_hal_dma.c ****   * @}
 796:Drivers/STM32F1xx_HAL_Driver/Src/stm32f1xx_hal_dma.c ****   */
 797:Drivers/STM32F1xx_HAL_Driver/Src/stm32f1xx_hal_dma.c **** 
 798:Drivers/STM32F1xx_HAL_Driver/Src/stm32f1xx_hal_dma.c **** /** @defgroup DMA_Exported_Functions_Group3 Peripheral State and Errors functions
 799:Drivers/STM32F1xx_HAL_Driver/Src/stm32f1xx_hal_dma.c ****   *  @brief    Peripheral State and Errors functions
 800:Drivers/STM32F1xx_HAL_Driver/Src/stm32f1xx_hal_dma.c ****   *
 801:Drivers/STM32F1xx_HAL_Driver/Src/stm32f1xx_hal_dma.c **** @verbatim
 802:Drivers/STM32F1xx_HAL_Driver/Src/stm32f1xx_hal_dma.c ****  ===============================================================================
 803:Drivers/STM32F1xx_HAL_Driver/Src/stm32f1xx_hal_dma.c ****             ##### Peripheral State and Errors functions #####
 804:Drivers/STM32F1xx_HAL_Driver/Src/stm32f1xx_hal_dma.c ****  ===============================================================================  
 805:Drivers/STM32F1xx_HAL_Driver/Src/stm32f1xx_hal_dma.c ****     [..]
 806:Drivers/STM32F1xx_HAL_Driver/Src/stm32f1xx_hal_dma.c ****     This subsection provides functions allowing to
 807:Drivers/STM32F1xx_HAL_Driver/Src/stm32f1xx_hal_dma.c ****       (+) Check the DMA state
 808:Drivers/STM32F1xx_HAL_Driver/Src/stm32f1xx_hal_dma.c ****       (+) Get error code
 809:Drivers/STM32F1xx_HAL_Driver/Src/stm32f1xx_hal_dma.c **** 
 810:Drivers/STM32F1xx_HAL_Driver/Src/stm32f1xx_hal_dma.c **** @endverbatim
 811:Drivers/STM32F1xx_HAL_Driver/Src/stm32f1xx_hal_dma.c ****   * @{
 812:Drivers/STM32F1xx_HAL_Driver/Src/stm32f1xx_hal_dma.c ****   */
 813:Drivers/STM32F1xx_HAL_Driver/Src/stm32f1xx_hal_dma.c **** 
 814:Drivers/STM32F1xx_HAL_Driver/Src/stm32f1xx_hal_dma.c **** /**
 815:Drivers/STM32F1xx_HAL_Driver/Src/stm32f1xx_hal_dma.c ****   * @brief  Return the DMA hande state.
 816:Drivers/STM32F1xx_HAL_Driver/Src/stm32f1xx_hal_dma.c ****   * @param  hdma: pointer to a DMA_HandleTypeDef structure that contains
 817:Drivers/STM32F1xx_HAL_Driver/Src/stm32f1xx_hal_dma.c ****   *               the configuration information for the specified DMA Channel.
 818:Drivers/STM32F1xx_HAL_Driver/Src/stm32f1xx_hal_dma.c ****   * @retval HAL state
 819:Drivers/STM32F1xx_HAL_Driver/Src/stm32f1xx_hal_dma.c ****   */
 820:Drivers/STM32F1xx_HAL_Driver/Src/stm32f1xx_hal_dma.c **** HAL_DMA_StateTypeDef HAL_DMA_GetState(DMA_HandleTypeDef *hdma)
 821:Drivers/STM32F1xx_HAL_Driver/Src/stm32f1xx_hal_dma.c **** {
 822:Drivers/STM32F1xx_HAL_Driver/Src/stm32f1xx_hal_dma.c ****   /* Return DMA handle state */
 823:Drivers/STM32F1xx_HAL_Driver/Src/stm32f1xx_hal_dma.c ****   return hdma->State;
 824:Drivers/STM32F1xx_HAL_Driver/Src/stm32f1xx_hal_dma.c **** }
 825:Drivers/STM32F1xx_HAL_Driver/Src/stm32f1xx_hal_dma.c **** 
 826:Drivers/STM32F1xx_HAL_Driver/Src/stm32f1xx_hal_dma.c **** /**
 827:Drivers/STM32F1xx_HAL_Driver/Src/stm32f1xx_hal_dma.c ****   * @brief  Return the DMA error code.
 828:Drivers/STM32F1xx_HAL_Driver/Src/stm32f1xx_hal_dma.c ****   * @param  hdma : pointer to a DMA_HandleTypeDef structure that contains
 829:Drivers/STM32F1xx_HAL_Driver/Src/stm32f1xx_hal_dma.c ****   *              the configuration information for the specified DMA Channel.
 830:Drivers/STM32F1xx_HAL_Driver/Src/stm32f1xx_hal_dma.c ****   * @retval DMA Error Code
ARM GAS  C:\Users\30592\AppData\Local\Temp\ccG1iZqh.s 			page 16


 831:Drivers/STM32F1xx_HAL_Driver/Src/stm32f1xx_hal_dma.c ****   */
 832:Drivers/STM32F1xx_HAL_Driver/Src/stm32f1xx_hal_dma.c **** uint32_t HAL_DMA_GetError(DMA_HandleTypeDef *hdma)
 833:Drivers/STM32F1xx_HAL_Driver/Src/stm32f1xx_hal_dma.c **** {
 834:Drivers/STM32F1xx_HAL_Driver/Src/stm32f1xx_hal_dma.c ****   return hdma->ErrorCode;
 835:Drivers/STM32F1xx_HAL_Driver/Src/stm32f1xx_hal_dma.c **** }
 836:Drivers/STM32F1xx_HAL_Driver/Src/stm32f1xx_hal_dma.c **** 
 837:Drivers/STM32F1xx_HAL_Driver/Src/stm32f1xx_hal_dma.c **** /**
 838:Drivers/STM32F1xx_HAL_Driver/Src/stm32f1xx_hal_dma.c ****   * @}
 839:Drivers/STM32F1xx_HAL_Driver/Src/stm32f1xx_hal_dma.c ****   */
 840:Drivers/STM32F1xx_HAL_Driver/Src/stm32f1xx_hal_dma.c **** 
 841:Drivers/STM32F1xx_HAL_Driver/Src/stm32f1xx_hal_dma.c **** /**
 842:Drivers/STM32F1xx_HAL_Driver/Src/stm32f1xx_hal_dma.c ****   * @}
 843:Drivers/STM32F1xx_HAL_Driver/Src/stm32f1xx_hal_dma.c ****   */
 844:Drivers/STM32F1xx_HAL_Driver/Src/stm32f1xx_hal_dma.c **** 
 845:Drivers/STM32F1xx_HAL_Driver/Src/stm32f1xx_hal_dma.c **** /** @addtogroup DMA_Private_Functions
 846:Drivers/STM32F1xx_HAL_Driver/Src/stm32f1xx_hal_dma.c ****   * @{
 847:Drivers/STM32F1xx_HAL_Driver/Src/stm32f1xx_hal_dma.c ****   */
 848:Drivers/STM32F1xx_HAL_Driver/Src/stm32f1xx_hal_dma.c **** 
 849:Drivers/STM32F1xx_HAL_Driver/Src/stm32f1xx_hal_dma.c **** /**
 850:Drivers/STM32F1xx_HAL_Driver/Src/stm32f1xx_hal_dma.c ****   * @brief  Sets the DMA Transfer parameter.
 851:Drivers/STM32F1xx_HAL_Driver/Src/stm32f1xx_hal_dma.c ****   * @param  hdma:       pointer to a DMA_HandleTypeDef structure that contains
 852:Drivers/STM32F1xx_HAL_Driver/Src/stm32f1xx_hal_dma.c ****   *                     the configuration information for the specified DMA Channel.
 853:Drivers/STM32F1xx_HAL_Driver/Src/stm32f1xx_hal_dma.c ****   * @param  SrcAddress: The source memory Buffer address
 854:Drivers/STM32F1xx_HAL_Driver/Src/stm32f1xx_hal_dma.c ****   * @param  DstAddress: The destination memory Buffer address
 855:Drivers/STM32F1xx_HAL_Driver/Src/stm32f1xx_hal_dma.c ****   * @param  DataLength: The length of data to be transferred from source to destination
 856:Drivers/STM32F1xx_HAL_Driver/Src/stm32f1xx_hal_dma.c ****   * @retval HAL status
 857:Drivers/STM32F1xx_HAL_Driver/Src/stm32f1xx_hal_dma.c ****   */
 858:Drivers/STM32F1xx_HAL_Driver/Src/stm32f1xx_hal_dma.c **** static void DMA_SetConfig(DMA_HandleTypeDef *hdma, uint32_t SrcAddress, uint32_t DstAddress, uint32
 859:Drivers/STM32F1xx_HAL_Driver/Src/stm32f1xx_hal_dma.c **** {
  27              		.loc 1 859 1 view -0
  28              		.cfi_startproc
  29              		@ args = 0, pretend = 0, frame = 0
  30              		@ frame_needed = 0, uses_anonymous_args = 0
  31              		@ link register save eliminated.
  32              		.loc 1 859 1 is_stmt 0 view .LVU1
  33 0000 30B4     		push	{r4, r5}
  34              	.LCFI0:
  35              		.cfi_def_cfa_offset 8
  36              		.cfi_offset 4, -8
  37              		.cfi_offset 5, -4
 860:Drivers/STM32F1xx_HAL_Driver/Src/stm32f1xx_hal_dma.c ****   /* Clear all flags */
 861:Drivers/STM32F1xx_HAL_Driver/Src/stm32f1xx_hal_dma.c ****   hdma->DmaBaseAddress->IFCR = (DMA_ISR_GIF1 << hdma->ChannelIndex);
  38              		.loc 1 861 3 is_stmt 1 view .LVU2
  39              		.loc 1 861 46 is_stmt 0 view .LVU3
  40 0002 0124     		movs	r4, #1
  41 0004 056C     		ldr	r5, [r0, #64]
  42 0006 AC40     		lsls	r4, r4, r5
  43              		.loc 1 861 30 view .LVU4
  44 0008 C56B     		ldr	r5, [r0, #60]
  45 000a 6C60     		str	r4, [r5, #4]
 862:Drivers/STM32F1xx_HAL_Driver/Src/stm32f1xx_hal_dma.c **** 
 863:Drivers/STM32F1xx_HAL_Driver/Src/stm32f1xx_hal_dma.c ****   /* Configure DMA Channel data length */
 864:Drivers/STM32F1xx_HAL_Driver/Src/stm32f1xx_hal_dma.c ****   hdma->Instance->CNDTR = DataLength;
  46              		.loc 1 864 3 is_stmt 1 view .LVU5
  47              		.loc 1 864 7 is_stmt 0 view .LVU6
  48 000c 0468     		ldr	r4, [r0]
  49              		.loc 1 864 25 view .LVU7
ARM GAS  C:\Users\30592\AppData\Local\Temp\ccG1iZqh.s 			page 17


  50 000e 6360     		str	r3, [r4, #4]
 865:Drivers/STM32F1xx_HAL_Driver/Src/stm32f1xx_hal_dma.c **** 
 866:Drivers/STM32F1xx_HAL_Driver/Src/stm32f1xx_hal_dma.c ****   /* Memory to Peripheral */
 867:Drivers/STM32F1xx_HAL_Driver/Src/stm32f1xx_hal_dma.c ****   if((hdma->Init.Direction) == DMA_MEMORY_TO_PERIPH)
  51              		.loc 1 867 3 is_stmt 1 view .LVU8
  52              		.loc 1 867 17 is_stmt 0 view .LVU9
  53 0010 4368     		ldr	r3, [r0, #4]
  54              	.LVL1:
  55              		.loc 1 867 5 view .LVU10
  56 0012 102B     		cmp	r3, #16
  57 0014 05D0     		beq	.L5
 868:Drivers/STM32F1xx_HAL_Driver/Src/stm32f1xx_hal_dma.c ****   {
 869:Drivers/STM32F1xx_HAL_Driver/Src/stm32f1xx_hal_dma.c ****     /* Configure DMA Channel destination address */
 870:Drivers/STM32F1xx_HAL_Driver/Src/stm32f1xx_hal_dma.c ****     hdma->Instance->CPAR = DstAddress;
 871:Drivers/STM32F1xx_HAL_Driver/Src/stm32f1xx_hal_dma.c **** 
 872:Drivers/STM32F1xx_HAL_Driver/Src/stm32f1xx_hal_dma.c ****     /* Configure DMA Channel source address */
 873:Drivers/STM32F1xx_HAL_Driver/Src/stm32f1xx_hal_dma.c ****     hdma->Instance->CMAR = SrcAddress;
 874:Drivers/STM32F1xx_HAL_Driver/Src/stm32f1xx_hal_dma.c ****   }
 875:Drivers/STM32F1xx_HAL_Driver/Src/stm32f1xx_hal_dma.c ****   /* Peripheral to Memory */
 876:Drivers/STM32F1xx_HAL_Driver/Src/stm32f1xx_hal_dma.c ****   else
 877:Drivers/STM32F1xx_HAL_Driver/Src/stm32f1xx_hal_dma.c ****   {
 878:Drivers/STM32F1xx_HAL_Driver/Src/stm32f1xx_hal_dma.c ****     /* Configure DMA Channel source address */
 879:Drivers/STM32F1xx_HAL_Driver/Src/stm32f1xx_hal_dma.c ****     hdma->Instance->CPAR = SrcAddress;
  58              		.loc 1 879 5 is_stmt 1 view .LVU11
  59              		.loc 1 879 9 is_stmt 0 view .LVU12
  60 0016 0368     		ldr	r3, [r0]
  61              		.loc 1 879 26 view .LVU13
  62 0018 9960     		str	r1, [r3, #8]
  63              	.LVL2:
 880:Drivers/STM32F1xx_HAL_Driver/Src/stm32f1xx_hal_dma.c **** 
 881:Drivers/STM32F1xx_HAL_Driver/Src/stm32f1xx_hal_dma.c ****     /* Configure DMA Channel destination address */
 882:Drivers/STM32F1xx_HAL_Driver/Src/stm32f1xx_hal_dma.c ****     hdma->Instance->CMAR = DstAddress;
  64              		.loc 1 882 5 is_stmt 1 view .LVU14
  65              		.loc 1 882 9 is_stmt 0 view .LVU15
  66 001a 0368     		ldr	r3, [r0]
  67              		.loc 1 882 26 view .LVU16
  68 001c DA60     		str	r2, [r3, #12]
  69              	.L1:
 883:Drivers/STM32F1xx_HAL_Driver/Src/stm32f1xx_hal_dma.c ****   }
 884:Drivers/STM32F1xx_HAL_Driver/Src/stm32f1xx_hal_dma.c **** }
  70              		.loc 1 884 1 view .LVU17
  71 001e 30BC     		pop	{r4, r5}
  72              	.LCFI1:
  73              		.cfi_remember_state
  74              		.cfi_restore 5
  75              		.cfi_restore 4
  76              		.cfi_def_cfa_offset 0
  77 0020 7047     		bx	lr
  78              	.LVL3:
  79              	.L5:
  80              	.LCFI2:
  81              		.cfi_restore_state
 870:Drivers/STM32F1xx_HAL_Driver/Src/stm32f1xx_hal_dma.c **** 
  82              		.loc 1 870 5 is_stmt 1 view .LVU18
 870:Drivers/STM32F1xx_HAL_Driver/Src/stm32f1xx_hal_dma.c **** 
  83              		.loc 1 870 9 is_stmt 0 view .LVU19
  84 0022 0368     		ldr	r3, [r0]
ARM GAS  C:\Users\30592\AppData\Local\Temp\ccG1iZqh.s 			page 18


 870:Drivers/STM32F1xx_HAL_Driver/Src/stm32f1xx_hal_dma.c **** 
  85              		.loc 1 870 26 view .LVU20
  86 0024 9A60     		str	r2, [r3, #8]
  87              	.LVL4:
 873:Drivers/STM32F1xx_HAL_Driver/Src/stm32f1xx_hal_dma.c ****   }
  88              		.loc 1 873 5 is_stmt 1 view .LVU21
 873:Drivers/STM32F1xx_HAL_Driver/Src/stm32f1xx_hal_dma.c ****   }
  89              		.loc 1 873 9 is_stmt 0 view .LVU22
  90 0026 0368     		ldr	r3, [r0]
 873:Drivers/STM32F1xx_HAL_Driver/Src/stm32f1xx_hal_dma.c ****   }
  91              		.loc 1 873 26 view .LVU23
  92 0028 D960     		str	r1, [r3, #12]
  93 002a F8E7     		b	.L1
  94              		.cfi_endproc
  95              	.LFE77:
  97              		.section	.text.HAL_DMA_Init,"ax",%progbits
  98              		.align	1
  99              		.global	HAL_DMA_Init
 100              		.syntax unified
 101              		.thumb
 102              		.thumb_func
 103              		.fpu softvfp
 105              	HAL_DMA_Init:
 106              	.LVL5:
 107              	.LFB65:
 144:Drivers/STM32F1xx_HAL_Driver/Src/stm32f1xx_hal_dma.c ****   uint32_t tmp = 0U;
 108              		.loc 1 144 1 is_stmt 1 view -0
 109              		.cfi_startproc
 110              		@ args = 0, pretend = 0, frame = 0
 111              		@ frame_needed = 0, uses_anonymous_args = 0
 112              		@ link register save eliminated.
 145:Drivers/STM32F1xx_HAL_Driver/Src/stm32f1xx_hal_dma.c **** 
 113              		.loc 1 145 3 view .LVU25
 148:Drivers/STM32F1xx_HAL_Driver/Src/stm32f1xx_hal_dma.c ****   {
 114              		.loc 1 148 3 view .LVU26
 148:Drivers/STM32F1xx_HAL_Driver/Src/stm32f1xx_hal_dma.c ****   {
 115              		.loc 1 148 5 is_stmt 0 view .LVU27
 116 0000 0028     		cmp	r0, #0
 117 0002 3AD0     		beq	.L10
 144:Drivers/STM32F1xx_HAL_Driver/Src/stm32f1xx_hal_dma.c ****   uint32_t tmp = 0U;
 118              		.loc 1 144 1 view .LVU28
 119 0004 10B4     		push	{r4}
 120              	.LCFI3:
 121              		.cfi_def_cfa_offset 4
 122              		.cfi_offset 4, -4
 123 0006 0246     		mov	r2, r0
 154:Drivers/STM32F1xx_HAL_Driver/Src/stm32f1xx_hal_dma.c ****   assert_param(IS_DMA_DIRECTION(hdma->Init.Direction));
 124              		.loc 1 154 3 is_stmt 1 view .LVU29
 155:Drivers/STM32F1xx_HAL_Driver/Src/stm32f1xx_hal_dma.c ****   assert_param(IS_DMA_PERIPHERAL_INC_STATE(hdma->Init.PeriphInc));
 125              		.loc 1 155 3 view .LVU30
 156:Drivers/STM32F1xx_HAL_Driver/Src/stm32f1xx_hal_dma.c ****   assert_param(IS_DMA_MEMORY_INC_STATE(hdma->Init.MemInc));
 126              		.loc 1 156 3 view .LVU31
 157:Drivers/STM32F1xx_HAL_Driver/Src/stm32f1xx_hal_dma.c ****   assert_param(IS_DMA_PERIPHERAL_DATA_SIZE(hdma->Init.PeriphDataAlignment));
 127              		.loc 1 157 3 view .LVU32
 158:Drivers/STM32F1xx_HAL_Driver/Src/stm32f1xx_hal_dma.c ****   assert_param(IS_DMA_MEMORY_DATA_SIZE(hdma->Init.MemDataAlignment));
 128              		.loc 1 158 3 view .LVU33
 159:Drivers/STM32F1xx_HAL_Driver/Src/stm32f1xx_hal_dma.c ****   assert_param(IS_DMA_MODE(hdma->Init.Mode));
ARM GAS  C:\Users\30592\AppData\Local\Temp\ccG1iZqh.s 			page 19


 129              		.loc 1 159 3 view .LVU34
 160:Drivers/STM32F1xx_HAL_Driver/Src/stm32f1xx_hal_dma.c ****   assert_param(IS_DMA_PRIORITY(hdma->Init.Priority));
 130              		.loc 1 160 3 view .LVU35
 161:Drivers/STM32F1xx_HAL_Driver/Src/stm32f1xx_hal_dma.c **** 
 131              		.loc 1 161 3 view .LVU36
 165:Drivers/STM32F1xx_HAL_Driver/Src/stm32f1xx_hal_dma.c ****   {
 132              		.loc 1 165 3 view .LVU37
 165:Drivers/STM32F1xx_HAL_Driver/Src/stm32f1xx_hal_dma.c ****   {
 133              		.loc 1 165 22 is_stmt 0 view .LVU38
 134 0008 0068     		ldr	r0, [r0]
 135              	.LVL6:
 165:Drivers/STM32F1xx_HAL_Driver/Src/stm32f1xx_hal_dma.c ****   {
 136              		.loc 1 165 6 view .LVU39
 137 000a 1D4B     		ldr	r3, .L15
 138 000c 9842     		cmp	r0, r3
 139 000e 29D8     		bhi	.L8
 168:Drivers/STM32F1xx_HAL_Driver/Src/stm32f1xx_hal_dma.c ****     hdma->DmaBaseAddress = DMA1;
 140              		.loc 1 168 5 is_stmt 1 view .LVU40
 168:Drivers/STM32F1xx_HAL_Driver/Src/stm32f1xx_hal_dma.c ****     hdma->DmaBaseAddress = DMA1;
 141              		.loc 1 168 53 is_stmt 0 view .LVU41
 142 0010 1C4B     		ldr	r3, .L15+4
 143 0012 0344     		add	r3, r3, r0
 168:Drivers/STM32F1xx_HAL_Driver/Src/stm32f1xx_hal_dma.c ****     hdma->DmaBaseAddress = DMA1;
 144              		.loc 1 168 80 view .LVU42
 145 0014 1C49     		ldr	r1, .L15+8
 146 0016 A1FB0313 		umull	r1, r3, r1, r3
 147 001a 1B09     		lsrs	r3, r3, #4
 168:Drivers/STM32F1xx_HAL_Driver/Src/stm32f1xx_hal_dma.c ****     hdma->DmaBaseAddress = DMA1;
 148              		.loc 1 168 135 view .LVU43
 149 001c 9B00     		lsls	r3, r3, #2
 168:Drivers/STM32F1xx_HAL_Driver/Src/stm32f1xx_hal_dma.c ****     hdma->DmaBaseAddress = DMA1;
 150              		.loc 1 168 24 view .LVU44
 151 001e 1364     		str	r3, [r2, #64]
 169:Drivers/STM32F1xx_HAL_Driver/Src/stm32f1xx_hal_dma.c ****   }
 152              		.loc 1 169 5 is_stmt 1 view .LVU45
 169:Drivers/STM32F1xx_HAL_Driver/Src/stm32f1xx_hal_dma.c ****   }
 153              		.loc 1 169 26 is_stmt 0 view .LVU46
 154 0020 1A4B     		ldr	r3, .L15+12
 155 0022 D363     		str	r3, [r2, #60]
 156              	.L9:
 184:Drivers/STM32F1xx_HAL_Driver/Src/stm32f1xx_hal_dma.c **** 
 157              		.loc 1 184 3 is_stmt 1 view .LVU47
 184:Drivers/STM32F1xx_HAL_Driver/Src/stm32f1xx_hal_dma.c **** 
 158              		.loc 1 184 15 is_stmt 0 view .LVU48
 159 0024 0223     		movs	r3, #2
 160 0026 82F82130 		strb	r3, [r2, #33]
 187:Drivers/STM32F1xx_HAL_Driver/Src/stm32f1xx_hal_dma.c **** 
 161              		.loc 1 187 3 is_stmt 1 view .LVU49
 187:Drivers/STM32F1xx_HAL_Driver/Src/stm32f1xx_hal_dma.c **** 
 162              		.loc 1 187 7 is_stmt 0 view .LVU50
 163 002a 0168     		ldr	r1, [r0]
 164              	.LVL7:
 190:Drivers/STM32F1xx_HAL_Driver/Src/stm32f1xx_hal_dma.c ****                       DMA_CCR_MINC  | DMA_CCR_PINC   | DMA_CCR_CIRC   | \
 165              		.loc 1 190 3 is_stmt 1 view .LVU51
 190:Drivers/STM32F1xx_HAL_Driver/Src/stm32f1xx_hal_dma.c ****                       DMA_CCR_MINC  | DMA_CCR_PINC   | DMA_CCR_CIRC   | \
 166              		.loc 1 190 7 is_stmt 0 view .LVU52
 167 002c 21F47F51 		bic	r1, r1, #16320
ARM GAS  C:\Users\30592\AppData\Local\Temp\ccG1iZqh.s 			page 20


 168              	.LVL8:
 190:Drivers/STM32F1xx_HAL_Driver/Src/stm32f1xx_hal_dma.c ****                       DMA_CCR_MINC  | DMA_CCR_PINC   | DMA_CCR_CIRC   | \
 169              		.loc 1 190 7 view .LVU53
 170 0030 21F03001 		bic	r1, r1, #48
 171              	.LVL9:
 195:Drivers/STM32F1xx_HAL_Driver/Src/stm32f1xx_hal_dma.c ****           hdma->Init.PeriphInc           | hdma->Init.MemInc           |
 172              		.loc 1 195 3 is_stmt 1 view .LVU54
 195:Drivers/STM32F1xx_HAL_Driver/Src/stm32f1xx_hal_dma.c ****           hdma->Init.PeriphInc           | hdma->Init.MemInc           |
 173              		.loc 1 195 21 is_stmt 0 view .LVU55
 174 0034 5368     		ldr	r3, [r2, #4]
 195:Drivers/STM32F1xx_HAL_Driver/Src/stm32f1xx_hal_dma.c ****           hdma->Init.PeriphInc           | hdma->Init.MemInc           |
 175              		.loc 1 195 39 view .LVU56
 176 0036 9468     		ldr	r4, [r2, #8]
 177 0038 2343     		orrs	r3, r3, r4
 196:Drivers/STM32F1xx_HAL_Driver/Src/stm32f1xx_hal_dma.c ****           hdma->Init.PeriphDataAlignment | hdma->Init.MemDataAlignment |
 178              		.loc 1 196 42 view .LVU57
 179 003a D468     		ldr	r4, [r2, #12]
 180 003c 2343     		orrs	r3, r3, r4
 196:Drivers/STM32F1xx_HAL_Driver/Src/stm32f1xx_hal_dma.c ****           hdma->Init.PeriphDataAlignment | hdma->Init.MemDataAlignment |
 181              		.loc 1 196 72 view .LVU58
 182 003e 1469     		ldr	r4, [r2, #16]
 183 0040 2343     		orrs	r3, r3, r4
 197:Drivers/STM32F1xx_HAL_Driver/Src/stm32f1xx_hal_dma.c ****           hdma->Init.Mode                | hdma->Init.Priority;
 184              		.loc 1 197 42 view .LVU59
 185 0042 5469     		ldr	r4, [r2, #20]
 186 0044 2343     		orrs	r3, r3, r4
 197:Drivers/STM32F1xx_HAL_Driver/Src/stm32f1xx_hal_dma.c ****           hdma->Init.Mode                | hdma->Init.Priority;
 187              		.loc 1 197 72 view .LVU60
 188 0046 9469     		ldr	r4, [r2, #24]
 189 0048 2343     		orrs	r3, r3, r4
 198:Drivers/STM32F1xx_HAL_Driver/Src/stm32f1xx_hal_dma.c **** 
 190              		.loc 1 198 42 view .LVU61
 191 004a D469     		ldr	r4, [r2, #28]
 192 004c 2343     		orrs	r3, r3, r4
 195:Drivers/STM32F1xx_HAL_Driver/Src/stm32f1xx_hal_dma.c ****           hdma->Init.PeriphInc           | hdma->Init.MemInc           |
 193              		.loc 1 195 7 view .LVU62
 194 004e 0B43     		orrs	r3, r3, r1
 195              	.LVL10:
 201:Drivers/STM32F1xx_HAL_Driver/Src/stm32f1xx_hal_dma.c **** 
 196              		.loc 1 201 3 is_stmt 1 view .LVU63
 201:Drivers/STM32F1xx_HAL_Driver/Src/stm32f1xx_hal_dma.c **** 
 197              		.loc 1 201 23 is_stmt 0 view .LVU64
 198 0050 0360     		str	r3, [r0]
 204:Drivers/STM32F1xx_HAL_Driver/Src/stm32f1xx_hal_dma.c **** 
 199              		.loc 1 204 3 is_stmt 1 view .LVU65
 204:Drivers/STM32F1xx_HAL_Driver/Src/stm32f1xx_hal_dma.c **** 
 200              		.loc 1 204 19 is_stmt 0 view .LVU66
 201 0052 0020     		movs	r0, #0
 202 0054 9063     		str	r0, [r2, #56]
 207:Drivers/STM32F1xx_HAL_Driver/Src/stm32f1xx_hal_dma.c ****   /* Allocate lock resource and initialize it */
 203              		.loc 1 207 3 is_stmt 1 view .LVU67
 207:Drivers/STM32F1xx_HAL_Driver/Src/stm32f1xx_hal_dma.c ****   /* Allocate lock resource and initialize it */
 204              		.loc 1 207 15 is_stmt 0 view .LVU68
 205 0056 0123     		movs	r3, #1
 206              	.LVL11:
 207:Drivers/STM32F1xx_HAL_Driver/Src/stm32f1xx_hal_dma.c ****   /* Allocate lock resource and initialize it */
 207              		.loc 1 207 15 view .LVU69
ARM GAS  C:\Users\30592\AppData\Local\Temp\ccG1iZqh.s 			page 21


 208 0058 82F82130 		strb	r3, [r2, #33]
 209:Drivers/STM32F1xx_HAL_Driver/Src/stm32f1xx_hal_dma.c **** 
 209              		.loc 1 209 3 is_stmt 1 view .LVU70
 209:Drivers/STM32F1xx_HAL_Driver/Src/stm32f1xx_hal_dma.c **** 
 210              		.loc 1 209 14 is_stmt 0 view .LVU71
 211 005c 82F82000 		strb	r0, [r2, #32]
 211:Drivers/STM32F1xx_HAL_Driver/Src/stm32f1xx_hal_dma.c **** }
 212              		.loc 1 211 3 is_stmt 1 view .LVU72
 212:Drivers/STM32F1xx_HAL_Driver/Src/stm32f1xx_hal_dma.c **** 
 213              		.loc 1 212 1 is_stmt 0 view .LVU73
 214 0060 10BC     		pop	{r4}
 215              	.LCFI4:
 216              		.cfi_remember_state
 217              		.cfi_restore 4
 218              		.cfi_def_cfa_offset 0
 219 0062 7047     		bx	lr
 220              	.LVL12:
 221              	.L8:
 222              	.LCFI5:
 223              		.cfi_restore_state
 174:Drivers/STM32F1xx_HAL_Driver/Src/stm32f1xx_hal_dma.c ****     hdma->DmaBaseAddress = DMA2;
 224              		.loc 1 174 5 is_stmt 1 view .LVU74
 174:Drivers/STM32F1xx_HAL_Driver/Src/stm32f1xx_hal_dma.c ****     hdma->DmaBaseAddress = DMA2;
 225              		.loc 1 174 53 is_stmt 0 view .LVU75
 226 0064 0A4B     		ldr	r3, .L15+16
 227 0066 0344     		add	r3, r3, r0
 174:Drivers/STM32F1xx_HAL_Driver/Src/stm32f1xx_hal_dma.c ****     hdma->DmaBaseAddress = DMA2;
 228              		.loc 1 174 80 view .LVU76
 229 0068 0749     		ldr	r1, .L15+8
 230 006a A1FB0313 		umull	r1, r3, r1, r3
 231 006e 1B09     		lsrs	r3, r3, #4
 174:Drivers/STM32F1xx_HAL_Driver/Src/stm32f1xx_hal_dma.c ****     hdma->DmaBaseAddress = DMA2;
 232              		.loc 1 174 135 view .LVU77
 233 0070 9B00     		lsls	r3, r3, #2
 174:Drivers/STM32F1xx_HAL_Driver/Src/stm32f1xx_hal_dma.c ****     hdma->DmaBaseAddress = DMA2;
 234              		.loc 1 174 24 view .LVU78
 235 0072 1364     		str	r3, [r2, #64]
 175:Drivers/STM32F1xx_HAL_Driver/Src/stm32f1xx_hal_dma.c ****   }
 236              		.loc 1 175 5 is_stmt 1 view .LVU79
 175:Drivers/STM32F1xx_HAL_Driver/Src/stm32f1xx_hal_dma.c ****   }
 237              		.loc 1 175 26 is_stmt 0 view .LVU80
 238 0074 074B     		ldr	r3, .L15+20
 239 0076 D363     		str	r3, [r2, #60]
 240 0078 D4E7     		b	.L9
 241              	.LVL13:
 242              	.L10:
 243              	.LCFI6:
 244              		.cfi_def_cfa_offset 0
 245              		.cfi_restore 4
 150:Drivers/STM32F1xx_HAL_Driver/Src/stm32f1xx_hal_dma.c ****   }
 246              		.loc 1 150 12 view .LVU81
 247 007a 0120     		movs	r0, #1
 248              	.LVL14:
 212:Drivers/STM32F1xx_HAL_Driver/Src/stm32f1xx_hal_dma.c **** 
 249              		.loc 1 212 1 view .LVU82
 250 007c 7047     		bx	lr
 251              	.L16:
ARM GAS  C:\Users\30592\AppData\Local\Temp\ccG1iZqh.s 			page 22


 252 007e 00BF     		.align	2
 253              	.L15:
 254 0080 07040240 		.word	1073873927
 255 0084 F8FFFDBF 		.word	-1073872904
 256 0088 CDCCCCCC 		.word	-858993459
 257 008c 00000240 		.word	1073872896
 258 0090 F8FBFDBF 		.word	-1073873928
 259 0094 00040240 		.word	1073873920
 260              		.cfi_endproc
 261              	.LFE65:
 263              		.section	.text.HAL_DMA_DeInit,"ax",%progbits
 264              		.align	1
 265              		.global	HAL_DMA_DeInit
 266              		.syntax unified
 267              		.thumb
 268              		.thumb_func
 269              		.fpu softvfp
 271              	HAL_DMA_DeInit:
 272              	.LVL15:
 273              	.LFB66:
 221:Drivers/STM32F1xx_HAL_Driver/Src/stm32f1xx_hal_dma.c ****   /* Check the DMA handle allocation */
 274              		.loc 1 221 1 is_stmt 1 view -0
 275              		.cfi_startproc
 276              		@ args = 0, pretend = 0, frame = 0
 277              		@ frame_needed = 0, uses_anonymous_args = 0
 278              		@ link register save eliminated.
 223:Drivers/STM32F1xx_HAL_Driver/Src/stm32f1xx_hal_dma.c ****   {
 279              		.loc 1 223 3 view .LVU84
 223:Drivers/STM32F1xx_HAL_Driver/Src/stm32f1xx_hal_dma.c ****   {
 280              		.loc 1 223 5 is_stmt 0 view .LVU85
 281 0000 0346     		mov	r3, r0
 282 0002 0028     		cmp	r0, #0
 283 0004 36D0     		beq	.L21
 229:Drivers/STM32F1xx_HAL_Driver/Src/stm32f1xx_hal_dma.c **** 
 284              		.loc 1 229 3 is_stmt 1 view .LVU86
 232:Drivers/STM32F1xx_HAL_Driver/Src/stm32f1xx_hal_dma.c **** 
 285              		.loc 1 232 3 view .LVU87
 286 0006 0168     		ldr	r1, [r0]
 287 0008 0A68     		ldr	r2, [r1]
 288 000a 22F00102 		bic	r2, r2, #1
 289 000e 0A60     		str	r2, [r1]
 235:Drivers/STM32F1xx_HAL_Driver/Src/stm32f1xx_hal_dma.c **** 
 290              		.loc 1 235 3 view .LVU88
 235:Drivers/STM32F1xx_HAL_Driver/Src/stm32f1xx_hal_dma.c **** 
 291              		.loc 1 235 7 is_stmt 0 view .LVU89
 292 0010 0168     		ldr	r1, [r0]
 235:Drivers/STM32F1xx_HAL_Driver/Src/stm32f1xx_hal_dma.c **** 
 293              		.loc 1 235 24 view .LVU90
 294 0012 0022     		movs	r2, #0
 295 0014 0A60     		str	r2, [r1]
 238:Drivers/STM32F1xx_HAL_Driver/Src/stm32f1xx_hal_dma.c **** 
 296              		.loc 1 238 3 is_stmt 1 view .LVU91
 238:Drivers/STM32F1xx_HAL_Driver/Src/stm32f1xx_hal_dma.c **** 
 297              		.loc 1 238 7 is_stmt 0 view .LVU92
 298 0016 0168     		ldr	r1, [r0]
 238:Drivers/STM32F1xx_HAL_Driver/Src/stm32f1xx_hal_dma.c **** 
 299              		.loc 1 238 25 view .LVU93
ARM GAS  C:\Users\30592\AppData\Local\Temp\ccG1iZqh.s 			page 23


 300 0018 4A60     		str	r2, [r1, #4]
 241:Drivers/STM32F1xx_HAL_Driver/Src/stm32f1xx_hal_dma.c **** 
 301              		.loc 1 241 3 is_stmt 1 view .LVU94
 241:Drivers/STM32F1xx_HAL_Driver/Src/stm32f1xx_hal_dma.c **** 
 302              		.loc 1 241 7 is_stmt 0 view .LVU95
 303 001a 0168     		ldr	r1, [r0]
 241:Drivers/STM32F1xx_HAL_Driver/Src/stm32f1xx_hal_dma.c **** 
 304              		.loc 1 241 25 view .LVU96
 305 001c 8A60     		str	r2, [r1, #8]
 244:Drivers/STM32F1xx_HAL_Driver/Src/stm32f1xx_hal_dma.c **** 
 306              		.loc 1 244 3 is_stmt 1 view .LVU97
 244:Drivers/STM32F1xx_HAL_Driver/Src/stm32f1xx_hal_dma.c **** 
 307              		.loc 1 244 7 is_stmt 0 view .LVU98
 308 001e 0168     		ldr	r1, [r0]
 244:Drivers/STM32F1xx_HAL_Driver/Src/stm32f1xx_hal_dma.c **** 
 309              		.loc 1 244 24 view .LVU99
 310 0020 CA60     		str	r2, [r1, #12]
 248:Drivers/STM32F1xx_HAL_Driver/Src/stm32f1xx_hal_dma.c ****   {
 311              		.loc 1 248 3 is_stmt 1 view .LVU100
 248:Drivers/STM32F1xx_HAL_Driver/Src/stm32f1xx_hal_dma.c ****   {
 312              		.loc 1 248 22 is_stmt 0 view .LVU101
 313 0022 0168     		ldr	r1, [r0]
 248:Drivers/STM32F1xx_HAL_Driver/Src/stm32f1xx_hal_dma.c ****   {
 314              		.loc 1 248 6 view .LVU102
 315 0024 144A     		ldr	r2, .L22
 316 0026 9142     		cmp	r1, r2
 317 0028 19D8     		bhi	.L19
 251:Drivers/STM32F1xx_HAL_Driver/Src/stm32f1xx_hal_dma.c ****     hdma->DmaBaseAddress = DMA1;
 318              		.loc 1 251 5 is_stmt 1 view .LVU103
 251:Drivers/STM32F1xx_HAL_Driver/Src/stm32f1xx_hal_dma.c ****     hdma->DmaBaseAddress = DMA1;
 319              		.loc 1 251 53 is_stmt 0 view .LVU104
 320 002a 144A     		ldr	r2, .L22+4
 321 002c 0A44     		add	r2, r2, r1
 251:Drivers/STM32F1xx_HAL_Driver/Src/stm32f1xx_hal_dma.c ****     hdma->DmaBaseAddress = DMA1;
 322              		.loc 1 251 80 view .LVU105
 323 002e 1449     		ldr	r1, .L22+8
 324 0030 A1FB0212 		umull	r1, r2, r1, r2
 325 0034 1209     		lsrs	r2, r2, #4
 251:Drivers/STM32F1xx_HAL_Driver/Src/stm32f1xx_hal_dma.c ****     hdma->DmaBaseAddress = DMA1;
 326              		.loc 1 251 135 view .LVU106
 327 0036 9200     		lsls	r2, r2, #2
 251:Drivers/STM32F1xx_HAL_Driver/Src/stm32f1xx_hal_dma.c ****     hdma->DmaBaseAddress = DMA1;
 328              		.loc 1 251 24 view .LVU107
 329 0038 0264     		str	r2, [r0, #64]
 252:Drivers/STM32F1xx_HAL_Driver/Src/stm32f1xx_hal_dma.c ****   }
 330              		.loc 1 252 5 is_stmt 1 view .LVU108
 252:Drivers/STM32F1xx_HAL_Driver/Src/stm32f1xx_hal_dma.c ****   }
 331              		.loc 1 252 26 is_stmt 0 view .LVU109
 332 003a 124A     		ldr	r2, .L22+12
 333 003c C263     		str	r2, [r0, #60]
 334              	.L20:
 267:Drivers/STM32F1xx_HAL_Driver/Src/stm32f1xx_hal_dma.c **** 
 335              		.loc 1 267 3 is_stmt 1 view .LVU110
 267:Drivers/STM32F1xx_HAL_Driver/Src/stm32f1xx_hal_dma.c **** 
 336              		.loc 1 267 54 is_stmt 0 view .LVU111
 337 003e 186C     		ldr	r0, [r3, #64]
 338              	.LVL16:
ARM GAS  C:\Users\30592\AppData\Local\Temp\ccG1iZqh.s 			page 24


 267:Drivers/STM32F1xx_HAL_Driver/Src/stm32f1xx_hal_dma.c **** 
 339              		.loc 1 267 7 view .LVU112
 340 0040 D96B     		ldr	r1, [r3, #60]
 267:Drivers/STM32F1xx_HAL_Driver/Src/stm32f1xx_hal_dma.c **** 
 341              		.loc 1 267 46 view .LVU113
 342 0042 0122     		movs	r2, #1
 343 0044 8240     		lsls	r2, r2, r0
 267:Drivers/STM32F1xx_HAL_Driver/Src/stm32f1xx_hal_dma.c **** 
 344              		.loc 1 267 30 view .LVU114
 345 0046 4A60     		str	r2, [r1, #4]
 270:Drivers/STM32F1xx_HAL_Driver/Src/stm32f1xx_hal_dma.c ****   hdma->XferHalfCpltCallback = NULL;
 346              		.loc 1 270 3 is_stmt 1 view .LVU115
 270:Drivers/STM32F1xx_HAL_Driver/Src/stm32f1xx_hal_dma.c ****   hdma->XferHalfCpltCallback = NULL;
 347              		.loc 1 270 26 is_stmt 0 view .LVU116
 348 0048 0020     		movs	r0, #0
 349 004a 9862     		str	r0, [r3, #40]
 271:Drivers/STM32F1xx_HAL_Driver/Src/stm32f1xx_hal_dma.c ****   hdma->XferErrorCallback = NULL;
 350              		.loc 1 271 3 is_stmt 1 view .LVU117
 271:Drivers/STM32F1xx_HAL_Driver/Src/stm32f1xx_hal_dma.c ****   hdma->XferErrorCallback = NULL;
 351              		.loc 1 271 30 is_stmt 0 view .LVU118
 352 004c D862     		str	r0, [r3, #44]
 272:Drivers/STM32F1xx_HAL_Driver/Src/stm32f1xx_hal_dma.c ****   hdma->XferAbortCallback = NULL;
 353              		.loc 1 272 3 is_stmt 1 view .LVU119
 272:Drivers/STM32F1xx_HAL_Driver/Src/stm32f1xx_hal_dma.c ****   hdma->XferAbortCallback = NULL;
 354              		.loc 1 272 27 is_stmt 0 view .LVU120
 355 004e 1863     		str	r0, [r3, #48]
 273:Drivers/STM32F1xx_HAL_Driver/Src/stm32f1xx_hal_dma.c **** 
 356              		.loc 1 273 3 is_stmt 1 view .LVU121
 273:Drivers/STM32F1xx_HAL_Driver/Src/stm32f1xx_hal_dma.c **** 
 357              		.loc 1 273 27 is_stmt 0 view .LVU122
 358 0050 5863     		str	r0, [r3, #52]
 276:Drivers/STM32F1xx_HAL_Driver/Src/stm32f1xx_hal_dma.c **** 
 359              		.loc 1 276 3 is_stmt 1 view .LVU123
 276:Drivers/STM32F1xx_HAL_Driver/Src/stm32f1xx_hal_dma.c **** 
 360              		.loc 1 276 19 is_stmt 0 view .LVU124
 361 0052 9863     		str	r0, [r3, #56]
 279:Drivers/STM32F1xx_HAL_Driver/Src/stm32f1xx_hal_dma.c **** 
 362              		.loc 1 279 3 is_stmt 1 view .LVU125
 279:Drivers/STM32F1xx_HAL_Driver/Src/stm32f1xx_hal_dma.c **** 
 363              		.loc 1 279 15 is_stmt 0 view .LVU126
 364 0054 83F82100 		strb	r0, [r3, #33]
 282:Drivers/STM32F1xx_HAL_Driver/Src/stm32f1xx_hal_dma.c **** 
 365              		.loc 1 282 3 is_stmt 1 view .LVU127
 282:Drivers/STM32F1xx_HAL_Driver/Src/stm32f1xx_hal_dma.c **** 
 366              		.loc 1 282 3 view .LVU128
 367 0058 83F82000 		strb	r0, [r3, #32]
 282:Drivers/STM32F1xx_HAL_Driver/Src/stm32f1xx_hal_dma.c **** 
 368              		.loc 1 282 3 view .LVU129
 284:Drivers/STM32F1xx_HAL_Driver/Src/stm32f1xx_hal_dma.c **** }
 369              		.loc 1 284 3 view .LVU130
 284:Drivers/STM32F1xx_HAL_Driver/Src/stm32f1xx_hal_dma.c **** }
 370              		.loc 1 284 10 is_stmt 0 view .LVU131
 371 005c 7047     		bx	lr
 372              	.LVL17:
 373              	.L19:
 257:Drivers/STM32F1xx_HAL_Driver/Src/stm32f1xx_hal_dma.c ****     hdma->DmaBaseAddress = DMA2;
 374              		.loc 1 257 5 is_stmt 1 view .LVU132
ARM GAS  C:\Users\30592\AppData\Local\Temp\ccG1iZqh.s 			page 25


 257:Drivers/STM32F1xx_HAL_Driver/Src/stm32f1xx_hal_dma.c ****     hdma->DmaBaseAddress = DMA2;
 375              		.loc 1 257 53 is_stmt 0 view .LVU133
 376 005e 0A4A     		ldr	r2, .L22+16
 377 0060 0A44     		add	r2, r2, r1
 257:Drivers/STM32F1xx_HAL_Driver/Src/stm32f1xx_hal_dma.c ****     hdma->DmaBaseAddress = DMA2;
 378              		.loc 1 257 80 view .LVU134
 379 0062 0749     		ldr	r1, .L22+8
 380 0064 A1FB0212 		umull	r1, r2, r1, r2
 381 0068 1209     		lsrs	r2, r2, #4
 257:Drivers/STM32F1xx_HAL_Driver/Src/stm32f1xx_hal_dma.c ****     hdma->DmaBaseAddress = DMA2;
 382              		.loc 1 257 135 view .LVU135
 383 006a 9200     		lsls	r2, r2, #2
 257:Drivers/STM32F1xx_HAL_Driver/Src/stm32f1xx_hal_dma.c ****     hdma->DmaBaseAddress = DMA2;
 384              		.loc 1 257 24 view .LVU136
 385 006c 0264     		str	r2, [r0, #64]
 258:Drivers/STM32F1xx_HAL_Driver/Src/stm32f1xx_hal_dma.c ****   }
 386              		.loc 1 258 5 is_stmt 1 view .LVU137
 258:Drivers/STM32F1xx_HAL_Driver/Src/stm32f1xx_hal_dma.c ****   }
 387              		.loc 1 258 26 is_stmt 0 view .LVU138
 388 006e 074A     		ldr	r2, .L22+20
 389 0070 C263     		str	r2, [r0, #60]
 390 0072 E4E7     		b	.L20
 391              	.L21:
 225:Drivers/STM32F1xx_HAL_Driver/Src/stm32f1xx_hal_dma.c ****   }
 392              		.loc 1 225 12 view .LVU139
 393 0074 0120     		movs	r0, #1
 394              	.LVL18:
 285:Drivers/STM32F1xx_HAL_Driver/Src/stm32f1xx_hal_dma.c **** 
 395              		.loc 1 285 1 view .LVU140
 396 0076 7047     		bx	lr
 397              	.L23:
 398              		.align	2
 399              	.L22:
 400 0078 07040240 		.word	1073873927
 401 007c F8FFFDBF 		.word	-1073872904
 402 0080 CDCCCCCC 		.word	-858993459
 403 0084 00000240 		.word	1073872896
 404 0088 F8FBFDBF 		.word	-1073873928
 405 008c 00040240 		.word	1073873920
 406              		.cfi_endproc
 407              	.LFE66:
 409              		.section	.text.HAL_DMA_Start,"ax",%progbits
 410              		.align	1
 411              		.global	HAL_DMA_Start
 412              		.syntax unified
 413              		.thumb
 414              		.thumb_func
 415              		.fpu softvfp
 417              	HAL_DMA_Start:
 418              	.LVL19:
 419              	.LFB67:
 320:Drivers/STM32F1xx_HAL_Driver/Src/stm32f1xx_hal_dma.c ****   HAL_StatusTypeDef status = HAL_OK;
 420              		.loc 1 320 1 is_stmt 1 view -0
 421              		.cfi_startproc
 422              		@ args = 0, pretend = 0, frame = 0
 423              		@ frame_needed = 0, uses_anonymous_args = 0
 320:Drivers/STM32F1xx_HAL_Driver/Src/stm32f1xx_hal_dma.c ****   HAL_StatusTypeDef status = HAL_OK;
ARM GAS  C:\Users\30592\AppData\Local\Temp\ccG1iZqh.s 			page 26


 424              		.loc 1 320 1 is_stmt 0 view .LVU142
 425 0000 70B5     		push	{r4, r5, r6, lr}
 426              	.LCFI7:
 427              		.cfi_def_cfa_offset 16
 428              		.cfi_offset 4, -16
 429              		.cfi_offset 5, -12
 430              		.cfi_offset 6, -8
 431              		.cfi_offset 14, -4
 432 0002 0446     		mov	r4, r0
 321:Drivers/STM32F1xx_HAL_Driver/Src/stm32f1xx_hal_dma.c **** 
 433              		.loc 1 321 3 is_stmt 1 view .LVU143
 434              	.LVL20:
 324:Drivers/STM32F1xx_HAL_Driver/Src/stm32f1xx_hal_dma.c **** 
 435              		.loc 1 324 3 view .LVU144
 327:Drivers/STM32F1xx_HAL_Driver/Src/stm32f1xx_hal_dma.c **** 
 436              		.loc 1 327 3 view .LVU145
 327:Drivers/STM32F1xx_HAL_Driver/Src/stm32f1xx_hal_dma.c **** 
 437              		.loc 1 327 3 view .LVU146
 438 0004 90F82000 		ldrb	r0, [r0, #32]	@ zero_extendqisi2
 439              	.LVL21:
 327:Drivers/STM32F1xx_HAL_Driver/Src/stm32f1xx_hal_dma.c **** 
 440              		.loc 1 327 3 is_stmt 0 view .LVU147
 441 0008 0128     		cmp	r0, #1
 442 000a 1FD0     		beq	.L27
 327:Drivers/STM32F1xx_HAL_Driver/Src/stm32f1xx_hal_dma.c **** 
 443              		.loc 1 327 3 is_stmt 1 discriminator 2 view .LVU148
 444 000c 0120     		movs	r0, #1
 445 000e 84F82000 		strb	r0, [r4, #32]
 327:Drivers/STM32F1xx_HAL_Driver/Src/stm32f1xx_hal_dma.c **** 
 446              		.loc 1 327 3 discriminator 2 view .LVU149
 329:Drivers/STM32F1xx_HAL_Driver/Src/stm32f1xx_hal_dma.c ****   {
 447              		.loc 1 329 3 discriminator 2 view .LVU150
 329:Drivers/STM32F1xx_HAL_Driver/Src/stm32f1xx_hal_dma.c ****   {
 448              		.loc 1 329 33 is_stmt 0 discriminator 2 view .LVU151
 449 0012 94F82100 		ldrb	r0, [r4, #33]	@ zero_extendqisi2
 329:Drivers/STM32F1xx_HAL_Driver/Src/stm32f1xx_hal_dma.c ****   {
 450              		.loc 1 329 5 discriminator 2 view .LVU152
 451 0016 0128     		cmp	r0, #1
 452 0018 04D0     		beq	.L29
 347:Drivers/STM32F1xx_HAL_Driver/Src/stm32f1xx_hal_dma.c ****    status = HAL_BUSY;
 453              		.loc 1 347 4 is_stmt 1 view .LVU153
 347:Drivers/STM32F1xx_HAL_Driver/Src/stm32f1xx_hal_dma.c ****    status = HAL_BUSY;
 454              		.loc 1 347 4 view .LVU154
 455 001a 0023     		movs	r3, #0
 456              	.LVL22:
 347:Drivers/STM32F1xx_HAL_Driver/Src/stm32f1xx_hal_dma.c ****    status = HAL_BUSY;
 457              		.loc 1 347 4 is_stmt 0 view .LVU155
 458 001c 84F82030 		strb	r3, [r4, #32]
 347:Drivers/STM32F1xx_HAL_Driver/Src/stm32f1xx_hal_dma.c ****    status = HAL_BUSY;
 459              		.loc 1 347 4 is_stmt 1 view .LVU156
 348:Drivers/STM32F1xx_HAL_Driver/Src/stm32f1xx_hal_dma.c ****   }  
 460              		.loc 1 348 4 view .LVU157
 461              	.LVL23:
 348:Drivers/STM32F1xx_HAL_Driver/Src/stm32f1xx_hal_dma.c ****   }  
 462              		.loc 1 348 11 is_stmt 0 view .LVU158
 463 0020 0220     		movs	r0, #2
 464              	.LVL24:
ARM GAS  C:\Users\30592\AppData\Local\Temp\ccG1iZqh.s 			page 27


 465              	.L25:
 351:Drivers/STM32F1xx_HAL_Driver/Src/stm32f1xx_hal_dma.c **** 
 466              		.loc 1 351 1 view .LVU159
 467 0022 70BD     		pop	{r4, r5, r6, pc}
 468              	.LVL25:
 469              	.L29:
 332:Drivers/STM32F1xx_HAL_Driver/Src/stm32f1xx_hal_dma.c ****     hdma->ErrorCode = HAL_DMA_ERROR_NONE;
 470              		.loc 1 332 5 is_stmt 1 view .LVU160
 332:Drivers/STM32F1xx_HAL_Driver/Src/stm32f1xx_hal_dma.c ****     hdma->ErrorCode = HAL_DMA_ERROR_NONE;
 471              		.loc 1 332 17 is_stmt 0 view .LVU161
 472 0024 0220     		movs	r0, #2
 473 0026 84F82100 		strb	r0, [r4, #33]
 333:Drivers/STM32F1xx_HAL_Driver/Src/stm32f1xx_hal_dma.c ****             
 474              		.loc 1 333 5 is_stmt 1 view .LVU162
 333:Drivers/STM32F1xx_HAL_Driver/Src/stm32f1xx_hal_dma.c ****             
 475              		.loc 1 333 21 is_stmt 0 view .LVU163
 476 002a 0025     		movs	r5, #0
 477 002c A563     		str	r5, [r4, #56]
 336:Drivers/STM32F1xx_HAL_Driver/Src/stm32f1xx_hal_dma.c ****     
 478              		.loc 1 336 5 is_stmt 1 view .LVU164
 479 002e 2668     		ldr	r6, [r4]
 480 0030 3068     		ldr	r0, [r6]
 481 0032 20F00100 		bic	r0, r0, #1
 482 0036 3060     		str	r0, [r6]
 339:Drivers/STM32F1xx_HAL_Driver/Src/stm32f1xx_hal_dma.c ****     
 483              		.loc 1 339 5 view .LVU165
 484 0038 2046     		mov	r0, r4
 485 003a FFF7FEFF 		bl	DMA_SetConfig
 486              	.LVL26:
 342:Drivers/STM32F1xx_HAL_Driver/Src/stm32f1xx_hal_dma.c ****   }
 487              		.loc 1 342 5 view .LVU166
 488 003e 2268     		ldr	r2, [r4]
 489 0040 1368     		ldr	r3, [r2]
 490 0042 43F00103 		orr	r3, r3, #1
 491 0046 1360     		str	r3, [r2]
 321:Drivers/STM32F1xx_HAL_Driver/Src/stm32f1xx_hal_dma.c **** 
 492              		.loc 1 321 21 is_stmt 0 view .LVU167
 493 0048 2846     		mov	r0, r5
 494 004a EAE7     		b	.L25
 495              	.LVL27:
 496              	.L27:
 327:Drivers/STM32F1xx_HAL_Driver/Src/stm32f1xx_hal_dma.c **** 
 497              		.loc 1 327 3 view .LVU168
 498 004c 0220     		movs	r0, #2
 499 004e E8E7     		b	.L25
 500              		.cfi_endproc
 501              	.LFE67:
 503              		.section	.text.HAL_DMA_Start_IT,"ax",%progbits
 504              		.align	1
 505              		.global	HAL_DMA_Start_IT
 506              		.syntax unified
 507              		.thumb
 508              		.thumb_func
 509              		.fpu softvfp
 511              	HAL_DMA_Start_IT:
 512              	.LVL28:
 513              	.LFB68:
ARM GAS  C:\Users\30592\AppData\Local\Temp\ccG1iZqh.s 			page 28


 363:Drivers/STM32F1xx_HAL_Driver/Src/stm32f1xx_hal_dma.c ****   HAL_StatusTypeDef status = HAL_OK;
 514              		.loc 1 363 1 is_stmt 1 view -0
 515              		.cfi_startproc
 516              		@ args = 0, pretend = 0, frame = 0
 517              		@ frame_needed = 0, uses_anonymous_args = 0
 363:Drivers/STM32F1xx_HAL_Driver/Src/stm32f1xx_hal_dma.c ****   HAL_StatusTypeDef status = HAL_OK;
 518              		.loc 1 363 1 is_stmt 0 view .LVU170
 519 0000 38B5     		push	{r3, r4, r5, lr}
 520              	.LCFI8:
 521              		.cfi_def_cfa_offset 16
 522              		.cfi_offset 3, -16
 523              		.cfi_offset 4, -12
 524              		.cfi_offset 5, -8
 525              		.cfi_offset 14, -4
 526 0002 0446     		mov	r4, r0
 364:Drivers/STM32F1xx_HAL_Driver/Src/stm32f1xx_hal_dma.c **** 
 527              		.loc 1 364 3 is_stmt 1 view .LVU171
 528              	.LVL29:
 367:Drivers/STM32F1xx_HAL_Driver/Src/stm32f1xx_hal_dma.c **** 
 529              		.loc 1 367 3 view .LVU172
 370:Drivers/STM32F1xx_HAL_Driver/Src/stm32f1xx_hal_dma.c ****   
 530              		.loc 1 370 3 view .LVU173
 370:Drivers/STM32F1xx_HAL_Driver/Src/stm32f1xx_hal_dma.c ****   
 531              		.loc 1 370 3 view .LVU174
 532 0004 90F82000 		ldrb	r0, [r0, #32]	@ zero_extendqisi2
 533              	.LVL30:
 370:Drivers/STM32F1xx_HAL_Driver/Src/stm32f1xx_hal_dma.c ****   
 534              		.loc 1 370 3 is_stmt 0 view .LVU175
 535 0008 0128     		cmp	r0, #1
 536 000a 31D0     		beq	.L35
 370:Drivers/STM32F1xx_HAL_Driver/Src/stm32f1xx_hal_dma.c ****   
 537              		.loc 1 370 3 is_stmt 1 discriminator 2 view .LVU176
 538 000c 0120     		movs	r0, #1
 539 000e 84F82000 		strb	r0, [r4, #32]
 370:Drivers/STM32F1xx_HAL_Driver/Src/stm32f1xx_hal_dma.c ****   
 540              		.loc 1 370 3 discriminator 2 view .LVU177
 372:Drivers/STM32F1xx_HAL_Driver/Src/stm32f1xx_hal_dma.c ****   {
 541              		.loc 1 372 3 discriminator 2 view .LVU178
 372:Drivers/STM32F1xx_HAL_Driver/Src/stm32f1xx_hal_dma.c ****   {
 542              		.loc 1 372 33 is_stmt 0 discriminator 2 view .LVU179
 543 0012 94F82100 		ldrb	r0, [r4, #33]	@ zero_extendqisi2
 372:Drivers/STM32F1xx_HAL_Driver/Src/stm32f1xx_hal_dma.c ****   {
 544              		.loc 1 372 5 discriminator 2 view .LVU180
 545 0016 0128     		cmp	r0, #1
 546 0018 04D0     		beq	.L37
 402:Drivers/STM32F1xx_HAL_Driver/Src/stm32f1xx_hal_dma.c **** 
 547              		.loc 1 402 5 is_stmt 1 view .LVU181
 402:Drivers/STM32F1xx_HAL_Driver/Src/stm32f1xx_hal_dma.c **** 
 548              		.loc 1 402 5 view .LVU182
 549 001a 0023     		movs	r3, #0
 550              	.LVL31:
 402:Drivers/STM32F1xx_HAL_Driver/Src/stm32f1xx_hal_dma.c **** 
 551              		.loc 1 402 5 is_stmt 0 view .LVU183
 552 001c 84F82030 		strb	r3, [r4, #32]
 402:Drivers/STM32F1xx_HAL_Driver/Src/stm32f1xx_hal_dma.c **** 
 553              		.loc 1 402 5 is_stmt 1 view .LVU184
 405:Drivers/STM32F1xx_HAL_Driver/Src/stm32f1xx_hal_dma.c ****   }    
ARM GAS  C:\Users\30592\AppData\Local\Temp\ccG1iZqh.s 			page 29


 554              		.loc 1 405 5 view .LVU185
 555              	.LVL32:
 405:Drivers/STM32F1xx_HAL_Driver/Src/stm32f1xx_hal_dma.c ****   }    
 556              		.loc 1 405 12 is_stmt 0 view .LVU186
 557 0020 0220     		movs	r0, #2
 558              	.LVL33:
 559              	.L31:
 408:Drivers/STM32F1xx_HAL_Driver/Src/stm32f1xx_hal_dma.c **** 
 560              		.loc 1 408 1 view .LVU187
 561 0022 38BD     		pop	{r3, r4, r5, pc}
 562              	.LVL34:
 563              	.L37:
 375:Drivers/STM32F1xx_HAL_Driver/Src/stm32f1xx_hal_dma.c ****     hdma->ErrorCode = HAL_DMA_ERROR_NONE;
 564              		.loc 1 375 5 is_stmt 1 view .LVU188
 375:Drivers/STM32F1xx_HAL_Driver/Src/stm32f1xx_hal_dma.c ****     hdma->ErrorCode = HAL_DMA_ERROR_NONE;
 565              		.loc 1 375 17 is_stmt 0 view .LVU189
 566 0024 0220     		movs	r0, #2
 567 0026 84F82100 		strb	r0, [r4, #33]
 376:Drivers/STM32F1xx_HAL_Driver/Src/stm32f1xx_hal_dma.c ****     
 568              		.loc 1 376 5 is_stmt 1 view .LVU190
 376:Drivers/STM32F1xx_HAL_Driver/Src/stm32f1xx_hal_dma.c ****     
 569              		.loc 1 376 21 is_stmt 0 view .LVU191
 570 002a 0020     		movs	r0, #0
 571 002c A063     		str	r0, [r4, #56]
 379:Drivers/STM32F1xx_HAL_Driver/Src/stm32f1xx_hal_dma.c ****     
 572              		.loc 1 379 5 is_stmt 1 view .LVU192
 573 002e 2568     		ldr	r5, [r4]
 574 0030 2868     		ldr	r0, [r5]
 575 0032 20F00100 		bic	r0, r0, #1
 576 0036 2860     		str	r0, [r5]
 382:Drivers/STM32F1xx_HAL_Driver/Src/stm32f1xx_hal_dma.c ****     
 577              		.loc 1 382 5 view .LVU193
 578 0038 2046     		mov	r0, r4
 579 003a FFF7FEFF 		bl	DMA_SetConfig
 580              	.LVL35:
 386:Drivers/STM32F1xx_HAL_Driver/Src/stm32f1xx_hal_dma.c ****     {
 581              		.loc 1 386 5 view .LVU194
 386:Drivers/STM32F1xx_HAL_Driver/Src/stm32f1xx_hal_dma.c ****     {
 582              		.loc 1 386 20 is_stmt 0 view .LVU195
 583 003e E36A     		ldr	r3, [r4, #44]
 386:Drivers/STM32F1xx_HAL_Driver/Src/stm32f1xx_hal_dma.c ****     {
 584              		.loc 1 386 7 view .LVU196
 585 0040 5BB1     		cbz	r3, .L33
 389:Drivers/STM32F1xx_HAL_Driver/Src/stm32f1xx_hal_dma.c ****     }
 586              		.loc 1 389 7 is_stmt 1 view .LVU197
 587 0042 2268     		ldr	r2, [r4]
 588 0044 1368     		ldr	r3, [r2]
 589 0046 43F00E03 		orr	r3, r3, #14
 590 004a 1360     		str	r3, [r2]
 591              	.L34:
 397:Drivers/STM32F1xx_HAL_Driver/Src/stm32f1xx_hal_dma.c ****   }
 592              		.loc 1 397 5 view .LVU198
 593 004c 2268     		ldr	r2, [r4]
 594 004e 1368     		ldr	r3, [r2]
 595 0050 43F00103 		orr	r3, r3, #1
 596 0054 1360     		str	r3, [r2]
 364:Drivers/STM32F1xx_HAL_Driver/Src/stm32f1xx_hal_dma.c **** 
ARM GAS  C:\Users\30592\AppData\Local\Temp\ccG1iZqh.s 			page 30


 597              		.loc 1 364 21 is_stmt 0 view .LVU199
 598 0056 0020     		movs	r0, #0
 599 0058 E3E7     		b	.L31
 600              	.L33:
 393:Drivers/STM32F1xx_HAL_Driver/Src/stm32f1xx_hal_dma.c ****       __HAL_DMA_ENABLE_IT(hdma, (DMA_IT_TC | DMA_IT_TE));
 601              		.loc 1 393 7 is_stmt 1 view .LVU200
 602 005a 2268     		ldr	r2, [r4]
 603 005c 1368     		ldr	r3, [r2]
 604 005e 23F00403 		bic	r3, r3, #4
 605 0062 1360     		str	r3, [r2]
 394:Drivers/STM32F1xx_HAL_Driver/Src/stm32f1xx_hal_dma.c ****     }
 606              		.loc 1 394 7 view .LVU201
 607 0064 2268     		ldr	r2, [r4]
 608 0066 1368     		ldr	r3, [r2]
 609 0068 43F00A03 		orr	r3, r3, #10
 610 006c 1360     		str	r3, [r2]
 611 006e EDE7     		b	.L34
 612              	.LVL36:
 613              	.L35:
 370:Drivers/STM32F1xx_HAL_Driver/Src/stm32f1xx_hal_dma.c ****   
 614              		.loc 1 370 3 is_stmt 0 view .LVU202
 615 0070 0220     		movs	r0, #2
 616 0072 D6E7     		b	.L31
 617              		.cfi_endproc
 618              	.LFE68:
 620              		.section	.text.HAL_DMA_Abort,"ax",%progbits
 621              		.align	1
 622              		.global	HAL_DMA_Abort
 623              		.syntax unified
 624              		.thumb
 625              		.thumb_func
 626              		.fpu softvfp
 628              	HAL_DMA_Abort:
 629              	.LVL37:
 630              	.LFB69:
 417:Drivers/STM32F1xx_HAL_Driver/Src/stm32f1xx_hal_dma.c ****   HAL_StatusTypeDef status = HAL_OK;
 631              		.loc 1 417 1 is_stmt 1 view -0
 632              		.cfi_startproc
 633              		@ args = 0, pretend = 0, frame = 0
 634              		@ frame_needed = 0, uses_anonymous_args = 0
 635              		@ link register save eliminated.
 418:Drivers/STM32F1xx_HAL_Driver/Src/stm32f1xx_hal_dma.c ****   
 636              		.loc 1 418 3 view .LVU204
 420:Drivers/STM32F1xx_HAL_Driver/Src/stm32f1xx_hal_dma.c ****   {
 637              		.loc 1 420 3 view .LVU205
 420:Drivers/STM32F1xx_HAL_Driver/Src/stm32f1xx_hal_dma.c ****   {
 638              		.loc 1 420 10 is_stmt 0 view .LVU206
 639 0000 90F82130 		ldrb	r3, [r0, #33]	@ zero_extendqisi2
 420:Drivers/STM32F1xx_HAL_Driver/Src/stm32f1xx_hal_dma.c ****   {
 640              		.loc 1 420 5 view .LVU207
 641 0004 022B     		cmp	r3, #2
 642 0006 06D0     		beq	.L39
 423:Drivers/STM32F1xx_HAL_Driver/Src/stm32f1xx_hal_dma.c ****     
 643              		.loc 1 423 5 is_stmt 1 view .LVU208
 423:Drivers/STM32F1xx_HAL_Driver/Src/stm32f1xx_hal_dma.c ****     
 644              		.loc 1 423 21 is_stmt 0 view .LVU209
 645 0008 0423     		movs	r3, #4
ARM GAS  C:\Users\30592\AppData\Local\Temp\ccG1iZqh.s 			page 31


 646 000a 8363     		str	r3, [r0, #56]
 426:Drivers/STM32F1xx_HAL_Driver/Src/stm32f1xx_hal_dma.c ****     
 647              		.loc 1 426 5 is_stmt 1 view .LVU210
 426:Drivers/STM32F1xx_HAL_Driver/Src/stm32f1xx_hal_dma.c ****     
 648              		.loc 1 426 5 view .LVU211
 649 000c 0023     		movs	r3, #0
 650 000e 80F82030 		strb	r3, [r0, #32]
 426:Drivers/STM32F1xx_HAL_Driver/Src/stm32f1xx_hal_dma.c ****     
 651              		.loc 1 426 5 view .LVU212
 428:Drivers/STM32F1xx_HAL_Driver/Src/stm32f1xx_hal_dma.c ****   }
 652              		.loc 1 428 5 view .LVU213
 428:Drivers/STM32F1xx_HAL_Driver/Src/stm32f1xx_hal_dma.c ****   }
 653              		.loc 1 428 12 is_stmt 0 view .LVU214
 654 0012 0120     		movs	r0, #1
 655              	.LVL38:
 428:Drivers/STM32F1xx_HAL_Driver/Src/stm32f1xx_hal_dma.c ****   }
 656              		.loc 1 428 12 view .LVU215
 657 0014 7047     		bx	lr
 658              	.LVL39:
 659              	.L39:
 434:Drivers/STM32F1xx_HAL_Driver/Src/stm32f1xx_hal_dma.c ****       
 660              		.loc 1 434 5 is_stmt 1 view .LVU216
 661 0016 0268     		ldr	r2, [r0]
 662 0018 1368     		ldr	r3, [r2]
 663 001a 23F00E03 		bic	r3, r3, #14
 664 001e 1360     		str	r3, [r2]
 437:Drivers/STM32F1xx_HAL_Driver/Src/stm32f1xx_hal_dma.c ****       
 665              		.loc 1 437 5 view .LVU217
 666 0020 0268     		ldr	r2, [r0]
 667 0022 1368     		ldr	r3, [r2]
 668 0024 23F00103 		bic	r3, r3, #1
 669 0028 1360     		str	r3, [r2]
 440:Drivers/STM32F1xx_HAL_Driver/Src/stm32f1xx_hal_dma.c ****   }
 670              		.loc 1 440 5 view .LVU218
 440:Drivers/STM32F1xx_HAL_Driver/Src/stm32f1xx_hal_dma.c ****   }
 671              		.loc 1 440 55 is_stmt 0 view .LVU219
 672 002a 036C     		ldr	r3, [r0, #64]
 440:Drivers/STM32F1xx_HAL_Driver/Src/stm32f1xx_hal_dma.c ****   }
 673              		.loc 1 440 9 view .LVU220
 674 002c C16B     		ldr	r1, [r0, #60]
 440:Drivers/STM32F1xx_HAL_Driver/Src/stm32f1xx_hal_dma.c ****   }
 675              		.loc 1 440 48 view .LVU221
 676 002e 0122     		movs	r2, #1
 677 0030 02FA03F3 		lsl	r3, r2, r3
 440:Drivers/STM32F1xx_HAL_Driver/Src/stm32f1xx_hal_dma.c ****   }
 678              		.loc 1 440 32 view .LVU222
 679 0034 4B60     		str	r3, [r1, #4]
 443:Drivers/STM32F1xx_HAL_Driver/Src/stm32f1xx_hal_dma.c **** 
 680              		.loc 1 443 3 is_stmt 1 view .LVU223
 443:Drivers/STM32F1xx_HAL_Driver/Src/stm32f1xx_hal_dma.c **** 
 681              		.loc 1 443 15 is_stmt 0 view .LVU224
 682 0036 80F82120 		strb	r2, [r0, #33]
 446:Drivers/STM32F1xx_HAL_Driver/Src/stm32f1xx_hal_dma.c ****   
 683              		.loc 1 446 3 is_stmt 1 view .LVU225
 446:Drivers/STM32F1xx_HAL_Driver/Src/stm32f1xx_hal_dma.c ****   
 684              		.loc 1 446 3 view .LVU226
 685 003a 0023     		movs	r3, #0
ARM GAS  C:\Users\30592\AppData\Local\Temp\ccG1iZqh.s 			page 32


 686 003c 80F82030 		strb	r3, [r0, #32]
 446:Drivers/STM32F1xx_HAL_Driver/Src/stm32f1xx_hal_dma.c ****   
 687              		.loc 1 446 3 view .LVU227
 448:Drivers/STM32F1xx_HAL_Driver/Src/stm32f1xx_hal_dma.c **** }
 688              		.loc 1 448 3 view .LVU228
 448:Drivers/STM32F1xx_HAL_Driver/Src/stm32f1xx_hal_dma.c **** }
 689              		.loc 1 448 10 is_stmt 0 view .LVU229
 690 0040 1846     		mov	r0, r3
 691              	.LVL40:
 449:Drivers/STM32F1xx_HAL_Driver/Src/stm32f1xx_hal_dma.c **** 
 692              		.loc 1 449 1 view .LVU230
 693 0042 7047     		bx	lr
 694              		.cfi_endproc
 695              	.LFE69:
 697              		.section	.text.HAL_DMA_Abort_IT,"ax",%progbits
 698              		.align	1
 699              		.global	HAL_DMA_Abort_IT
 700              		.syntax unified
 701              		.thumb
 702              		.thumb_func
 703              		.fpu softvfp
 705              	HAL_DMA_Abort_IT:
 706              	.LVL41:
 707              	.LFB70:
 458:Drivers/STM32F1xx_HAL_Driver/Src/stm32f1xx_hal_dma.c ****   HAL_StatusTypeDef status = HAL_OK;
 708              		.loc 1 458 1 is_stmt 1 view -0
 709              		.cfi_startproc
 710              		@ args = 0, pretend = 0, frame = 0
 711              		@ frame_needed = 0, uses_anonymous_args = 0
 458:Drivers/STM32F1xx_HAL_Driver/Src/stm32f1xx_hal_dma.c ****   HAL_StatusTypeDef status = HAL_OK;
 712              		.loc 1 458 1 is_stmt 0 view .LVU232
 713 0000 08B5     		push	{r3, lr}
 714              	.LCFI9:
 715              		.cfi_def_cfa_offset 8
 716              		.cfi_offset 3, -8
 717              		.cfi_offset 14, -4
 459:Drivers/STM32F1xx_HAL_Driver/Src/stm32f1xx_hal_dma.c ****   
 718              		.loc 1 459 3 is_stmt 1 view .LVU233
 719              	.LVL42:
 461:Drivers/STM32F1xx_HAL_Driver/Src/stm32f1xx_hal_dma.c ****   {
 720              		.loc 1 461 3 view .LVU234
 461:Drivers/STM32F1xx_HAL_Driver/Src/stm32f1xx_hal_dma.c ****   {
 721              		.loc 1 461 32 is_stmt 0 view .LVU235
 722 0002 90F82130 		ldrb	r3, [r0, #33]	@ zero_extendqisi2
 461:Drivers/STM32F1xx_HAL_Driver/Src/stm32f1xx_hal_dma.c ****   {
 723              		.loc 1 461 5 view .LVU236
 724 0006 022B     		cmp	r3, #2
 725 0008 03D0     		beq	.L42
 464:Drivers/STM32F1xx_HAL_Driver/Src/stm32f1xx_hal_dma.c ****         
 726              		.loc 1 464 5 is_stmt 1 view .LVU237
 464:Drivers/STM32F1xx_HAL_Driver/Src/stm32f1xx_hal_dma.c ****         
 727              		.loc 1 464 21 is_stmt 0 view .LVU238
 728 000a 0423     		movs	r3, #4
 729 000c 8363     		str	r3, [r0, #56]
 466:Drivers/STM32F1xx_HAL_Driver/Src/stm32f1xx_hal_dma.c ****   }
 730              		.loc 1 466 5 is_stmt 1 view .LVU239
 731              	.LVL43:
ARM GAS  C:\Users\30592\AppData\Local\Temp\ccG1iZqh.s 			page 33


 466:Drivers/STM32F1xx_HAL_Driver/Src/stm32f1xx_hal_dma.c ****   }
 732              		.loc 1 466 12 is_stmt 0 view .LVU240
 733 000e 0120     		movs	r0, #1
 734              	.LVL44:
 735              	.L43:
 491:Drivers/STM32F1xx_HAL_Driver/Src/stm32f1xx_hal_dma.c **** }
 736              		.loc 1 491 3 is_stmt 1 view .LVU241
 492:Drivers/STM32F1xx_HAL_Driver/Src/stm32f1xx_hal_dma.c **** 
 737              		.loc 1 492 1 is_stmt 0 view .LVU242
 738 0010 08BD     		pop	{r3, pc}
 739              	.LVL45:
 740              	.L42:
 471:Drivers/STM32F1xx_HAL_Driver/Src/stm32f1xx_hal_dma.c **** 
 741              		.loc 1 471 5 is_stmt 1 view .LVU243
 742 0012 0268     		ldr	r2, [r0]
 743 0014 1368     		ldr	r3, [r2]
 744 0016 23F00E03 		bic	r3, r3, #14
 745 001a 1360     		str	r3, [r2]
 474:Drivers/STM32F1xx_HAL_Driver/Src/stm32f1xx_hal_dma.c **** 
 746              		.loc 1 474 5 view .LVU244
 747 001c 0268     		ldr	r2, [r0]
 748 001e 1368     		ldr	r3, [r2]
 749 0020 23F00103 		bic	r3, r3, #1
 750 0024 1360     		str	r3, [r2]
 477:Drivers/STM32F1xx_HAL_Driver/Src/stm32f1xx_hal_dma.c **** 
 751              		.loc 1 477 5 view .LVU245
 752 0026 0368     		ldr	r3, [r0]
 753 0028 4B4A     		ldr	r2, .L74
 754 002a 9342     		cmp	r3, r2
 755 002c 4ED9     		bls	.L44
 477:Drivers/STM32F1xx_HAL_Driver/Src/stm32f1xx_hal_dma.c **** 
 756              		.loc 1 477 5 is_stmt 0 discriminator 1 view .LVU246
 757 002e 783A     		subs	r2, r2, #120
 758 0030 9342     		cmp	r3, r2
 759 0032 24D0     		beq	.L48
 477:Drivers/STM32F1xx_HAL_Driver/Src/stm32f1xx_hal_dma.c **** 
 760              		.loc 1 477 5 discriminator 3 view .LVU247
 761 0034 1432     		adds	r2, r2, #20
 762 0036 9342     		cmp	r3, r2
 763 0038 30D0     		beq	.L49
 477:Drivers/STM32F1xx_HAL_Driver/Src/stm32f1xx_hal_dma.c **** 
 764              		.loc 1 477 5 discriminator 5 view .LVU248
 765 003a 1432     		adds	r2, r2, #20
 766 003c 9342     		cmp	r3, r2
 767 003e 2FD0     		beq	.L50
 477:Drivers/STM32F1xx_HAL_Driver/Src/stm32f1xx_hal_dma.c **** 
 768              		.loc 1 477 5 discriminator 7 view .LVU249
 769 0040 1432     		adds	r2, r2, #20
 770 0042 9342     		cmp	r3, r2
 771 0044 2FD0     		beq	.L51
 477:Drivers/STM32F1xx_HAL_Driver/Src/stm32f1xx_hal_dma.c **** 
 772              		.loc 1 477 5 discriminator 9 view .LVU250
 773 0046 1432     		adds	r2, r2, #20
 774 0048 9342     		cmp	r3, r2
 775 004a 2FD0     		beq	.L52
 477:Drivers/STM32F1xx_HAL_Driver/Src/stm32f1xx_hal_dma.c **** 
 776              		.loc 1 477 5 discriminator 11 view .LVU251
ARM GAS  C:\Users\30592\AppData\Local\Temp\ccG1iZqh.s 			page 34


 777 004c 1432     		adds	r2, r2, #20
 778 004e 9342     		cmp	r3, r2
 779 0050 2FD0     		beq	.L53
 477:Drivers/STM32F1xx_HAL_Driver/Src/stm32f1xx_hal_dma.c **** 
 780              		.loc 1 477 5 discriminator 13 view .LVU252
 781 0052 1432     		adds	r2, r2, #20
 782 0054 9342     		cmp	r3, r2
 783 0056 2FD0     		beq	.L54
 477:Drivers/STM32F1xx_HAL_Driver/Src/stm32f1xx_hal_dma.c **** 
 784              		.loc 1 477 5 discriminator 15 view .LVU253
 785 0058 02F56272 		add	r2, r2, #904
 786 005c 9342     		cmp	r3, r2
 787 005e 2ED0     		beq	.L55
 477:Drivers/STM32F1xx_HAL_Driver/Src/stm32f1xx_hal_dma.c **** 
 788              		.loc 1 477 5 discriminator 17 view .LVU254
 789 0060 1432     		adds	r2, r2, #20
 790 0062 9342     		cmp	r3, r2
 791 0064 2DD0     		beq	.L56
 477:Drivers/STM32F1xx_HAL_Driver/Src/stm32f1xx_hal_dma.c **** 
 792              		.loc 1 477 5 discriminator 19 view .LVU255
 793 0066 1432     		adds	r2, r2, #20
 794 0068 9342     		cmp	r3, r2
 795 006a 2CD0     		beq	.L57
 477:Drivers/STM32F1xx_HAL_Driver/Src/stm32f1xx_hal_dma.c **** 
 796              		.loc 1 477 5 discriminator 21 view .LVU256
 797 006c 1432     		adds	r2, r2, #20
 798 006e 9342     		cmp	r3, r2
 799 0070 02D0     		beq	.L72
 477:Drivers/STM32F1xx_HAL_Driver/Src/stm32f1xx_hal_dma.c **** 
 800              		.loc 1 477 5 view .LVU257
 801 0072 4FF48032 		mov	r2, #65536
 802 0076 03E0     		b	.L45
 803              	.L72:
 804 0078 4FF48052 		mov	r2, #4096
 805 007c 00E0     		b	.L45
 806              	.L48:
 807 007e 0122     		movs	r2, #1
 808              	.L45:
 477:Drivers/STM32F1xx_HAL_Driver/Src/stm32f1xx_hal_dma.c **** 
 809              		.loc 1 477 5 discriminator 46 view .LVU258
 810 0080 364B     		ldr	r3, .L74+4
 811 0082 5A60     		str	r2, [r3, #4]
 812              	.L46:
 480:Drivers/STM32F1xx_HAL_Driver/Src/stm32f1xx_hal_dma.c **** 
 813              		.loc 1 480 5 is_stmt 1 view .LVU259
 480:Drivers/STM32F1xx_HAL_Driver/Src/stm32f1xx_hal_dma.c **** 
 814              		.loc 1 480 17 is_stmt 0 view .LVU260
 815 0084 0123     		movs	r3, #1
 816 0086 80F82130 		strb	r3, [r0, #33]
 483:Drivers/STM32F1xx_HAL_Driver/Src/stm32f1xx_hal_dma.c **** 
 817              		.loc 1 483 5 is_stmt 1 view .LVU261
 483:Drivers/STM32F1xx_HAL_Driver/Src/stm32f1xx_hal_dma.c **** 
 818              		.loc 1 483 5 view .LVU262
 819 008a 0023     		movs	r3, #0
 820 008c 80F82030 		strb	r3, [r0, #32]
 483:Drivers/STM32F1xx_HAL_Driver/Src/stm32f1xx_hal_dma.c **** 
 821              		.loc 1 483 5 view .LVU263
ARM GAS  C:\Users\30592\AppData\Local\Temp\ccG1iZqh.s 			page 35


 486:Drivers/STM32F1xx_HAL_Driver/Src/stm32f1xx_hal_dma.c ****     {
 822              		.loc 1 486 5 view .LVU264
 486:Drivers/STM32F1xx_HAL_Driver/Src/stm32f1xx_hal_dma.c ****     {
 823              		.loc 1 486 12 is_stmt 0 view .LVU265
 824 0090 436B     		ldr	r3, [r0, #52]
 486:Drivers/STM32F1xx_HAL_Driver/Src/stm32f1xx_hal_dma.c ****     {
 825              		.loc 1 486 7 view .LVU266
 826 0092 002B     		cmp	r3, #0
 827 0094 5ED0     		beq	.L70
 488:Drivers/STM32F1xx_HAL_Driver/Src/stm32f1xx_hal_dma.c ****     } 
 828              		.loc 1 488 7 is_stmt 1 view .LVU267
 829 0096 9847     		blx	r3
 830              	.LVL46:
 459:Drivers/STM32F1xx_HAL_Driver/Src/stm32f1xx_hal_dma.c ****   
 831              		.loc 1 459 21 is_stmt 0 view .LVU268
 832 0098 0020     		movs	r0, #0
 833 009a B9E7     		b	.L43
 834              	.LVL47:
 835              	.L49:
 477:Drivers/STM32F1xx_HAL_Driver/Src/stm32f1xx_hal_dma.c **** 
 836              		.loc 1 477 5 view .LVU269
 837 009c 1022     		movs	r2, #16
 838 009e EFE7     		b	.L45
 839              	.L50:
 840 00a0 4FF48072 		mov	r2, #256
 841 00a4 ECE7     		b	.L45
 842              	.L51:
 843 00a6 4FF48052 		mov	r2, #4096
 844 00aa E9E7     		b	.L45
 845              	.L52:
 846 00ac 4FF48032 		mov	r2, #65536
 847 00b0 E6E7     		b	.L45
 848              	.L53:
 849 00b2 4FF48012 		mov	r2, #1048576
 850 00b6 E3E7     		b	.L45
 851              	.L54:
 852 00b8 4FF08072 		mov	r2, #16777216
 853 00bc E0E7     		b	.L45
 854              	.L55:
 855 00be 0122     		movs	r2, #1
 856 00c0 DEE7     		b	.L45
 857              	.L56:
 858 00c2 1022     		movs	r2, #16
 859 00c4 DCE7     		b	.L45
 860              	.L57:
 861 00c6 4FF48072 		mov	r2, #256
 862 00ca D9E7     		b	.L45
 863              	.L44:
 477:Drivers/STM32F1xx_HAL_Driver/Src/stm32f1xx_hal_dma.c **** 
 864              		.loc 1 477 5 discriminator 2 view .LVU270
 865 00cc 244A     		ldr	r2, .L74+8
 866 00ce 9342     		cmp	r3, r2
 867 00d0 24D0     		beq	.L59
 477:Drivers/STM32F1xx_HAL_Driver/Src/stm32f1xx_hal_dma.c **** 
 868              		.loc 1 477 5 discriminator 47 view .LVU271
 869 00d2 1432     		adds	r2, r2, #20
 870 00d4 9342     		cmp	r3, r2
ARM GAS  C:\Users\30592\AppData\Local\Temp\ccG1iZqh.s 			page 36


 871 00d6 25D0     		beq	.L60
 477:Drivers/STM32F1xx_HAL_Driver/Src/stm32f1xx_hal_dma.c **** 
 872              		.loc 1 477 5 discriminator 49 view .LVU272
 873 00d8 1432     		adds	r2, r2, #20
 874 00da 9342     		cmp	r3, r2
 875 00dc 24D0     		beq	.L61
 477:Drivers/STM32F1xx_HAL_Driver/Src/stm32f1xx_hal_dma.c **** 
 876              		.loc 1 477 5 discriminator 51 view .LVU273
 877 00de 1432     		adds	r2, r2, #20
 878 00e0 9342     		cmp	r3, r2
 879 00e2 24D0     		beq	.L62
 477:Drivers/STM32F1xx_HAL_Driver/Src/stm32f1xx_hal_dma.c **** 
 880              		.loc 1 477 5 discriminator 53 view .LVU274
 881 00e4 1432     		adds	r2, r2, #20
 882 00e6 9342     		cmp	r3, r2
 883 00e8 24D0     		beq	.L63
 477:Drivers/STM32F1xx_HAL_Driver/Src/stm32f1xx_hal_dma.c **** 
 884              		.loc 1 477 5 discriminator 55 view .LVU275
 885 00ea 1432     		adds	r2, r2, #20
 886 00ec 9342     		cmp	r3, r2
 887 00ee 24D0     		beq	.L64
 477:Drivers/STM32F1xx_HAL_Driver/Src/stm32f1xx_hal_dma.c **** 
 888              		.loc 1 477 5 discriminator 57 view .LVU276
 889 00f0 1432     		adds	r2, r2, #20
 890 00f2 9342     		cmp	r3, r2
 891 00f4 24D0     		beq	.L65
 477:Drivers/STM32F1xx_HAL_Driver/Src/stm32f1xx_hal_dma.c **** 
 892              		.loc 1 477 5 discriminator 59 view .LVU277
 893 00f6 02F56272 		add	r2, r2, #904
 894 00fa 9342     		cmp	r3, r2
 895 00fc 23D0     		beq	.L66
 477:Drivers/STM32F1xx_HAL_Driver/Src/stm32f1xx_hal_dma.c **** 
 896              		.loc 1 477 5 discriminator 61 view .LVU278
 897 00fe 1432     		adds	r2, r2, #20
 898 0100 9342     		cmp	r3, r2
 899 0102 22D0     		beq	.L67
 477:Drivers/STM32F1xx_HAL_Driver/Src/stm32f1xx_hal_dma.c **** 
 900              		.loc 1 477 5 discriminator 63 view .LVU279
 901 0104 1432     		adds	r2, r2, #20
 902 0106 9342     		cmp	r3, r2
 903 0108 21D0     		beq	.L68
 477:Drivers/STM32F1xx_HAL_Driver/Src/stm32f1xx_hal_dma.c **** 
 904              		.loc 1 477 5 discriminator 65 view .LVU280
 905 010a 1432     		adds	r2, r2, #20
 906 010c 9342     		cmp	r3, r2
 907 010e 02D0     		beq	.L73
 477:Drivers/STM32F1xx_HAL_Driver/Src/stm32f1xx_hal_dma.c **** 
 908              		.loc 1 477 5 view .LVU281
 909 0110 4FF48032 		mov	r2, #65536
 910 0114 03E0     		b	.L47
 911              	.L73:
 912 0116 4FF48052 		mov	r2, #4096
 913 011a 00E0     		b	.L47
 914              	.L59:
 915 011c 0122     		movs	r2, #1
 916              	.L47:
 477:Drivers/STM32F1xx_HAL_Driver/Src/stm32f1xx_hal_dma.c **** 
ARM GAS  C:\Users\30592\AppData\Local\Temp\ccG1iZqh.s 			page 37


 917              		.loc 1 477 5 discriminator 90 view .LVU282
 918 011e 114B     		ldr	r3, .L74+12
 919 0120 5A60     		str	r2, [r3, #4]
 920 0122 AFE7     		b	.L46
 921              	.L60:
 477:Drivers/STM32F1xx_HAL_Driver/Src/stm32f1xx_hal_dma.c **** 
 922              		.loc 1 477 5 view .LVU283
 923 0124 1022     		movs	r2, #16
 924 0126 FAE7     		b	.L47
 925              	.L61:
 926 0128 4FF48072 		mov	r2, #256
 927 012c F7E7     		b	.L47
 928              	.L62:
 929 012e 4FF48052 		mov	r2, #4096
 930 0132 F4E7     		b	.L47
 931              	.L63:
 932 0134 4FF48032 		mov	r2, #65536
 933 0138 F1E7     		b	.L47
 934              	.L64:
 935 013a 4FF48012 		mov	r2, #1048576
 936 013e EEE7     		b	.L47
 937              	.L65:
 938 0140 4FF08072 		mov	r2, #16777216
 939 0144 EBE7     		b	.L47
 940              	.L66:
 941 0146 0122     		movs	r2, #1
 942 0148 E9E7     		b	.L47
 943              	.L67:
 944 014a 1022     		movs	r2, #16
 945 014c E7E7     		b	.L47
 946              	.L68:
 947 014e 4FF48072 		mov	r2, #256
 948 0152 E4E7     		b	.L47
 949              	.L70:
 459:Drivers/STM32F1xx_HAL_Driver/Src/stm32f1xx_hal_dma.c ****   
 950              		.loc 1 459 21 view .LVU284
 951 0154 0020     		movs	r0, #0
 952              	.LVL48:
 459:Drivers/STM32F1xx_HAL_Driver/Src/stm32f1xx_hal_dma.c ****   
 953              		.loc 1 459 21 view .LVU285
 954 0156 5BE7     		b	.L43
 955              	.L75:
 956              		.align	2
 957              	.L74:
 958 0158 80000240 		.word	1073873024
 959 015c 00040240 		.word	1073873920
 960 0160 08000240 		.word	1073872904
 961 0164 00000240 		.word	1073872896
 962              		.cfi_endproc
 963              	.LFE70:
 965              		.section	.text.HAL_DMA_PollForTransfer,"ax",%progbits
 966              		.align	1
 967              		.global	HAL_DMA_PollForTransfer
 968              		.syntax unified
 969              		.thumb
 970              		.thumb_func
 971              		.fpu softvfp
ARM GAS  C:\Users\30592\AppData\Local\Temp\ccG1iZqh.s 			page 38


 973              	HAL_DMA_PollForTransfer:
 974              	.LVL49:
 975              	.LFB71:
 503:Drivers/STM32F1xx_HAL_Driver/Src/stm32f1xx_hal_dma.c ****   uint32_t temp;
 976              		.loc 1 503 1 is_stmt 1 view -0
 977              		.cfi_startproc
 978              		@ args = 0, pretend = 0, frame = 0
 979              		@ frame_needed = 0, uses_anonymous_args = 0
 503:Drivers/STM32F1xx_HAL_Driver/Src/stm32f1xx_hal_dma.c ****   uint32_t temp;
 980              		.loc 1 503 1 is_stmt 0 view .LVU287
 981 0000 2DE9F843 		push	{r3, r4, r5, r6, r7, r8, r9, lr}
 982              	.LCFI10:
 983              		.cfi_def_cfa_offset 32
 984              		.cfi_offset 3, -32
 985              		.cfi_offset 4, -28
 986              		.cfi_offset 5, -24
 987              		.cfi_offset 6, -20
 988              		.cfi_offset 7, -16
 989              		.cfi_offset 8, -12
 990              		.cfi_offset 9, -8
 991              		.cfi_offset 14, -4
 992 0004 0446     		mov	r4, r0
 504:Drivers/STM32F1xx_HAL_Driver/Src/stm32f1xx_hal_dma.c ****   uint32_t tickstart = 0U;
 993              		.loc 1 504 3 is_stmt 1 view .LVU288
 505:Drivers/STM32F1xx_HAL_Driver/Src/stm32f1xx_hal_dma.c **** 
 994              		.loc 1 505 3 view .LVU289
 995              	.LVL50:
 507:Drivers/STM32F1xx_HAL_Driver/Src/stm32f1xx_hal_dma.c ****   {
 996              		.loc 1 507 3 view .LVU290
 507:Drivers/STM32F1xx_HAL_Driver/Src/stm32f1xx_hal_dma.c ****   {
 997              		.loc 1 507 32 is_stmt 0 view .LVU291
 998 0006 90F82130 		ldrb	r3, [r0, #33]	@ zero_extendqisi2
 507:Drivers/STM32F1xx_HAL_Driver/Src/stm32f1xx_hal_dma.c ****   {
 999              		.loc 1 507 5 view .LVU292
 1000 000a 022B     		cmp	r3, #2
 1001 000c 07D0     		beq	.L77
 510:Drivers/STM32F1xx_HAL_Driver/Src/stm32f1xx_hal_dma.c ****     __HAL_UNLOCK(hdma);
 1002              		.loc 1 510 5 is_stmt 1 view .LVU293
 510:Drivers/STM32F1xx_HAL_Driver/Src/stm32f1xx_hal_dma.c ****     __HAL_UNLOCK(hdma);
 1003              		.loc 1 510 21 is_stmt 0 view .LVU294
 1004 000e 0423     		movs	r3, #4
 1005 0010 8363     		str	r3, [r0, #56]
 511:Drivers/STM32F1xx_HAL_Driver/Src/stm32f1xx_hal_dma.c ****     return HAL_ERROR;
 1006              		.loc 1 511 5 is_stmt 1 view .LVU295
 511:Drivers/STM32F1xx_HAL_Driver/Src/stm32f1xx_hal_dma.c ****     return HAL_ERROR;
 1007              		.loc 1 511 5 view .LVU296
 1008 0012 0023     		movs	r3, #0
 1009 0014 80F82030 		strb	r3, [r0, #32]
 511:Drivers/STM32F1xx_HAL_Driver/Src/stm32f1xx_hal_dma.c ****     return HAL_ERROR;
 1010              		.loc 1 511 5 view .LVU297
 512:Drivers/STM32F1xx_HAL_Driver/Src/stm32f1xx_hal_dma.c ****   }
 1011              		.loc 1 512 5 view .LVU298
 512:Drivers/STM32F1xx_HAL_Driver/Src/stm32f1xx_hal_dma.c ****   }
 1012              		.loc 1 512 12 is_stmt 0 view .LVU299
 1013 0018 0120     		movs	r0, #1
 1014              	.LVL51:
 1015              	.L78:
ARM GAS  C:\Users\30592\AppData\Local\Temp\ccG1iZqh.s 			page 39


 595:Drivers/STM32F1xx_HAL_Driver/Src/stm32f1xx_hal_dma.c **** 
 1016              		.loc 1 595 1 view .LVU300
 1017 001a BDE8F883 		pop	{r3, r4, r5, r6, r7, r8, r9, pc}
 1018              	.LVL52:
 1019              	.L77:
 595:Drivers/STM32F1xx_HAL_Driver/Src/stm32f1xx_hal_dma.c **** 
 1020              		.loc 1 595 1 view .LVU301
 1021 001e 8846     		mov	r8, r1
 1022 0020 1646     		mov	r6, r2
 516:Drivers/STM32F1xx_HAL_Driver/Src/stm32f1xx_hal_dma.c ****   {
 1023              		.loc 1 516 3 is_stmt 1 view .LVU302
 516:Drivers/STM32F1xx_HAL_Driver/Src/stm32f1xx_hal_dma.c ****   {
 1024              		.loc 1 516 21 is_stmt 0 view .LVU303
 1025 0022 0368     		ldr	r3, [r0]
 516:Drivers/STM32F1xx_HAL_Driver/Src/stm32f1xx_hal_dma.c ****   {
 1026              		.loc 1 516 31 view .LVU304
 1027 0024 1A68     		ldr	r2, [r3]
 1028              	.LVL53:
 516:Drivers/STM32F1xx_HAL_Driver/Src/stm32f1xx_hal_dma.c ****   {
 1029              		.loc 1 516 6 view .LVU305
 1030 0026 12F0200F 		tst	r2, #32
 1031 002a 25D1     		bne	.L191
 523:Drivers/STM32F1xx_HAL_Driver/Src/stm32f1xx_hal_dma.c ****   {
 1032              		.loc 1 523 3 is_stmt 1 view .LVU306
 523:Drivers/STM32F1xx_HAL_Driver/Src/stm32f1xx_hal_dma.c ****   {
 1033              		.loc 1 523 5 is_stmt 0 view .LVU307
 1034 002c 61BB     		cbnz	r1, .L80
 526:Drivers/STM32F1xx_HAL_Driver/Src/stm32f1xx_hal_dma.c ****   }
 1035              		.loc 1 526 5 is_stmt 1 view .LVU308
 526:Drivers/STM32F1xx_HAL_Driver/Src/stm32f1xx_hal_dma.c ****   }
 1036              		.loc 1 526 12 is_stmt 0 view .LVU309
 1037 002e A14A     		ldr	r2, .L203
 1038 0030 9342     		cmp	r3, r2
 1039 0032 51D0     		beq	.L102
 526:Drivers/STM32F1xx_HAL_Driver/Src/stm32f1xx_hal_dma.c ****   }
 1040              		.loc 1 526 12 discriminator 1 view .LVU310
 1041 0034 1432     		adds	r2, r2, #20
 1042 0036 9342     		cmp	r3, r2
 1043 0038 53D0     		beq	.L103
 526:Drivers/STM32F1xx_HAL_Driver/Src/stm32f1xx_hal_dma.c ****   }
 1044              		.loc 1 526 12 discriminator 3 view .LVU311
 1045 003a 1432     		adds	r2, r2, #20
 1046 003c 9342     		cmp	r3, r2
 1047 003e 52D0     		beq	.L104
 526:Drivers/STM32F1xx_HAL_Driver/Src/stm32f1xx_hal_dma.c ****   }
 1048              		.loc 1 526 12 discriminator 5 view .LVU312
 1049 0040 1432     		adds	r2, r2, #20
 1050 0042 9342     		cmp	r3, r2
 1051 0044 52D0     		beq	.L105
 526:Drivers/STM32F1xx_HAL_Driver/Src/stm32f1xx_hal_dma.c ****   }
 1052              		.loc 1 526 12 discriminator 7 view .LVU313
 1053 0046 1432     		adds	r2, r2, #20
 1054 0048 9342     		cmp	r3, r2
 1055 004a 52D0     		beq	.L106
 526:Drivers/STM32F1xx_HAL_Driver/Src/stm32f1xx_hal_dma.c ****   }
 1056              		.loc 1 526 12 discriminator 9 view .LVU314
 1057 004c 1432     		adds	r2, r2, #20
ARM GAS  C:\Users\30592\AppData\Local\Temp\ccG1iZqh.s 			page 40


 1058 004e 9342     		cmp	r3, r2
 1059 0050 52D0     		beq	.L107
 526:Drivers/STM32F1xx_HAL_Driver/Src/stm32f1xx_hal_dma.c ****   }
 1060              		.loc 1 526 12 discriminator 11 view .LVU315
 1061 0052 1432     		adds	r2, r2, #20
 1062 0054 9342     		cmp	r3, r2
 1063 0056 52D0     		beq	.L108
 526:Drivers/STM32F1xx_HAL_Driver/Src/stm32f1xx_hal_dma.c ****   }
 1064              		.loc 1 526 12 discriminator 13 view .LVU316
 1065 0058 02F56272 		add	r2, r2, #904
 1066 005c 9342     		cmp	r3, r2
 1067 005e 51D0     		beq	.L109
 526:Drivers/STM32F1xx_HAL_Driver/Src/stm32f1xx_hal_dma.c ****   }
 1068              		.loc 1 526 12 discriminator 15 view .LVU317
 1069 0060 1432     		adds	r2, r2, #20
 1070 0062 9342     		cmp	r3, r2
 1071 0064 50D0     		beq	.L110
 526:Drivers/STM32F1xx_HAL_Driver/Src/stm32f1xx_hal_dma.c ****   }
 1072              		.loc 1 526 12 discriminator 17 view .LVU318
 1073 0066 1432     		adds	r2, r2, #20
 1074 0068 9342     		cmp	r3, r2
 1075 006a 4FD0     		beq	.L111
 526:Drivers/STM32F1xx_HAL_Driver/Src/stm32f1xx_hal_dma.c ****   }
 1076              		.loc 1 526 12 discriminator 19 view .LVU319
 1077 006c 1432     		adds	r2, r2, #20
 1078 006e 9342     		cmp	r3, r2
 1079 0070 07D0     		beq	.L192
 526:Drivers/STM32F1xx_HAL_Driver/Src/stm32f1xx_hal_dma.c ****   }
 1080              		.loc 1 526 12 view .LVU320
 1081 0072 4FF40037 		mov	r7, #131072
 1082 0076 30E0     		b	.L81
 1083              	.L191:
 518:Drivers/STM32F1xx_HAL_Driver/Src/stm32f1xx_hal_dma.c ****     return HAL_ERROR;
 1084              		.loc 1 518 5 is_stmt 1 view .LVU321
 518:Drivers/STM32F1xx_HAL_Driver/Src/stm32f1xx_hal_dma.c ****     return HAL_ERROR;
 1085              		.loc 1 518 21 is_stmt 0 view .LVU322
 1086 0078 4FF48073 		mov	r3, #256
 1087 007c 8363     		str	r3, [r0, #56]
 519:Drivers/STM32F1xx_HAL_Driver/Src/stm32f1xx_hal_dma.c ****   }
 1088              		.loc 1 519 5 is_stmt 1 view .LVU323
 519:Drivers/STM32F1xx_HAL_Driver/Src/stm32f1xx_hal_dma.c ****   }
 1089              		.loc 1 519 12 is_stmt 0 view .LVU324
 1090 007e 0120     		movs	r0, #1
 1091              	.LVL54:
 519:Drivers/STM32F1xx_HAL_Driver/Src/stm32f1xx_hal_dma.c ****   }
 1092              		.loc 1 519 12 view .LVU325
 1093 0080 CBE7     		b	.L78
 1094              	.LVL55:
 1095              	.L192:
 526:Drivers/STM32F1xx_HAL_Driver/Src/stm32f1xx_hal_dma.c ****   }
 1096              		.loc 1 526 12 view .LVU326
 1097 0082 4FF40057 		mov	r7, #8192
 1098 0086 28E0     		b	.L81
 1099              	.L80:
 531:Drivers/STM32F1xx_HAL_Driver/Src/stm32f1xx_hal_dma.c ****   }
 1100              		.loc 1 531 5 is_stmt 1 view .LVU327
 531:Drivers/STM32F1xx_HAL_Driver/Src/stm32f1xx_hal_dma.c ****   }
ARM GAS  C:\Users\30592\AppData\Local\Temp\ccG1iZqh.s 			page 41


 1101              		.loc 1 531 12 is_stmt 0 view .LVU328
 1102 0088 8A4A     		ldr	r2, .L203
 1103 008a 9342     		cmp	r3, r2
 1104 008c 41D0     		beq	.L113
 531:Drivers/STM32F1xx_HAL_Driver/Src/stm32f1xx_hal_dma.c ****   }
 1105              		.loc 1 531 12 discriminator 1 view .LVU329
 1106 008e 1432     		adds	r2, r2, #20
 1107 0090 9342     		cmp	r3, r2
 1108 0092 40D0     		beq	.L114
 531:Drivers/STM32F1xx_HAL_Driver/Src/stm32f1xx_hal_dma.c ****   }
 1109              		.loc 1 531 12 discriminator 3 view .LVU330
 1110 0094 1432     		adds	r2, r2, #20
 1111 0096 9342     		cmp	r3, r2
 1112 0098 3FD0     		beq	.L115
 531:Drivers/STM32F1xx_HAL_Driver/Src/stm32f1xx_hal_dma.c ****   }
 1113              		.loc 1 531 12 discriminator 5 view .LVU331
 1114 009a 1432     		adds	r2, r2, #20
 1115 009c 9342     		cmp	r3, r2
 1116 009e 3FD0     		beq	.L116
 531:Drivers/STM32F1xx_HAL_Driver/Src/stm32f1xx_hal_dma.c ****   }
 1117              		.loc 1 531 12 discriminator 7 view .LVU332
 1118 00a0 1432     		adds	r2, r2, #20
 1119 00a2 9342     		cmp	r3, r2
 1120 00a4 3FD0     		beq	.L117
 531:Drivers/STM32F1xx_HAL_Driver/Src/stm32f1xx_hal_dma.c ****   }
 1121              		.loc 1 531 12 discriminator 9 view .LVU333
 1122 00a6 1432     		adds	r2, r2, #20
 1123 00a8 9342     		cmp	r3, r2
 1124 00aa 3FD0     		beq	.L118
 531:Drivers/STM32F1xx_HAL_Driver/Src/stm32f1xx_hal_dma.c ****   }
 1125              		.loc 1 531 12 discriminator 11 view .LVU334
 1126 00ac 1432     		adds	r2, r2, #20
 1127 00ae 9342     		cmp	r3, r2
 1128 00b0 3FD0     		beq	.L119
 531:Drivers/STM32F1xx_HAL_Driver/Src/stm32f1xx_hal_dma.c ****   }
 1129              		.loc 1 531 12 discriminator 13 view .LVU335
 1130 00b2 02F56272 		add	r2, r2, #904
 1131 00b6 9342     		cmp	r3, r2
 1132 00b8 3ED0     		beq	.L120
 531:Drivers/STM32F1xx_HAL_Driver/Src/stm32f1xx_hal_dma.c ****   }
 1133              		.loc 1 531 12 discriminator 15 view .LVU336
 1134 00ba 1432     		adds	r2, r2, #20
 1135 00bc 9342     		cmp	r3, r2
 1136 00be 3DD0     		beq	.L121
 531:Drivers/STM32F1xx_HAL_Driver/Src/stm32f1xx_hal_dma.c ****   }
 1137              		.loc 1 531 12 discriminator 17 view .LVU337
 1138 00c0 1432     		adds	r2, r2, #20
 1139 00c2 9342     		cmp	r3, r2
 1140 00c4 3CD0     		beq	.L122
 531:Drivers/STM32F1xx_HAL_Driver/Src/stm32f1xx_hal_dma.c ****   }
 1141              		.loc 1 531 12 discriminator 19 view .LVU338
 1142 00c6 1432     		adds	r2, r2, #20
 1143 00c8 9342     		cmp	r3, r2
 1144 00ca 02D0     		beq	.L193
 531:Drivers/STM32F1xx_HAL_Driver/Src/stm32f1xx_hal_dma.c ****   }
 1145              		.loc 1 531 12 view .LVU339
 1146 00cc 4FF48027 		mov	r7, #262144
ARM GAS  C:\Users\30592\AppData\Local\Temp\ccG1iZqh.s 			page 42


 1147 00d0 03E0     		b	.L81
 1148              	.L193:
 1149 00d2 4FF48047 		mov	r7, #16384
 1150 00d6 00E0     		b	.L81
 1151              	.L102:
 526:Drivers/STM32F1xx_HAL_Driver/Src/stm32f1xx_hal_dma.c ****   }
 1152              		.loc 1 526 12 view .LVU340
 1153 00d8 0227     		movs	r7, #2
 1154              	.L81:
 1155              	.LVL56:
 535:Drivers/STM32F1xx_HAL_Driver/Src/stm32f1xx_hal_dma.c **** 
 1156              		.loc 1 535 3 is_stmt 1 view .LVU341
 535:Drivers/STM32F1xx_HAL_Driver/Src/stm32f1xx_hal_dma.c **** 
 1157              		.loc 1 535 15 is_stmt 0 view .LVU342
 1158 00da FFF7FEFF 		bl	HAL_GetTick
 1159              	.LVL57:
 535:Drivers/STM32F1xx_HAL_Driver/Src/stm32f1xx_hal_dma.c **** 
 1160              		.loc 1 535 15 view .LVU343
 1161 00de 8146     		mov	r9, r0
 1162              	.LVL58:
 537:Drivers/STM32F1xx_HAL_Driver/Src/stm32f1xx_hal_dma.c ****   {
 1163              		.loc 1 537 3 is_stmt 1 view .LVU344
 537:Drivers/STM32F1xx_HAL_Driver/Src/stm32f1xx_hal_dma.c ****   {
 1164              		.loc 1 537 8 is_stmt 0 view .LVU345
 1165 00e0 40E0     		b	.L88
 1166              	.LVL59:
 1167              	.L103:
 526:Drivers/STM32F1xx_HAL_Driver/Src/stm32f1xx_hal_dma.c ****   }
 1168              		.loc 1 526 12 view .LVU346
 1169 00e2 2027     		movs	r7, #32
 1170 00e4 F9E7     		b	.L81
 1171              	.L104:
 1172 00e6 4FF40077 		mov	r7, #512
 1173 00ea F6E7     		b	.L81
 1174              	.L105:
 1175 00ec 4FF40057 		mov	r7, #8192
 1176 00f0 F3E7     		b	.L81
 1177              	.L106:
 1178 00f2 4FF40037 		mov	r7, #131072
 1179 00f6 F0E7     		b	.L81
 1180              	.L107:
 1181 00f8 4FF40017 		mov	r7, #2097152
 1182 00fc EDE7     		b	.L81
 1183              	.L108:
 1184 00fe 4FF00077 		mov	r7, #33554432
 1185 0102 EAE7     		b	.L81
 1186              	.L109:
 1187 0104 0227     		movs	r7, #2
 1188 0106 E8E7     		b	.L81
 1189              	.L110:
 1190 0108 2027     		movs	r7, #32
 1191 010a E6E7     		b	.L81
 1192              	.L111:
 1193 010c 4FF40077 		mov	r7, #512
 1194 0110 E3E7     		b	.L81
 1195              	.L113:
 531:Drivers/STM32F1xx_HAL_Driver/Src/stm32f1xx_hal_dma.c ****   }
ARM GAS  C:\Users\30592\AppData\Local\Temp\ccG1iZqh.s 			page 43


 1196              		.loc 1 531 12 view .LVU347
 1197 0112 0427     		movs	r7, #4
 1198 0114 E1E7     		b	.L81
 1199              	.L114:
 1200 0116 4027     		movs	r7, #64
 1201 0118 DFE7     		b	.L81
 1202              	.L115:
 1203 011a 4FF48067 		mov	r7, #1024
 1204 011e DCE7     		b	.L81
 1205              	.L116:
 1206 0120 4FF48047 		mov	r7, #16384
 1207 0124 D9E7     		b	.L81
 1208              	.L117:
 1209 0126 4FF48027 		mov	r7, #262144
 1210 012a D6E7     		b	.L81
 1211              	.L118:
 1212 012c 4FF48007 		mov	r7, #4194304
 1213 0130 D3E7     		b	.L81
 1214              	.L119:
 1215 0132 4FF08067 		mov	r7, #67108864
 1216 0136 D0E7     		b	.L81
 1217              	.L120:
 1218 0138 0427     		movs	r7, #4
 1219 013a CEE7     		b	.L81
 1220              	.L121:
 1221 013c 4027     		movs	r7, #64
 1222 013e CCE7     		b	.L81
 1223              	.L122:
 1224 0140 4FF48067 		mov	r7, #1024
 1225 0144 C9E7     		b	.L81
 1226              	.LVL60:
 1227              	.L197:
 539:Drivers/STM32F1xx_HAL_Driver/Src/stm32f1xx_hal_dma.c ****     {
 1228              		.loc 1 539 9 view .LVU348
 1229 0146 4FF40043 		mov	r3, #32768
 1230 014a 00E0     		b	.L84
 1231              	.L124:
 1232 014c 0823     		movs	r3, #8
 1233              	.L84:
 539:Drivers/STM32F1xx_HAL_Driver/Src/stm32f1xx_hal_dma.c ****     {
 1234              		.loc 1 539 69 discriminator 46 view .LVU349
 1235 014e 1A42     		tst	r2, r3
 1236 0150 14BF     		ite	ne
 1237 0152 0123     		movne	r3, #1
 1238 0154 0023     		moveq	r3, #0
 1239              	.L85:
 539:Drivers/STM32F1xx_HAL_Driver/Src/stm32f1xx_hal_dma.c ****     {
 1240              		.loc 1 539 7 discriminator 92 view .LVU350
 1241 0156 002B     		cmp	r3, #0
 1242 0158 40F09D80 		bne	.L194
 558:Drivers/STM32F1xx_HAL_Driver/Src/stm32f1xx_hal_dma.c ****     {
 1243              		.loc 1 558 5 is_stmt 1 view .LVU351
 558:Drivers/STM32F1xx_HAL_Driver/Src/stm32f1xx_hal_dma.c ****     {
 1244              		.loc 1 558 7 is_stmt 0 view .LVU352
 1245 015c B6F1FF3F 		cmp	r6, #-1
 1246 0160 40F0B080 		bne	.L195
 1247              	.L88:
ARM GAS  C:\Users\30592\AppData\Local\Temp\ccG1iZqh.s 			page 44


 537:Drivers/STM32F1xx_HAL_Driver/Src/stm32f1xx_hal_dma.c ****   {
 1248              		.loc 1 537 8 is_stmt 1 view .LVU353
 537:Drivers/STM32F1xx_HAL_Driver/Src/stm32f1xx_hal_dma.c ****   {
 1249              		.loc 1 537 9 is_stmt 0 view .LVU354
 1250 0164 2368     		ldr	r3, [r4]
 537:Drivers/STM32F1xx_HAL_Driver/Src/stm32f1xx_hal_dma.c ****   {
 1251              		.loc 1 537 40 view .LVU355
 1252 0166 544D     		ldr	r5, .L203+4
 1253 0168 AB42     		cmp	r3, r5
 1254 016a 40F2BE80 		bls	.L90
 537:Drivers/STM32F1xx_HAL_Driver/Src/stm32f1xx_hal_dma.c ****   {
 1255              		.loc 1 537 9 discriminator 1 view .LVU356
 1256 016e 534A     		ldr	r2, .L203+8
 1257 0170 1268     		ldr	r2, [r2]
 537:Drivers/STM32F1xx_HAL_Driver/Src/stm32f1xx_hal_dma.c ****   {
 1258              		.loc 1 537 40 discriminator 1 view .LVU357
 1259 0172 3A42     		tst	r2, r7
 1260 0174 0CBF     		ite	eq
 1261 0176 0125     		moveq	r5, #1
 1262 0178 0025     		movne	r5, #0
 1263              	.L91:
 537:Drivers/STM32F1xx_HAL_Driver/Src/stm32f1xx_hal_dma.c ****   {
 1264              		.loc 1 537 8 discriminator 4 view .LVU358
 1265 017a 002D     		cmp	r5, #0
 1266 017c 00F0BC80 		beq	.L196
 539:Drivers/STM32F1xx_HAL_Driver/Src/stm32f1xx_hal_dma.c ****     {
 1267              		.loc 1 539 5 is_stmt 1 view .LVU359
 539:Drivers/STM32F1xx_HAL_Driver/Src/stm32f1xx_hal_dma.c ****     {
 1268              		.loc 1 539 69 is_stmt 0 view .LVU360
 1269 0180 4D4A     		ldr	r2, .L203+4
 1270 0182 9342     		cmp	r3, r2
 1271 0184 3FD9     		bls	.L83
 539:Drivers/STM32F1xx_HAL_Driver/Src/stm32f1xx_hal_dma.c ****     {
 1272              		.loc 1 539 9 discriminator 1 view .LVU361
 1273 0186 02F56072 		add	r2, r2, #896
 1274 018a 1268     		ldr	r2, [r2]
 1275 018c 4949     		ldr	r1, .L203
 1276 018e 8B42     		cmp	r3, r1
 1277 0190 DCD0     		beq	.L124
 539:Drivers/STM32F1xx_HAL_Driver/Src/stm32f1xx_hal_dma.c ****     {
 1278              		.loc 1 539 9 discriminator 3 view .LVU362
 1279 0192 1431     		adds	r1, r1, #20
 1280 0194 8B42     		cmp	r3, r1
 1281 0196 1ED0     		beq	.L125
 539:Drivers/STM32F1xx_HAL_Driver/Src/stm32f1xx_hal_dma.c ****     {
 1282              		.loc 1 539 9 discriminator 5 view .LVU363
 1283 0198 1431     		adds	r1, r1, #20
 1284 019a 8B42     		cmp	r3, r1
 1285 019c 1DD0     		beq	.L126
 539:Drivers/STM32F1xx_HAL_Driver/Src/stm32f1xx_hal_dma.c ****     {
 1286              		.loc 1 539 9 discriminator 7 view .LVU364
 1287 019e 1431     		adds	r1, r1, #20
 1288 01a0 8B42     		cmp	r3, r1
 1289 01a2 1DD0     		beq	.L127
 539:Drivers/STM32F1xx_HAL_Driver/Src/stm32f1xx_hal_dma.c ****     {
 1290              		.loc 1 539 9 discriminator 9 view .LVU365
 1291 01a4 1431     		adds	r1, r1, #20
ARM GAS  C:\Users\30592\AppData\Local\Temp\ccG1iZqh.s 			page 45


 1292 01a6 8B42     		cmp	r3, r1
 1293 01a8 1DD0     		beq	.L128
 539:Drivers/STM32F1xx_HAL_Driver/Src/stm32f1xx_hal_dma.c ****     {
 1294              		.loc 1 539 9 discriminator 11 view .LVU366
 1295 01aa 1431     		adds	r1, r1, #20
 1296 01ac 8B42     		cmp	r3, r1
 1297 01ae 1DD0     		beq	.L129
 539:Drivers/STM32F1xx_HAL_Driver/Src/stm32f1xx_hal_dma.c ****     {
 1298              		.loc 1 539 9 discriminator 13 view .LVU367
 1299 01b0 1431     		adds	r1, r1, #20
 1300 01b2 8B42     		cmp	r3, r1
 1301 01b4 1DD0     		beq	.L130
 539:Drivers/STM32F1xx_HAL_Driver/Src/stm32f1xx_hal_dma.c ****     {
 1302              		.loc 1 539 9 discriminator 15 view .LVU368
 1303 01b6 01F56271 		add	r1, r1, #904
 1304 01ba 8B42     		cmp	r3, r1
 1305 01bc 1CD0     		beq	.L131
 539:Drivers/STM32F1xx_HAL_Driver/Src/stm32f1xx_hal_dma.c ****     {
 1306              		.loc 1 539 9 discriminator 17 view .LVU369
 1307 01be 1431     		adds	r1, r1, #20
 1308 01c0 8B42     		cmp	r3, r1
 1309 01c2 1BD0     		beq	.L132
 539:Drivers/STM32F1xx_HAL_Driver/Src/stm32f1xx_hal_dma.c ****     {
 1310              		.loc 1 539 9 discriminator 19 view .LVU370
 1311 01c4 1431     		adds	r1, r1, #20
 1312 01c6 8B42     		cmp	r3, r1
 1313 01c8 1AD0     		beq	.L133
 539:Drivers/STM32F1xx_HAL_Driver/Src/stm32f1xx_hal_dma.c ****     {
 1314              		.loc 1 539 9 discriminator 21 view .LVU371
 1315 01ca 1431     		adds	r1, r1, #20
 1316 01cc 8B42     		cmp	r3, r1
 1317 01ce BAD0     		beq	.L197
 539:Drivers/STM32F1xx_HAL_Driver/Src/stm32f1xx_hal_dma.c ****     {
 1318              		.loc 1 539 9 view .LVU372
 1319 01d0 4FF40023 		mov	r3, #524288
 1320 01d4 BBE7     		b	.L84
 1321              	.L125:
 1322 01d6 8023     		movs	r3, #128
 1323 01d8 B9E7     		b	.L84
 1324              	.L126:
 1325 01da 4FF40063 		mov	r3, #2048
 1326 01de B6E7     		b	.L84
 1327              	.L127:
 1328 01e0 4FF40043 		mov	r3, #32768
 1329 01e4 B3E7     		b	.L84
 1330              	.L128:
 1331 01e6 4FF40023 		mov	r3, #524288
 1332 01ea B0E7     		b	.L84
 1333              	.L129:
 1334 01ec 4FF40003 		mov	r3, #8388608
 1335 01f0 ADE7     		b	.L84
 1336              	.L130:
 1337 01f2 4FF00063 		mov	r3, #134217728
 1338 01f6 AAE7     		b	.L84
 1339              	.L131:
 1340 01f8 0823     		movs	r3, #8
 1341 01fa A8E7     		b	.L84
ARM GAS  C:\Users\30592\AppData\Local\Temp\ccG1iZqh.s 			page 46


 1342              	.L132:
 1343 01fc 8023     		movs	r3, #128
 1344 01fe A6E7     		b	.L84
 1345              	.L133:
 1346 0200 4FF40063 		mov	r3, #2048
 1347 0204 A3E7     		b	.L84
 1348              	.L83:
 539:Drivers/STM32F1xx_HAL_Driver/Src/stm32f1xx_hal_dma.c ****     {
 1349              		.loc 1 539 9 discriminator 2 view .LVU373
 1350 0206 2E4A     		ldr	r2, .L203+12
 1351 0208 1268     		ldr	r2, [r2]
 1352 020a 2A49     		ldr	r1, .L203
 1353 020c 8B42     		cmp	r3, r1
 1354 020e 24D0     		beq	.L135
 539:Drivers/STM32F1xx_HAL_Driver/Src/stm32f1xx_hal_dma.c ****     {
 1355              		.loc 1 539 9 discriminator 48 view .LVU374
 1356 0210 1431     		adds	r1, r1, #20
 1357 0212 8B42     		cmp	r3, r1
 1358 0214 27D0     		beq	.L136
 539:Drivers/STM32F1xx_HAL_Driver/Src/stm32f1xx_hal_dma.c ****     {
 1359              		.loc 1 539 9 discriminator 50 view .LVU375
 1360 0216 1431     		adds	r1, r1, #20
 1361 0218 8B42     		cmp	r3, r1
 1362 021a 26D0     		beq	.L137
 539:Drivers/STM32F1xx_HAL_Driver/Src/stm32f1xx_hal_dma.c ****     {
 1363              		.loc 1 539 9 discriminator 52 view .LVU376
 1364 021c 1431     		adds	r1, r1, #20
 1365 021e 8B42     		cmp	r3, r1
 1366 0220 26D0     		beq	.L138
 539:Drivers/STM32F1xx_HAL_Driver/Src/stm32f1xx_hal_dma.c ****     {
 1367              		.loc 1 539 9 discriminator 54 view .LVU377
 1368 0222 1431     		adds	r1, r1, #20
 1369 0224 8B42     		cmp	r3, r1
 1370 0226 26D0     		beq	.L139
 539:Drivers/STM32F1xx_HAL_Driver/Src/stm32f1xx_hal_dma.c ****     {
 1371              		.loc 1 539 9 discriminator 56 view .LVU378
 1372 0228 1431     		adds	r1, r1, #20
 1373 022a 8B42     		cmp	r3, r1
 1374 022c 26D0     		beq	.L140
 539:Drivers/STM32F1xx_HAL_Driver/Src/stm32f1xx_hal_dma.c ****     {
 1375              		.loc 1 539 9 discriminator 58 view .LVU379
 1376 022e 1431     		adds	r1, r1, #20
 1377 0230 8B42     		cmp	r3, r1
 1378 0232 26D0     		beq	.L141
 539:Drivers/STM32F1xx_HAL_Driver/Src/stm32f1xx_hal_dma.c ****     {
 1379              		.loc 1 539 9 discriminator 60 view .LVU380
 1380 0234 01F56271 		add	r1, r1, #904
 1381 0238 8B42     		cmp	r3, r1
 1382 023a 25D0     		beq	.L142
 539:Drivers/STM32F1xx_HAL_Driver/Src/stm32f1xx_hal_dma.c ****     {
 1383              		.loc 1 539 9 discriminator 62 view .LVU381
 1384 023c 1431     		adds	r1, r1, #20
 1385 023e 8B42     		cmp	r3, r1
 1386 0240 24D0     		beq	.L143
 539:Drivers/STM32F1xx_HAL_Driver/Src/stm32f1xx_hal_dma.c ****     {
 1387              		.loc 1 539 9 discriminator 64 view .LVU382
 1388 0242 1431     		adds	r1, r1, #20
ARM GAS  C:\Users\30592\AppData\Local\Temp\ccG1iZqh.s 			page 47


 1389 0244 8B42     		cmp	r3, r1
 1390 0246 23D0     		beq	.L144
 539:Drivers/STM32F1xx_HAL_Driver/Src/stm32f1xx_hal_dma.c ****     {
 1391              		.loc 1 539 9 discriminator 66 view .LVU383
 1392 0248 1431     		adds	r1, r1, #20
 1393 024a 8B42     		cmp	r3, r1
 1394 024c 02D0     		beq	.L198
 539:Drivers/STM32F1xx_HAL_Driver/Src/stm32f1xx_hal_dma.c ****     {
 1395              		.loc 1 539 9 view .LVU384
 1396 024e 4FF40023 		mov	r3, #524288
 1397 0252 03E0     		b	.L86
 1398              	.L198:
 1399 0254 4FF40043 		mov	r3, #32768
 1400 0258 00E0     		b	.L86
 1401              	.L135:
 1402 025a 0823     		movs	r3, #8
 1403              	.L86:
 539:Drivers/STM32F1xx_HAL_Driver/Src/stm32f1xx_hal_dma.c ****     {
 1404              		.loc 1 539 69 discriminator 91 view .LVU385
 1405 025c 1A42     		tst	r2, r3
 1406 025e 14BF     		ite	ne
 1407 0260 0123     		movne	r3, #1
 1408 0262 0023     		moveq	r3, #0
 1409 0264 77E7     		b	.L85
 1410              	.L136:
 539:Drivers/STM32F1xx_HAL_Driver/Src/stm32f1xx_hal_dma.c ****     {
 1411              		.loc 1 539 9 view .LVU386
 1412 0266 8023     		movs	r3, #128
 1413 0268 F8E7     		b	.L86
 1414              	.L137:
 1415 026a 4FF40063 		mov	r3, #2048
 1416 026e F5E7     		b	.L86
 1417              	.L138:
 1418 0270 4FF40043 		mov	r3, #32768
 1419 0274 F2E7     		b	.L86
 1420              	.L139:
 1421 0276 4FF40023 		mov	r3, #524288
 1422 027a EFE7     		b	.L86
 1423              	.L140:
 1424 027c 4FF40003 		mov	r3, #8388608
 1425 0280 ECE7     		b	.L86
 1426              	.L141:
 1427 0282 4FF00063 		mov	r3, #134217728
 1428 0286 E9E7     		b	.L86
 1429              	.L142:
 1430 0288 0823     		movs	r3, #8
 1431 028a E7E7     		b	.L86
 1432              	.L143:
 1433 028c 8023     		movs	r3, #128
 1434 028e E5E7     		b	.L86
 1435              	.L144:
 1436 0290 4FF40063 		mov	r3, #2048
 1437 0294 E2E7     		b	.L86
 1438              	.L194:
 544:Drivers/STM32F1xx_HAL_Driver/Src/stm32f1xx_hal_dma.c **** 
 1439              		.loc 1 544 7 is_stmt 1 view .LVU387
 544:Drivers/STM32F1xx_HAL_Driver/Src/stm32f1xx_hal_dma.c **** 
ARM GAS  C:\Users\30592\AppData\Local\Temp\ccG1iZqh.s 			page 48


 1440              		.loc 1 544 57 is_stmt 0 view .LVU388
 1441 0296 236C     		ldr	r3, [r4, #64]
 544:Drivers/STM32F1xx_HAL_Driver/Src/stm32f1xx_hal_dma.c **** 
 1442              		.loc 1 544 11 view .LVU389
 1443 0298 E26B     		ldr	r2, [r4, #60]
 544:Drivers/STM32F1xx_HAL_Driver/Src/stm32f1xx_hal_dma.c **** 
 1444              		.loc 1 544 50 view .LVU390
 1445 029a 0120     		movs	r0, #1
 1446 029c 00FA03F3 		lsl	r3, r0, r3
 544:Drivers/STM32F1xx_HAL_Driver/Src/stm32f1xx_hal_dma.c **** 
 1447              		.loc 1 544 34 view .LVU391
 1448 02a0 5360     		str	r3, [r2, #4]
 547:Drivers/STM32F1xx_HAL_Driver/Src/stm32f1xx_hal_dma.c **** 
 1449              		.loc 1 547 7 is_stmt 1 view .LVU392
 1450 02a2 A36B     		ldr	r3, [r4, #56]
 1451 02a4 0343     		orrs	r3, r3, r0
 1452 02a6 A363     		str	r3, [r4, #56]
 550:Drivers/STM32F1xx_HAL_Driver/Src/stm32f1xx_hal_dma.c **** 
 1453              		.loc 1 550 7 view .LVU393
 550:Drivers/STM32F1xx_HAL_Driver/Src/stm32f1xx_hal_dma.c **** 
 1454              		.loc 1 550 18 is_stmt 0 view .LVU394
 1455 02a8 84F82100 		strb	r0, [r4, #33]
 553:Drivers/STM32F1xx_HAL_Driver/Src/stm32f1xx_hal_dma.c **** 
 1456              		.loc 1 553 7 is_stmt 1 view .LVU395
 553:Drivers/STM32F1xx_HAL_Driver/Src/stm32f1xx_hal_dma.c **** 
 1457              		.loc 1 553 7 view .LVU396
 1458 02ac 0023     		movs	r3, #0
 1459 02ae 84F82030 		strb	r3, [r4, #32]
 553:Drivers/STM32F1xx_HAL_Driver/Src/stm32f1xx_hal_dma.c **** 
 1460              		.loc 1 553 7 view .LVU397
 555:Drivers/STM32F1xx_HAL_Driver/Src/stm32f1xx_hal_dma.c ****     }
 1461              		.loc 1 555 7 view .LVU398
 555:Drivers/STM32F1xx_HAL_Driver/Src/stm32f1xx_hal_dma.c ****     }
 1462              		.loc 1 555 14 is_stmt 0 view .LVU399
 1463 02b2 B2E6     		b	.L78
 1464              	.L204:
 1465              		.align	2
 1466              	.L203:
 1467 02b4 08000240 		.word	1073872904
 1468 02b8 80000240 		.word	1073873024
 1469 02bc 00040240 		.word	1073873920
 1470 02c0 00000240 		.word	1073872896
 1471              	.L195:
 560:Drivers/STM32F1xx_HAL_Driver/Src/stm32f1xx_hal_dma.c ****       {
 1472              		.loc 1 560 7 is_stmt 1 view .LVU400
 560:Drivers/STM32F1xx_HAL_Driver/Src/stm32f1xx_hal_dma.c ****       {
 1473              		.loc 1 560 9 is_stmt 0 view .LVU401
 1474 02c4 36B1     		cbz	r6, .L89
 560:Drivers/STM32F1xx_HAL_Driver/Src/stm32f1xx_hal_dma.c ****       {
 1475              		.loc 1 560 31 discriminator 1 view .LVU402
 1476 02c6 FFF7FEFF 		bl	HAL_GetTick
 1477              	.LVL61:
 560:Drivers/STM32F1xx_HAL_Driver/Src/stm32f1xx_hal_dma.c ****       {
 1478              		.loc 1 560 45 discriminator 1 view .LVU403
 1479 02ca A0EB0900 		sub	r0, r0, r9
 560:Drivers/STM32F1xx_HAL_Driver/Src/stm32f1xx_hal_dma.c ****       {
 1480              		.loc 1 560 26 discriminator 1 view .LVU404
ARM GAS  C:\Users\30592\AppData\Local\Temp\ccG1iZqh.s 			page 49


 1481 02ce B042     		cmp	r0, r6
 1482 02d0 7FF648AF 		bls	.L88
 1483              	.L89:
 563:Drivers/STM32F1xx_HAL_Driver/Src/stm32f1xx_hal_dma.c **** 
 1484              		.loc 1 563 9 is_stmt 1 view .LVU405
 1485 02d4 A36B     		ldr	r3, [r4, #56]
 1486 02d6 43F02003 		orr	r3, r3, #32
 1487 02da A363     		str	r3, [r4, #56]
 566:Drivers/STM32F1xx_HAL_Driver/Src/stm32f1xx_hal_dma.c **** 
 1488              		.loc 1 566 9 view .LVU406
 566:Drivers/STM32F1xx_HAL_Driver/Src/stm32f1xx_hal_dma.c **** 
 1489              		.loc 1 566 21 is_stmt 0 view .LVU407
 1490 02dc 0120     		movs	r0, #1
 1491 02de 84F82100 		strb	r0, [r4, #33]
 569:Drivers/STM32F1xx_HAL_Driver/Src/stm32f1xx_hal_dma.c **** 
 1492              		.loc 1 569 9 is_stmt 1 view .LVU408
 569:Drivers/STM32F1xx_HAL_Driver/Src/stm32f1xx_hal_dma.c **** 
 1493              		.loc 1 569 9 view .LVU409
 1494 02e2 0023     		movs	r3, #0
 1495 02e4 84F82030 		strb	r3, [r4, #32]
 569:Drivers/STM32F1xx_HAL_Driver/Src/stm32f1xx_hal_dma.c **** 
 1496              		.loc 1 569 9 view .LVU410
 571:Drivers/STM32F1xx_HAL_Driver/Src/stm32f1xx_hal_dma.c ****       }
 1497              		.loc 1 571 9 view .LVU411
 571:Drivers/STM32F1xx_HAL_Driver/Src/stm32f1xx_hal_dma.c ****       }
 1498              		.loc 1 571 16 is_stmt 0 view .LVU412
 1499 02e8 97E6     		b	.L78
 1500              	.L90:
 537:Drivers/STM32F1xx_HAL_Driver/Src/stm32f1xx_hal_dma.c ****   {
 1501              		.loc 1 537 9 discriminator 2 view .LVU413
 1502 02ea 934A     		ldr	r2, .L205
 1503 02ec 1268     		ldr	r2, [r2]
 537:Drivers/STM32F1xx_HAL_Driver/Src/stm32f1xx_hal_dma.c ****   {
 1504              		.loc 1 537 40 discriminator 2 view .LVU414
 1505 02ee 3A42     		tst	r2, r7
 1506 02f0 0CBF     		ite	eq
 1507 02f2 0125     		moveq	r5, #1
 1508 02f4 0025     		movne	r5, #0
 1509 02f6 40E7     		b	.L91
 1510              	.L196:
 576:Drivers/STM32F1xx_HAL_Driver/Src/stm32f1xx_hal_dma.c ****   {
 1511              		.loc 1 576 3 is_stmt 1 view .LVU415
 576:Drivers/STM32F1xx_HAL_Driver/Src/stm32f1xx_hal_dma.c ****   {
 1512              		.loc 1 576 5 is_stmt 0 view .LVU416
 1513 02f8 B8F1000F 		cmp	r8, #0
 1514 02fc 40F09180 		bne	.L93
 579:Drivers/STM32F1xx_HAL_Driver/Src/stm32f1xx_hal_dma.c **** 
 1515              		.loc 1 579 5 is_stmt 1 view .LVU417
 1516 0300 8E4A     		ldr	r2, .L205+4
 1517 0302 9342     		cmp	r3, r2
 1518 0304 49D9     		bls	.L94
 579:Drivers/STM32F1xx_HAL_Driver/Src/stm32f1xx_hal_dma.c **** 
 1519              		.loc 1 579 5 is_stmt 0 discriminator 1 view .LVU418
 1520 0306 783A     		subs	r2, r2, #120
 1521 0308 9342     		cmp	r3, r2
 1522 030a 24D0     		beq	.L146
 579:Drivers/STM32F1xx_HAL_Driver/Src/stm32f1xx_hal_dma.c **** 
ARM GAS  C:\Users\30592\AppData\Local\Temp\ccG1iZqh.s 			page 50


 1523              		.loc 1 579 5 discriminator 3 view .LVU419
 1524 030c 1432     		adds	r2, r2, #20
 1525 030e 9342     		cmp	r3, r2
 1526 0310 2BD0     		beq	.L147
 579:Drivers/STM32F1xx_HAL_Driver/Src/stm32f1xx_hal_dma.c **** 
 1527              		.loc 1 579 5 discriminator 5 view .LVU420
 1528 0312 1432     		adds	r2, r2, #20
 1529 0314 9342     		cmp	r3, r2
 1530 0316 2AD0     		beq	.L148
 579:Drivers/STM32F1xx_HAL_Driver/Src/stm32f1xx_hal_dma.c **** 
 1531              		.loc 1 579 5 discriminator 7 view .LVU421
 1532 0318 1432     		adds	r2, r2, #20
 1533 031a 9342     		cmp	r3, r2
 1534 031c 2AD0     		beq	.L149
 579:Drivers/STM32F1xx_HAL_Driver/Src/stm32f1xx_hal_dma.c **** 
 1535              		.loc 1 579 5 discriminator 9 view .LVU422
 1536 031e 1432     		adds	r2, r2, #20
 1537 0320 9342     		cmp	r3, r2
 1538 0322 2AD0     		beq	.L150
 579:Drivers/STM32F1xx_HAL_Driver/Src/stm32f1xx_hal_dma.c **** 
 1539              		.loc 1 579 5 discriminator 11 view .LVU423
 1540 0324 1432     		adds	r2, r2, #20
 1541 0326 9342     		cmp	r3, r2
 1542 0328 2AD0     		beq	.L151
 579:Drivers/STM32F1xx_HAL_Driver/Src/stm32f1xx_hal_dma.c **** 
 1543              		.loc 1 579 5 discriminator 13 view .LVU424
 1544 032a 1432     		adds	r2, r2, #20
 1545 032c 9342     		cmp	r3, r2
 1546 032e 2AD0     		beq	.L152
 579:Drivers/STM32F1xx_HAL_Driver/Src/stm32f1xx_hal_dma.c **** 
 1547              		.loc 1 579 5 discriminator 15 view .LVU425
 1548 0330 02F56272 		add	r2, r2, #904
 1549 0334 9342     		cmp	r3, r2
 1550 0336 29D0     		beq	.L153
 579:Drivers/STM32F1xx_HAL_Driver/Src/stm32f1xx_hal_dma.c **** 
 1551              		.loc 1 579 5 discriminator 17 view .LVU426
 1552 0338 1432     		adds	r2, r2, #20
 1553 033a 9342     		cmp	r3, r2
 1554 033c 28D0     		beq	.L154
 579:Drivers/STM32F1xx_HAL_Driver/Src/stm32f1xx_hal_dma.c **** 
 1555              		.loc 1 579 5 discriminator 19 view .LVU427
 1556 033e 1432     		adds	r2, r2, #20
 1557 0340 9342     		cmp	r3, r2
 1558 0342 27D0     		beq	.L155
 579:Drivers/STM32F1xx_HAL_Driver/Src/stm32f1xx_hal_dma.c **** 
 1559              		.loc 1 579 5 discriminator 21 view .LVU428
 1560 0344 1432     		adds	r2, r2, #20
 1561 0346 9342     		cmp	r3, r2
 1562 0348 02D0     		beq	.L199
 579:Drivers/STM32F1xx_HAL_Driver/Src/stm32f1xx_hal_dma.c **** 
 1563              		.loc 1 579 5 view .LVU429
 1564 034a 4FF40033 		mov	r3, #131072
 1565 034e 03E0     		b	.L95
 1566              	.L199:
 1567 0350 4FF40053 		mov	r3, #8192
 1568 0354 00E0     		b	.L95
 1569              	.L146:
ARM GAS  C:\Users\30592\AppData\Local\Temp\ccG1iZqh.s 			page 51


 1570 0356 0223     		movs	r3, #2
 1571              	.L95:
 579:Drivers/STM32F1xx_HAL_Driver/Src/stm32f1xx_hal_dma.c **** 
 1572              		.loc 1 579 5 discriminator 46 view .LVU430
 1573 0358 794A     		ldr	r2, .L205+8
 1574 035a 5360     		str	r3, [r2, #4]
 1575              	.L96:
 583:Drivers/STM32F1xx_HAL_Driver/Src/stm32f1xx_hal_dma.c ****   }
 1576              		.loc 1 583 5 is_stmt 1 view .LVU431
 583:Drivers/STM32F1xx_HAL_Driver/Src/stm32f1xx_hal_dma.c ****   }
 1577              		.loc 1 583 17 is_stmt 0 view .LVU432
 1578 035c 0123     		movs	r3, #1
 1579 035e 84F82130 		strb	r3, [r4, #33]
 1580              	.L98:
 592:Drivers/STM32F1xx_HAL_Driver/Src/stm32f1xx_hal_dma.c **** 
 1581              		.loc 1 592 3 is_stmt 1 view .LVU433
 592:Drivers/STM32F1xx_HAL_Driver/Src/stm32f1xx_hal_dma.c **** 
 1582              		.loc 1 592 3 view .LVU434
 1583 0362 0020     		movs	r0, #0
 1584 0364 84F82000 		strb	r0, [r4, #32]
 592:Drivers/STM32F1xx_HAL_Driver/Src/stm32f1xx_hal_dma.c **** 
 1585              		.loc 1 592 3 view .LVU435
 594:Drivers/STM32F1xx_HAL_Driver/Src/stm32f1xx_hal_dma.c **** }
 1586              		.loc 1 594 3 view .LVU436
 594:Drivers/STM32F1xx_HAL_Driver/Src/stm32f1xx_hal_dma.c **** }
 1587              		.loc 1 594 10 is_stmt 0 view .LVU437
 1588 0368 57E6     		b	.L78
 1589              	.L147:
 579:Drivers/STM32F1xx_HAL_Driver/Src/stm32f1xx_hal_dma.c **** 
 1590              		.loc 1 579 5 view .LVU438
 1591 036a 2023     		movs	r3, #32
 1592 036c F4E7     		b	.L95
 1593              	.L148:
 1594 036e 4FF40073 		mov	r3, #512
 1595 0372 F1E7     		b	.L95
 1596              	.L149:
 1597 0374 4FF40053 		mov	r3, #8192
 1598 0378 EEE7     		b	.L95
 1599              	.L150:
 1600 037a 4FF40033 		mov	r3, #131072
 1601 037e EBE7     		b	.L95
 1602              	.L151:
 1603 0380 4FF40013 		mov	r3, #2097152
 1604 0384 E8E7     		b	.L95
 1605              	.L152:
 1606 0386 4FF00073 		mov	r3, #33554432
 1607 038a E5E7     		b	.L95
 1608              	.L153:
 1609 038c 0223     		movs	r3, #2
 1610 038e E3E7     		b	.L95
 1611              	.L154:
 1612 0390 2023     		movs	r3, #32
 1613 0392 E1E7     		b	.L95
 1614              	.L155:
 1615 0394 4FF40073 		mov	r3, #512
 1616 0398 DEE7     		b	.L95
 1617              	.L94:
ARM GAS  C:\Users\30592\AppData\Local\Temp\ccG1iZqh.s 			page 52


 579:Drivers/STM32F1xx_HAL_Driver/Src/stm32f1xx_hal_dma.c **** 
 1618              		.loc 1 579 5 discriminator 2 view .LVU439
 1619 039a 6A4A     		ldr	r2, .L205+12
 1620 039c 9342     		cmp	r3, r2
 1621 039e 24D0     		beq	.L157
 579:Drivers/STM32F1xx_HAL_Driver/Src/stm32f1xx_hal_dma.c **** 
 1622              		.loc 1 579 5 discriminator 47 view .LVU440
 1623 03a0 1432     		adds	r2, r2, #20
 1624 03a2 9342     		cmp	r3, r2
 1625 03a4 25D0     		beq	.L158
 579:Drivers/STM32F1xx_HAL_Driver/Src/stm32f1xx_hal_dma.c **** 
 1626              		.loc 1 579 5 discriminator 49 view .LVU441
 1627 03a6 1432     		adds	r2, r2, #20
 1628 03a8 9342     		cmp	r3, r2
 1629 03aa 24D0     		beq	.L159
 579:Drivers/STM32F1xx_HAL_Driver/Src/stm32f1xx_hal_dma.c **** 
 1630              		.loc 1 579 5 discriminator 51 view .LVU442
 1631 03ac 1432     		adds	r2, r2, #20
 1632 03ae 9342     		cmp	r3, r2
 1633 03b0 24D0     		beq	.L160
 579:Drivers/STM32F1xx_HAL_Driver/Src/stm32f1xx_hal_dma.c **** 
 1634              		.loc 1 579 5 discriminator 53 view .LVU443
 1635 03b2 1432     		adds	r2, r2, #20
 1636 03b4 9342     		cmp	r3, r2
 1637 03b6 24D0     		beq	.L161
 579:Drivers/STM32F1xx_HAL_Driver/Src/stm32f1xx_hal_dma.c **** 
 1638              		.loc 1 579 5 discriminator 55 view .LVU444
 1639 03b8 1432     		adds	r2, r2, #20
 1640 03ba 9342     		cmp	r3, r2
 1641 03bc 24D0     		beq	.L162
 579:Drivers/STM32F1xx_HAL_Driver/Src/stm32f1xx_hal_dma.c **** 
 1642              		.loc 1 579 5 discriminator 57 view .LVU445
 1643 03be 1432     		adds	r2, r2, #20
 1644 03c0 9342     		cmp	r3, r2
 1645 03c2 24D0     		beq	.L163
 579:Drivers/STM32F1xx_HAL_Driver/Src/stm32f1xx_hal_dma.c **** 
 1646              		.loc 1 579 5 discriminator 59 view .LVU446
 1647 03c4 02F56272 		add	r2, r2, #904
 1648 03c8 9342     		cmp	r3, r2
 1649 03ca 23D0     		beq	.L164
 579:Drivers/STM32F1xx_HAL_Driver/Src/stm32f1xx_hal_dma.c **** 
 1650              		.loc 1 579 5 discriminator 61 view .LVU447
 1651 03cc 1432     		adds	r2, r2, #20
 1652 03ce 9342     		cmp	r3, r2
 1653 03d0 22D0     		beq	.L165
 579:Drivers/STM32F1xx_HAL_Driver/Src/stm32f1xx_hal_dma.c **** 
 1654              		.loc 1 579 5 discriminator 63 view .LVU448
 1655 03d2 1432     		adds	r2, r2, #20
 1656 03d4 9342     		cmp	r3, r2
 1657 03d6 21D0     		beq	.L166
 579:Drivers/STM32F1xx_HAL_Driver/Src/stm32f1xx_hal_dma.c **** 
 1658              		.loc 1 579 5 discriminator 65 view .LVU449
 1659 03d8 1432     		adds	r2, r2, #20
 1660 03da 9342     		cmp	r3, r2
 1661 03dc 02D0     		beq	.L200
 579:Drivers/STM32F1xx_HAL_Driver/Src/stm32f1xx_hal_dma.c **** 
 1662              		.loc 1 579 5 view .LVU450
ARM GAS  C:\Users\30592\AppData\Local\Temp\ccG1iZqh.s 			page 53


 1663 03de 4FF40033 		mov	r3, #131072
 1664 03e2 03E0     		b	.L97
 1665              	.L200:
 1666 03e4 4FF40053 		mov	r3, #8192
 1667 03e8 00E0     		b	.L97
 1668              	.L157:
 1669 03ea 0223     		movs	r3, #2
 1670              	.L97:
 579:Drivers/STM32F1xx_HAL_Driver/Src/stm32f1xx_hal_dma.c **** 
 1671              		.loc 1 579 5 discriminator 90 view .LVU451
 1672 03ec 524A     		ldr	r2, .L205
 1673 03ee 5360     		str	r3, [r2, #4]
 1674 03f0 B4E7     		b	.L96
 1675              	.L158:
 579:Drivers/STM32F1xx_HAL_Driver/Src/stm32f1xx_hal_dma.c **** 
 1676              		.loc 1 579 5 view .LVU452
 1677 03f2 2023     		movs	r3, #32
 1678 03f4 FAE7     		b	.L97
 1679              	.L159:
 1680 03f6 4FF40073 		mov	r3, #512
 1681 03fa F7E7     		b	.L97
 1682              	.L160:
 1683 03fc 4FF40053 		mov	r3, #8192
 1684 0400 F4E7     		b	.L97
 1685              	.L161:
 1686 0402 4FF40033 		mov	r3, #131072
 1687 0406 F1E7     		b	.L97
 1688              	.L162:
 1689 0408 4FF40013 		mov	r3, #2097152
 1690 040c EEE7     		b	.L97
 1691              	.L163:
 1692 040e 4FF00073 		mov	r3, #33554432
 1693 0412 EBE7     		b	.L97
 1694              	.L164:
 1695 0414 0223     		movs	r3, #2
 1696 0416 E9E7     		b	.L97
 1697              	.L165:
 1698 0418 2023     		movs	r3, #32
 1699 041a E7E7     		b	.L97
 1700              	.L166:
 1701 041c 4FF40073 		mov	r3, #512
 1702 0420 E4E7     		b	.L97
 1703              	.L93:
 588:Drivers/STM32F1xx_HAL_Driver/Src/stm32f1xx_hal_dma.c ****   }
 1704              		.loc 1 588 5 is_stmt 1 view .LVU453
 1705 0422 464A     		ldr	r2, .L205+4
 1706 0424 9342     		cmp	r3, r2
 1707 0426 43D9     		bls	.L99
 588:Drivers/STM32F1xx_HAL_Driver/Src/stm32f1xx_hal_dma.c ****   }
 1708              		.loc 1 588 5 is_stmt 0 discriminator 1 view .LVU454
 1709 0428 783A     		subs	r2, r2, #120
 1710 042a 9342     		cmp	r3, r2
 1711 042c 24D0     		beq	.L168
 588:Drivers/STM32F1xx_HAL_Driver/Src/stm32f1xx_hal_dma.c ****   }
 1712              		.loc 1 588 5 discriminator 3 view .LVU455
 1713 042e 1432     		adds	r2, r2, #20
 1714 0430 9342     		cmp	r3, r2
ARM GAS  C:\Users\30592\AppData\Local\Temp\ccG1iZqh.s 			page 54


 1715 0432 25D0     		beq	.L169
 588:Drivers/STM32F1xx_HAL_Driver/Src/stm32f1xx_hal_dma.c ****   }
 1716              		.loc 1 588 5 discriminator 5 view .LVU456
 1717 0434 1432     		adds	r2, r2, #20
 1718 0436 9342     		cmp	r3, r2
 1719 0438 24D0     		beq	.L170
 588:Drivers/STM32F1xx_HAL_Driver/Src/stm32f1xx_hal_dma.c ****   }
 1720              		.loc 1 588 5 discriminator 7 view .LVU457
 1721 043a 1432     		adds	r2, r2, #20
 1722 043c 9342     		cmp	r3, r2
 1723 043e 24D0     		beq	.L171
 588:Drivers/STM32F1xx_HAL_Driver/Src/stm32f1xx_hal_dma.c ****   }
 1724              		.loc 1 588 5 discriminator 9 view .LVU458
 1725 0440 1432     		adds	r2, r2, #20
 1726 0442 9342     		cmp	r3, r2
 1727 0444 24D0     		beq	.L172
 588:Drivers/STM32F1xx_HAL_Driver/Src/stm32f1xx_hal_dma.c ****   }
 1728              		.loc 1 588 5 discriminator 11 view .LVU459
 1729 0446 1432     		adds	r2, r2, #20
 1730 0448 9342     		cmp	r3, r2
 1731 044a 24D0     		beq	.L173
 588:Drivers/STM32F1xx_HAL_Driver/Src/stm32f1xx_hal_dma.c ****   }
 1732              		.loc 1 588 5 discriminator 13 view .LVU460
 1733 044c 1432     		adds	r2, r2, #20
 1734 044e 9342     		cmp	r3, r2
 1735 0450 24D0     		beq	.L174
 588:Drivers/STM32F1xx_HAL_Driver/Src/stm32f1xx_hal_dma.c ****   }
 1736              		.loc 1 588 5 discriminator 15 view .LVU461
 1737 0452 02F56272 		add	r2, r2, #904
 1738 0456 9342     		cmp	r3, r2
 1739 0458 23D0     		beq	.L175
 588:Drivers/STM32F1xx_HAL_Driver/Src/stm32f1xx_hal_dma.c ****   }
 1740              		.loc 1 588 5 discriminator 17 view .LVU462
 1741 045a 1432     		adds	r2, r2, #20
 1742 045c 9342     		cmp	r3, r2
 1743 045e 22D0     		beq	.L176
 588:Drivers/STM32F1xx_HAL_Driver/Src/stm32f1xx_hal_dma.c ****   }
 1744              		.loc 1 588 5 discriminator 19 view .LVU463
 1745 0460 1432     		adds	r2, r2, #20
 1746 0462 9342     		cmp	r3, r2
 1747 0464 21D0     		beq	.L177
 588:Drivers/STM32F1xx_HAL_Driver/Src/stm32f1xx_hal_dma.c ****   }
 1748              		.loc 1 588 5 discriminator 21 view .LVU464
 1749 0466 1432     		adds	r2, r2, #20
 1750 0468 9342     		cmp	r3, r2
 1751 046a 02D0     		beq	.L201
 588:Drivers/STM32F1xx_HAL_Driver/Src/stm32f1xx_hal_dma.c ****   }
 1752              		.loc 1 588 5 view .LVU465
 1753 046c 4FF48023 		mov	r3, #262144
 1754 0470 03E0     		b	.L100
 1755              	.L201:
 1756 0472 4FF48043 		mov	r3, #16384
 1757 0476 00E0     		b	.L100
 1758              	.L168:
 1759 0478 0423     		movs	r3, #4
 1760              	.L100:
 588:Drivers/STM32F1xx_HAL_Driver/Src/stm32f1xx_hal_dma.c ****   }
ARM GAS  C:\Users\30592\AppData\Local\Temp\ccG1iZqh.s 			page 55


 1761              		.loc 1 588 5 discriminator 46 view .LVU466
 1762 047a 314A     		ldr	r2, .L205+8
 1763 047c 5360     		str	r3, [r2, #4]
 1764 047e 70E7     		b	.L98
 1765              	.L169:
 588:Drivers/STM32F1xx_HAL_Driver/Src/stm32f1xx_hal_dma.c ****   }
 1766              		.loc 1 588 5 view .LVU467
 1767 0480 4023     		movs	r3, #64
 1768 0482 FAE7     		b	.L100
 1769              	.L170:
 1770 0484 4FF48063 		mov	r3, #1024
 1771 0488 F7E7     		b	.L100
 1772              	.L171:
 1773 048a 4FF48043 		mov	r3, #16384
 1774 048e F4E7     		b	.L100
 1775              	.L172:
 1776 0490 4FF48023 		mov	r3, #262144
 1777 0494 F1E7     		b	.L100
 1778              	.L173:
 1779 0496 4FF48003 		mov	r3, #4194304
 1780 049a EEE7     		b	.L100
 1781              	.L174:
 1782 049c 4FF08063 		mov	r3, #67108864
 1783 04a0 EBE7     		b	.L100
 1784              	.L175:
 1785 04a2 0423     		movs	r3, #4
 1786 04a4 E9E7     		b	.L100
 1787              	.L176:
 1788 04a6 4023     		movs	r3, #64
 1789 04a8 E7E7     		b	.L100
 1790              	.L177:
 1791 04aa 4FF48063 		mov	r3, #1024
 1792 04ae E4E7     		b	.L100
 1793              	.L99:
 588:Drivers/STM32F1xx_HAL_Driver/Src/stm32f1xx_hal_dma.c ****   }
 1794              		.loc 1 588 5 discriminator 2 view .LVU468
 1795 04b0 244A     		ldr	r2, .L205+12
 1796 04b2 9342     		cmp	r3, r2
 1797 04b4 24D0     		beq	.L179
 588:Drivers/STM32F1xx_HAL_Driver/Src/stm32f1xx_hal_dma.c ****   }
 1798              		.loc 1 588 5 discriminator 47 view .LVU469
 1799 04b6 1432     		adds	r2, r2, #20
 1800 04b8 9342     		cmp	r3, r2
 1801 04ba 25D0     		beq	.L180
 588:Drivers/STM32F1xx_HAL_Driver/Src/stm32f1xx_hal_dma.c ****   }
 1802              		.loc 1 588 5 discriminator 49 view .LVU470
 1803 04bc 1432     		adds	r2, r2, #20
 1804 04be 9342     		cmp	r3, r2
 1805 04c0 24D0     		beq	.L181
 588:Drivers/STM32F1xx_HAL_Driver/Src/stm32f1xx_hal_dma.c ****   }
 1806              		.loc 1 588 5 discriminator 51 view .LVU471
 1807 04c2 1432     		adds	r2, r2, #20
 1808 04c4 9342     		cmp	r3, r2
 1809 04c6 24D0     		beq	.L182
 588:Drivers/STM32F1xx_HAL_Driver/Src/stm32f1xx_hal_dma.c ****   }
 1810              		.loc 1 588 5 discriminator 53 view .LVU472
 1811 04c8 1432     		adds	r2, r2, #20
ARM GAS  C:\Users\30592\AppData\Local\Temp\ccG1iZqh.s 			page 56


 1812 04ca 9342     		cmp	r3, r2
 1813 04cc 24D0     		beq	.L183
 588:Drivers/STM32F1xx_HAL_Driver/Src/stm32f1xx_hal_dma.c ****   }
 1814              		.loc 1 588 5 discriminator 55 view .LVU473
 1815 04ce 1432     		adds	r2, r2, #20
 1816 04d0 9342     		cmp	r3, r2
 1817 04d2 24D0     		beq	.L184
 588:Drivers/STM32F1xx_HAL_Driver/Src/stm32f1xx_hal_dma.c ****   }
 1818              		.loc 1 588 5 discriminator 57 view .LVU474
 1819 04d4 1432     		adds	r2, r2, #20
 1820 04d6 9342     		cmp	r3, r2
 1821 04d8 24D0     		beq	.L185
 588:Drivers/STM32F1xx_HAL_Driver/Src/stm32f1xx_hal_dma.c ****   }
 1822              		.loc 1 588 5 discriminator 59 view .LVU475
 1823 04da 02F56272 		add	r2, r2, #904
 1824 04de 9342     		cmp	r3, r2
 1825 04e0 23D0     		beq	.L186
 588:Drivers/STM32F1xx_HAL_Driver/Src/stm32f1xx_hal_dma.c ****   }
 1826              		.loc 1 588 5 discriminator 61 view .LVU476
 1827 04e2 1432     		adds	r2, r2, #20
 1828 04e4 9342     		cmp	r3, r2
 1829 04e6 22D0     		beq	.L187
 588:Drivers/STM32F1xx_HAL_Driver/Src/stm32f1xx_hal_dma.c ****   }
 1830              		.loc 1 588 5 discriminator 63 view .LVU477
 1831 04e8 1432     		adds	r2, r2, #20
 1832 04ea 9342     		cmp	r3, r2
 1833 04ec 21D0     		beq	.L188
 588:Drivers/STM32F1xx_HAL_Driver/Src/stm32f1xx_hal_dma.c ****   }
 1834              		.loc 1 588 5 discriminator 65 view .LVU478
 1835 04ee 1432     		adds	r2, r2, #20
 1836 04f0 9342     		cmp	r3, r2
 1837 04f2 02D0     		beq	.L202
 588:Drivers/STM32F1xx_HAL_Driver/Src/stm32f1xx_hal_dma.c ****   }
 1838              		.loc 1 588 5 view .LVU479
 1839 04f4 4FF48023 		mov	r3, #262144
 1840 04f8 03E0     		b	.L101
 1841              	.L202:
 1842 04fa 4FF48043 		mov	r3, #16384
 1843 04fe 00E0     		b	.L101
 1844              	.L179:
 1845 0500 0423     		movs	r3, #4
 1846              	.L101:
 588:Drivers/STM32F1xx_HAL_Driver/Src/stm32f1xx_hal_dma.c ****   }
 1847              		.loc 1 588 5 discriminator 90 view .LVU480
 1848 0502 0D4A     		ldr	r2, .L205
 1849 0504 5360     		str	r3, [r2, #4]
 1850 0506 2CE7     		b	.L98
 1851              	.L180:
 588:Drivers/STM32F1xx_HAL_Driver/Src/stm32f1xx_hal_dma.c ****   }
 1852              		.loc 1 588 5 view .LVU481
 1853 0508 4023     		movs	r3, #64
 1854 050a FAE7     		b	.L101
 1855              	.L181:
 1856 050c 4FF48063 		mov	r3, #1024
 1857 0510 F7E7     		b	.L101
 1858              	.L182:
 1859 0512 4FF48043 		mov	r3, #16384
ARM GAS  C:\Users\30592\AppData\Local\Temp\ccG1iZqh.s 			page 57


 1860 0516 F4E7     		b	.L101
 1861              	.L183:
 1862 0518 4FF48023 		mov	r3, #262144
 1863 051c F1E7     		b	.L101
 1864              	.L184:
 1865 051e 4FF48003 		mov	r3, #4194304
 1866 0522 EEE7     		b	.L101
 1867              	.L185:
 1868 0524 4FF08063 		mov	r3, #67108864
 1869 0528 EBE7     		b	.L101
 1870              	.L186:
 1871 052a 0423     		movs	r3, #4
 1872 052c E9E7     		b	.L101
 1873              	.L187:
 1874 052e 4023     		movs	r3, #64
 1875 0530 E7E7     		b	.L101
 1876              	.L188:
 1877 0532 4FF48063 		mov	r3, #1024
 1878 0536 E4E7     		b	.L101
 1879              	.L206:
 1880              		.align	2
 1881              	.L205:
 1882 0538 00000240 		.word	1073872896
 1883 053c 80000240 		.word	1073873024
 1884 0540 00040240 		.word	1073873920
 1885 0544 08000240 		.word	1073872904
 1886              		.cfi_endproc
 1887              	.LFE71:
 1889              		.section	.text.HAL_DMA_IRQHandler,"ax",%progbits
 1890              		.align	1
 1891              		.global	HAL_DMA_IRQHandler
 1892              		.syntax unified
 1893              		.thumb
 1894              		.thumb_func
 1895              		.fpu softvfp
 1897              	HAL_DMA_IRQHandler:
 1898              	.LVL62:
 1899              	.LFB72:
 604:Drivers/STM32F1xx_HAL_Driver/Src/stm32f1xx_hal_dma.c ****   uint32_t flag_it = hdma->DmaBaseAddress->ISR;
 1900              		.loc 1 604 1 is_stmt 1 view -0
 1901              		.cfi_startproc
 1902              		@ args = 0, pretend = 0, frame = 0
 1903              		@ frame_needed = 0, uses_anonymous_args = 0
 604:Drivers/STM32F1xx_HAL_Driver/Src/stm32f1xx_hal_dma.c ****   uint32_t flag_it = hdma->DmaBaseAddress->ISR;
 1904              		.loc 1 604 1 is_stmt 0 view .LVU483
 1905 0000 38B5     		push	{r3, r4, r5, lr}
 1906              	.LCFI11:
 1907              		.cfi_def_cfa_offset 16
 1908              		.cfi_offset 3, -16
 1909              		.cfi_offset 4, -12
 1910              		.cfi_offset 5, -8
 1911              		.cfi_offset 14, -4
 605:Drivers/STM32F1xx_HAL_Driver/Src/stm32f1xx_hal_dma.c ****   uint32_t source_it = hdma->Instance->CCR;
 1912              		.loc 1 605 3 is_stmt 1 view .LVU484
 605:Drivers/STM32F1xx_HAL_Driver/Src/stm32f1xx_hal_dma.c ****   uint32_t source_it = hdma->Instance->CCR;
 1913              		.loc 1 605 26 is_stmt 0 view .LVU485
 1914 0002 C36B     		ldr	r3, [r0, #60]
ARM GAS  C:\Users\30592\AppData\Local\Temp\ccG1iZqh.s 			page 58


 605:Drivers/STM32F1xx_HAL_Driver/Src/stm32f1xx_hal_dma.c ****   uint32_t source_it = hdma->Instance->CCR;
 1915              		.loc 1 605 12 view .LVU486
 1916 0004 1A68     		ldr	r2, [r3]
 1917              	.LVL63:
 606:Drivers/STM32F1xx_HAL_Driver/Src/stm32f1xx_hal_dma.c ****   
 1918              		.loc 1 606 3 is_stmt 1 view .LVU487
 606:Drivers/STM32F1xx_HAL_Driver/Src/stm32f1xx_hal_dma.c ****   
 1919              		.loc 1 606 28 is_stmt 0 view .LVU488
 1920 0006 0468     		ldr	r4, [r0]
 606:Drivers/STM32F1xx_HAL_Driver/Src/stm32f1xx_hal_dma.c ****   
 1921              		.loc 1 606 12 view .LVU489
 1922 0008 2568     		ldr	r5, [r4]
 1923              	.LVL64:
 609:Drivers/STM32F1xx_HAL_Driver/Src/stm32f1xx_hal_dma.c ****   {
 1924              		.loc 1 609 3 is_stmt 1 view .LVU490
 609:Drivers/STM32F1xx_HAL_Driver/Src/stm32f1xx_hal_dma.c ****   {
 1925              		.loc 1 609 40 is_stmt 0 view .LVU491
 1926 000a 016C     		ldr	r1, [r0, #64]
 609:Drivers/STM32F1xx_HAL_Driver/Src/stm32f1xx_hal_dma.c ****   {
 1927              		.loc 1 609 33 view .LVU492
 1928 000c 0423     		movs	r3, #4
 1929 000e 8B40     		lsls	r3, r3, r1
 609:Drivers/STM32F1xx_HAL_Driver/Src/stm32f1xx_hal_dma.c ****   {
 1930              		.loc 1 609 6 view .LVU493
 1931 0010 1342     		tst	r3, r2
 1932 0012 00F09B80 		beq	.L208
 609:Drivers/STM32F1xx_HAL_Driver/Src/stm32f1xx_hal_dma.c ****   {
 1933              		.loc 1 609 67 discriminator 1 view .LVU494
 1934 0016 15F0040F 		tst	r5, #4
 1935 001a 00F09780 		beq	.L208
 612:Drivers/STM32F1xx_HAL_Driver/Src/stm32f1xx_hal_dma.c ****     {
 1936              		.loc 1 612 5 is_stmt 1 view .LVU495
 612:Drivers/STM32F1xx_HAL_Driver/Src/stm32f1xx_hal_dma.c ****     {
 1937              		.loc 1 612 23 is_stmt 0 view .LVU496
 1938 001e 2368     		ldr	r3, [r4]
 612:Drivers/STM32F1xx_HAL_Driver/Src/stm32f1xx_hal_dma.c ****     {
 1939              		.loc 1 612 7 view .LVU497
 1940 0020 13F0200F 		tst	r3, #32
 1941 0024 03D1     		bne	.L209
 615:Drivers/STM32F1xx_HAL_Driver/Src/stm32f1xx_hal_dma.c ****     }
 1942              		.loc 1 615 7 is_stmt 1 view .LVU498
 1943 0026 2368     		ldr	r3, [r4]
 1944 0028 23F00403 		bic	r3, r3, #4
 1945 002c 2360     		str	r3, [r4]
 1946              	.L209:
 618:Drivers/STM32F1xx_HAL_Driver/Src/stm32f1xx_hal_dma.c **** 
 1947              		.loc 1 618 5 view .LVU499
 1948 002e 0368     		ldr	r3, [r0]
 1949 0030 9A4A     		ldr	r2, .L270
 1950              	.LVL65:
 618:Drivers/STM32F1xx_HAL_Driver/Src/stm32f1xx_hal_dma.c **** 
 1951              		.loc 1 618 5 is_stmt 0 view .LVU500
 1952 0032 9342     		cmp	r3, r2
 1953 0034 46D9     		bls	.L210
 618:Drivers/STM32F1xx_HAL_Driver/Src/stm32f1xx_hal_dma.c **** 
 1954              		.loc 1 618 5 discriminator 1 view .LVU501
 1955 0036 783A     		subs	r2, r2, #120
ARM GAS  C:\Users\30592\AppData\Local\Temp\ccG1iZqh.s 			page 59


 1956 0038 9342     		cmp	r3, r2
 1957 003a 24D0     		beq	.L221
 618:Drivers/STM32F1xx_HAL_Driver/Src/stm32f1xx_hal_dma.c **** 
 1958              		.loc 1 618 5 discriminator 3 view .LVU502
 1959 003c 1432     		adds	r2, r2, #20
 1960 003e 9342     		cmp	r3, r2
 1961 0040 28D0     		beq	.L222
 618:Drivers/STM32F1xx_HAL_Driver/Src/stm32f1xx_hal_dma.c **** 
 1962              		.loc 1 618 5 discriminator 5 view .LVU503
 1963 0042 1432     		adds	r2, r2, #20
 1964 0044 9342     		cmp	r3, r2
 1965 0046 27D0     		beq	.L223
 618:Drivers/STM32F1xx_HAL_Driver/Src/stm32f1xx_hal_dma.c **** 
 1966              		.loc 1 618 5 discriminator 7 view .LVU504
 1967 0048 1432     		adds	r2, r2, #20
 1968 004a 9342     		cmp	r3, r2
 1969 004c 27D0     		beq	.L224
 618:Drivers/STM32F1xx_HAL_Driver/Src/stm32f1xx_hal_dma.c **** 
 1970              		.loc 1 618 5 discriminator 9 view .LVU505
 1971 004e 1432     		adds	r2, r2, #20
 1972 0050 9342     		cmp	r3, r2
 1973 0052 27D0     		beq	.L225
 618:Drivers/STM32F1xx_HAL_Driver/Src/stm32f1xx_hal_dma.c **** 
 1974              		.loc 1 618 5 discriminator 11 view .LVU506
 1975 0054 1432     		adds	r2, r2, #20
 1976 0056 9342     		cmp	r3, r2
 1977 0058 27D0     		beq	.L226
 618:Drivers/STM32F1xx_HAL_Driver/Src/stm32f1xx_hal_dma.c **** 
 1978              		.loc 1 618 5 discriminator 13 view .LVU507
 1979 005a 1432     		adds	r2, r2, #20
 1980 005c 9342     		cmp	r3, r2
 1981 005e 27D0     		beq	.L227
 618:Drivers/STM32F1xx_HAL_Driver/Src/stm32f1xx_hal_dma.c **** 
 1982              		.loc 1 618 5 discriminator 15 view .LVU508
 1983 0060 02F56272 		add	r2, r2, #904
 1984 0064 9342     		cmp	r3, r2
 1985 0066 26D0     		beq	.L228
 618:Drivers/STM32F1xx_HAL_Driver/Src/stm32f1xx_hal_dma.c **** 
 1986              		.loc 1 618 5 discriminator 17 view .LVU509
 1987 0068 1432     		adds	r2, r2, #20
 1988 006a 9342     		cmp	r3, r2
 1989 006c 25D0     		beq	.L229
 618:Drivers/STM32F1xx_HAL_Driver/Src/stm32f1xx_hal_dma.c **** 
 1990              		.loc 1 618 5 discriminator 19 view .LVU510
 1991 006e 1432     		adds	r2, r2, #20
 1992 0070 9342     		cmp	r3, r2
 1993 0072 24D0     		beq	.L230
 618:Drivers/STM32F1xx_HAL_Driver/Src/stm32f1xx_hal_dma.c **** 
 1994              		.loc 1 618 5 discriminator 21 view .LVU511
 1995 0074 1432     		adds	r2, r2, #20
 1996 0076 9342     		cmp	r3, r2
 1997 0078 02D0     		beq	.L266
 618:Drivers/STM32F1xx_HAL_Driver/Src/stm32f1xx_hal_dma.c **** 
 1998              		.loc 1 618 5 view .LVU512
 1999 007a 4FF48022 		mov	r2, #262144
 2000 007e 03E0     		b	.L211
 2001              	.L266:
ARM GAS  C:\Users\30592\AppData\Local\Temp\ccG1iZqh.s 			page 60


 2002 0080 4FF48042 		mov	r2, #16384
 2003 0084 00E0     		b	.L211
 2004              	.L221:
 2005 0086 0422     		movs	r2, #4
 2006              	.L211:
 618:Drivers/STM32F1xx_HAL_Driver/Src/stm32f1xx_hal_dma.c **** 
 2007              		.loc 1 618 5 discriminator 46 view .LVU513
 2008 0088 854B     		ldr	r3, .L270+4
 2009 008a 5A60     		str	r2, [r3, #4]
 2010              	.L212:
 623:Drivers/STM32F1xx_HAL_Driver/Src/stm32f1xx_hal_dma.c ****     {
 2011              		.loc 1 623 5 is_stmt 1 view .LVU514
 623:Drivers/STM32F1xx_HAL_Driver/Src/stm32f1xx_hal_dma.c ****     {
 2012              		.loc 1 623 12 is_stmt 0 view .LVU515
 2013 008c C36A     		ldr	r3, [r0, #44]
 623:Drivers/STM32F1xx_HAL_Driver/Src/stm32f1xx_hal_dma.c ****     {
 2014              		.loc 1 623 7 view .LVU516
 2015 008e 03B1     		cbz	r3, .L207
 626:Drivers/STM32F1xx_HAL_Driver/Src/stm32f1xx_hal_dma.c ****     }
 2016              		.loc 1 626 7 is_stmt 1 view .LVU517
 2017 0090 9847     		blx	r3
 2018              	.LVL66:
 2019              	.L207:
 681:Drivers/STM32F1xx_HAL_Driver/Src/stm32f1xx_hal_dma.c **** 
 2020              		.loc 1 681 1 is_stmt 0 view .LVU518
 2021 0092 38BD     		pop	{r3, r4, r5, pc}
 2022              	.LVL67:
 2023              	.L222:
 618:Drivers/STM32F1xx_HAL_Driver/Src/stm32f1xx_hal_dma.c **** 
 2024              		.loc 1 618 5 view .LVU519
 2025 0094 4022     		movs	r2, #64
 2026 0096 F7E7     		b	.L211
 2027              	.L223:
 2028 0098 4FF48062 		mov	r2, #1024
 2029 009c F4E7     		b	.L211
 2030              	.L224:
 2031 009e 4FF48042 		mov	r2, #16384
 2032 00a2 F1E7     		b	.L211
 2033              	.L225:
 2034 00a4 4FF48022 		mov	r2, #262144
 2035 00a8 EEE7     		b	.L211
 2036              	.L226:
 2037 00aa 4FF48002 		mov	r2, #4194304
 2038 00ae EBE7     		b	.L211
 2039              	.L227:
 2040 00b0 4FF08062 		mov	r2, #67108864
 2041 00b4 E8E7     		b	.L211
 2042              	.L228:
 2043 00b6 0422     		movs	r2, #4
 2044 00b8 E6E7     		b	.L211
 2045              	.L229:
 2046 00ba 4022     		movs	r2, #64
 2047 00bc E4E7     		b	.L211
 2048              	.L230:
 2049 00be 4FF48062 		mov	r2, #1024
 2050 00c2 E1E7     		b	.L211
 2051              	.L210:
ARM GAS  C:\Users\30592\AppData\Local\Temp\ccG1iZqh.s 			page 61


 618:Drivers/STM32F1xx_HAL_Driver/Src/stm32f1xx_hal_dma.c **** 
 2052              		.loc 1 618 5 discriminator 2 view .LVU520
 2053 00c4 774A     		ldr	r2, .L270+8
 2054 00c6 9342     		cmp	r3, r2
 2055 00c8 24D0     		beq	.L232
 618:Drivers/STM32F1xx_HAL_Driver/Src/stm32f1xx_hal_dma.c **** 
 2056              		.loc 1 618 5 discriminator 47 view .LVU521
 2057 00ca 1432     		adds	r2, r2, #20
 2058 00cc 9342     		cmp	r3, r2
 2059 00ce 25D0     		beq	.L233
 618:Drivers/STM32F1xx_HAL_Driver/Src/stm32f1xx_hal_dma.c **** 
 2060              		.loc 1 618 5 discriminator 49 view .LVU522
 2061 00d0 1432     		adds	r2, r2, #20
 2062 00d2 9342     		cmp	r3, r2
 2063 00d4 24D0     		beq	.L234
 618:Drivers/STM32F1xx_HAL_Driver/Src/stm32f1xx_hal_dma.c **** 
 2064              		.loc 1 618 5 discriminator 51 view .LVU523
 2065 00d6 1432     		adds	r2, r2, #20
 2066 00d8 9342     		cmp	r3, r2
 2067 00da 24D0     		beq	.L235
 618:Drivers/STM32F1xx_HAL_Driver/Src/stm32f1xx_hal_dma.c **** 
 2068              		.loc 1 618 5 discriminator 53 view .LVU524
 2069 00dc 1432     		adds	r2, r2, #20
 2070 00de 9342     		cmp	r3, r2
 2071 00e0 24D0     		beq	.L236
 618:Drivers/STM32F1xx_HAL_Driver/Src/stm32f1xx_hal_dma.c **** 
 2072              		.loc 1 618 5 discriminator 55 view .LVU525
 2073 00e2 1432     		adds	r2, r2, #20
 2074 00e4 9342     		cmp	r3, r2
 2075 00e6 24D0     		beq	.L237
 618:Drivers/STM32F1xx_HAL_Driver/Src/stm32f1xx_hal_dma.c **** 
 2076              		.loc 1 618 5 discriminator 57 view .LVU526
 2077 00e8 1432     		adds	r2, r2, #20
 2078 00ea 9342     		cmp	r3, r2
 2079 00ec 24D0     		beq	.L238
 618:Drivers/STM32F1xx_HAL_Driver/Src/stm32f1xx_hal_dma.c **** 
 2080              		.loc 1 618 5 discriminator 59 view .LVU527
 2081 00ee 02F56272 		add	r2, r2, #904
 2082 00f2 9342     		cmp	r3, r2
 2083 00f4 23D0     		beq	.L239
 618:Drivers/STM32F1xx_HAL_Driver/Src/stm32f1xx_hal_dma.c **** 
 2084              		.loc 1 618 5 discriminator 61 view .LVU528
 2085 00f6 1432     		adds	r2, r2, #20
 2086 00f8 9342     		cmp	r3, r2
 2087 00fa 22D0     		beq	.L240
 618:Drivers/STM32F1xx_HAL_Driver/Src/stm32f1xx_hal_dma.c **** 
 2088              		.loc 1 618 5 discriminator 63 view .LVU529
 2089 00fc 1432     		adds	r2, r2, #20
 2090 00fe 9342     		cmp	r3, r2
 2091 0100 21D0     		beq	.L241
 618:Drivers/STM32F1xx_HAL_Driver/Src/stm32f1xx_hal_dma.c **** 
 2092              		.loc 1 618 5 discriminator 65 view .LVU530
 2093 0102 1432     		adds	r2, r2, #20
 2094 0104 9342     		cmp	r3, r2
 2095 0106 02D0     		beq	.L267
 618:Drivers/STM32F1xx_HAL_Driver/Src/stm32f1xx_hal_dma.c **** 
 2096              		.loc 1 618 5 view .LVU531
ARM GAS  C:\Users\30592\AppData\Local\Temp\ccG1iZqh.s 			page 62


 2097 0108 4FF48022 		mov	r2, #262144
 2098 010c 03E0     		b	.L213
 2099              	.L267:
 2100 010e 4FF48042 		mov	r2, #16384
 2101 0112 00E0     		b	.L213
 2102              	.L232:
 2103 0114 0422     		movs	r2, #4
 2104              	.L213:
 618:Drivers/STM32F1xx_HAL_Driver/Src/stm32f1xx_hal_dma.c **** 
 2105              		.loc 1 618 5 discriminator 90 view .LVU532
 2106 0116 644B     		ldr	r3, .L270+12
 2107 0118 5A60     		str	r2, [r3, #4]
 2108 011a B7E7     		b	.L212
 2109              	.L233:
 618:Drivers/STM32F1xx_HAL_Driver/Src/stm32f1xx_hal_dma.c **** 
 2110              		.loc 1 618 5 view .LVU533
 2111 011c 4022     		movs	r2, #64
 2112 011e FAE7     		b	.L213
 2113              	.L234:
 2114 0120 4FF48062 		mov	r2, #1024
 2115 0124 F7E7     		b	.L213
 2116              	.L235:
 2117 0126 4FF48042 		mov	r2, #16384
 2118 012a F4E7     		b	.L213
 2119              	.L236:
 2120 012c 4FF48022 		mov	r2, #262144
 2121 0130 F1E7     		b	.L213
 2122              	.L237:
 2123 0132 4FF48002 		mov	r2, #4194304
 2124 0136 EEE7     		b	.L213
 2125              	.L238:
 2126 0138 4FF08062 		mov	r2, #67108864
 2127 013c EBE7     		b	.L213
 2128              	.L239:
 2129 013e 0422     		movs	r2, #4
 2130 0140 E9E7     		b	.L213
 2131              	.L240:
 2132 0142 4022     		movs	r2, #64
 2133 0144 E7E7     		b	.L213
 2134              	.L241:
 2135 0146 4FF48062 		mov	r2, #1024
 2136 014a E4E7     		b	.L213
 2137              	.LVL68:
 2138              	.L208:
 631:Drivers/STM32F1xx_HAL_Driver/Src/stm32f1xx_hal_dma.c ****   {
 2139              		.loc 1 631 8 is_stmt 1 view .LVU534
 631:Drivers/STM32F1xx_HAL_Driver/Src/stm32f1xx_hal_dma.c ****   {
 2140              		.loc 1 631 38 is_stmt 0 view .LVU535
 2141 014c 0223     		movs	r3, #2
 2142 014e 8B40     		lsls	r3, r3, r1
 631:Drivers/STM32F1xx_HAL_Driver/Src/stm32f1xx_hal_dma.c ****   {
 2143              		.loc 1 631 11 view .LVU536
 2144 0150 1342     		tst	r3, r2
 2145 0152 00F0AB80 		beq	.L215
 631:Drivers/STM32F1xx_HAL_Driver/Src/stm32f1xx_hal_dma.c ****   {
 2146              		.loc 1 631 72 discriminator 1 view .LVU537
 2147 0156 15F0020F 		tst	r5, #2
ARM GAS  C:\Users\30592\AppData\Local\Temp\ccG1iZqh.s 			page 63


 2148 015a 00F0A780 		beq	.L215
 633:Drivers/STM32F1xx_HAL_Driver/Src/stm32f1xx_hal_dma.c ****     {
 2149              		.loc 1 633 5 is_stmt 1 view .LVU538
 633:Drivers/STM32F1xx_HAL_Driver/Src/stm32f1xx_hal_dma.c ****     {
 2150              		.loc 1 633 23 is_stmt 0 view .LVU539
 2151 015e 2368     		ldr	r3, [r4]
 633:Drivers/STM32F1xx_HAL_Driver/Src/stm32f1xx_hal_dma.c ****     {
 2152              		.loc 1 633 7 view .LVU540
 2153 0160 13F0200F 		tst	r3, #32
 2154 0164 06D1     		bne	.L216
 636:Drivers/STM32F1xx_HAL_Driver/Src/stm32f1xx_hal_dma.c **** 
 2155              		.loc 1 636 7 is_stmt 1 view .LVU541
 2156 0166 2368     		ldr	r3, [r4]
 2157 0168 23F00A03 		bic	r3, r3, #10
 2158 016c 2360     		str	r3, [r4]
 639:Drivers/STM32F1xx_HAL_Driver/Src/stm32f1xx_hal_dma.c ****     }
 2159              		.loc 1 639 7 view .LVU542
 639:Drivers/STM32F1xx_HAL_Driver/Src/stm32f1xx_hal_dma.c ****     }
 2160              		.loc 1 639 19 is_stmt 0 view .LVU543
 2161 016e 0123     		movs	r3, #1
 2162 0170 80F82130 		strb	r3, [r0, #33]
 2163              	.L216:
 642:Drivers/STM32F1xx_HAL_Driver/Src/stm32f1xx_hal_dma.c **** 
 2164              		.loc 1 642 7 is_stmt 1 view .LVU544
 2165 0174 0368     		ldr	r3, [r0]
 2166 0176 494A     		ldr	r2, .L270
 2167              	.LVL69:
 642:Drivers/STM32F1xx_HAL_Driver/Src/stm32f1xx_hal_dma.c **** 
 2168              		.loc 1 642 7 is_stmt 0 view .LVU545
 2169 0178 9342     		cmp	r3, r2
 2170 017a 4BD9     		bls	.L217
 642:Drivers/STM32F1xx_HAL_Driver/Src/stm32f1xx_hal_dma.c **** 
 2171              		.loc 1 642 7 discriminator 1 view .LVU546
 2172 017c 783A     		subs	r2, r2, #120
 2173 017e 9342     		cmp	r3, r2
 2174 0180 24D0     		beq	.L243
 642:Drivers/STM32F1xx_HAL_Driver/Src/stm32f1xx_hal_dma.c **** 
 2175              		.loc 1 642 7 discriminator 3 view .LVU547
 2176 0182 1432     		adds	r2, r2, #20
 2177 0184 9342     		cmp	r3, r2
 2178 0186 2DD0     		beq	.L244
 642:Drivers/STM32F1xx_HAL_Driver/Src/stm32f1xx_hal_dma.c **** 
 2179              		.loc 1 642 7 discriminator 5 view .LVU548
 2180 0188 1432     		adds	r2, r2, #20
 2181 018a 9342     		cmp	r3, r2
 2182 018c 2CD0     		beq	.L245
 642:Drivers/STM32F1xx_HAL_Driver/Src/stm32f1xx_hal_dma.c **** 
 2183              		.loc 1 642 7 discriminator 7 view .LVU549
 2184 018e 1432     		adds	r2, r2, #20
 2185 0190 9342     		cmp	r3, r2
 2186 0192 2CD0     		beq	.L246
 642:Drivers/STM32F1xx_HAL_Driver/Src/stm32f1xx_hal_dma.c **** 
 2187              		.loc 1 642 7 discriminator 9 view .LVU550
 2188 0194 1432     		adds	r2, r2, #20
 2189 0196 9342     		cmp	r3, r2
 2190 0198 2CD0     		beq	.L247
 642:Drivers/STM32F1xx_HAL_Driver/Src/stm32f1xx_hal_dma.c **** 
ARM GAS  C:\Users\30592\AppData\Local\Temp\ccG1iZqh.s 			page 64


 2191              		.loc 1 642 7 discriminator 11 view .LVU551
 2192 019a 1432     		adds	r2, r2, #20
 2193 019c 9342     		cmp	r3, r2
 2194 019e 2CD0     		beq	.L248
 642:Drivers/STM32F1xx_HAL_Driver/Src/stm32f1xx_hal_dma.c **** 
 2195              		.loc 1 642 7 discriminator 13 view .LVU552
 2196 01a0 1432     		adds	r2, r2, #20
 2197 01a2 9342     		cmp	r3, r2
 2198 01a4 2CD0     		beq	.L249
 642:Drivers/STM32F1xx_HAL_Driver/Src/stm32f1xx_hal_dma.c **** 
 2199              		.loc 1 642 7 discriminator 15 view .LVU553
 2200 01a6 02F56272 		add	r2, r2, #904
 2201 01aa 9342     		cmp	r3, r2
 2202 01ac 2BD0     		beq	.L250
 642:Drivers/STM32F1xx_HAL_Driver/Src/stm32f1xx_hal_dma.c **** 
 2203              		.loc 1 642 7 discriminator 17 view .LVU554
 2204 01ae 1432     		adds	r2, r2, #20
 2205 01b0 9342     		cmp	r3, r2
 2206 01b2 2AD0     		beq	.L251
 642:Drivers/STM32F1xx_HAL_Driver/Src/stm32f1xx_hal_dma.c **** 
 2207              		.loc 1 642 7 discriminator 19 view .LVU555
 2208 01b4 1432     		adds	r2, r2, #20
 2209 01b6 9342     		cmp	r3, r2
 2210 01b8 29D0     		beq	.L252
 642:Drivers/STM32F1xx_HAL_Driver/Src/stm32f1xx_hal_dma.c **** 
 2211              		.loc 1 642 7 discriminator 21 view .LVU556
 2212 01ba 1432     		adds	r2, r2, #20
 2213 01bc 9342     		cmp	r3, r2
 2214 01be 02D0     		beq	.L268
 642:Drivers/STM32F1xx_HAL_Driver/Src/stm32f1xx_hal_dma.c **** 
 2215              		.loc 1 642 7 view .LVU557
 2216 01c0 4FF40032 		mov	r2, #131072
 2217 01c4 03E0     		b	.L218
 2218              	.L268:
 2219 01c6 4FF40052 		mov	r2, #8192
 2220 01ca 00E0     		b	.L218
 2221              	.L243:
 2222 01cc 0222     		movs	r2, #2
 2223              	.L218:
 642:Drivers/STM32F1xx_HAL_Driver/Src/stm32f1xx_hal_dma.c **** 
 2224              		.loc 1 642 7 discriminator 46 view .LVU558
 2225 01ce 344B     		ldr	r3, .L270+4
 2226 01d0 5A60     		str	r2, [r3, #4]
 2227              	.L219:
 645:Drivers/STM32F1xx_HAL_Driver/Src/stm32f1xx_hal_dma.c **** 
 2228              		.loc 1 645 5 is_stmt 1 view .LVU559
 645:Drivers/STM32F1xx_HAL_Driver/Src/stm32f1xx_hal_dma.c **** 
 2229              		.loc 1 645 5 view .LVU560
 2230 01d2 0023     		movs	r3, #0
 2231 01d4 80F82030 		strb	r3, [r0, #32]
 645:Drivers/STM32F1xx_HAL_Driver/Src/stm32f1xx_hal_dma.c **** 
 2232              		.loc 1 645 5 view .LVU561
 647:Drivers/STM32F1xx_HAL_Driver/Src/stm32f1xx_hal_dma.c ****     {
 2233              		.loc 1 647 5 view .LVU562
 647:Drivers/STM32F1xx_HAL_Driver/Src/stm32f1xx_hal_dma.c ****     {
 2234              		.loc 1 647 12 is_stmt 0 view .LVU563
 2235 01d8 836A     		ldr	r3, [r0, #40]
ARM GAS  C:\Users\30592\AppData\Local\Temp\ccG1iZqh.s 			page 65


 647:Drivers/STM32F1xx_HAL_Driver/Src/stm32f1xx_hal_dma.c ****     {
 2236              		.loc 1 647 7 view .LVU564
 2237 01da 002B     		cmp	r3, #0
 2238 01dc 3FF459AF 		beq	.L207
 650:Drivers/STM32F1xx_HAL_Driver/Src/stm32f1xx_hal_dma.c ****     }
 2239              		.loc 1 650 7 is_stmt 1 view .LVU565
 2240 01e0 9847     		blx	r3
 2241              	.LVL70:
 650:Drivers/STM32F1xx_HAL_Driver/Src/stm32f1xx_hal_dma.c ****     }
 2242              		.loc 1 650 7 is_stmt 0 view .LVU566
 2243 01e2 56E7     		b	.L207
 2244              	.LVL71:
 2245              	.L244:
 642:Drivers/STM32F1xx_HAL_Driver/Src/stm32f1xx_hal_dma.c **** 
 2246              		.loc 1 642 7 view .LVU567
 2247 01e4 2022     		movs	r2, #32
 2248 01e6 F2E7     		b	.L218
 2249              	.L245:
 2250 01e8 4FF40072 		mov	r2, #512
 2251 01ec EFE7     		b	.L218
 2252              	.L246:
 2253 01ee 4FF40052 		mov	r2, #8192
 2254 01f2 ECE7     		b	.L218
 2255              	.L247:
 2256 01f4 4FF40032 		mov	r2, #131072
 2257 01f8 E9E7     		b	.L218
 2258              	.L248:
 2259 01fa 4FF40012 		mov	r2, #2097152
 2260 01fe E6E7     		b	.L218
 2261              	.L249:
 2262 0200 4FF00072 		mov	r2, #33554432
 2263 0204 E3E7     		b	.L218
 2264              	.L250:
 2265 0206 0222     		movs	r2, #2
 2266 0208 E1E7     		b	.L218
 2267              	.L251:
 2268 020a 2022     		movs	r2, #32
 2269 020c DFE7     		b	.L218
 2270              	.L252:
 2271 020e 4FF40072 		mov	r2, #512
 2272 0212 DCE7     		b	.L218
 2273              	.L217:
 642:Drivers/STM32F1xx_HAL_Driver/Src/stm32f1xx_hal_dma.c **** 
 2274              		.loc 1 642 7 discriminator 2 view .LVU568
 2275 0214 234A     		ldr	r2, .L270+8
 2276 0216 9342     		cmp	r3, r2
 2277 0218 24D0     		beq	.L254
 642:Drivers/STM32F1xx_HAL_Driver/Src/stm32f1xx_hal_dma.c **** 
 2278              		.loc 1 642 7 discriminator 47 view .LVU569
 2279 021a 1432     		adds	r2, r2, #20
 2280 021c 9342     		cmp	r3, r2
 2281 021e 25D0     		beq	.L255
 642:Drivers/STM32F1xx_HAL_Driver/Src/stm32f1xx_hal_dma.c **** 
 2282              		.loc 1 642 7 discriminator 49 view .LVU570
 2283 0220 1432     		adds	r2, r2, #20
 2284 0222 9342     		cmp	r3, r2
 2285 0224 24D0     		beq	.L256
ARM GAS  C:\Users\30592\AppData\Local\Temp\ccG1iZqh.s 			page 66


 642:Drivers/STM32F1xx_HAL_Driver/Src/stm32f1xx_hal_dma.c **** 
 2286              		.loc 1 642 7 discriminator 51 view .LVU571
 2287 0226 1432     		adds	r2, r2, #20
 2288 0228 9342     		cmp	r3, r2
 2289 022a 24D0     		beq	.L257
 642:Drivers/STM32F1xx_HAL_Driver/Src/stm32f1xx_hal_dma.c **** 
 2290              		.loc 1 642 7 discriminator 53 view .LVU572
 2291 022c 1432     		adds	r2, r2, #20
 2292 022e 9342     		cmp	r3, r2
 2293 0230 24D0     		beq	.L258
 642:Drivers/STM32F1xx_HAL_Driver/Src/stm32f1xx_hal_dma.c **** 
 2294              		.loc 1 642 7 discriminator 55 view .LVU573
 2295 0232 1432     		adds	r2, r2, #20
 2296 0234 9342     		cmp	r3, r2
 2297 0236 24D0     		beq	.L259
 642:Drivers/STM32F1xx_HAL_Driver/Src/stm32f1xx_hal_dma.c **** 
 2298              		.loc 1 642 7 discriminator 57 view .LVU574
 2299 0238 1432     		adds	r2, r2, #20
 2300 023a 9342     		cmp	r3, r2
 2301 023c 24D0     		beq	.L260
 642:Drivers/STM32F1xx_HAL_Driver/Src/stm32f1xx_hal_dma.c **** 
 2302              		.loc 1 642 7 discriminator 59 view .LVU575
 2303 023e 02F56272 		add	r2, r2, #904
 2304 0242 9342     		cmp	r3, r2
 2305 0244 23D0     		beq	.L261
 642:Drivers/STM32F1xx_HAL_Driver/Src/stm32f1xx_hal_dma.c **** 
 2306              		.loc 1 642 7 discriminator 61 view .LVU576
 2307 0246 1432     		adds	r2, r2, #20
 2308 0248 9342     		cmp	r3, r2
 2309 024a 22D0     		beq	.L262
 642:Drivers/STM32F1xx_HAL_Driver/Src/stm32f1xx_hal_dma.c **** 
 2310              		.loc 1 642 7 discriminator 63 view .LVU577
 2311 024c 1432     		adds	r2, r2, #20
 2312 024e 9342     		cmp	r3, r2
 2313 0250 21D0     		beq	.L263
 642:Drivers/STM32F1xx_HAL_Driver/Src/stm32f1xx_hal_dma.c **** 
 2314              		.loc 1 642 7 discriminator 65 view .LVU578
 2315 0252 1432     		adds	r2, r2, #20
 2316 0254 9342     		cmp	r3, r2
 2317 0256 02D0     		beq	.L269
 642:Drivers/STM32F1xx_HAL_Driver/Src/stm32f1xx_hal_dma.c **** 
 2318              		.loc 1 642 7 view .LVU579
 2319 0258 4FF40032 		mov	r2, #131072
 2320 025c 03E0     		b	.L220
 2321              	.L269:
 2322 025e 4FF40052 		mov	r2, #8192
 2323 0262 00E0     		b	.L220
 2324              	.L254:
 2325 0264 0222     		movs	r2, #2
 2326              	.L220:
 642:Drivers/STM32F1xx_HAL_Driver/Src/stm32f1xx_hal_dma.c **** 
 2327              		.loc 1 642 7 discriminator 90 view .LVU580
 2328 0266 104B     		ldr	r3, .L270+12
 2329 0268 5A60     		str	r2, [r3, #4]
 2330 026a B2E7     		b	.L219
 2331              	.L255:
 642:Drivers/STM32F1xx_HAL_Driver/Src/stm32f1xx_hal_dma.c **** 
ARM GAS  C:\Users\30592\AppData\Local\Temp\ccG1iZqh.s 			page 67


 2332              		.loc 1 642 7 view .LVU581
 2333 026c 2022     		movs	r2, #32
 2334 026e FAE7     		b	.L220
 2335              	.L256:
 2336 0270 4FF40072 		mov	r2, #512
 2337 0274 F7E7     		b	.L220
 2338              	.L257:
 2339 0276 4FF40052 		mov	r2, #8192
 2340 027a F4E7     		b	.L220
 2341              	.L258:
 2342 027c 4FF40032 		mov	r2, #131072
 2343 0280 F1E7     		b	.L220
 2344              	.L259:
 2345 0282 4FF40012 		mov	r2, #2097152
 2346 0286 EEE7     		b	.L220
 2347              	.L260:
 2348 0288 4FF00072 		mov	r2, #33554432
 2349 028c EBE7     		b	.L220
 2350              	.L261:
 2351 028e 0222     		movs	r2, #2
 2352 0290 E9E7     		b	.L220
 2353              	.L262:
 2354 0292 2022     		movs	r2, #32
 2355 0294 E7E7     		b	.L220
 2356              	.L263:
 2357 0296 4FF40072 		mov	r2, #512
 2358 029a E4E7     		b	.L220
 2359              	.L271:
 2360              		.align	2
 2361              	.L270:
 2362 029c 80000240 		.word	1073873024
 2363 02a0 00040240 		.word	1073873920
 2364 02a4 08000240 		.word	1073872904
 2365 02a8 00000240 		.word	1073872896
 2366              	.LVL72:
 2367              	.L215:
 655:Drivers/STM32F1xx_HAL_Driver/Src/stm32f1xx_hal_dma.c ****   {
 2368              		.loc 1 655 8 is_stmt 1 view .LVU582
 655:Drivers/STM32F1xx_HAL_Driver/Src/stm32f1xx_hal_dma.c ****   {
 2369              		.loc 1 655 48 is_stmt 0 view .LVU583
 2370 02ac 0823     		movs	r3, #8
 2371 02ae 03FA01F1 		lsl	r1, r3, r1
 655:Drivers/STM32F1xx_HAL_Driver/Src/stm32f1xx_hal_dma.c ****   {
 2372              		.loc 1 655 11 view .LVU584
 2373 02b2 1142     		tst	r1, r2
 2374 02b4 3FF4EDAE 		beq	.L207
 655:Drivers/STM32F1xx_HAL_Driver/Src/stm32f1xx_hal_dma.c ****   {
 2375              		.loc 1 655 73 discriminator 1 view .LVU585
 2376 02b8 15F0080F 		tst	r5, #8
 2377 02bc 3FF4E9AE 		beq	.L207
 660:Drivers/STM32F1xx_HAL_Driver/Src/stm32f1xx_hal_dma.c **** 
 2378              		.loc 1 660 5 is_stmt 1 view .LVU586
 2379 02c0 2368     		ldr	r3, [r4]
 2380 02c2 23F00E03 		bic	r3, r3, #14
 2381 02c6 2360     		str	r3, [r4]
 663:Drivers/STM32F1xx_HAL_Driver/Src/stm32f1xx_hal_dma.c **** 
 2382              		.loc 1 663 5 view .LVU587
ARM GAS  C:\Users\30592\AppData\Local\Temp\ccG1iZqh.s 			page 68


 663:Drivers/STM32F1xx_HAL_Driver/Src/stm32f1xx_hal_dma.c **** 
 2383              		.loc 1 663 55 is_stmt 0 view .LVU588
 2384 02c8 026C     		ldr	r2, [r0, #64]
 2385              	.LVL73:
 663:Drivers/STM32F1xx_HAL_Driver/Src/stm32f1xx_hal_dma.c **** 
 2386              		.loc 1 663 9 view .LVU589
 2387 02ca C16B     		ldr	r1, [r0, #60]
 663:Drivers/STM32F1xx_HAL_Driver/Src/stm32f1xx_hal_dma.c **** 
 2388              		.loc 1 663 48 view .LVU590
 2389 02cc 0123     		movs	r3, #1
 2390 02ce 03FA02F2 		lsl	r2, r3, r2
 663:Drivers/STM32F1xx_HAL_Driver/Src/stm32f1xx_hal_dma.c **** 
 2391              		.loc 1 663 32 view .LVU591
 2392 02d2 4A60     		str	r2, [r1, #4]
 666:Drivers/STM32F1xx_HAL_Driver/Src/stm32f1xx_hal_dma.c **** 
 2393              		.loc 1 666 5 is_stmt 1 view .LVU592
 666:Drivers/STM32F1xx_HAL_Driver/Src/stm32f1xx_hal_dma.c **** 
 2394              		.loc 1 666 21 is_stmt 0 view .LVU593
 2395 02d4 8363     		str	r3, [r0, #56]
 669:Drivers/STM32F1xx_HAL_Driver/Src/stm32f1xx_hal_dma.c **** 
 2396              		.loc 1 669 5 is_stmt 1 view .LVU594
 669:Drivers/STM32F1xx_HAL_Driver/Src/stm32f1xx_hal_dma.c **** 
 2397              		.loc 1 669 17 is_stmt 0 view .LVU595
 2398 02d6 80F82130 		strb	r3, [r0, #33]
 672:Drivers/STM32F1xx_HAL_Driver/Src/stm32f1xx_hal_dma.c **** 
 2399              		.loc 1 672 5 is_stmt 1 view .LVU596
 672:Drivers/STM32F1xx_HAL_Driver/Src/stm32f1xx_hal_dma.c **** 
 2400              		.loc 1 672 5 view .LVU597
 2401 02da 0023     		movs	r3, #0
 2402 02dc 80F82030 		strb	r3, [r0, #32]
 672:Drivers/STM32F1xx_HAL_Driver/Src/stm32f1xx_hal_dma.c **** 
 2403              		.loc 1 672 5 view .LVU598
 674:Drivers/STM32F1xx_HAL_Driver/Src/stm32f1xx_hal_dma.c ****     {
 2404              		.loc 1 674 5 view .LVU599
 674:Drivers/STM32F1xx_HAL_Driver/Src/stm32f1xx_hal_dma.c ****     {
 2405              		.loc 1 674 13 is_stmt 0 view .LVU600
 2406 02e0 036B     		ldr	r3, [r0, #48]
 674:Drivers/STM32F1xx_HAL_Driver/Src/stm32f1xx_hal_dma.c ****     {
 2407              		.loc 1 674 8 view .LVU601
 2408 02e2 002B     		cmp	r3, #0
 2409 02e4 3FF4D5AE 		beq	.L207
 677:Drivers/STM32F1xx_HAL_Driver/Src/stm32f1xx_hal_dma.c ****     }
 2410              		.loc 1 677 7 is_stmt 1 view .LVU602
 2411 02e8 9847     		blx	r3
 2412              	.LVL74:
 680:Drivers/STM32F1xx_HAL_Driver/Src/stm32f1xx_hal_dma.c **** }
 2413              		.loc 1 680 3 view .LVU603
 2414 02ea D2E6     		b	.L207
 2415              		.cfi_endproc
 2416              	.LFE72:
 2418              		.section	.text.HAL_DMA_RegisterCallback,"ax",%progbits
 2419              		.align	1
 2420              		.global	HAL_DMA_RegisterCallback
 2421              		.syntax unified
 2422              		.thumb
 2423              		.thumb_func
 2424              		.fpu softvfp
ARM GAS  C:\Users\30592\AppData\Local\Temp\ccG1iZqh.s 			page 69


 2426              	HAL_DMA_RegisterCallback:
 2427              	.LVL75:
 2428              	.LFB73:
 694:Drivers/STM32F1xx_HAL_Driver/Src/stm32f1xx_hal_dma.c ****   HAL_StatusTypeDef status = HAL_OK;
 2429              		.loc 1 694 1 view -0
 2430              		.cfi_startproc
 2431              		@ args = 0, pretend = 0, frame = 0
 2432              		@ frame_needed = 0, uses_anonymous_args = 0
 2433              		@ link register save eliminated.
 694:Drivers/STM32F1xx_HAL_Driver/Src/stm32f1xx_hal_dma.c ****   HAL_StatusTypeDef status = HAL_OK;
 2434              		.loc 1 694 1 is_stmt 0 view .LVU605
 2435 0000 0346     		mov	r3, r0
 695:Drivers/STM32F1xx_HAL_Driver/Src/stm32f1xx_hal_dma.c ****   
 2436              		.loc 1 695 3 is_stmt 1 view .LVU606
 2437              	.LVL76:
 698:Drivers/STM32F1xx_HAL_Driver/Src/stm32f1xx_hal_dma.c ****   
 2438              		.loc 1 698 3 view .LVU607
 698:Drivers/STM32F1xx_HAL_Driver/Src/stm32f1xx_hal_dma.c ****   
 2439              		.loc 1 698 3 view .LVU608
 2440 0002 90F82000 		ldrb	r0, [r0, #32]	@ zero_extendqisi2
 2441              	.LVL77:
 698:Drivers/STM32F1xx_HAL_Driver/Src/stm32f1xx_hal_dma.c ****   
 2442              		.loc 1 698 3 is_stmt 0 view .LVU609
 2443 0006 0128     		cmp	r0, #1
 2444 0008 1DD0     		beq	.L280
 698:Drivers/STM32F1xx_HAL_Driver/Src/stm32f1xx_hal_dma.c ****   
 2445              		.loc 1 698 3 is_stmt 1 discriminator 2 view .LVU610
 2446 000a 0120     		movs	r0, #1
 2447 000c 83F82000 		strb	r0, [r3, #32]
 698:Drivers/STM32F1xx_HAL_Driver/Src/stm32f1xx_hal_dma.c ****   
 2448              		.loc 1 698 3 discriminator 2 view .LVU611
 700:Drivers/STM32F1xx_HAL_Driver/Src/stm32f1xx_hal_dma.c ****   {
 2449              		.loc 1 700 3 discriminator 2 view .LVU612
 700:Drivers/STM32F1xx_HAL_Driver/Src/stm32f1xx_hal_dma.c ****   {
 2450              		.loc 1 700 33 is_stmt 0 discriminator 2 view .LVU613
 2451 0010 93F82100 		ldrb	r0, [r3, #33]	@ zero_extendqisi2
 700:Drivers/STM32F1xx_HAL_Driver/Src/stm32f1xx_hal_dma.c ****   {
 2452              		.loc 1 700 5 discriminator 2 view .LVU614
 2453 0014 0128     		cmp	r0, #1
 2454 0016 04D0     		beq	.L282
 727:Drivers/STM32F1xx_HAL_Driver/Src/stm32f1xx_hal_dma.c ****   } 
 2455              		.loc 1 727 12 view .LVU615
 2456 0018 0120     		movs	r0, #1
 2457              	.L274:
 2458              	.LVL78:
 731:Drivers/STM32F1xx_HAL_Driver/Src/stm32f1xx_hal_dma.c ****   
 2459              		.loc 1 731 3 is_stmt 1 view .LVU616
 731:Drivers/STM32F1xx_HAL_Driver/Src/stm32f1xx_hal_dma.c ****   
 2460              		.loc 1 731 3 view .LVU617
 2461 001a 0022     		movs	r2, #0
 2462              	.LVL79:
 731:Drivers/STM32F1xx_HAL_Driver/Src/stm32f1xx_hal_dma.c ****   
 2463              		.loc 1 731 3 is_stmt 0 view .LVU618
 2464 001c 83F82020 		strb	r2, [r3, #32]
 731:Drivers/STM32F1xx_HAL_Driver/Src/stm32f1xx_hal_dma.c ****   
 2465              		.loc 1 731 3 is_stmt 1 view .LVU619
 733:Drivers/STM32F1xx_HAL_Driver/Src/stm32f1xx_hal_dma.c **** }
ARM GAS  C:\Users\30592\AppData\Local\Temp\ccG1iZqh.s 			page 70


 2466              		.loc 1 733 3 view .LVU620
 733:Drivers/STM32F1xx_HAL_Driver/Src/stm32f1xx_hal_dma.c **** }
 2467              		.loc 1 733 10 is_stmt 0 view .LVU621
 2468 0020 7047     		bx	lr
 2469              	.LVL80:
 2470              	.L282:
 702:Drivers/STM32F1xx_HAL_Driver/Src/stm32f1xx_hal_dma.c ****     {
 2471              		.loc 1 702 5 is_stmt 1 view .LVU622
 2472 0022 0329     		cmp	r1, #3
 2473 0024 F9D8     		bhi	.L274
 2474 0026 DFE801F0 		tbb	[pc, r1]
 2475              	.L276:
 2476 002a 02       		.byte	(.L279-.L276)/2
 2477 002b 05       		.byte	(.L278-.L276)/2
 2478 002c 08       		.byte	(.L277-.L276)/2
 2479 002d 0B       		.byte	(.L275-.L276)/2
 2480              		.p2align 1
 2481              	.L279:
 705:Drivers/STM32F1xx_HAL_Driver/Src/stm32f1xx_hal_dma.c ****       break;
 2482              		.loc 1 705 7 view .LVU623
 705:Drivers/STM32F1xx_HAL_Driver/Src/stm32f1xx_hal_dma.c ****       break;
 2483              		.loc 1 705 30 is_stmt 0 view .LVU624
 2484 002e 9A62     		str	r2, [r3, #40]
 706:Drivers/STM32F1xx_HAL_Driver/Src/stm32f1xx_hal_dma.c ****       
 2485              		.loc 1 706 7 is_stmt 1 view .LVU625
 695:Drivers/STM32F1xx_HAL_Driver/Src/stm32f1xx_hal_dma.c ****   
 2486              		.loc 1 695 21 is_stmt 0 view .LVU626
 2487 0030 0846     		mov	r0, r1
 706:Drivers/STM32F1xx_HAL_Driver/Src/stm32f1xx_hal_dma.c ****       
 2488              		.loc 1 706 7 view .LVU627
 2489 0032 F2E7     		b	.L274
 2490              	.L278:
 709:Drivers/STM32F1xx_HAL_Driver/Src/stm32f1xx_hal_dma.c ****       break;         
 2491              		.loc 1 709 7 is_stmt 1 view .LVU628
 709:Drivers/STM32F1xx_HAL_Driver/Src/stm32f1xx_hal_dma.c ****       break;         
 2492              		.loc 1 709 34 is_stmt 0 view .LVU629
 2493 0034 DA62     		str	r2, [r3, #44]
 710:Drivers/STM32F1xx_HAL_Driver/Src/stm32f1xx_hal_dma.c **** 
 2494              		.loc 1 710 7 is_stmt 1 view .LVU630
 695:Drivers/STM32F1xx_HAL_Driver/Src/stm32f1xx_hal_dma.c ****   
 2495              		.loc 1 695 21 is_stmt 0 view .LVU631
 2496 0036 0020     		movs	r0, #0
 710:Drivers/STM32F1xx_HAL_Driver/Src/stm32f1xx_hal_dma.c **** 
 2497              		.loc 1 710 7 view .LVU632
 2498 0038 EFE7     		b	.L274
 2499              	.L277:
 713:Drivers/STM32F1xx_HAL_Driver/Src/stm32f1xx_hal_dma.c ****       break;         
 2500              		.loc 1 713 7 is_stmt 1 view .LVU633
 713:Drivers/STM32F1xx_HAL_Driver/Src/stm32f1xx_hal_dma.c ****       break;         
 2501              		.loc 1 713 31 is_stmt 0 view .LVU634
 2502 003a 1A63     		str	r2, [r3, #48]
 714:Drivers/STM32F1xx_HAL_Driver/Src/stm32f1xx_hal_dma.c ****       
 2503              		.loc 1 714 7 is_stmt 1 view .LVU635
 695:Drivers/STM32F1xx_HAL_Driver/Src/stm32f1xx_hal_dma.c ****   
 2504              		.loc 1 695 21 is_stmt 0 view .LVU636
 2505 003c 0020     		movs	r0, #0
 714:Drivers/STM32F1xx_HAL_Driver/Src/stm32f1xx_hal_dma.c ****       
ARM GAS  C:\Users\30592\AppData\Local\Temp\ccG1iZqh.s 			page 71


 2506              		.loc 1 714 7 view .LVU637
 2507 003e ECE7     		b	.L274
 2508              	.L275:
 717:Drivers/STM32F1xx_HAL_Driver/Src/stm32f1xx_hal_dma.c ****       break; 
 2509              		.loc 1 717 7 is_stmt 1 view .LVU638
 717:Drivers/STM32F1xx_HAL_Driver/Src/stm32f1xx_hal_dma.c ****       break; 
 2510              		.loc 1 717 31 is_stmt 0 view .LVU639
 2511 0040 5A63     		str	r2, [r3, #52]
 718:Drivers/STM32F1xx_HAL_Driver/Src/stm32f1xx_hal_dma.c ****       
 2512              		.loc 1 718 7 is_stmt 1 view .LVU640
 695:Drivers/STM32F1xx_HAL_Driver/Src/stm32f1xx_hal_dma.c ****   
 2513              		.loc 1 695 21 is_stmt 0 view .LVU641
 2514 0042 0020     		movs	r0, #0
 718:Drivers/STM32F1xx_HAL_Driver/Src/stm32f1xx_hal_dma.c ****       
 2515              		.loc 1 718 7 view .LVU642
 2516 0044 E9E7     		b	.L274
 2517              	.L280:
 698:Drivers/STM32F1xx_HAL_Driver/Src/stm32f1xx_hal_dma.c ****   
 2518              		.loc 1 698 3 view .LVU643
 2519 0046 0220     		movs	r0, #2
 734:Drivers/STM32F1xx_HAL_Driver/Src/stm32f1xx_hal_dma.c **** 
 2520              		.loc 1 734 1 view .LVU644
 2521 0048 7047     		bx	lr
 2522              		.cfi_endproc
 2523              	.LFE73:
 2525              		.section	.text.HAL_DMA_UnRegisterCallback,"ax",%progbits
 2526              		.align	1
 2527              		.global	HAL_DMA_UnRegisterCallback
 2528              		.syntax unified
 2529              		.thumb
 2530              		.thumb_func
 2531              		.fpu softvfp
 2533              	HAL_DMA_UnRegisterCallback:
 2534              	.LVL81:
 2535              	.LFB74:
 745:Drivers/STM32F1xx_HAL_Driver/Src/stm32f1xx_hal_dma.c ****   HAL_StatusTypeDef status = HAL_OK;
 2536              		.loc 1 745 1 is_stmt 1 view -0
 2537              		.cfi_startproc
 2538              		@ args = 0, pretend = 0, frame = 0
 2539              		@ frame_needed = 0, uses_anonymous_args = 0
 2540              		@ link register save eliminated.
 745:Drivers/STM32F1xx_HAL_Driver/Src/stm32f1xx_hal_dma.c ****   HAL_StatusTypeDef status = HAL_OK;
 2541              		.loc 1 745 1 is_stmt 0 view .LVU646
 2542 0000 0346     		mov	r3, r0
 746:Drivers/STM32F1xx_HAL_Driver/Src/stm32f1xx_hal_dma.c **** 
 2543              		.loc 1 746 3 is_stmt 1 view .LVU647
 2544              	.LVL82:
 749:Drivers/STM32F1xx_HAL_Driver/Src/stm32f1xx_hal_dma.c ****   
 2545              		.loc 1 749 3 view .LVU648
 749:Drivers/STM32F1xx_HAL_Driver/Src/stm32f1xx_hal_dma.c ****   
 2546              		.loc 1 749 3 view .LVU649
 2547 0002 90F82020 		ldrb	r2, [r0, #32]	@ zero_extendqisi2
 2548 0006 012A     		cmp	r2, #1
 2549 0008 25D0     		beq	.L292
 749:Drivers/STM32F1xx_HAL_Driver/Src/stm32f1xx_hal_dma.c ****   
 2550              		.loc 1 749 3 discriminator 2 view .LVU650
 2551 000a 0122     		movs	r2, #1
ARM GAS  C:\Users\30592\AppData\Local\Temp\ccG1iZqh.s 			page 72


 2552 000c 80F82020 		strb	r2, [r0, #32]
 749:Drivers/STM32F1xx_HAL_Driver/Src/stm32f1xx_hal_dma.c ****   
 2553              		.loc 1 749 3 discriminator 2 view .LVU651
 751:Drivers/STM32F1xx_HAL_Driver/Src/stm32f1xx_hal_dma.c ****   {
 2554              		.loc 1 751 3 discriminator 2 view .LVU652
 751:Drivers/STM32F1xx_HAL_Driver/Src/stm32f1xx_hal_dma.c ****   {
 2555              		.loc 1 751 33 is_stmt 0 discriminator 2 view .LVU653
 2556 0010 90F82100 		ldrb	r0, [r0, #33]	@ zero_extendqisi2
 2557              	.LVL83:
 751:Drivers/STM32F1xx_HAL_Driver/Src/stm32f1xx_hal_dma.c ****   {
 2558              		.loc 1 751 5 discriminator 2 view .LVU654
 2559 0014 9042     		cmp	r0, r2
 2560 0016 04D0     		beq	.L294
 785:Drivers/STM32F1xx_HAL_Driver/Src/stm32f1xx_hal_dma.c ****   } 
 2561              		.loc 1 785 12 view .LVU655
 2562 0018 0120     		movs	r0, #1
 2563              	.L285:
 2564              	.LVL84:
 789:Drivers/STM32F1xx_HAL_Driver/Src/stm32f1xx_hal_dma.c ****   
 2565              		.loc 1 789 3 is_stmt 1 view .LVU656
 789:Drivers/STM32F1xx_HAL_Driver/Src/stm32f1xx_hal_dma.c ****   
 2566              		.loc 1 789 3 view .LVU657
 2567 001a 0022     		movs	r2, #0
 2568 001c 83F82020 		strb	r2, [r3, #32]
 789:Drivers/STM32F1xx_HAL_Driver/Src/stm32f1xx_hal_dma.c ****   
 2569              		.loc 1 789 3 view .LVU658
 791:Drivers/STM32F1xx_HAL_Driver/Src/stm32f1xx_hal_dma.c **** }
 2570              		.loc 1 791 3 view .LVU659
 791:Drivers/STM32F1xx_HAL_Driver/Src/stm32f1xx_hal_dma.c **** }
 2571              		.loc 1 791 10 is_stmt 0 view .LVU660
 2572 0020 7047     		bx	lr
 2573              	.LVL85:
 2574              	.L294:
 753:Drivers/STM32F1xx_HAL_Driver/Src/stm32f1xx_hal_dma.c ****     {
 2575              		.loc 1 753 5 is_stmt 1 view .LVU661
 2576 0022 0429     		cmp	r1, #4
 2577 0024 F9D8     		bhi	.L285
 2578 0026 DFE801F0 		tbb	[pc, r1]
 2579              	.L287:
 2580 002a 03       		.byte	(.L291-.L287)/2
 2581 002b 07       		.byte	(.L290-.L287)/2
 2582 002c 0A       		.byte	(.L289-.L287)/2
 2583 002d 0D       		.byte	(.L288-.L287)/2
 2584 002e 10       		.byte	(.L286-.L287)/2
 2585 002f 00       		.p2align 1
 2586              	.L291:
 756:Drivers/STM32F1xx_HAL_Driver/Src/stm32f1xx_hal_dma.c ****       break;
 2587              		.loc 1 756 7 view .LVU662
 756:Drivers/STM32F1xx_HAL_Driver/Src/stm32f1xx_hal_dma.c ****       break;
 2588              		.loc 1 756 30 is_stmt 0 view .LVU663
 2589 0030 0022     		movs	r2, #0
 2590 0032 9A62     		str	r2, [r3, #40]
 757:Drivers/STM32F1xx_HAL_Driver/Src/stm32f1xx_hal_dma.c **** 
 2591              		.loc 1 757 7 is_stmt 1 view .LVU664
 746:Drivers/STM32F1xx_HAL_Driver/Src/stm32f1xx_hal_dma.c **** 
 2592              		.loc 1 746 21 is_stmt 0 view .LVU665
 2593 0034 0846     		mov	r0, r1
ARM GAS  C:\Users\30592\AppData\Local\Temp\ccG1iZqh.s 			page 73


 757:Drivers/STM32F1xx_HAL_Driver/Src/stm32f1xx_hal_dma.c **** 
 2594              		.loc 1 757 7 view .LVU666
 2595 0036 F0E7     		b	.L285
 2596              	.L290:
 760:Drivers/STM32F1xx_HAL_Driver/Src/stm32f1xx_hal_dma.c ****       break;         
 2597              		.loc 1 760 7 is_stmt 1 view .LVU667
 760:Drivers/STM32F1xx_HAL_Driver/Src/stm32f1xx_hal_dma.c ****       break;         
 2598              		.loc 1 760 34 is_stmt 0 view .LVU668
 2599 0038 0020     		movs	r0, #0
 2600 003a D862     		str	r0, [r3, #44]
 761:Drivers/STM32F1xx_HAL_Driver/Src/stm32f1xx_hal_dma.c **** 
 2601              		.loc 1 761 7 is_stmt 1 view .LVU669
 2602 003c EDE7     		b	.L285
 2603              	.L289:
 764:Drivers/STM32F1xx_HAL_Driver/Src/stm32f1xx_hal_dma.c ****       break;         
 2604              		.loc 1 764 7 view .LVU670
 764:Drivers/STM32F1xx_HAL_Driver/Src/stm32f1xx_hal_dma.c ****       break;         
 2605              		.loc 1 764 31 is_stmt 0 view .LVU671
 2606 003e 0020     		movs	r0, #0
 2607 0040 1863     		str	r0, [r3, #48]
 765:Drivers/STM32F1xx_HAL_Driver/Src/stm32f1xx_hal_dma.c **** 
 2608              		.loc 1 765 7 is_stmt 1 view .LVU672
 2609 0042 EAE7     		b	.L285
 2610              	.L288:
 768:Drivers/STM32F1xx_HAL_Driver/Src/stm32f1xx_hal_dma.c ****       break; 
 2611              		.loc 1 768 7 view .LVU673
 768:Drivers/STM32F1xx_HAL_Driver/Src/stm32f1xx_hal_dma.c ****       break; 
 2612              		.loc 1 768 31 is_stmt 0 view .LVU674
 2613 0044 0020     		movs	r0, #0
 2614 0046 5863     		str	r0, [r3, #52]
 769:Drivers/STM32F1xx_HAL_Driver/Src/stm32f1xx_hal_dma.c **** 
 2615              		.loc 1 769 7 is_stmt 1 view .LVU675
 2616 0048 E7E7     		b	.L285
 2617              	.L286:
 772:Drivers/STM32F1xx_HAL_Driver/Src/stm32f1xx_hal_dma.c ****       hdma->XferHalfCpltCallback = NULL;
 2618              		.loc 1 772 7 view .LVU676
 772:Drivers/STM32F1xx_HAL_Driver/Src/stm32f1xx_hal_dma.c ****       hdma->XferHalfCpltCallback = NULL;
 2619              		.loc 1 772 30 is_stmt 0 view .LVU677
 2620 004a 0020     		movs	r0, #0
 2621 004c 9862     		str	r0, [r3, #40]
 773:Drivers/STM32F1xx_HAL_Driver/Src/stm32f1xx_hal_dma.c ****       hdma->XferErrorCallback = NULL;
 2622              		.loc 1 773 7 is_stmt 1 view .LVU678
 773:Drivers/STM32F1xx_HAL_Driver/Src/stm32f1xx_hal_dma.c ****       hdma->XferErrorCallback = NULL;
 2623              		.loc 1 773 34 is_stmt 0 view .LVU679
 2624 004e D862     		str	r0, [r3, #44]
 774:Drivers/STM32F1xx_HAL_Driver/Src/stm32f1xx_hal_dma.c ****       hdma->XferAbortCallback = NULL;
 2625              		.loc 1 774 7 is_stmt 1 view .LVU680
 774:Drivers/STM32F1xx_HAL_Driver/Src/stm32f1xx_hal_dma.c ****       hdma->XferAbortCallback = NULL;
 2626              		.loc 1 774 31 is_stmt 0 view .LVU681
 2627 0050 1863     		str	r0, [r3, #48]
 775:Drivers/STM32F1xx_HAL_Driver/Src/stm32f1xx_hal_dma.c ****       break; 
 2628              		.loc 1 775 7 is_stmt 1 view .LVU682
 775:Drivers/STM32F1xx_HAL_Driver/Src/stm32f1xx_hal_dma.c ****       break; 
 2629              		.loc 1 775 31 is_stmt 0 view .LVU683
 2630 0052 5863     		str	r0, [r3, #52]
 776:Drivers/STM32F1xx_HAL_Driver/Src/stm32f1xx_hal_dma.c **** 
 2631              		.loc 1 776 7 is_stmt 1 view .LVU684
ARM GAS  C:\Users\30592\AppData\Local\Temp\ccG1iZqh.s 			page 74


 2632 0054 E1E7     		b	.L285
 2633              	.LVL86:
 2634              	.L292:
 749:Drivers/STM32F1xx_HAL_Driver/Src/stm32f1xx_hal_dma.c ****   
 2635              		.loc 1 749 3 is_stmt 0 view .LVU685
 2636 0056 0220     		movs	r0, #2
 2637              	.LVL87:
 792:Drivers/STM32F1xx_HAL_Driver/Src/stm32f1xx_hal_dma.c ****   
 2638              		.loc 1 792 1 view .LVU686
 2639 0058 7047     		bx	lr
 2640              		.cfi_endproc
 2641              	.LFE74:
 2643              		.section	.text.HAL_DMA_GetState,"ax",%progbits
 2644              		.align	1
 2645              		.global	HAL_DMA_GetState
 2646              		.syntax unified
 2647              		.thumb
 2648              		.thumb_func
 2649              		.fpu softvfp
 2651              	HAL_DMA_GetState:
 2652              	.LVL88:
 2653              	.LFB75:
 821:Drivers/STM32F1xx_HAL_Driver/Src/stm32f1xx_hal_dma.c ****   /* Return DMA handle state */
 2654              		.loc 1 821 1 is_stmt 1 view -0
 2655              		.cfi_startproc
 2656              		@ args = 0, pretend = 0, frame = 0
 2657              		@ frame_needed = 0, uses_anonymous_args = 0
 2658              		@ link register save eliminated.
 823:Drivers/STM32F1xx_HAL_Driver/Src/stm32f1xx_hal_dma.c **** }
 2659              		.loc 1 823 3 view .LVU688
 824:Drivers/STM32F1xx_HAL_Driver/Src/stm32f1xx_hal_dma.c **** 
 2660              		.loc 1 824 1 is_stmt 0 view .LVU689
 2661 0000 90F82100 		ldrb	r0, [r0, #33]	@ zero_extendqisi2
 2662              	.LVL89:
 824:Drivers/STM32F1xx_HAL_Driver/Src/stm32f1xx_hal_dma.c **** 
 2663              		.loc 1 824 1 view .LVU690
 2664 0004 7047     		bx	lr
 2665              		.cfi_endproc
 2666              	.LFE75:
 2668              		.section	.text.HAL_DMA_GetError,"ax",%progbits
 2669              		.align	1
 2670              		.global	HAL_DMA_GetError
 2671              		.syntax unified
 2672              		.thumb
 2673              		.thumb_func
 2674              		.fpu softvfp
 2676              	HAL_DMA_GetError:
 2677              	.LVL90:
 2678              	.LFB76:
 833:Drivers/STM32F1xx_HAL_Driver/Src/stm32f1xx_hal_dma.c ****   return hdma->ErrorCode;
 2679              		.loc 1 833 1 is_stmt 1 view -0
 2680              		.cfi_startproc
 2681              		@ args = 0, pretend = 0, frame = 0
 2682              		@ frame_needed = 0, uses_anonymous_args = 0
 2683              		@ link register save eliminated.
 834:Drivers/STM32F1xx_HAL_Driver/Src/stm32f1xx_hal_dma.c **** }
 2684              		.loc 1 834 3 view .LVU692
ARM GAS  C:\Users\30592\AppData\Local\Temp\ccG1iZqh.s 			page 75


 834:Drivers/STM32F1xx_HAL_Driver/Src/stm32f1xx_hal_dma.c **** }
 2685              		.loc 1 834 14 is_stmt 0 view .LVU693
 2686 0000 806B     		ldr	r0, [r0, #56]
 2687              	.LVL91:
 835:Drivers/STM32F1xx_HAL_Driver/Src/stm32f1xx_hal_dma.c **** 
 2688              		.loc 1 835 1 view .LVU694
 2689 0002 7047     		bx	lr
 2690              		.cfi_endproc
 2691              	.LFE76:
 2693              		.text
 2694              	.Letext0:
 2695              		.file 2 "d:\\software\\gnu arm embedded toolchain\\10 2021.07\\arm-none-eabi\\include\\machine\\_d
 2696              		.file 3 "d:\\software\\gnu arm embedded toolchain\\10 2021.07\\arm-none-eabi\\include\\sys\\_stdin
 2697              		.file 4 "Drivers/CMSIS/Device/ST/STM32F1xx/Include/stm32f103xe.h"
 2698              		.file 5 "Drivers/CMSIS/Device/ST/STM32F1xx/Include/stm32f1xx.h"
 2699              		.file 6 "Drivers/STM32F1xx_HAL_Driver/Inc/stm32f1xx_hal_def.h"
 2700              		.file 7 "Drivers/STM32F1xx_HAL_Driver/Inc/stm32f1xx_hal_dma.h"
 2701              		.file 8 "Drivers/STM32F1xx_HAL_Driver/Inc/stm32f1xx_hal.h"
ARM GAS  C:\Users\30592\AppData\Local\Temp\ccG1iZqh.s 			page 76

